 PhysX3CommonDEBUG_x86

 Timestamp is 5cf4298a (Mon Jun  3 03:54:50 2019)

 Preferred load address is 10000000

 Start         Length     Name                   Class
 0001:00000000 0001e550H .text$di                CODE
 0001:0001e550 0021fb20H .text$mn                CODE
 0001:0023e070 000010e8H .text$x                 CODE
 0002:00000000 00000104H .CRT$XCA                DATA
 0002:00000104 00000d64H .CRT$XCU                DATA
 0002:00000e68 00000104H .CRT$XCZ                DATA
 0002:00000f6c 00000104H .CRT$XIA                DATA
 0002:00001070 00000110H .CRT$XIC                DATA
 0002:00001180 00000104H .CRT$XIZ                DATA
 0002:00001284 00000104H .CRT$XPA                DATA
 0002:00001388 0000010cH .CRT$XPX                DATA
 0002:00001494 00000104H .CRT$XPXA               DATA
 0002:00001598 00000104H .CRT$XPZ                DATA
 0002:0000169c 00000104H .CRT$XTA                DATA
 0002:000017a0 00000110H .CRT$XTZ                DATA
 0002:000018b0 0002c2a0H .rdata                  DATA
 0002:0002db50 00000450H .rdata$r                DATA
 0002:0002dfa0 0000012cH .rdata$sxdata           DATA
 0002:0002e0cc 000001a0H .rdata$zzzdbg           DATA
 0002:0002e26c 00000104H .rtc$IAA                DATA
 0002:0002e370 00000394H .rtc$IMZ                DATA
 0002:0002e704 00000104H .rtc$IZZ                DATA
 0002:0002e808 00000104H .rtc$TAA                DATA
 0002:0002e90c 00000394H .rtc$TMZ                DATA
 0002:0002eca0 00000108H .rtc$TZZ                DATA
 0002:0002eda8 00000e38H .xdata$x                DATA
 0002:0002fbe0 0000c650H .edata                  DATA
 0003:00000000 00000ffcH .data                   DATA
 0003:00000ffc 00000564H .data$r                 DATA
 0003:00001560 00005338H .bss                    DATA
 0004:00000000 000001e0H .idata$5                DATA
 0004:000001e0 00000014H .idata$2                DATA
 0004:000001f4 00000014H .idata$3                DATA
 0004:00000208 000001e0H .idata$4                DATA
 0004:000003e8 00000875H .idata$6                DATA
 0005:00000000 00000020H .didat$2                DATA
 0005:00000020 00000020H .didat$3                DATA
 0005:00000040 00000098H .didat$4                DATA
 0005:000000d8 00000098H .didat$5                DATA
 0005:00000170 000005a4H .didat$6                DATA
 0005:00000714 00000169H .didat$7                DATA
 0006:00000000 00000208H .gfids$x                DATA
 0006:00000208 000001d4H .gfids$y                DATA
 0007:00000000 00000104H .00cfg                  DATA
 0008:00000000 000001c0H .rsrc$01                DATA
 0008:000001c0 000006a9H .rsrc$02                DATA

  Address         Publics by Value              Rva+Base       Lib:Object

 0000:00000000       __except_list              00000000     <absolute>
 0000:00000000       ___dynamic_value_reloc_table 00000000     <absolute>
 0000:00000000       ___guard_fids_count        00000000     <absolute>
 0000:00000000       ___guard_longjmp_table     00000000     <absolute>
 0000:00000000       ___guard_fids_table        00000000     <absolute>
 0000:00000000       ___guard_iat_count         00000000     <absolute>
 0000:00000000       ___guard_iat_table         00000000     <absolute>
 0000:00000000       ___guard_longjmp_count     00000000     <absolute>
 0000:00000009       ___safe_se_handler_count   00000009     <absolute>
 0000:00000100       ___guard_flags             00000100     <absolute>
 0000:00000000       ___ImageBase               10000000     <linker-defined>
 0001:0001e550       _PxSetPhysXCommonDelayLoadHook 1001f550 f   CmWindowsDelayLoadHook.obj
 0001:0001e560       ?delayHook@@YGP6GHXZIPAUDelayLoadInfo@@@Z 1001f560 f   CmWindowsDelayLoadHook.obj
 0001:0001e5e0       ?foundationDliNotePreLoadLibrary@shdfnd@physx@@YGP6GHXZPBDPBVPxFoundationDelayLoadHook@2@@Z 1001f5e0 f i CmWindowsDelayLoadHook.obj
 0001:0001e6f0       ?loadLibrary@Cm@physx@@YGPAUHINSTANCE__@@PBD@Z 1001f6f0 f i CmWindowsDelayLoadHook.obj
 0001:0001e710       ?physXCommonDliNotePreLoadLibrary@Cm@physx@@YGP6GHXZPBDPBVPxDelayLoadHook@2@@Z 1001f710 f i CmWindowsDelayLoadHook.obj
 0001:0001e930       ??0CmModuleUpdateLoader@Cm@physx@@QAE@PBD@Z 1001f930 f   CmWindowsModuleUpdateLoader.obj
 0001:0001e980       ??1CmModuleUpdateLoader@Cm@physx@@QAE@XZ 1001f980 f   CmWindowsModuleUpdateLoader.obj
 0001:0001e9b0       ?LoadModule@CmModuleUpdateLoader@Cm@physx@@QAEPAUHINSTANCE__@@PBD0@Z 1001f9b0 f   CmWindowsModuleUpdateLoader.obj
 0001:0001ea30       ??0Allocator@shdfnd@physx@@QAE@PBD@Z 1001fa30 f i CmWindowsModuleUpdateLoader.obj
 0001:0001ea50       ??0PxFoundation@physx@@QAE@ABV01@@Z 1001fa50 f i CmWindowsModuleUpdateLoader.obj
 0001:0001ea70       ??0PxFoundation@physx@@QAE@XZ 1001fa70 f i CmWindowsModuleUpdateLoader.obj
 0001:0001ea90       ??1PxFoundation@physx@@MAE@XZ 1001fa90 f i CmWindowsModuleUpdateLoader.obj
 0001:0001eab0       ??4Allocator@shdfnd@physx@@QAEAAV012@$$QAV012@@Z 1001fab0 f i CmWindowsModuleUpdateLoader.obj
 0001:0001ead0       ??4Allocator@shdfnd@physx@@QAEAAV012@ABV012@@Z 1001fad0 f i CmWindowsModuleUpdateLoader.obj
 0001:0001eaf0       ??4CmModuleUpdateLoader@Cm@physx@@QAEAAV012@ABV012@@Z 1001faf0 f i CmWindowsModuleUpdateLoader.obj
 0001:0001eb20       ??4MutexImpl@shdfnd@physx@@QAEAAV012@ABV012@@Z 1001fb20 f i CmWindowsModuleUpdateLoader.obj
 0001:0001eb40       ??4PxFoundation@physx@@QAEAAV01@ABV01@@Z 1001fb40 f i CmWindowsModuleUpdateLoader.obj
 0001:0001eb60       ??_EPxFoundation@physx@@MAEPAXI@Z 1001fb60 f i CmWindowsModuleUpdateLoader.obj
 0001:0001ec00       ??_FAllocator@shdfnd@physx@@QAEXXZ 1001fc00 f i CmWindowsModuleUpdateLoader.obj
 0001:0001ec20       ??_FNamedAllocator@shdfnd@physx@@QAEXXZ 1001fc20 f i CmWindowsModuleUpdateLoader.obj
 0001:0001ec40       ??_GPxFoundation@physx@@MAEPAXI@Z 1001fc40 f i CmWindowsModuleUpdateLoader.obj
 0001:0001ec80       ??_I@YGXPAXIIP6EX0@Z@Z     1001fc80 f i CmWindowsModuleUpdateLoader.obj
 0001:0001ecf0       ?__empty_global_delete@@YAXPAX@Z 1001fcf0 f i CmWindowsModuleUpdateLoader.obj
 0001:0001ed00       ?__empty_global_delete@@YAXPAXI@Z 1001fd00 f i CmWindowsModuleUpdateLoader.obj
 0001:0001ed10       ?getAllocator@Foundation@shdfnd@physx@@QAEAAVPxAllocatorCallback@3@XZ 1001fd10 f i CmWindowsModuleUpdateLoader.obj
 0001:0001ed30       ?getAllocatorCallback@Foundation@shdfnd@physx@@UAEAAVPxAllocatorCallback@3@XZ 1001fd30 f i CmWindowsModuleUpdateLoader.obj
 0001:0001ed50       ?getErrorCallback@Foundation@shdfnd@physx@@UAEAAVPxErrorCallback@3@XZ 1001fd50 f i CmWindowsModuleUpdateLoader.obj
 0001:0001ed70       ?getErrorLevel@Foundation@shdfnd@physx@@UBE?AW4Enum@PxErrorCode@3@XZ 1001fd70 f i CmWindowsModuleUpdateLoader.obj
 0001:0001ed90       ?getInternalErrorCallback@Foundation@shdfnd@physx@@QAEAAVPxErrorCallback@3@XZ 1001fd90 f i CmWindowsModuleUpdateLoader.obj
 0001:0001edb0       ?getNamedAllocMap@Foundation@shdfnd@physx@@QAEAAV?$HashMap@PBVNamedAllocator@shdfnd@physx@@PBDU?$Hash@PBVNamedAllocator@shdfnd@physx@@@23@VNonTrackingAllocator@23@@23@XZ 1001fdb0 f i CmWindowsModuleUpdateLoader.obj
 0001:0001edd0       ?getNamedAllocMutex@Foundation@shdfnd@physx@@QAEAAV?$MutexT@VAllocator@shdfnd@physx@@@23@XZ 1001fdd0 f i CmWindowsModuleUpdateLoader.obj
 0001:0001edf0       ?getReportAllocationNames@Foundation@shdfnd@physx@@UBE_NXZ 1001fdf0 f i CmWindowsModuleUpdateLoader.obj
 0001:0001ee10       ?getTempAllocFreeTable@Foundation@shdfnd@physx@@QAEAAV?$Array@PATTempAllocatorChunk@shdfnd@physx@@VAllocator@23@@23@XZ 1001fe10 f i CmWindowsModuleUpdateLoader.obj
 0001:0001ee30       ?getTempAllocMutex@Foundation@shdfnd@physx@@QAEAAV?$MutexT@VAllocator@shdfnd@physx@@@23@XZ 1001fe30 f i CmWindowsModuleUpdateLoader.obj
 0001:0001ee50       ?setErrorLevel@Foundation@shdfnd@physx@@UAEXW4Enum@PxErrorCode@3@@Z 1001fe50 f i CmWindowsModuleUpdateLoader.obj
 0001:0001ee70       ?setReportAllocationNames@Foundation@shdfnd@physx@@UAEX_N@Z 1001fe70 f i CmWindowsModuleUpdateLoader.obj
 0001:0001ee90       ?CompleteBoxPruning@Cm@physx@@YA_NPBVPxBounds3@2@IAAV?$Array@IVNamedAllocator@shdfnd@physx@@@shdfnd@2@ABVAxes@Gu@2@@Z 1001fe90 f   CmBoxPruning.obj
 0001:0001f0e0       ?BipartiteBoxPruning@Cm@physx@@YA_NPBVPxBounds3@2@I0IAAV?$Array@IVNamedAllocator@shdfnd@physx@@@shdfnd@2@ABVAxes@Gu@2@@Z 100200e0 f   CmBoxPruning.obj
 0001:0001f660       ??$PX_UNUSED@I@@YAXABI@Z   10020660 f i CmBoxPruning.obj
 0001:0001f670       ??0NonTrackingAllocator@shdfnd@physx@@QAE@PBD@Z 10020670 f i CmBoxPruning.obj
 0001:0001f690       ??2@YAPAXIPAX@Z            10020690 f i CmBoxPruning.obj
 0001:0001f6a0       ??APxVec3@physx@@QBEABMI@Z 100206a0 f i CmBoxPruning.obj
 0001:0001f710       ?GetNbHits@RadixSort@Cm@physx@@QBEIXZ 10020710 f i CmBoxPruning.obj
 0001:0001f730       ?GetNbTotalCalls@RadixSort@Cm@physx@@QBEIXZ 10020730 f i CmBoxPruning.obj
 0001:0001f750       ?GetRanks@RadixSort@Cm@physx@@QBEPBIXZ 10020750 f i CmBoxPruning.obj
 0001:0001f770       ?GetRecyclable@RadixSort@Cm@physx@@QBEPAIXZ 10020770 f i CmBoxPruning.obj
 0001:0001f790       ?PxIsFinite@physx@@YA_NM@Z 10020790 f i CmBoxPruning.obj
 0001:0001f7b0       ?allocate@?$Array@IVNamedAllocator@shdfnd@physx@@@shdfnd@physx@@IAEPAII@Z 100207b0 f i CmBoxPruning.obj
 0001:0001f830       ?capacity@?$Array@IVNamedAllocator@shdfnd@physx@@@shdfnd@physx@@QBEIXZ 10020830 f i CmBoxPruning.obj
 0001:0001f850       ?capacityIncrement@?$Array@IVNamedAllocator@shdfnd@physx@@@shdfnd@physx@@IBEIXZ 10020850 f i CmBoxPruning.obj
 0001:0001f890       ?clear@?$Array@IVNamedAllocator@shdfnd@physx@@@shdfnd@physx@@QAEXXZ 10020890 f i CmBoxPruning.obj
 0001:0001f8d0       ?copy@?$Array@IVNamedAllocator@shdfnd@physx@@@shdfnd@physx@@KAXPAI0PBI@Z 100208d0 f i CmBoxPruning.obj
 0001:0001f980       ?deallocate@?$Array@IVNamedAllocator@shdfnd@physx@@@shdfnd@physx@@IAEXPAX@Z 10020980 f i CmBoxPruning.obj
 0001:0001f9a0       ?deallocate@NonTrackingAllocator@shdfnd@physx@@QAEXPAX@Z 100209a0 f i CmBoxPruning.obj
 0001:0001f9e0       ?destroy@?$Array@IVNamedAllocator@shdfnd@physx@@@shdfnd@physx@@KAXPAI0@Z 100209e0 f i CmBoxPruning.obj
 0001:0001fa10       ?growAndPushBack@?$Array@IVNamedAllocator@shdfnd@physx@@@shdfnd@physx@@IAEAAIABI@Z 10020a10 f i CmBoxPruning.obj
 0001:0001fba0       ?intersects@PxBounds3@physx@@QBE_NABV12@@Z 10020ba0 f i CmBoxPruning.obj
 0001:0001fcb0       ?isArrayOfPOD@?$Array@IVNamedAllocator@shdfnd@physx@@@shdfnd@physx@@SA_NXZ 10020cb0 f i CmBoxPruning.obj
 0001:0001fcc0       ?isFinite@PxBounds3@physx@@QBE_NXZ 10020cc0 f i CmBoxPruning.obj
 0001:0001fd20       ?isFinite@PxVec3@physx@@QBE_NXZ 10020d20 f i CmBoxPruning.obj
 0001:0001fdc0       ?isFinite@intrinsics@physx@@YA_NM@Z 10020dc0 f i CmBoxPruning.obj
 0001:0001fe10       ?isInUserMemory@?$Array@IVNamedAllocator@shdfnd@physx@@@shdfnd@physx@@QBEIXZ 10020e10 f i CmBoxPruning.obj
 0001:0001fe30       ?isValid@PxBounds3@physx@@QBE_NXZ 10020e30 f i CmBoxPruning.obj
 0001:0001ff50       ?memCopy@intrinsics@physx@@YAPAXPIAXPIBXI@Z 10020f50 f i CmBoxPruning.obj
 0001:0001ff70       ?pushBack@?$Array@IVNamedAllocator@shdfnd@physx@@@shdfnd@physx@@QAEAAIABI@Z 10020f70 f i CmBoxPruning.obj
 0001:00020020       ?PxCreateCollection@@YAPAVPxCollection@physx@@XZ 10021020 f   CmCollection.obj
 0001:00020070       ?add@Collection@Cm@physx@@UAEXAAVPxBase@3@_K@Z 10021070 f   CmCollection.obj
 0001:00020130       ?remove@Collection@Cm@physx@@UAEXAAVPxBase@3@@Z 10021130 f   CmCollection.obj
 0001:000201e0       ?contains@Collection@Cm@physx@@UBE_NAAVPxBase@3@@Z 100211e0 f   CmCollection.obj
 0001:00020220       ?addId@Collection@Cm@physx@@UAEXAAVPxBase@3@_K@Z 10021220 f   CmCollection.obj
 0001:00020370       ?removeId@Collection@Cm@physx@@UAEX_K@Z 10021370 f   CmCollection.obj
 0001:00020440       ?find@Collection@Cm@physx@@UBEPAVPxBase@3@_K@Z 10021440 f   CmCollection.obj
 0001:000204b0       ?add@Collection@Cm@physx@@UAEXAAVPxCollection@3@@Z 100214b0 f   CmCollection.obj
 0001:00020640       ?remove@Collection@Cm@physx@@UAEXAAVPxCollection@3@@Z 10021640 f   CmCollection.obj
 0001:00020700       ?getNbObjects@Collection@Cm@physx@@UBEIXZ 10021700 f   CmCollection.obj
 0001:00020720       ?getObject@Collection@Cm@physx@@UBEAAVPxBase@3@I@Z 10021720 f   CmCollection.obj
 0001:00020790       ?getObjects@Collection@Cm@physx@@UBEIPAPAVPxBase@3@II@Z 10021790 f   CmCollection.obj
 0001:00020870       ?getNbIds@Collection@Cm@physx@@UBEIXZ 10021870 f   CmCollection.obj
 0001:00020890       ?getId@Collection@Cm@physx@@UBE_KABVPxBase@3@@Z 10021890 f   CmCollection.obj
 0001:000208e0       ?getIds@Collection@Cm@physx@@UBEIPA_KII@Z 100218e0 f   CmCollection.obj
 0001:00020c60       ??$?2V?$ReflectionAllocator@VCollection@Cm@physx@@@shdfnd@physx@@@UserAllocated@shdfnd@physx@@SAPAXIV?$ReflectionAllocator@VCollection@Cm@physx@@@12@PBDH@Z 10021c60 f i CmCollection.obj
 0001:00020c80       ??0?$CoalescedHashMap@PAVPxBase@physx@@_KU?$Hash@PAVPxBase@physx@@@shdfnd@2@VNonTrackingAllocator@42@@shdfnd@physx@@QAE@IM@Z 10021c80 f i CmCollection.obj
 0001:00020cb0       ??0?$CoalescedHashMap@_KPAVPxBase@physx@@U?$Hash@_K@shdfnd@2@VNonTrackingAllocator@42@@shdfnd@physx@@QAE@IM@Z 10021cb0 f i CmCollection.obj
 0001:00020ce0       ??0?$CollectionHashMap@PAVPxBase@physx@@_KU?$Hash@PAVPxBase@physx@@@shdfnd@2@VNonTrackingAllocator@42@@Cm@physx@@QAE@IM@Z 10021ce0 f i CmCollection.obj
 0001:00020d10       ??0?$CollectionHashMap@_KPAVPxBase@physx@@U?$Hash@_K@shdfnd@2@VNonTrackingAllocator@42@@Cm@physx@@QAE@IM@Z 10021d10 f i CmCollection.obj
 0001:00020d40       ??0?$HashBase@V?$Pair@$$CB_KPAVPxBase@physx@@@shdfnd@physx@@_KU?$Hash@_K@23@UGetKey@?$HashMapBase@_KPAVPxBase@physx@@U?$Hash@_K@shdfnd@2@VNonTrackingAllocator@42@@internal@23@VNonTrackingAllocator@23@$00@internal@shdfnd@physx@@QAE@IM@Z 10021d40 f i CmCollection.obj
 0001:00020d90       ??0?$HashBase@V?$Pair@QAVPxBase@physx@@_K@shdfnd@physx@@PAVPxBase@3@U?$Hash@PAVPxBase@physx@@@23@UGetKey@?$HashMapBase@PAVPxBase@physx@@_KU?$Hash@PAVPxBase@physx@@@shdfnd@2@VNonTrackingAllocator@42@@internal@23@VNonTrackingAllocator@23@$00@internal@shdfnd@physx@@QAE@IM@Z 10021d90 f i CmCollection.obj
 0001:00020de0       ??0?$HashMapBase@PAVPxBase@physx@@_KU?$Hash@PAVPxBase@physx@@@shdfnd@2@VNonTrackingAllocator@42@@internal@shdfnd@physx@@QAE@IM@Z 10021de0 f i CmCollection.obj
 0001:00020e10       ??0?$HashMapBase@_KPAVPxBase@physx@@U?$Hash@_K@shdfnd@2@VNonTrackingAllocator@42@@internal@shdfnd@physx@@QAE@IM@Z 10021e10 f i CmCollection.obj
 0001:00020e40       ??0?$Pair@$$CB_KPAVPxBase@physx@@@shdfnd@physx@@QAE@ABV012@@Z 10021e40 f i CmCollection.obj
 0001:00020e80       ??0?$Pair@$$CB_KPAVPxBase@physx@@@shdfnd@physx@@QAE@AB_KABQAVPxBase@2@@Z 10021e80 f i CmCollection.obj
 0001:00020ec0       ??0?$Pair@QAVPxBase@physx@@_K@shdfnd@physx@@QAE@ABQAVPxBase@2@AB_K@Z 10021ec0 f i CmCollection.obj
 0001:00020f00       ??0?$Pair@QAVPxBase@physx@@_K@shdfnd@physx@@QAE@ABV012@@Z 10021f00 f i CmCollection.obj
 0001:00020f40       ??0?$ReflectionAllocator@VCollection@Cm@physx@@@shdfnd@physx@@QAE@PBD@Z 10021f40 f i CmCollection.obj
 0001:00020f60       ??0Collection@Cm@physx@@QAE@XZ 10021f60 f i CmCollection.obj
 0001:00020fd0       ??0Iter@?$HashBase@V?$Pair@$$CB_KPAVPxBase@physx@@@shdfnd@physx@@_KU?$Hash@_K@23@UGetKey@?$HashMapBase@_KPAVPxBase@physx@@U?$Hash@_K@shdfnd@2@VNonTrackingAllocator@42@@internal@23@VNonTrackingAllocator@23@$00@internal@shdfnd@physx@@QAE@AAV1234@@Z 10021fd0 f i CmCollection.obj
 0001:00021050       ??0PxCollection@physx@@IAE@XZ 10022050 f i CmCollection.obj
 0001:00021070       ??1?$CoalescedHashMap@PAVPxBase@physx@@_KU?$Hash@PAVPxBase@physx@@@shdfnd@2@VNonTrackingAllocator@42@@shdfnd@physx@@QAE@XZ 10022070 f i CmCollection.obj
 0001:00021090       ??1?$CoalescedHashMap@_KPAVPxBase@physx@@U?$Hash@_K@shdfnd@2@VNonTrackingAllocator@42@@shdfnd@physx@@QAE@XZ 10022090 f i CmCollection.obj
 0001:000210b0       ??1?$CollectionHashMap@PAVPxBase@physx@@_KU?$Hash@PAVPxBase@physx@@@shdfnd@2@VNonTrackingAllocator@42@@Cm@physx@@QAE@XZ 100220b0 f i CmCollection.obj
 0001:000210d0       ??1?$CollectionHashMap@_KPAVPxBase@physx@@U?$Hash@_K@shdfnd@2@VNonTrackingAllocator@42@@Cm@physx@@QAE@XZ 100220d0 f i CmCollection.obj
 0001:000210f0       ??1?$HashBase@V?$Pair@$$CB_KPAVPxBase@physx@@@shdfnd@physx@@_KU?$Hash@_K@23@UGetKey@?$HashMapBase@_KPAVPxBase@physx@@U?$Hash@_K@shdfnd@2@VNonTrackingAllocator@42@@internal@23@VNonTrackingAllocator@23@$00@internal@shdfnd@physx@@QAE@XZ 100220f0 f i CmCollection.obj
 0001:00021130       ??1?$HashBase@V?$Pair@QAVPxBase@physx@@_K@shdfnd@physx@@PAVPxBase@3@U?$Hash@PAVPxBase@physx@@@23@UGetKey@?$HashMapBase@PAVPxBase@physx@@_KU?$Hash@PAVPxBase@physx@@@shdfnd@2@VNonTrackingAllocator@42@@internal@23@VNonTrackingAllocator@23@$00@internal@shdfnd@physx@@QAE@XZ 10022130 f i CmCollection.obj
 0001:00021170       ??1?$HashMapBase@PAVPxBase@physx@@_KU?$Hash@PAVPxBase@physx@@@shdfnd@2@VNonTrackingAllocator@42@@internal@shdfnd@physx@@QAE@XZ 10022170 f i CmCollection.obj
 0001:00021190       ??1?$HashMapBase@_KPAVPxBase@physx@@U?$Hash@_K@shdfnd@2@VNonTrackingAllocator@42@@internal@shdfnd@physx@@QAE@XZ 10022190 f i CmCollection.obj
 0001:000211b0       ??1Collection@Cm@physx@@UAE@XZ 100221b0 f i CmCollection.obj
 0001:000211f0       ??1PxCollection@physx@@MAE@XZ 100221f0 f i CmCollection.obj
 0001:00021210       ??3UserAllocated@shdfnd@physx@@SAXPAX@Z 10022210 f i CmCollection.obj
 0001:00021240       ??A?$HashMapBase@PAVPxBase@physx@@_KU?$Hash@PAVPxBase@physx@@@shdfnd@2@VNonTrackingAllocator@42@@internal@shdfnd@physx@@QAEAA_KABQAVPxBase@3@@Z 10022240 f i CmCollection.obj
 0001:000212d0       ??A?$HashMapBase@_KPAVPxBase@physx@@U?$Hash@_K@shdfnd@2@VNonTrackingAllocator@42@@internal@shdfnd@physx@@QAEAAPAVPxBase@3@AB_K@Z 100222d0 f i CmCollection.obj
 0001:00021360       ??CIter@?$HashBase@V?$Pair@$$CB_KPAVPxBase@physx@@@shdfnd@physx@@_KU?$Hash@_K@23@UGetKey@?$HashMapBase@_KPAVPxBase@physx@@U?$Hash@_K@shdfnd@2@VNonTrackingAllocator@42@@internal@23@VNonTrackingAllocator@23@$00@internal@shdfnd@physx@@QAEPAV?$Pair@$$CB_KPAVPxBase@physx@@@34@XZ 10022360 f i CmCollection.obj
 0001:00021390       ??EIter@?$HashBase@V?$Pair@$$CB_KPAVPxBase@physx@@@shdfnd@physx@@_KU?$Hash@_K@23@UGetKey@?$HashMapBase@_KPAVPxBase@physx@@U?$Hash@_K@shdfnd@2@VNonTrackingAllocator@42@@internal@23@VNonTrackingAllocator@23@$00@internal@shdfnd@physx@@QAE?AV01234@H@Z 10022390 f i CmCollection.obj
 0001:00021400       ??R?$Hash@PAVPxBase@physx@@@shdfnd@physx@@QBEIABQAVPxBase@2@@Z 10022400 f i CmCollection.obj
 0001:00021430       ??R?$Hash@_K@shdfnd@physx@@QBEIAB_K@Z 10022430 f i CmCollection.obj
 0001:00021460       ??RGetKey@?$HashMapBase@PAVPxBase@physx@@_KU?$Hash@PAVPxBase@physx@@@shdfnd@2@VNonTrackingAllocator@42@@internal@shdfnd@physx@@QAEABQAVPxBase@4@ABV?$Pair@QAVPxBase@physx@@_K@34@@Z 10022460 f i CmCollection.obj
 0001:00021480       ??RGetKey@?$HashMapBase@_KPAVPxBase@physx@@U?$Hash@_K@shdfnd@2@VNonTrackingAllocator@42@@internal@shdfnd@physx@@QAEAB_KABV?$Pair@$$CB_KPAVPxBase@physx@@@34@@Z 10022480 f i CmCollection.obj
 0001:000214a0       ??_ECollection@Cm@physx@@UAEPAXI@Z 100224a0 f i CmCollection.obj
 0001:000214a0       ??_GCollection@Cm@physx@@UAEPAXI@Z 100224a0 f i CmCollection.obj
 0001:00021500       ??_GPxCollection@physx@@MAEPAXI@Z 10022500 f i CmCollection.obj
 0001:00021500       ??_EPxCollection@physx@@MAEPAXI@Z 10022500 f i CmCollection.obj
 0001:00021540       ?advance@Iter@?$HashBase@V?$Pair@$$CB_KPAVPxBase@physx@@@shdfnd@physx@@_KU?$Hash@_K@23@UGetKey@?$HashMapBase@_KPAVPxBase@physx@@U?$Hash@_K@shdfnd@2@VNonTrackingAllocator@42@@internal@23@VNonTrackingAllocator@23@$00@internal@shdfnd@physx@@AAEXXZ 10022540 f i CmCollection.obj
 0001:00021580       ?allocate@?$ReflectionAllocator@VCollection@Cm@physx@@@shdfnd@physx@@QAEPAXIPBDH@Z 10022580 f i CmCollection.obj
 0001:000215e0       ?allocate@NonTrackingAllocator@shdfnd@physx@@QAEPAXIPBDH@Z 100225e0 f i CmCollection.obj
 0001:00021640       ?capacity@?$HashBase@V?$Pair@QAVPxBase@physx@@_K@shdfnd@physx@@PAVPxBase@3@U?$Hash@PAVPxBase@physx@@@23@UGetKey@?$HashMapBase@PAVPxBase@physx@@_KU?$Hash@PAVPxBase@physx@@@shdfnd@2@VNonTrackingAllocator@42@@internal@23@VNonTrackingAllocator@23@$00@internal@shdfnd@physx@@QBEIXZ 10022640 f i CmCollection.obj
 0001:00021660       ?capacity@?$HashMapBase@PAVPxBase@physx@@_KU?$Hash@PAVPxBase@physx@@@shdfnd@2@VNonTrackingAllocator@42@@internal@shdfnd@physx@@QBEIXZ 10022660 f i CmCollection.obj
 0001:00021680       ?check@Iter@?$HashBase@V?$Pair@$$CB_KPAVPxBase@physx@@@shdfnd@physx@@_KU?$Hash@_K@23@UGetKey@?$HashMapBase@_KPAVPxBase@physx@@U?$Hash@_K@shdfnd@2@VNonTrackingAllocator@42@@internal@23@VNonTrackingAllocator@23@$00@internal@shdfnd@physx@@QBEXXZ 10022680 f i CmCollection.obj
 0001:000216f0       ?create@?$HashBase@V?$Pair@$$CB_KPAVPxBase@physx@@@shdfnd@physx@@_KU?$Hash@_K@23@UGetKey@?$HashMapBase@_KPAVPxBase@physx@@U?$Hash@_K@shdfnd@2@VNonTrackingAllocator@42@@internal@23@VNonTrackingAllocator@23@$00@internal@shdfnd@physx@@QAEPAV?$Pair@$$CB_KPAVPxBase@physx@@@34@AB_KAA_N@Z 100226f0 f i CmCollection.obj
 0001:00021890       ?create@?$HashBase@V?$Pair@QAVPxBase@physx@@_K@shdfnd@physx@@PAVPxBase@3@U?$Hash@PAVPxBase@physx@@@23@UGetKey@?$HashMapBase@PAVPxBase@physx@@_KU?$Hash@PAVPxBase@physx@@@shdfnd@2@VNonTrackingAllocator@42@@internal@23@VNonTrackingAllocator@23@$00@internal@shdfnd@physx@@QAEPAV?$Pair@QAVPxBase@physx@@_K@34@ABQAVPxBase@4@AA_N@Z 10022890 f i CmCollection.obj
 0001:00021a30       ?destroy@?$HashBase@V?$Pair@$$CB_KPAVPxBase@physx@@@shdfnd@physx@@_KU?$Hash@_K@23@UGetKey@?$HashMapBase@_KPAVPxBase@physx@@U?$Hash@_K@shdfnd@2@VNonTrackingAllocator@42@@internal@23@VNonTrackingAllocator@23@$00@internal@shdfnd@physx@@AAEXXZ 10022a30 f i CmCollection.obj
 0001:00021aa0       ?destroy@?$HashBase@V?$Pair@QAVPxBase@physx@@_K@shdfnd@physx@@PAVPxBase@3@U?$Hash@PAVPxBase@physx@@@23@UGetKey@?$HashMapBase@PAVPxBase@physx@@_KU?$Hash@PAVPxBase@physx@@@shdfnd@2@VNonTrackingAllocator@42@@internal@23@VNonTrackingAllocator@23@$00@internal@shdfnd@physx@@AAEXXZ 10022aa0 f i CmCollection.obj
 0001:00021b10       ?done@Iter@?$HashBase@V?$Pair@$$CB_KPAVPxBase@physx@@@shdfnd@physx@@_KU?$Hash@_K@23@UGetKey@?$HashMapBase@_KPAVPxBase@physx@@U?$Hash@_K@shdfnd@2@VNonTrackingAllocator@42@@internal@23@VNonTrackingAllocator@23@$00@internal@shdfnd@physx@@QBE_NXZ 10022b10 f i CmCollection.obj
 0001:00021b50       ?equal@?$Hash@PAVPxBase@physx@@@shdfnd@physx@@QBE_NABQAVPxBase@3@0@Z 10022b50 f i CmCollection.obj
 0001:00021b90       ?equal@?$Hash@_K@shdfnd@physx@@QBE_NAB_K0@Z 10022b90 f i CmCollection.obj
 0001:00021bf0       ?erase@?$HashBase@V?$Pair@$$CB_KPAVPxBase@physx@@@shdfnd@physx@@_KU?$Hash@_K@23@UGetKey@?$HashMapBase@_KPAVPxBase@physx@@U?$Hash@_K@shdfnd@2@VNonTrackingAllocator@42@@internal@23@VNonTrackingAllocator@23@$00@internal@shdfnd@physx@@QAE_NAB_K@Z 10022bf0 f i CmCollection.obj
 0001:00021cb0       ?erase@?$HashBase@V?$Pair@QAVPxBase@physx@@_K@shdfnd@physx@@PAVPxBase@3@U?$Hash@PAVPxBase@physx@@@23@UGetKey@?$HashMapBase@PAVPxBase@physx@@_KU?$Hash@PAVPxBase@physx@@@shdfnd@2@VNonTrackingAllocator@42@@internal@23@VNonTrackingAllocator@23@$00@internal@shdfnd@physx@@QAE_NABQAVPxBase@4@@Z 10022cb0 f i CmCollection.obj
 0001:00021d70       ?erase@?$HashMapBase@PAVPxBase@physx@@_KU?$Hash@PAVPxBase@physx@@@shdfnd@2@VNonTrackingAllocator@42@@internal@shdfnd@physx@@QAE_NABQAVPxBase@4@@Z 10022d70 f i CmCollection.obj
 0001:00021d90       ?erase@?$HashMapBase@_KPAVPxBase@physx@@U?$Hash@_K@shdfnd@2@VNonTrackingAllocator@42@@internal@shdfnd@physx@@QAE_NAB_K@Z 10022d90 f i CmCollection.obj
 0001:00021db0       ?eraseInternal@?$HashBase@V?$Pair@$$CB_KPAVPxBase@physx@@@shdfnd@physx@@_KU?$Hash@_K@23@UGetKey@?$HashMapBase@_KPAVPxBase@physx@@U?$Hash@_K@shdfnd@2@VNonTrackingAllocator@42@@internal@23@VNonTrackingAllocator@23@$00@internal@shdfnd@physx@@AAE_NPAI@Z 10022db0 f i CmCollection.obj
 0001:00021e50       ?eraseInternal@?$HashBase@V?$Pair@QAVPxBase@physx@@_K@shdfnd@physx@@PAVPxBase@3@U?$Hash@PAVPxBase@physx@@@23@UGetKey@?$HashMapBase@PAVPxBase@physx@@_KU?$Hash@PAVPxBase@physx@@@shdfnd@2@VNonTrackingAllocator@42@@internal@23@VNonTrackingAllocator@23@$00@internal@shdfnd@physx@@AAE_NPAI@Z 10022e50 f i CmCollection.obj
 0001:00021ef0       ?find@?$HashBase@V?$Pair@$$CB_KPAVPxBase@physx@@@shdfnd@physx@@_KU?$Hash@_K@23@UGetKey@?$HashMapBase@_KPAVPxBase@physx@@U?$Hash@_K@shdfnd@2@VNonTrackingAllocator@42@@internal@23@VNonTrackingAllocator@23@$00@internal@shdfnd@physx@@QBEPBV?$Pair@$$CB_KPAVPxBase@physx@@@34@AB_K@Z 10022ef0 f i CmCollection.obj
 0001:00021fc0       ?find@?$HashBase@V?$Pair@QAVPxBase@physx@@_K@shdfnd@physx@@PAVPxBase@3@U?$Hash@PAVPxBase@physx@@@23@UGetKey@?$HashMapBase@PAVPxBase@physx@@_KU?$Hash@PAVPxBase@physx@@@shdfnd@2@VNonTrackingAllocator@42@@internal@23@VNonTrackingAllocator@23@$00@internal@shdfnd@physx@@QBEPBV?$Pair@QAVPxBase@physx@@_K@34@ABQAVPxBase@4@@Z 10022fc0 f i CmCollection.obj
 0001:00022090       ?find@?$HashMapBase@PAVPxBase@physx@@_KU?$Hash@PAVPxBase@physx@@@shdfnd@2@VNonTrackingAllocator@42@@internal@shdfnd@physx@@QBEPBV?$Pair@QAVPxBase@physx@@_K@34@ABQAVPxBase@4@@Z 10023090 f i CmCollection.obj
 0001:000220b0       ?find@?$HashMapBase@_KPAVPxBase@physx@@U?$Hash@_K@shdfnd@2@VNonTrackingAllocator@42@@internal@shdfnd@physx@@QBEPBV?$Pair@$$CB_KPAVPxBase@physx@@@34@AB_K@Z 100230b0 f i CmCollection.obj
 0001:000220d0       ?freeListAdd@?$HashBase@V?$Pair@$$CB_KPAVPxBase@physx@@@shdfnd@physx@@_KU?$Hash@_K@23@UGetKey@?$HashMapBase@_KPAVPxBase@physx@@U?$Hash@_K@shdfnd@2@VNonTrackingAllocator@42@@internal@23@VNonTrackingAllocator@23@$00@internal@shdfnd@physx@@AAEXI@Z 100230d0 f i CmCollection.obj
 0001:00022180       ?freeListAdd@?$HashBase@V?$Pair@$$CB_KPAVPxBase@physx@@@shdfnd@physx@@_KU?$Hash@_K@23@UGetKey@?$HashMapBase@_KPAVPxBase@physx@@U?$Hash@_K@shdfnd@2@VNonTrackingAllocator@42@@internal@23@VNonTrackingAllocator@23@$00@internal@shdfnd@physx@@AAEXII@Z 10023180 f i CmCollection.obj
 0001:00022270       ?freeListAdd@?$HashBase@V?$Pair@QAVPxBase@physx@@_K@shdfnd@physx@@PAVPxBase@3@U?$Hash@PAVPxBase@physx@@@23@UGetKey@?$HashMapBase@PAVPxBase@physx@@_KU?$Hash@PAVPxBase@physx@@@shdfnd@2@VNonTrackingAllocator@42@@internal@23@VNonTrackingAllocator@23@$00@internal@shdfnd@physx@@AAEXI@Z 10023270 f i CmCollection.obj
 0001:00022320       ?freeListAdd@?$HashBase@V?$Pair@QAVPxBase@physx@@_K@shdfnd@physx@@PAVPxBase@3@U?$Hash@PAVPxBase@physx@@@23@UGetKey@?$HashMapBase@PAVPxBase@physx@@_KU?$Hash@PAVPxBase@physx@@@shdfnd@2@VNonTrackingAllocator@42@@internal@23@VNonTrackingAllocator@23@$00@internal@shdfnd@physx@@AAEXII@Z 10023320 f i CmCollection.obj
 0001:00022410       ?freeListEmpty@?$HashBase@V?$Pair@$$CB_KPAVPxBase@physx@@@shdfnd@physx@@_KU?$Hash@_K@23@UGetKey@?$HashMapBase@_KPAVPxBase@physx@@U?$Hash@_K@shdfnd@2@VNonTrackingAllocator@42@@internal@23@VNonTrackingAllocator@23@$00@internal@shdfnd@physx@@ABE_NXZ 10023410 f i CmCollection.obj
 0001:00022480       ?freeListEmpty@?$HashBase@V?$Pair@QAVPxBase@physx@@_K@shdfnd@physx@@PAVPxBase@3@U?$Hash@PAVPxBase@physx@@@23@UGetKey@?$HashMapBase@PAVPxBase@physx@@_KU?$Hash@PAVPxBase@physx@@@shdfnd@2@VNonTrackingAllocator@42@@internal@23@VNonTrackingAllocator@23@$00@internal@shdfnd@physx@@ABE_NXZ 10023480 f i CmCollection.obj
 0001:000224f0       ?freeListGetNext@?$HashBase@V?$Pair@$$CB_KPAVPxBase@physx@@@shdfnd@physx@@_KU?$Hash@_K@23@UGetKey@?$HashMapBase@_KPAVPxBase@physx@@U?$Hash@_K@shdfnd@2@VNonTrackingAllocator@42@@internal@23@VNonTrackingAllocator@23@$00@internal@shdfnd@physx@@AAEIXZ 100234f0 f i CmCollection.obj
 0001:00022610       ?freeListGetNext@?$HashBase@V?$Pair@QAVPxBase@physx@@_K@shdfnd@physx@@PAVPxBase@3@U?$Hash@PAVPxBase@physx@@@23@UGetKey@?$HashMapBase@PAVPxBase@physx@@_KU?$Hash@PAVPxBase@physx@@@shdfnd@2@VNonTrackingAllocator@42@@internal@23@VNonTrackingAllocator@23@$00@internal@shdfnd@physx@@AAEIXZ 10023610 f i CmCollection.obj
 0001:00022730       ?getEntries@?$CoalescedHashMap@PAVPxBase@physx@@_KU?$Hash@PAVPxBase@physx@@@shdfnd@2@VNonTrackingAllocator@42@@shdfnd@physx@@QBEPBV?$Pair@QAVPxBase@physx@@_K@23@XZ 10023730 f i CmCollection.obj
 0001:00022750       ?getEntries@?$HashBase@V?$Pair@QAVPxBase@physx@@_K@shdfnd@physx@@PAVPxBase@3@U?$Hash@PAVPxBase@physx@@@23@UGetKey@?$HashMapBase@PAVPxBase@physx@@_KU?$Hash@PAVPxBase@physx@@@shdfnd@2@VNonTrackingAllocator@42@@internal@23@VNonTrackingAllocator@23@$00@internal@shdfnd@physx@@QBEPBV?$Pair@QAVPxBase@physx@@_K@34@XZ 10023750 f i CmCollection.obj
 0001:00022770       ?getFoundation@shdfnd@physx@@YAAAVFoundation@12@XZ 10023770 f i CmCollection.obj
 0001:00022780       ?getIterator@?$HashMapBase@_KPAVPxBase@physx@@U?$Hash@_K@shdfnd@2@VNonTrackingAllocator@42@@internal@shdfnd@physx@@QAE?AVIter@?$HashBase@V?$Pair@$$CB_KPAVPxBase@physx@@@shdfnd@physx@@_KU?$Hash@_K@23@UGetKey@?$HashMapBase@_KPAVPxBase@physx@@U?$Hash@_K@shdfnd@2@VNonTrackingAllocator@42@@internal@23@VNonTrackingAllocator@23@$00@234@XZ 10023780 f i CmCollection.obj
 0001:000227b0       ?getName@?$ReflectionAllocator@VCollection@Cm@physx@@@shdfnd@physx@@CAPBDXZ 100237b0 f i CmCollection.obj
 0001:00022800       ?grow@?$HashBase@V?$Pair@$$CB_KPAVPxBase@physx@@@shdfnd@physx@@_KU?$Hash@_K@23@UGetKey@?$HashMapBase@_KPAVPxBase@physx@@U?$Hash@_K@shdfnd@2@VNonTrackingAllocator@42@@internal@23@VNonTrackingAllocator@23@$00@internal@shdfnd@physx@@AAEXXZ 10023800 f i CmCollection.obj
 0001:000228c0       ?grow@?$HashBase@V?$Pair@QAVPxBase@physx@@_K@shdfnd@physx@@PAVPxBase@3@U?$Hash@PAVPxBase@physx@@@23@UGetKey@?$HashMapBase@PAVPxBase@physx@@_KU?$Hash@PAVPxBase@physx@@@shdfnd@2@VNonTrackingAllocator@42@@internal@23@VNonTrackingAllocator@23@$00@internal@shdfnd@physx@@AAEXXZ 100238c0 f i CmCollection.obj
 0001:00022980       ?hash@?$HashBase@V?$Pair@$$CB_KPAVPxBase@physx@@@shdfnd@physx@@_KU?$Hash@_K@23@UGetKey@?$HashMapBase@_KPAVPxBase@physx@@U?$Hash@_K@shdfnd@2@VNonTrackingAllocator@42@@internal@23@VNonTrackingAllocator@23@$00@internal@shdfnd@physx@@ABEIAB_K@Z 10023980 f i CmCollection.obj
 0001:000229b0       ?hash@?$HashBase@V?$Pair@$$CB_KPAVPxBase@physx@@@shdfnd@physx@@_KU?$Hash@_K@23@UGetKey@?$HashMapBase@_KPAVPxBase@physx@@U?$Hash@_K@shdfnd@2@VNonTrackingAllocator@42@@internal@23@VNonTrackingAllocator@23@$00@internal@shdfnd@physx@@ABEIAB_KI@Z 100239b0 f i CmCollection.obj
 0001:000229e0       ?hash@?$HashBase@V?$Pair@QAVPxBase@physx@@_K@shdfnd@physx@@PAVPxBase@3@U?$Hash@PAVPxBase@physx@@@23@UGetKey@?$HashMapBase@PAVPxBase@physx@@_KU?$Hash@PAVPxBase@physx@@@shdfnd@2@VNonTrackingAllocator@42@@internal@23@VNonTrackingAllocator@23@$00@internal@shdfnd@physx@@ABEIABQAVPxBase@4@@Z 100239e0 f i CmCollection.obj
 0001:00022a10       ?hash@?$HashBase@V?$Pair@QAVPxBase@physx@@_K@shdfnd@physx@@PAVPxBase@3@U?$Hash@PAVPxBase@physx@@@23@UGetKey@?$HashMapBase@PAVPxBase@physx@@_KU?$Hash@PAVPxBase@physx@@@shdfnd@2@VNonTrackingAllocator@42@@internal@23@VNonTrackingAllocator@23@$00@internal@shdfnd@physx@@ABEIABQAVPxBase@4@I@Z 10023a10 f i CmCollection.obj
 0001:00022a40       ?hash@shdfnd@physx@@YAII@Z 10023a40 f i CmCollection.obj
 0001:00022ac0       ?hash@shdfnd@physx@@YAIPBX@Z 10023ac0 f i CmCollection.obj
 0001:00022ae0       ?hash@shdfnd@physx@@YAI_K@Z 10023ae0 f i CmCollection.obj
 0001:00022c10       ?init@?$HashBase@V?$Pair@$$CB_KPAVPxBase@physx@@@shdfnd@physx@@_KU?$Hash@_K@23@UGetKey@?$HashMapBase@_KPAVPxBase@physx@@U?$Hash@_K@shdfnd@2@VNonTrackingAllocator@42@@internal@23@VNonTrackingAllocator@23@$00@internal@shdfnd@physx@@AAEXIM@Z 10023c10 f i CmCollection.obj
 0001:00022cc0       ?init@?$HashBase@V?$Pair@QAVPxBase@physx@@_K@shdfnd@physx@@PAVPxBase@3@U?$Hash@PAVPxBase@physx@@@23@UGetKey@?$HashMapBase@PAVPxBase@physx@@_KU?$Hash@PAVPxBase@physx@@@shdfnd@2@VNonTrackingAllocator@42@@internal@23@VNonTrackingAllocator@23@$00@internal@shdfnd@physx@@AAEXIM@Z 10023cc0 f i CmCollection.obj
 0001:00022d70       ?insert@?$HashMapBase@PAVPxBase@physx@@_KU?$Hash@PAVPxBase@physx@@@shdfnd@2@VNonTrackingAllocator@42@@internal@shdfnd@physx@@QAE_NQAVPxBase@4@_K@Z 10023d70 f i CmCollection.obj
 0001:00022e10       ?insert@?$HashMapBase@_KPAVPxBase@physx@@U?$Hash@_K@shdfnd@2@VNonTrackingAllocator@42@@internal@shdfnd@physx@@QAE_N_KQAVPxBase@4@@Z 10023e10 f i CmCollection.obj
 0001:00022eb0       ?isPowerOfTwo@shdfnd@physx@@YA_NI@Z 10023eb0 f i CmCollection.obj
 0001:00022ef0       ?memSet@intrinsics@physx@@YAPAXPAXHI@Z 10023ef0 f i CmCollection.obj
 0001:00022f10       ?name@type_info@@QBEPBDXZ  10023f10 f i CmCollection.obj
 0001:00022f40       ?nextPowerOfTwo@shdfnd@physx@@YAII@Z 10023f40 f i CmCollection.obj
 0001:00022fa0       ?release@Collection@Cm@physx@@UAEXXZ 10023fa0 f i CmCollection.obj
 0001:00022ff0       ?replaceWithLast@?$HashBase@V?$Pair@$$CB_KPAVPxBase@physx@@@shdfnd@physx@@_KU?$Hash@_K@23@UGetKey@?$HashMapBase@_KPAVPxBase@physx@@U?$Hash@_K@shdfnd@2@VNonTrackingAllocator@42@@internal@23@VNonTrackingAllocator@23@$00@internal@shdfnd@physx@@AAEXI@Z 10023ff0 f i CmCollection.obj
 0001:00023140       ?replaceWithLast@?$HashBase@V?$Pair@QAVPxBase@physx@@_K@shdfnd@physx@@PAVPxBase@3@U?$Hash@PAVPxBase@physx@@@23@UGetKey@?$HashMapBase@PAVPxBase@physx@@_KU?$Hash@PAVPxBase@physx@@@shdfnd@2@VNonTrackingAllocator@42@@internal@23@VNonTrackingAllocator@23@$00@internal@shdfnd@physx@@AAEXI@Z 10024140 f i CmCollection.obj
 0001:00023290       ?reserve@?$HashBase@V?$Pair@$$CB_KPAVPxBase@physx@@@shdfnd@physx@@_KU?$Hash@_K@23@UGetKey@?$HashMapBase@_KPAVPxBase@physx@@U?$Hash@_K@shdfnd@2@VNonTrackingAllocator@42@@internal@23@VNonTrackingAllocator@23@$00@internal@shdfnd@physx@@QAEXI@Z 10024290 f i CmCollection.obj
 0001:000232c0       ?reserve@?$HashBase@V?$Pair@QAVPxBase@physx@@_K@shdfnd@physx@@PAVPxBase@3@U?$Hash@PAVPxBase@physx@@@23@UGetKey@?$HashMapBase@PAVPxBase@physx@@_KU?$Hash@PAVPxBase@physx@@@shdfnd@2@VNonTrackingAllocator@42@@internal@23@VNonTrackingAllocator@23@$00@internal@shdfnd@physx@@QAEXI@Z 100242c0 f i CmCollection.obj
 0001:000232f0       ?reserve@?$HashMapBase@PAVPxBase@physx@@_KU?$Hash@PAVPxBase@physx@@@shdfnd@2@VNonTrackingAllocator@42@@internal@shdfnd@physx@@QAEXI@Z 100242f0 f i CmCollection.obj
 0001:00023310       ?reserveInternal@?$HashBase@V?$Pair@$$CB_KPAVPxBase@physx@@@shdfnd@physx@@_KU?$Hash@_K@23@UGetKey@?$HashMapBase@_KPAVPxBase@physx@@U?$Hash@_K@shdfnd@2@VNonTrackingAllocator@42@@internal@23@VNonTrackingAllocator@23@$00@internal@shdfnd@physx@@AAEXI@Z 10024310 f i CmCollection.obj
 0001:000237c0       ?reserveInternal@?$HashBase@V?$Pair@QAVPxBase@physx@@_K@shdfnd@physx@@PAVPxBase@3@U?$Hash@PAVPxBase@physx@@@23@UGetKey@?$HashMapBase@PAVPxBase@physx@@_KU?$Hash@PAVPxBase@physx@@@shdfnd@2@VNonTrackingAllocator@42@@internal@23@VNonTrackingAllocator@23@$00@internal@shdfnd@physx@@AAEXI@Z 100247c0 f i CmCollection.obj
 0001:00023c70       ?size@?$HashBase@V?$Pair@$$CB_KPAVPxBase@physx@@@shdfnd@physx@@_KU?$Hash@_K@23@UGetKey@?$HashMapBase@_KPAVPxBase@physx@@U?$Hash@_K@shdfnd@2@VNonTrackingAllocator@42@@internal@23@VNonTrackingAllocator@23@$00@internal@shdfnd@physx@@QBEIXZ 10024c70 f i CmCollection.obj
 0001:00023c90       ?size@?$HashBase@V?$Pair@QAVPxBase@physx@@_K@shdfnd@physx@@PAVPxBase@3@U?$Hash@PAVPxBase@physx@@@23@UGetKey@?$HashMapBase@PAVPxBase@physx@@_KU?$Hash@PAVPxBase@physx@@@shdfnd@2@VNonTrackingAllocator@42@@internal@23@VNonTrackingAllocator@23@$00@internal@shdfnd@physx@@QBEIXZ 10024c90 f i CmCollection.obj
 0001:00023cb0       ?size@?$HashMapBase@PAVPxBase@physx@@_KU?$Hash@PAVPxBase@physx@@@shdfnd@2@VNonTrackingAllocator@42@@internal@shdfnd@physx@@QBEIXZ 10024cb0 f i CmCollection.obj
 0001:00023cd0       ?size@?$HashMapBase@_KPAVPxBase@physx@@U?$Hash@_K@shdfnd@2@VNonTrackingAllocator@42@@internal@shdfnd@physx@@QBEIXZ 10024cd0 f i CmCollection.obj
 0001:00023cf0       ?skip@Iter@?$HashBase@V?$Pair@$$CB_KPAVPxBase@physx@@@shdfnd@physx@@_KU?$Hash@_K@23@UGetKey@?$HashMapBase@_KPAVPxBase@physx@@U?$Hash@_K@shdfnd@2@VNonTrackingAllocator@42@@internal@23@VNonTrackingAllocator@23@$00@internal@shdfnd@physx@@AAEXXZ 10024cf0 f i CmCollection.obj
 0001:00023d60       ?PxTransformFromPlaneEquation@physx@@YA?AVPxTransform@1@ABVPxPlane@1@@Z 10024d60 f   CmMathUtils.obj
 0001:00023f60       ?PxTransformFromSegment@physx@@YA?AVPxTransform@1@ABVPxVec3@1@0PAM@Z 10024f60 f   CmMathUtils.obj
 0001:00024110       ??$PX_UNUSED@W4PxIDENTITY@physx@@@@YAXABW4PxIDENTITY@physx@@@Z 10025110 f i CmMathUtils.obj
 0001:00024120       ??0PxPlane@physx@@QAE@ABV01@@Z 10025120 f i CmMathUtils.obj
 0001:00024160       ??0PxQuat@physx@@QAE@ABV01@@Z 10025160 f i CmMathUtils.obj
 0001:000241b0       ??0PxQuat@physx@@QAE@MMMM@Z 100251b0 f i CmMathUtils.obj
 0001:00024210       ??0PxQuat@physx@@QAE@W4PxIDENTITY@1@@Z 10025210 f i CmMathUtils.obj
 0001:00024270       ??0PxQuat@physx@@QAE@XZ    10025270 f i CmMathUtils.obj
 0001:00024290       ??0PxTransform@physx@@QAE@ABVPxVec3@1@ABVPxQuat@1@@Z 10025290 f i CmMathUtils.obj
 0001:00024320       ??0PxVec3@physx@@QAE@ABV01@@Z 10025320 f i CmMathUtils.obj
 0001:00024360       ??0PxVec3@physx@@QAE@MMM@Z 10025360 f i CmMathUtils.obj
 0001:000243b0       ??4PxQuat@physx@@QAEAAV01@ABV01@@Z 100253b0 f i CmMathUtils.obj
 0001:00024400       ??DPxQuat@physx@@QBE?AV01@M@Z 10025400 f i CmMathUtils.obj
 0001:00024480       ??DPxVec3@physx@@QBE?AV01@M@Z 10025480 f i CmMathUtils.obj
 0001:000244f0       ??GPxVec3@physx@@QBE?AV01@ABV01@@Z 100254f0 f i CmMathUtils.obj
 0001:00024560       ??GPxVec3@physx@@QBE?AV01@XZ 10025560 f i CmMathUtils.obj
 0001:000245d0       ??HPxVec3@physx@@QBE?AV01@ABV01@@Z 100255d0 f i CmMathUtils.obj
 0001:00024640       ??KPxVec3@physx@@QBE?AV01@M@Z 10025640 f i CmMathUtils.obj
 0001:000246c0       ??XPxVec3@physx@@QAEAAV01@M@Z 100256c0 f i CmMathUtils.obj
 0001:00024720       ?PxAbs@physx@@YAMM@Z       10025720 f i CmMathUtils.obj
 0001:00024740       ?PxSqrt@physx@@YAMM@Z      10025740 f i CmMathUtils.obj
 0001:00024760       ?abs@intrinsics@physx@@YAMM@Z 10025760 f i CmMathUtils.obj
 0001:00024780       ?isFinite@PxQuat@physx@@QBE_NXZ 10025780 f i CmMathUtils.obj
 0001:00024840       ?isSane@PxQuat@physx@@QBE_NXZ 10025840 f i CmMathUtils.obj
 0001:000248d0       ?magnitude@PxQuat@physx@@QBEMXZ 100258d0 f i CmMathUtils.obj
 0001:00024900       ?magnitude@PxVec3@physx@@QBEMXZ 10025900 f i CmMathUtils.obj
 0001:00024930       ?magnitudeSquared@PxQuat@physx@@QBEMXZ 10025930 f i CmMathUtils.obj
 0001:000249b0       ?magnitudeSquared@PxVec3@physx@@QBEMXZ 100259b0 f i CmMathUtils.obj
 0001:00024a10       ?normalize@PxPlane@physx@@QAEXXZ 10025a10 f i CmMathUtils.obj
 0001:00024a80       ?sqrt@intrinsics@physx@@YAMM@Z 10025a80 f i CmMathUtils.obj
 0001:00024aa0       _fabsf                     10025aa0 f i CmMathUtils.obj
 0001:00024ad0       _sqrtf                     10025ad0 f i CmMathUtils.obj
 0001:00024b00       ??0PtrTable@Cm@physx@@QAE@XZ 10025b00 f   CmPtrTable.obj
 0001:00024b30       ??1PtrTable@Cm@physx@@QAE@XZ 10025b30 f   CmPtrTable.obj
 0001:00024bf0       ?add@PtrTable@Cm@physx@@QAEXPAXAAVPtrTableStorageManager@23@@Z 10025bf0 f   CmPtrTable.obj
 0001:00024ec0       ?replaceWithLast@PtrTable@Cm@physx@@QAEXIAAVPtrTableStorageManager@23@@Z 10025ec0 f   CmPtrTable.obj
 0001:00025180       ?clear@PtrTable@Cm@physx@@QAEXAAVPtrTableStorageManager@23@@Z 10026180 f   CmPtrTable.obj
 0001:000251f0       ?find@PtrTable@Cm@physx@@QBEIPBX@Z 100261f0 f   CmPtrTable.obj
 0001:00025280       ?exportExtraData@PtrTable@Cm@physx@@QAEXAAVPxSerializationContext@3@@Z 10026280 f   CmPtrTable.obj
 0001:000252d0       ?importExtraData@PtrTable@Cm@physx@@QAEXAAVPxDeserializationContext@3@@Z 100262d0 f   CmPtrTable.obj
 0001:00025300       ?getBinaryMetaData@PtrTable@Cm@physx@@SAXAAVPxOutputStream@3@@Z 10026300 f   CmPtrTable.obj
 0001:00025500       ?realloc@PtrTable@Cm@physx@@AAEXIIAAVPtrTableStorageManager@23@@Z 10026500 f   CmPtrTable.obj
 0001:00025900       ??$readExtraData@PAX$0BA@@PxDeserializationContext@physx@@QAEPAPAXI@Z 10026900 f i CmPtrTable.obj
 0001:00025930       ??$readExtraData@PAX@PxDeserializationContext@physx@@QAEPAPAXI@Z 10026930 f i CmPtrTable.obj
 0001:00025970       ??0PtrTable@Cm@physx@@QAE@W4PxEMPTY@2@@Z 10026970 f i CmPtrTable.obj
 0001:000259d0       ??4PtrTable@Cm@physx@@QAEAAU012@ABU012@@Z 100269d0 f i CmPtrTable.obj
 0001:00025a00       ?PxMemCopy@physx@@YAPAXPIAXPIBXI@Z 10026a00 f i CmPtrTable.obj
 0001:00025a20       ?alignExtraData@PxDeserializationContext@physx@@QAEXI@Z 10026a20 f i CmPtrTable.obj
 0001:00025a70       ?getCount@PtrTable@Cm@physx@@QBEIXZ 10026a70 f i CmPtrTable.obj
 0001:00025a90       ?getPtrs@PtrTable@Cm@physx@@QAEPAPAXXZ 10026a90 f i CmPtrTable.obj
 0001:00025ad0       ?getPtrs@PtrTable@Cm@physx@@QBEPBQAXXZ 10026ad0 f i CmPtrTable.obj
 0001:00025b10       ??0RadixSort@Cm@physx@@QAE@XZ 10026b10 f   CmRadixSort.obj
 0001:00025b90       ??1RadixSort@Cm@physx@@UAE@XZ 10026b90 f   CmRadixSort.obj
 0001:00025bb0       ?Sort@RadixSort@Cm@physx@@QAEAAV123@PBIIW4RadixHint@23@@Z 10026bb0 f   CmRadixSort.obj
 0001:000266e0       ?Sort@RadixSort@Cm@physx@@QAEAAV123@PBMI@Z 100276e0 f   CmRadixSort.obj
 0001:00027150       ?SetBuffers@RadixSort@Cm@physx@@QAE_NPAI00PAPAI@Z 10028150 f   CmRadixSort.obj
 0001:00027770       ??_ERadixSort@Cm@physx@@UAEPAXI@Z 10028770 f i CmRadixSort.obj
 0001:00027810       ??_GRadixSort@Cm@physx@@UAEPAXI@Z 10028810 f i CmRadixSort.obj
 0001:00027850       ?CheckPassValidity@@YAPBIIPBIIPBXAAE@Z 10028850 f i CmRadixSort.obj
 0001:000278a0       ?PxMemZero@physx@@YAPAXPAXI@Z 100288a0 f i CmRadixSort.obj
 0001:000278c0       ?memZero@intrinsics@physx@@YAPAXPAXI@Z 100288c0 f i CmRadixSort.obj
 0001:000278e0       ??0RadixSortBuffered@Cm@physx@@QAE@XZ 100288e0 f   CmRadixSortBuffered.obj
 0001:00027900       ??1RadixSortBuffered@Cm@physx@@UAE@XZ 10028900 f   CmRadixSortBuffered.obj
 0001:00027970       ?Sort@RadixSortBuffered@Cm@physx@@QAEAAV123@PBIIW4RadixHint@23@@Z 10028970 f   CmRadixSortBuffered.obj
 0001:000279e0       ?Sort@RadixSortBuffered@Cm@physx@@QAEAAV123@PBMI@Z 100289e0 f   CmRadixSortBuffered.obj
 0001:00027a50       ?Resize@RadixSortBuffered@Cm@physx@@AAE_NI@Z 10028a50 f   CmRadixSortBuffered.obj
 0001:00027bb0       ??_ERadixSortBuffered@Cm@physx@@UAEPAXI@Z 10028bb0 f i CmRadixSortBuffered.obj
 0001:00027c50       ??_GRadixSortBuffered@Cm@physx@@UAEPAXI@Z 10028c50 f i CmRadixSortBuffered.obj
 0001:00027c90       ?CheckResize@RadixSortBuffered@Cm@physx@@AAEXI@Z 10028c90 f i CmRadixSortBuffered.obj
 0001:00027d00       ??6RenderOutput@Cm@physx@@QAEAAV012@W4Primitive@012@@Z 10028d00 f   CmRenderOutput.obj
 0001:00027d30       ??6RenderOutput@Cm@physx@@QAEAAV012@I@Z 10028d30 f   CmRenderOutput.obj
 0001:00027d50       ??6RenderOutput@Cm@physx@@QAEAAV012@ABVPxMat44@2@@Z 10028d50 f   CmRenderOutput.obj
 0001:00027d70       ??6RenderOutput@Cm@physx@@QAEAAV012@ABVPxTransform@2@@Z 10028d70 f   CmRenderOutput.obj
 0001:00027da0       ??6RenderOutput@Cm@physx@@QAEAAV012@VPxVec3@2@@Z 10028da0 f   CmRenderOutput.obj
 0001:00027fc0       ??6RenderOutput@Cm@physx@@QAEAAV012@ABUDebugText@12@@Z 10028fc0 f   CmRenderOutput.obj
 0001:00028120       ?outputCapsule@RenderOutput@Cm@physx@@QAEAAV123@MMABVPxMat44@3@@Z 10029120 f   CmRenderOutput.obj
 0001:00028720       ??0DebugText@Cm@physx@@QAA@ABVPxVec3@2@MPBDZZ 10029720 f   CmRenderOutput.obj
 0001:00028790       ??6Cm@physx@@YAAAVRenderOutput@01@AAV201@ABUDebugBox@01@@Z 10029790 f   CmRenderOutput.obj
 0001:00028ed0       ??6Cm@physx@@YAAAVRenderOutput@01@AAV201@ABUDebugArrow@01@@Z 10029ed0 f   CmRenderOutput.obj
 0001:000290e0       ??6Cm@physx@@YAAAVRenderOutput@01@AAV201@ABUDebugBasis@01@@Z 1002a0e0 f   CmRenderOutput.obj
 0001:00029250       ??6Cm@physx@@YAAAVRenderOutput@01@AAV201@ABUDebugCircle@01@@Z 1002a250 f   CmRenderOutput.obj
 0001:00029380       ??6Cm@physx@@YAAAVRenderOutput@01@AAV201@ABUDebugArc@01@@Z 1002a380 f   CmRenderOutput.obj
 0001:00029b00       ??$PxMax@I@physx@@YAIII@Z  1002ab00 f i CmRenderOutput.obj
 0001:00029b30       ??$__vcrt_va_start_verify_argument_type@PBD@@YAXXZ 1002ab30 f i CmRenderOutput.obj
 0001:00029b40       ??$swap@VPxVec4@physx@@@shdfnd@physx@@YAXAAVPxVec4@1@0@Z 1002ab40 f i CmRenderOutput.obj
 0001:00029b80       ??0DebugArc@Cm@physx@@QAE@IMMM@Z 1002ab80 f i CmRenderOutput.obj
 0001:00029bd0       ??0DebugArrow@Cm@physx@@QAE@ABVPxVec3@2@0M@Z 1002abd0 f i CmRenderOutput.obj
 0001:00029c20       ??0DebugCircle@Cm@physx@@QAE@IM@Z 1002ac20 f i CmRenderOutput.obj
 0001:00029c50       ??0DebugText@Cm@physx@@QAE@$$QAU012@@Z 1002ac50 f i CmRenderOutput.obj
 0001:00029cb0       ??0DebugText@Cm@physx@@QAE@ABU012@@Z 1002acb0 f i CmRenderOutput.obj
 0001:00029d10       ??0PxDebugLine@physx@@QAE@ABU01@@Z 1002ad10 f i CmRenderOutput.obj
 0001:00029d70       ??0PxDebugLine@physx@@QAE@ABVPxVec3@1@0ABI@Z 1002ad70 f i CmRenderOutput.obj
 0001:00029dd0       ??0PxDebugPoint@physx@@QAE@ABU01@@Z 1002add0 f i CmRenderOutput.obj
 0001:00029e10       ??0PxDebugPoint@physx@@QAE@ABVPxVec3@1@ABI@Z 1002ae10 f i CmRenderOutput.obj
 0001:00029e40       ??0PxDebugText@physx@@QAE@ABU01@@Z 1002ae40 f i CmRenderOutput.obj
 0001:00029e90       ??0PxDebugText@physx@@QAE@ABVPxVec3@1@ABMABIPBD@Z 1002ae90 f i CmRenderOutput.obj
 0001:00029ee0       ??0PxDebugTriangle@physx@@QAE@ABU01@@Z 1002aee0 f i CmRenderOutput.obj
 0001:00029f60       ??0PxDebugTriangle@physx@@QAE@ABVPxVec3@1@00ABI@Z 1002af60 f i CmRenderOutput.obj
 0001:00029fe0       ??0PxMat33@physx@@QAE@ABVPxQuat@1@@Z 1002afe0 f i CmRenderOutput.obj
 0001:0002a260       ??0PxMat44@physx@@QAE@ABV01@@Z 1002b260 f i CmRenderOutput.obj
 0001:0002a2d0       ??0PxMat44@physx@@QAE@ABVPxMat33@1@ABVPxVec3@1@@Z 1002b2d0 f i CmRenderOutput.obj
 0001:0002a370       ??0PxMat44@physx@@QAE@ABVPxTransform@1@@Z 1002b370 f i CmRenderOutput.obj
 0001:0002a3f0       ??0PxMat44@physx@@QAE@W4PxIDENTITY@1@@Z 1002b3f0 f i CmRenderOutput.obj
 0001:0002a520       ??0PxVec3@physx@@QAE@M@Z   1002b520 f i CmRenderOutput.obj
 0001:0002a570       ??0PxVec3@physx@@QAE@XZ    1002b570 f i CmRenderOutput.obj
 0001:0002a590       ??0PxVec4@physx@@QAE@ABV01@@Z 1002b590 f i CmRenderOutput.obj
 0001:0002a5e0       ??0PxVec4@physx@@QAE@ABVPxVec3@1@M@Z 1002b5e0 f i CmRenderOutput.obj
 0001:0002a630       ??0PxVec4@physx@@QAE@MMMM@Z 1002b630 f i CmRenderOutput.obj
 0001:0002a690       ??0PxVec4@physx@@QAE@XZ    1002b690 f i CmRenderOutput.obj
 0001:0002a6b0       ??0RenderOutput@Cm@physx@@QAE@AAVRenderBuffer@12@@Z 1002b6b0 f i CmRenderOutput.obj
 0001:0002a740       ??0RenderOutput@Cm@physx@@QAE@ABV012@@Z 1002b740 f i CmRenderOutput.obj
 0001:0002a7e0       ??4DebugText@Cm@physx@@QAEAAU012@$$QAU012@@Z 1002b7e0 f i CmRenderOutput.obj
 0001:0002a870       ??4DebugText@Cm@physx@@QAEAAU012@ABU012@@Z 1002b870 f i CmRenderOutput.obj
 0001:0002a900       ??4PxMat44@physx@@QAEAAV01@ABV01@@Z 1002b900 f i CmRenderOutput.obj
 0001:0002a970       ??4PxVec3@physx@@QAEAAV01@ABV01@@Z 1002b970 f i CmRenderOutput.obj
 0001:0002a9b0       ??4PxVec4@physx@@QAEAAV01@ABV01@@Z 1002b9b0 f i CmRenderOutput.obj
 0001:0002aa00       ??A?$Array@UPxDebugText@physx@@VNamedAllocator@shdfnd@2@@shdfnd@physx@@QAEAAUPxDebugText@2@I@Z 1002ba00 f i CmRenderOutput.obj
 0001:0002aa70       ??DPxVec4@physx@@QBE?AV01@M@Z 1002ba70 f i CmRenderOutput.obj
 0001:0002aaf0       ??GPxVec4@physx@@QBE?AV01@XZ 1002baf0 f i CmRenderOutput.obj
 0001:0002ab80       ??HPxVec4@physx@@QBE?AV01@ABV01@@Z 1002bb80 f i CmRenderOutput.obj
 0001:0002ac10       ??YPxVec4@physx@@QAEAAV01@ABV01@@Z 1002bc10 f i CmRenderOutput.obj
 0001:0002aca0       ??_0PxVec3@physx@@QAEAAV01@M@Z 1002bca0 f i CmRenderOutput.obj
 0001:0002ad20       ?PxCos@physx@@YAMM@Z       1002bd20 f i CmRenderOutput.obj
 0001:0002ad40       ?PxSin@physx@@YAMM@Z       1002bd40 f i CmRenderOutput.obj
 0001:0002ad60       ?allocate@?$Array@DVNamedAllocator@shdfnd@physx@@@shdfnd@physx@@IAEPADI@Z 1002bd60 f i CmRenderOutput.obj
 0001:0002ade0       ?allocate@?$Array@UPxDebugLine@physx@@VNamedAllocator@shdfnd@2@@shdfnd@physx@@IAEPAUPxDebugLine@3@I@Z 1002bde0 f i CmRenderOutput.obj
 0001:0002ae60       ?allocate@?$Array@UPxDebugPoint@physx@@VNamedAllocator@shdfnd@2@@shdfnd@physx@@IAEPAUPxDebugPoint@3@I@Z 1002be60 f i CmRenderOutput.obj
 0001:0002aee0       ?allocate@?$Array@UPxDebugText@physx@@VNamedAllocator@shdfnd@2@@shdfnd@physx@@IAEPAUPxDebugText@3@I@Z 1002bee0 f i CmRenderOutput.obj
 0001:0002af60       ?allocate@?$Array@UPxDebugTriangle@physx@@VNamedAllocator@shdfnd@2@@shdfnd@physx@@IAEPAUPxDebugTriangle@3@I@Z 1002bf60 f i CmRenderOutput.obj
 0001:0002afe0       ?begin@?$Array@DVNamedAllocator@shdfnd@physx@@@shdfnd@physx@@QAEPADXZ 1002bfe0 f i CmRenderOutput.obj
 0001:0002b000       ?capacity@?$Array@DVNamedAllocator@shdfnd@physx@@@shdfnd@physx@@QBEIXZ 1002c000 f i CmRenderOutput.obj
 0001:0002b020       ?capacity@?$Array@UPxDebugLine@physx@@VNamedAllocator@shdfnd@2@@shdfnd@physx@@QBEIXZ 1002c020 f i CmRenderOutput.obj
 0001:0002b040       ?capacity@?$Array@UPxDebugPoint@physx@@VNamedAllocator@shdfnd@2@@shdfnd@physx@@QBEIXZ 1002c040 f i CmRenderOutput.obj
 0001:0002b060       ?capacity@?$Array@UPxDebugText@physx@@VNamedAllocator@shdfnd@2@@shdfnd@physx@@QBEIXZ 1002c060 f i CmRenderOutput.obj
 0001:0002b080       ?capacity@?$Array@UPxDebugTriangle@physx@@VNamedAllocator@shdfnd@2@@shdfnd@physx@@QBEIXZ 1002c080 f i CmRenderOutput.obj
 0001:0002b0a0       ?capacityIncrement@?$Array@DVNamedAllocator@shdfnd@physx@@@shdfnd@physx@@IBEIXZ 1002c0a0 f i CmRenderOutput.obj
 0001:0002b0e0       ?capacityIncrement@?$Array@UPxDebugLine@physx@@VNamedAllocator@shdfnd@2@@shdfnd@physx@@IBEIXZ 1002c0e0 f i CmRenderOutput.obj
 0001:0002b120       ?capacityIncrement@?$Array@UPxDebugPoint@physx@@VNamedAllocator@shdfnd@2@@shdfnd@physx@@IBEIXZ 1002c120 f i CmRenderOutput.obj
 0001:0002b160       ?capacityIncrement@?$Array@UPxDebugText@physx@@VNamedAllocator@shdfnd@2@@shdfnd@physx@@IBEIXZ 1002c160 f i CmRenderOutput.obj
 0001:0002b1a0       ?capacityIncrement@?$Array@UPxDebugTriangle@physx@@VNamedAllocator@shdfnd@2@@shdfnd@physx@@IBEIXZ 1002c1a0 f i CmRenderOutput.obj
 0001:0002b1e0       ?copy@?$Array@DVNamedAllocator@shdfnd@physx@@@shdfnd@physx@@KAXPAD0PBD@Z 1002c1e0 f i CmRenderOutput.obj
 0001:0002b290       ?copy@?$Array@UPxDebugLine@physx@@VNamedAllocator@shdfnd@2@@shdfnd@physx@@KAXPAUPxDebugLine@3@0PBU43@@Z 1002c290 f i CmRenderOutput.obj
 0001:0002b340       ?copy@?$Array@UPxDebugPoint@physx@@VNamedAllocator@shdfnd@2@@shdfnd@physx@@KAXPAUPxDebugPoint@3@0PBU43@@Z 1002c340 f i CmRenderOutput.obj
 0001:0002b3f0       ?copy@?$Array@UPxDebugText@physx@@VNamedAllocator@shdfnd@2@@shdfnd@physx@@KAXPAUPxDebugText@3@0PBU43@@Z 1002c3f0 f i CmRenderOutput.obj
 0001:0002b4b0       ?copy@?$Array@UPxDebugTriangle@physx@@VNamedAllocator@shdfnd@2@@shdfnd@physx@@KAXPAUPxDebugTriangle@3@0PBU43@@Z 1002c4b0 f i CmRenderOutput.obj
 0001:0002b570       ?cos@intrinsics@physx@@YAMM@Z 1002c570 f i CmRenderOutput.obj
 0001:0002b590       ?cross@PxVec3@physx@@QBE?AV12@ABV12@@Z 1002c590 f i CmRenderOutput.obj
 0001:0002b650       ?deallocate@?$Array@DVNamedAllocator@shdfnd@physx@@@shdfnd@physx@@IAEXPAX@Z 1002c650 f i CmRenderOutput.obj
 0001:0002b670       ?deallocate@?$Array@UPxDebugLine@physx@@VNamedAllocator@shdfnd@2@@shdfnd@physx@@IAEXPAX@Z 1002c670 f i CmRenderOutput.obj
 0001:0002b690       ?deallocate@?$Array@UPxDebugPoint@physx@@VNamedAllocator@shdfnd@2@@shdfnd@physx@@IAEXPAX@Z 1002c690 f i CmRenderOutput.obj
 0001:0002b6b0       ?deallocate@?$Array@UPxDebugText@physx@@VNamedAllocator@shdfnd@2@@shdfnd@physx@@IAEXPAX@Z 1002c6b0 f i CmRenderOutput.obj
 0001:0002b6d0       ?deallocate@?$Array@UPxDebugTriangle@physx@@VNamedAllocator@shdfnd@2@@shdfnd@physx@@IAEXPAX@Z 1002c6d0 f i CmRenderOutput.obj
 0001:0002b6f0       ?destroy@?$Array@DVNamedAllocator@shdfnd@physx@@@shdfnd@physx@@KAXPAD0@Z 1002c6f0 f i CmRenderOutput.obj
 0001:0002b720       ?destroy@?$Array@UPxDebugLine@physx@@VNamedAllocator@shdfnd@2@@shdfnd@physx@@KAXPAUPxDebugLine@3@0@Z 1002c720 f i CmRenderOutput.obj
 0001:0002b750       ?destroy@?$Array@UPxDebugPoint@physx@@VNamedAllocator@shdfnd@2@@shdfnd@physx@@KAXPAUPxDebugPoint@3@0@Z 1002c750 f i CmRenderOutput.obj
 0001:0002b780       ?destroy@?$Array@UPxDebugText@physx@@VNamedAllocator@shdfnd@2@@shdfnd@physx@@KAXPAUPxDebugText@3@0@Z 1002c780 f i CmRenderOutput.obj
 0001:0002b7b0       ?destroy@?$Array@UPxDebugTriangle@physx@@VNamedAllocator@shdfnd@2@@shdfnd@physx@@KAXPAUPxDebugTriangle@3@0@Z 1002c7b0 f i CmRenderOutput.obj
 0001:0002b7e0       ?end@?$Array@DVNamedAllocator@shdfnd@physx@@@shdfnd@physx@@QAEPADXZ 1002c7e0 f i CmRenderOutput.obj
 0001:0002b800       ?end@?$Array@UPxDebugLine@physx@@VNamedAllocator@shdfnd@2@@shdfnd@physx@@QAEPAUPxDebugLine@3@XZ 1002c800 f i CmRenderOutput.obj
 0001:0002b820       ?forceSize_Unsafe@?$Array@UPxDebugLine@physx@@VNamedAllocator@shdfnd@2@@shdfnd@physx@@QAEXI@Z 1002c820 f i CmRenderOutput.obj
 0001:0002b890       ?getXYZ@PxVec4@physx@@QBE?AVPxVec3@2@XZ 1002c890 f i CmRenderOutput.obj
 0001:0002b8f0       ?grow@?$Array@DVNamedAllocator@shdfnd@physx@@@shdfnd@physx@@IAEXI@Z 1002c8f0 f i CmRenderOutput.obj
 0001:0002b970       ?grow@?$Array@UPxDebugLine@physx@@VNamedAllocator@shdfnd@2@@shdfnd@physx@@IAEXI@Z 1002c970 f i CmRenderOutput.obj
 0001:0002b9f0       ?growAndPushBack@?$Array@DVNamedAllocator@shdfnd@physx@@@shdfnd@physx@@IAEAADABD@Z 1002c9f0 f i CmRenderOutput.obj
 0001:0002bb70       ?growAndPushBack@?$Array@UPxDebugLine@physx@@VNamedAllocator@shdfnd@2@@shdfnd@physx@@IAEAAUPxDebugLine@3@ABU43@@Z 1002cb70 f i CmRenderOutput.obj
 0001:0002bd00       ?growAndPushBack@?$Array@UPxDebugPoint@physx@@VNamedAllocator@shdfnd@2@@shdfnd@physx@@IAEAAUPxDebugPoint@3@ABU43@@Z 1002cd00 f i CmRenderOutput.obj
 0001:0002be90       ?growAndPushBack@?$Array@UPxDebugText@physx@@VNamedAllocator@shdfnd@2@@shdfnd@physx@@IAEAAUPxDebugText@3@ABU43@@Z 1002ce90 f i CmRenderOutput.obj
 0001:0002c010       ?growAndPushBack@?$Array@UPxDebugTriangle@physx@@VNamedAllocator@shdfnd@2@@shdfnd@physx@@IAEAAUPxDebugTriangle@3@ABU43@@Z 1002d010 f i CmRenderOutput.obj
 0001:0002c190       ?isArrayOfPOD@?$Array@DVNamedAllocator@shdfnd@physx@@@shdfnd@physx@@SA_NXZ 1002d190 f i CmRenderOutput.obj
 0001:0002c1a0       ?isArrayOfPOD@?$Array@UPxDebugLine@physx@@VNamedAllocator@shdfnd@2@@shdfnd@physx@@SA_NXZ 1002d1a0 f i CmRenderOutput.obj
 0001:0002c1b0       ?isArrayOfPOD@?$Array@UPxDebugPoint@physx@@VNamedAllocator@shdfnd@2@@shdfnd@physx@@SA_NXZ 1002d1b0 f i CmRenderOutput.obj
 0001:0002c1c0       ?isArrayOfPOD@?$Array@UPxDebugText@physx@@VNamedAllocator@shdfnd@2@@shdfnd@physx@@SA_NXZ 1002d1c0 f i CmRenderOutput.obj
 0001:0002c1d0       ?isArrayOfPOD@?$Array@UPxDebugTriangle@physx@@VNamedAllocator@shdfnd@2@@shdfnd@physx@@SA_NXZ 1002d1d0 f i CmRenderOutput.obj
 0001:0002c1e0       ?isInUserMemory@?$Array@DVNamedAllocator@shdfnd@physx@@@shdfnd@physx@@QBEIXZ 1002d1e0 f i CmRenderOutput.obj
 0001:0002c200       ?isInUserMemory@?$Array@UPxDebugLine@physx@@VNamedAllocator@shdfnd@2@@shdfnd@physx@@QBEIXZ 1002d200 f i CmRenderOutput.obj
 0001:0002c220       ?isInUserMemory@?$Array@UPxDebugPoint@physx@@VNamedAllocator@shdfnd@2@@shdfnd@physx@@QBEIXZ 1002d220 f i CmRenderOutput.obj
 0001:0002c240       ?isInUserMemory@?$Array@UPxDebugText@physx@@VNamedAllocator@shdfnd@2@@shdfnd@physx@@QBEIXZ 1002d240 f i CmRenderOutput.obj
 0001:0002c260       ?isInUserMemory@?$Array@UPxDebugTriangle@physx@@VNamedAllocator@shdfnd@2@@shdfnd@physx@@QBEIXZ 1002d260 f i CmRenderOutput.obj
 0001:0002c280       ?normalToTangents@shdfnd@physx@@YAXABVPxVec3@2@AAV32@1@Z 1002d280 f i CmRenderOutput.obj
 0001:0002c390       ?normalize@PxVec3@physx@@QAEMXZ 1002d390 f i CmRenderOutput.obj
 0001:0002c3e0       ?outputSegment@RenderOutput@Cm@physx@@QAEXABVPxVec3@3@0@Z 1002d3e0 f i CmRenderOutput.obj
 0001:0002c450       ?pushBack@?$Array@DVNamedAllocator@shdfnd@physx@@@shdfnd@physx@@QAEAADABD@Z 1002d450 f i CmRenderOutput.obj
 0001:0002c500       ?pushBack@?$Array@UPxDebugLine@physx@@VNamedAllocator@shdfnd@2@@shdfnd@physx@@QAEAAUPxDebugLine@3@ABU43@@Z 1002d500 f i CmRenderOutput.obj
 0001:0002c5b0       ?pushBack@?$Array@UPxDebugPoint@physx@@VNamedAllocator@shdfnd@2@@shdfnd@physx@@QAEAAUPxDebugPoint@3@ABU43@@Z 1002d5b0 f i CmRenderOutput.obj
 0001:0002c660       ?pushBack@?$Array@UPxDebugText@physx@@VNamedAllocator@shdfnd@2@@shdfnd@physx@@QAEAAUPxDebugText@3@ABU43@@Z 1002d660 f i CmRenderOutput.obj
 0001:0002c710       ?pushBack@?$Array@UPxDebugTriangle@physx@@VNamedAllocator@shdfnd@2@@shdfnd@physx@@QAEAAUPxDebugTriangle@3@ABU43@@Z 1002d710 f i CmRenderOutput.obj
 0001:0002c7c0       ?recreate@?$Array@DVNamedAllocator@shdfnd@physx@@@shdfnd@physx@@IAEXI@Z 1002d7c0 f i CmRenderOutput.obj
 0001:0002c8c0       ?recreate@?$Array@UPxDebugLine@physx@@VNamedAllocator@shdfnd@2@@shdfnd@physx@@IAEXI@Z 1002d8c0 f i CmRenderOutput.obj
 0001:0002c9d0       ?reserve@?$Array@DVNamedAllocator@shdfnd@physx@@@shdfnd@physx@@QAEXI@Z 1002d9d0 f i CmRenderOutput.obj
 0001:0002ca00       ?reserve@?$Array@UPxDebugLine@physx@@VNamedAllocator@shdfnd@2@@shdfnd@physx@@QAEXI@Z 1002da00 f i CmRenderOutput.obj
 0001:0002ca30       ?reserveSegments@RenderOutput@Cm@physx@@QAEPAUPxDebugLine@3@I@Z 1002da30 f i CmRenderOutput.obj
 0001:0002ca60       ?rotate@PxMat44@physx@@QBE?BVPxVec3@2@ABV32@@Z 1002da60 f i CmRenderOutput.obj
 0001:0002cac0       ?rotate@PxMat44@physx@@QBE?BVPxVec4@2@ABV32@@Z 1002dac0 f i CmRenderOutput.obj
 0001:0002cb60       ?sin@intrinsics@physx@@YAMM@Z 1002db60 f i CmRenderOutput.obj
 0001:0002cb80       ?size@?$Array@DVNamedAllocator@shdfnd@physx@@@shdfnd@physx@@QBEIXZ 1002db80 f i CmRenderOutput.obj
 0001:0002cba0       ?size@?$Array@UPxDebugLine@physx@@VNamedAllocator@shdfnd@2@@shdfnd@physx@@QBEIXZ 1002dba0 f i CmRenderOutput.obj
 0001:0002cbc0       ?size@?$Array@UPxDebugText@physx@@VNamedAllocator@shdfnd@2@@shdfnd@physx@@QBEIXZ 1002dbc0 f i CmRenderOutput.obj
 0001:0002cbe0       ?transform@PxMat44@physx@@QBE?BVPxVec3@2@ABV32@@Z 1002dbe0 f i CmRenderOutput.obj
 0001:0002cc40       ?transform@PxMat44@physx@@QBE?BVPxVec4@2@ABV32@@Z 1002dc40 f i CmRenderOutput.obj
 0001:0002cd10       _cosf                      1002dd10 f i CmRenderOutput.obj
 0001:0002cd40       _sinf                      1002dd40 f i CmRenderOutput.obj
 0001:0002ce50       ?visualizeJointFrames@Cm@physx@@YAXAAVRenderOutput@12@MABVPxTransform@2@1@Z 1002de50 f   CmVisualization.obj
 0001:0002cf40       ?visualizeLinearLimit@Cm@physx@@YAXAAVRenderOutput@12@MABVPxTransform@2@1M_N@Z 1002df40 f   CmVisualization.obj
 0001:0002d080       ?visualizeAngularLimit@Cm@physx@@YAXAAVRenderOutput@12@MABVPxTransform@2@MM_N@Z 1002e080 f   CmVisualization.obj
 0001:0002d270       ?visualizeLimitCone@Cm@physx@@YAXAAVRenderOutput@12@MABVPxTransform@2@MM_N@Z 1002e270 f   CmVisualization.obj
 0001:0002d4e0       ?visualizeDoubleCone@Cm@physx@@YAXAAVRenderOutput@12@MABVPxTransform@2@M_N@Z 1002e4e0 f   CmVisualization.obj
 0001:0002dbe0       ??$PX_UNUSED@W4PxZERO@physx@@@@YAXABW4PxZERO@physx@@@Z 1002ebe0 f i CmVisualization.obj
 0001:0002dbf0       ??0DebugArrow@Cm@physx@@QAE@ABVPxVec3@2@0@Z 1002ebf0 f i CmVisualization.obj
 0001:0002dc60       ??0DebugBasis@Cm@physx@@QAE@ABVPxVec3@2@III@Z 1002ec60 f i CmVisualization.obj
 0001:0002dcb0       ??0PxQuat@physx@@QAE@MABVPxVec3@1@@Z 1002ecb0 f i CmVisualization.obj
 0001:0002ddf0       ??0PxTransform@physx@@QAE@W4PxIDENTITY@1@@Z 1002edf0 f i CmVisualization.obj
 0001:0002de30       ??0PxVec3@physx@@QAE@W4PxZERO@1@@Z 1002ee30 f i CmVisualization.obj
 0001:0002de80       ??DPxQuat@physx@@QBE?AV01@ABV01@@Z 1002ee80 f i CmVisualization.obj
 0001:0002e030       ?getBasisVector0@PxQuat@physx@@QBE?AVPxVec3@2@XZ 1002f030 f i CmVisualization.obj
 0001:0002e120       ?rotate@PxQuat@physx@@QBE?BVPxVec3@2@ABV32@@Z 1002f120 f i CmVisualization.obj
 0001:0002e360       ?contactBoxBox@Gu@physx@@YA_NABVGeometryUnion@12@0ABVPxTransform@2@1ABUNarrowPhaseParams@12@AAUCache@12@AAVContactBuffer@12@PAVRenderOutput@Cm@2@@Z 1002f360 f   GuContactBoxBox.obj
 0001:00031f10       ??$PX_UNUSED@PAVRenderOutput@Cm@physx@@@@YAXABQAVRenderOutput@Cm@physx@@@Z 10032f10 f i GuContactBoxBox.obj
 0001:00031f20       ??$PX_UNUSED@VGeometryUnion@Gu@physx@@@@YAXABVGeometryUnion@Gu@physx@@@Z 10032f20 f i GuContactBoxBox.obj
 0001:00031f30       ??$checkType@$$CBVPxBoxGeometry@physx@@@physx@@YAXABVGeometryUnion@Gu@0@@Z 10032f30 f i GuContactBoxBox.obj
 0001:00031fa0       ??$get@$$CBVPxBoxGeometry@physx@@@GeometryUnion@Gu@physx@@QBEABVPxBoxGeometry@2@XZ 10032fa0 f i GuContactBoxBox.obj
 0001:00031fc0       ??0?$PxFlags@W4Enum@PxBaseFlag@physx@@G@physx@@QAE@ABV01@@Z 10032fc0 f i GuContactBoxBox.obj
 0001:00031ff0       ??0Box@Gu@physx@@QAE@ABV012@@Z 10032ff0 f i GuContactBoxBox.obj
 0001:00032040       ??0Box@Gu@physx@@QAE@ABVPxVec3@2@0ABVPxMat33@2@@Z 10033040 f i GuContactBoxBox.obj
 0001:00032090       ??0Box@Gu@physx@@QAE@XZ    10033090 f i GuContactBoxBox.obj
 0001:000320d0       ??0GeometryUnion@Gu@physx@@QAE@ABVPxGeometry@2@@Z 100330d0 f i GuContactBoxBox.obj
 0001:00032100       ??0GeometryUnion@Gu@physx@@QAE@W4PxEMPTY@2@@Z 10033100 f i GuContactBoxBox.obj
 0001:00032120       ??0GeometryUnion@Gu@physx@@QAE@XZ 10033120 f i GuContactBoxBox.obj
 0001:00032150       ??0InvalidGeometry@Gu@physx@@QAE@XZ 10033150 f i GuContactBoxBox.obj
 0001:00032170       ??0MaterialIndicesStruct@physx@@QAE@W4PxEMPTY@1@@Z 10033170 f i GuContactBoxBox.obj
 0001:00032190       ??0MaterialIndicesStruct@physx@@QAE@XZ 10033190 f i GuContactBoxBox.obj
 0001:000321c0       ??0Matrix34@Cm@physx@@QAE@ABVPxMat33@2@ABVPxVec3@2@@Z 100331c0 f i GuContactBoxBox.obj
 0001:00032200       ??0Matrix34@Cm@physx@@QAE@ABVPxTransform@2@@Z 10033200 f i GuContactBoxBox.obj
 0001:00032240       ??0Matrix34@Cm@physx@@QAE@XZ 10033240 f i GuContactBoxBox.obj
 0001:00032270       ??0PxGeometry@physx@@IAE@W4Enum@PxGeometryType@1@@Z 10033270 f i GuContactBoxBox.obj
 0001:00032290       ??0PxMat33@physx@@QAE@ABV01@@Z 10033290 f i GuContactBoxBox.obj
 0001:000322e0       ??0PxMat33@physx@@QAE@ABVPxVec3@1@00@Z 100332e0 f i GuContactBoxBox.obj
 0001:00032330       ??0PxMat33@physx@@QAE@W4PxIDENTITY@1@@Z 10033330 f i GuContactBoxBox.obj
 0001:000323f0       ??0PxMat33@physx@@QAE@XZ   100333f0 f i GuContactBoxBox.obj
 0001:00032430       ??0PxQuat@physx@@QAE@ABVPxMat33@1@@Z 10033430 f i GuContactBoxBox.obj
 0001:00032850       ??0VertexInfo@@QAE@XZ      10033850 f i GuContactBoxBox.obj
 0001:00032870       ??1Box@Gu@physx@@QAE@XZ    10033870 f i GuContactBoxBox.obj
 0001:00032880       ??1MaterialIndicesStruct@physx@@QAE@XZ 10033880 f i GuContactBoxBox.obj
 0001:00032890       ??1PxBase@physx@@MAE@XZ    10033890 f i GuContactBoxBox.obj
 0001:000328b0       ??1PxConvexMesh@physx@@MAE@XZ 100338b0 f i GuContactBoxBox.obj
 0001:000328e0       ??4Box@Gu@physx@@QAEABV012@ABV012@@Z 100338e0 f i GuContactBoxBox.obj
 0001:00032930       ??4GeometryUnion@Gu@physx@@QAEAAV012@$$QAV012@@Z 10033930 f i GuContactBoxBox.obj
 0001:00032960       ??4GeometryUnion@Gu@physx@@QAEAAV012@ABV012@@Z 10033960 f i GuContactBoxBox.obj
 0001:00032990       ??4MaterialIndicesStruct@physx@@QAEAAU01@ABU01@@Z 10033990 f i GuContactBoxBox.obj
 0001:000329c0       ??4PxMat33@physx@@QAEAAV01@ABV01@@Z 100339c0 f i GuContactBoxBox.obj
 0001:00032a10       ??APxMat33@physx@@QBEABVPxVec3@1@I@Z 10033a10 f i GuContactBoxBox.obj
 0001:00032a30       ??B?$PxFlags@W4Enum@PxBaseFlag@physx@@G@physx@@QBE_NXZ 10033a30 f i GuContactBoxBox.obj
 0001:00032a60       ??DMatrix34@Cm@physx@@QBE?AV012@ABV012@@Z 10033a60 f i GuContactBoxBox.obj
 0001:00032ad0       ??DPxMat33@physx@@QBE?BV01@ABV01@@Z 10033ad0 f i GuContactBoxBox.obj
 0001:00032b40       ??DPxMat33@physx@@QBE?BVPxVec3@1@ABV21@@Z 10033b40 f i GuContactBoxBox.obj
 0001:00032b70       ??I?$PxFlags@W4Enum@PxBaseFlag@physx@@G@physx@@QBE?AV01@W4Enum@PxBaseFlag@1@@Z 10033b70 f i GuContactBoxBox.obj
 0001:00032bc0       ??YPxVec3@physx@@QAEAAV01@ABV01@@Z 10033bc0 f i GuContactBoxBox.obj
 0001:00032c30       ??ZPxVec3@physx@@QAEAAV01@ABV01@@Z 10033c30 f i GuContactBoxBox.obj
 0001:00032ca0       ??_EPxConvexMesh@physx@@MAEPAXI@Z 10033ca0 f i GuContactBoxBox.obj
 0001:00032d40       ??_GPxBase@physx@@MAEPAXI@Z 10033d40 f i GuContactBoxBox.obj
 0001:00032d40       ??_EPxBase@physx@@MAEPAXI@Z 10033d40 f i GuContactBoxBox.obj
 0001:00032d80       ??_H@YGXPAXIIP6EPAX0@Z@Z   10033d80 f i GuContactBoxBox.obj
 0001:00032de0       ?FLoad@aos@shdfnd@physx@@YA?AT__m128@@M@Z 10033de0 f i GuContactBoxBox.obj
 0001:00032e20       ?V3Load@aos@shdfnd@physx@@YA?AT__m128@@M@Z 10033e20 f i GuContactBoxBox.obj
 0001:00032e80       ?V4Load@aos@shdfnd@physx@@YA?AT__m128@@M@Z 10033e80 f i GuContactBoxBox.obj
 0001:00032ec0       ?allocate@MaterialIndicesStruct@physx@@QAEXG@Z 10033ec0 f i GuContactBoxBox.obj
 0001:00032f20       ?computeAABBExtent@Box@Gu@physx@@QBE?AVPxVec3@3@XZ 10033f20 f i GuContactBoxBox.obj
 0001:000331e0       ?computeBoxPoints@Box@Gu@physx@@QBEXPIAVPxVec3@3@@Z 100341e0 f i GuContactBoxBox.obj
 0001:00033230       ?contact@ContactBuffer@Gu@physx@@QAE_NABVPxVec3@3@0MI@Z 10034230 f i GuContactBoxBox.obj
 0001:00033350       ?deallocate@MaterialIndicesStruct@physx@@QAEXXZ 10034350 f i GuContactBoxBox.obj
 0001:00033390       ?dot@PxVec3@physx@@QBEMABV12@@Z 10034390 f i GuContactBoxBox.obj
 0001:000333f0       ?getConcreteTypeName@PxConvexMesh@physx@@UBEPBDXZ 100343f0 f i GuContactBoxBox.obj
 0001:00033410       ?getGeometry@GeometryUnion@Gu@physx@@QBEABVPxGeometry@3@XZ 10034410 f i GuContactBoxBox.obj
 0001:00033430       ?getInverseRT@Matrix34@Cm@physx@@QBE?AV123@XZ 10034430 f i GuContactBoxBox.obj
 0001:00033490       ?getTransform@Box@Gu@physx@@QBE?AVPxTransform@3@XZ 10034490 f i GuContactBoxBox.obj
 0001:000334d0       ?getTranspose@PxMat33@physx@@QBE?BV12@XZ 100344d0 f i GuContactBoxBox.obj
 0001:000335c0       ?getType@GeometryUnion@Gu@physx@@QBE?AW4Enum@PxGeometryType@3@XZ 100345c0 f i GuContactBoxBox.obj
 0001:000335e0       ?getType@PxGeometry@physx@@QBE?AW4Enum@PxGeometryType@2@XZ 100345e0 f i GuContactBoxBox.obj
 0001:00033600       ?isKindOf@PxBase@physx@@MBE_NPBD@Z 10034600 f i GuContactBoxBox.obj
 0001:00033650       ?isKindOf@PxConvexMesh@physx@@MBE_NPBD@Z 10034650 f i GuContactBoxBox.obj
 0001:000336b0       ?isReleasable@PxBase@physx@@UBE_NXZ 100346b0 f i GuContactBoxBox.obj
 0001:000336e0       ?isValid@Box@Gu@physx@@QBE_NXZ 100346e0 f i GuContactBoxBox.obj
 0001:00033730       ?reset@ContactBuffer@Gu@physx@@QAEXXZ 10034730 f i GuContactBoxBox.obj
 0001:00033750       ?rotate@Box@Gu@physx@@QBE?AVPxVec3@3@ABV43@@Z 10034750 f i GuContactBoxBox.obj
 0001:00033780       ?rotateInv@Box@Gu@physx@@QBE?AVPxVec3@3@ABV43@@Z 10034780 f i GuContactBoxBox.obj
 0001:000337b0       ?setAxes@Box@Gu@physx@@QAEXABVPxVec3@3@00@Z 100347b0 f i GuContactBoxBox.obj
 0001:00033800       ?setEmpty@Box@Gu@physx@@QAEXXZ 10034800 f i GuContactBoxBox.obj
 0001:000338a0       ?to8@shdfnd@physx@@YAEI@Z  100348a0 f i GuContactBoxBox.obj
 0001:00033900       ?transform@Box@Gu@physx@@QBE?AVPxVec3@3@ABV43@@Z 10034900 f i GuContactBoxBox.obj
 0001:00033950       ?transform@Matrix34@Cm@physx@@QBE?AVPxVec3@3@ABV43@@Z 10034950 f i GuContactBoxBox.obj
 0001:000339a0       ?transform@PxMat33@physx@@QBE?BVPxVec3@2@ABV32@@Z 100349a0 f i GuContactBoxBox.obj
 0001:00033a40       ?transformTranspose@PxMat33@physx@@QBE?BVPxVec3@2@ABV32@@Z 10034a40 f i GuContactBoxBox.obj
 0001:00033b00       ?contactCapsuleBox@Gu@physx@@YA_NABVGeometryUnion@12@0ABVPxTransform@2@1ABUNarrowPhaseParams@12@AAUCache@12@AAVContactBuffer@12@PAVRenderOutput@Cm@2@@Z 10034b00 f   GuContactCapsuleBox.obj
 0001:00034f10       ??$PX_UNUSED@UCache@Gu@physx@@@@YAXABUCache@Gu@physx@@@Z 10035f10 f i GuContactCapsuleBox.obj
 0001:00034f20       ??$checkType@$$CBVPxCapsuleGeometry@physx@@@physx@@YAXABVGeometryUnion@Gu@0@@Z 10035f20 f i GuContactCapsuleBox.obj
 0001:00034fa0       ??$get@$$CBVPxCapsuleGeometry@physx@@@GeometryUnion@Gu@physx@@QBEABVPxCapsuleGeometry@2@XZ 10035fa0 f i GuContactCapsuleBox.obj
 0001:00034fc0       ??$swap@M@shdfnd@physx@@YAXAAM0@Z 10035fc0 f i GuContactCapsuleBox.obj
 0001:00035000       ??0PxPlane@physx@@QAE@XZ   10036000 f i GuContactCapsuleBox.obj
 0001:00035020       ??0Segment@Gu@physx@@QAE@XZ 10036020 f i GuContactCapsuleBox.obj
 0001:00035050       ??1Segment@Gu@physx@@QAE@XZ 10036050 f i GuContactCapsuleBox.obj
 0001:00035060       ??APxVec3@physx@@QAEAAMI@Z 10036060 f i GuContactCapsuleBox.obj
 0001:000350d0       ?PxRecipSqrt@physx@@YAMM@Z 100360d0 f i GuContactCapsuleBox.obj
 0001:000350f0       ?QuatGetMat33V@aos@shdfnd@physx@@YAXABT__m128@@AAT4@11@Z 100360f0 f i GuContactCapsuleBox.obj
 0001:00035360       ?V4Add@aos@shdfnd@physx@@YA?AT__m128@@T4@0@Z 10036360 f i GuContactCapsuleBox.obj
 0001:000353b0       ?V4ClearW@aos@shdfnd@physx@@YA?AT__m128@@T4@@Z 100363b0 f i GuContactCapsuleBox.obj
 0001:00035400       ?V4GetW@aos@shdfnd@physx@@YA?AT__m128@@T4@@Z 10036400 f i GuContactCapsuleBox.obj
 0001:00035450       ?V4GetX@aos@shdfnd@physx@@YA?AT__m128@@T4@@Z 10036450 f i GuContactCapsuleBox.obj
 0001:000354a0       ?V4GetY@aos@shdfnd@physx@@YA?AT__m128@@T4@@Z 100364a0 f i GuContactCapsuleBox.obj
 0001:000354f0       ?V4GetZ@aos@shdfnd@physx@@YA?AT__m128@@T4@@Z 100364f0 f i GuContactCapsuleBox.obj
 0001:00035540       ?V4LoadU@aos@shdfnd@physx@@YA?AT__m128@@QBM@Z 10036540 f i GuContactCapsuleBox.obj
 0001:00035580       ?V4Mul@aos@shdfnd@physx@@YA?AT__m128@@T4@0@Z 10036580 f i GuContactCapsuleBox.obj
 0001:000355d0       ?V4MulAdd@aos@shdfnd@physx@@YA?AT__m128@@T4@00@Z 100365d0 f i GuContactCapsuleBox.obj
 0001:00035640       ?V4Neg@aos@shdfnd@physx@@YA?AT__m128@@T4@@Z 10036640 f i GuContactCapsuleBox.obj
 0001:00035690       ?V4StoreU@aos@shdfnd@physx@@YAXT__m128@@PAM@Z 10036690 f i GuContactCapsuleBox.obj
 0001:000356d0       ?Vec3V_From_Vec4V@aos@shdfnd@physx@@YA?AT__m128@@T4@@Z 100366d0 f i GuContactCapsuleBox.obj
 0001:00035720       ?Vec4V_From_Vec3V@aos@shdfnd@physx@@YA?AT__m128@@T4@@Z 10036720 f i GuContactCapsuleBox.obj
 0001:00035760       ?buildFrom@physx@@YAXAAVBox@Gu@1@ABVPxQuat@1@@Z 10036760 f i GuContactCapsuleBox.obj
 0001:00035840       ?buildFrom@physx@@YAXAAVBox@Gu@1@ABVPxVec3@1@1ABVPxQuat@1@@Z 10036840 f i GuContactCapsuleBox.obj
 0001:00035880       ?closestAxis@shdfnd@physx@@YAIABVPxVec3@2@AAI1@Z 10036880 f i GuContactCapsuleBox.obj
 0001:00035980       ?computeCenter@Segment@Gu@physx@@QBE?AVPxVec3@3@XZ 10036980 f i GuContactCapsuleBox.obj
 0001:000359d0       ?distance@PxPlane@physx@@QBEMABVPxVec3@2@@Z 100369d0 f i GuContactCapsuleBox.obj
 0001:00035a10       ?getCapsuleHalfHeightVector@Gu@physx@@YA?AVPxVec3@2@ABVPxTransform@2@ABVPxCapsuleGeometry@2@@Z 10036a10 f i GuContactCapsuleBox.obj
 0001:00035a50       ?getCapsuleSegment@Gu@physx@@YAXABVPxTransform@2@ABVPxCapsuleGeometry@2@AAVSegment@12@@Z 10036a50 f i GuContactCapsuleBox.obj
 0001:00035ac0       ?getNormalized@PxVec3@physx@@QBE?AV12@XZ 10036ac0 f i GuContactCapsuleBox.obj
 0001:00035b70       ?getPointAt@Segment@Gu@physx@@QBE?AVPxVec3@3@M@Z 10036b70 f i GuContactCapsuleBox.obj
 0001:00035bd0       ?isAlmostZero@shdfnd@physx@@YA_NABVPxVec3@2@@Z 10036bd0 f i GuContactCapsuleBox.obj
 0001:00035c80       ?makeFatEdge@shdfnd@physx@@YAXAAVPxVec3@2@0M@Z 10036c80 f i GuContactCapsuleBox.obj
 0001:00035d00       ?recipSqrt@intrinsics@physx@@YAMM@Z 10036d00 f i GuContactCapsuleBox.obj
 0001:00035d50       ?selectMin@intrinsics@physx@@YAMMM@Z 10036d50 f i GuContactCapsuleBox.obj
 0001:00035de0       ?contactCapsuleCapsule@Gu@physx@@YA_NABVGeometryUnion@12@0ABVPxTransform@2@1ABUNarrowPhaseParams@12@AAUCache@12@AAVContactBuffer@12@PAVRenderOutput@Cm@2@@Z 10036de0 f   GuContactCapsuleCapsule.obj
 0001:00036820       ?computeDirection@Segment@Gu@physx@@QBE?AVPxVec3@3@XZ 10037820 f i GuContactCapsuleCapsule.obj
 0001:00036850       ?distanceSegmentSegmentSquared@Gu@physx@@YAMABVSegment@12@0PAM1@Z 10037850 f i GuContactCapsuleCapsule.obj
 0001:00036980       ?contactCapsuleConvex@Gu@physx@@YA_NABVGeometryUnion@12@0ABVPxTransform@2@1ABUNarrowPhaseParams@12@AAUCache@12@AAVContactBuffer@12@PAVRenderOutput@Cm@2@@Z 10037980 f   GuContactCapsuleConvex.obj
 0001:00038430       ??$checkType@$$CBUPxConvexMeshGeometryLL@physx@@@physx@@YAXABVGeometryUnion@Gu@0@@Z 10039430 f i GuContactCapsuleConvex.obj
 0001:000384a0       ??$get@$$CBUPxConvexMeshGeometryLL@physx@@@GeometryUnion@Gu@physx@@QBEABUPxConvexMeshGeometryLL@2@XZ 100394a0 f i GuContactCapsuleConvex.obj
 0001:000384c0       ??$getConvex@VCapsuleV@Gu@physx@@@GjkConvexBase@Gu@physx@@QBEABVCapsuleV@12@XZ 100394c0 f i GuContactCapsuleConvex.obj
 0001:000384e0       ??$getConvex@VConvexHullV@Gu@physx@@@GjkConvexBase@Gu@physx@@QBEABVConvexHullV@12@XZ 100394e0 f i GuContactCapsuleConvex.obj
 0001:00038500       ??$gjk@U?$LocalConvex@VCapsuleV@Gu@physx@@@Gu@physx@@U?$LocalConvex@VConvexHullV@Gu@physx@@@23@@Gu@physx@@YA?AW4GjkStatus@01@ABU?$LocalConvex@VCapsuleV@Gu@physx@@@01@ABU?$LocalConvex@VConvexHullV@Gu@physx@@@01@ABT__m128@@2AAT5@333@Z 10039500 f i GuContactCapsuleConvex.obj
 0001:000390f0       ??0?$LocalConvex@VCapsuleV@Gu@physx@@@Gu@physx@@QAE@ABVCapsuleV@12@@Z 1003a0f0 f i GuContactCapsuleConvex.obj
 0001:00039120       ??0?$LocalConvex@VConvexHullV@Gu@physx@@@Gu@physx@@QAE@ABVConvexHullV@12@@Z 1003a120 f i GuContactCapsuleConvex.obj
 0001:00039150       ??0?$PxBitAndDataT@G$0IAAA@@physx@@QAE@W4PxEMPTY@1@@Z 1003a150 f i GuContactCapsuleConvex.obj
 0001:00039170       ??0?$PxBitAndDataT@I$0IAAAAAAA@@physx@@QAE@W4PxEMPTY@1@@Z 1003a170 f i GuContactCapsuleConvex.obj
 0001:00039190       ??0CapsuleV@Gu@physx@@QAE@ABT__m128@@00@Z 1003a190 f i GuContactCapsuleConvex.obj
 0001:00039290       ??0CenterExtents@Gu@physx@@QAE@XZ 1003a290 f i GuContactCapsuleConvex.obj
 0001:000392c0       ??0ConvexEdge@Gu@physx@@QAE@XZ 1003a2c0 f i GuContactCapsuleConvex.obj
 0001:000392e0       ??0ConvexHullData@Gu@physx@@QAE@W4PxEMPTY@2@@Z 1003a2e0 f i GuContactCapsuleConvex.obj
 0001:00039320       ??0ConvexHullV@Gu@physx@@QAE@PBUConvexHullData@12@ABT__m128@@11_N@Z 1003a320 f i GuContactCapsuleConvex.obj
 0001:00039410       ??0ConvexMesh@Gu@physx@@QAE@V?$PxFlags@W4Enum@PxBaseFlag@physx@@G@2@@Z 1003a410 f i GuContactCapsuleConvex.obj
 0001:000394b0       ??0ConvexV@Gu@physx@@QAE@W4Type@ConvexType@12@ABT__m128@@@Z 1003a4b0 f i GuContactCapsuleConvex.obj
 0001:00039510       ??0FastVertex2ShapeScaling@Cm@physx@@QAE@XZ 1003a510 f i GuContactCapsuleConvex.obj
 0001:00039580       ??0GjkConvex@Gu@physx@@QAE@ABVConvexV@12@@Z 1003a580 f i GuContactCapsuleConvex.obj
 0001:000395b0       ??0GjkConvexBase@Gu@physx@@QAE@ABVConvexV@12@@Z 1003a5b0 f i GuContactCapsuleConvex.obj
 0001:000395e0       ??0HullPolygonData@Gu@physx@@QAE@ABU012@@Z 1003a5e0 f i GuContactCapsuleConvex.obj
 0001:00039640       ??0Mat33V@aos@shdfnd@physx@@QAE@ABT__m128@@00@Z 1003a640 f i GuContactCapsuleConvex.obj
 0001:00039690       ??0Mat33V@aos@shdfnd@physx@@QAE@XZ 1003a690 f i GuContactCapsuleConvex.obj
 0001:000396b0       ??0PolygonalBox@Gu@physx@@QAE@ABV012@@Z 1003a6b0 f i GuContactCapsuleConvex.obj
 0001:00039720       ??0PolygonalData@Gu@physx@@QAE@XZ 1003a720 f i GuContactCapsuleConvex.obj
 0001:00039740       ??0PsMatTransformV@aos@shdfnd@physx@@QAE@ABVPsTransformV@123@@Z 1003a740 f i GuContactCapsuleConvex.obj
 0001:000397a0       ??0PsTransformV@aos@shdfnd@physx@@QAE@ABVPxTransform@3@@Z 1003a7a0 f i GuContactCapsuleConvex.obj
 0001:00039860       ??0PxBase@physx@@IAE@V?$PxFlags@W4Enum@PxBaseFlag@physx@@G@1@@Z 1003a860 f i GuContactCapsuleConvex.obj
 0001:000398a0       ??0PxConvexMesh@physx@@IAE@V?$PxFlags@W4Enum@PxBaseFlag@physx@@G@1@@Z 1003a8a0 f i GuContactCapsuleConvex.obj
 0001:000398e0       ??0PxMeshScale@physx@@QAE@ABVPxVec3@1@ABVPxQuat@1@@Z 1003a8e0 f i GuContactCapsuleConvex.obj
 0001:00039980       ??0RefCountable@Cm@physx@@QAE@W4PxEMPTY@2@@Z 1003a980 f i GuContactCapsuleConvex.obj
 0001:000399b0       ??1?$LocalConvex@VCapsuleV@Gu@physx@@@Gu@physx@@UAE@XZ 1003a9b0 f i GuContactCapsuleConvex.obj
 0001:000399d0       ??1?$LocalConvex@VConvexHullV@Gu@physx@@@Gu@physx@@UAE@XZ 1003a9d0 f i GuContactCapsuleConvex.obj
 0001:000399f0       ??1CapsuleV@Gu@physx@@QAE@XZ 1003a9f0 f i GuContactCapsuleConvex.obj
 0001:00039a10       ??1ConvexHullV@Gu@physx@@QAE@XZ 1003aa10 f i GuContactCapsuleConvex.obj
 0001:00039a30       ??1ConvexV@Gu@physx@@IAE@XZ 1003aa30 f i GuContactCapsuleConvex.obj
 0001:00039a40       ??1GjkConvex@Gu@physx@@UAE@XZ 1003aa40 f i GuContactCapsuleConvex.obj
 0001:00039a60       ??1GjkConvexBase@Gu@physx@@UAE@XZ 1003aa60 f i GuContactCapsuleConvex.obj
 0001:00039a80       ??1RefCountable@Cm@physx@@UAE@XZ 1003aa80 f i GuContactCapsuleConvex.obj
 0001:00039aa0       ??4FPUGuard@shdfnd@physx@@QAEAAV012@ABV012@@Z 1003aaa0 f i GuContactCapsuleConvex.obj
 0001:00039ad0       ??8PxVec3@physx@@QBE_NABV01@@Z 1003aad0 f i GuContactCapsuleConvex.obj
 0001:00039b50       ??B?$PxBitAndDataT@G$0IAAA@@physx@@QBEGXZ 1003ab50 f i GuContactCapsuleConvex.obj
 0001:00039b70       ??DFastVertex2ShapeScaling@Cm@physx@@QBE?AVPxVec3@2@ABV32@@Z 1003ab70 f i GuContactCapsuleConvex.obj
 0001:00039ba0       ??Dphysx@@YA?AVMatrix34@Cm@0@ABVPxMeshScale@0@ABVPxTransform@0@@Z 1003aba0 f i GuContactCapsuleConvex.obj
 0001:00039c10       ??_EConvexMesh@Gu@physx@@UAEPAXI@Z 1003ac10 f i GuContactCapsuleConvex.obj
 0001:00039cef       ??_EConvexMesh@Gu@physx@@W7AEPAXI@Z 1003acef f i GuContactCapsuleConvex.obj
 0001:00039d00       ??_E?$LocalConvex@VCapsuleV@Gu@physx@@@Gu@physx@@UAEPAXI@Z 1003ad00 f i GuContactCapsuleConvex.obj
 0001:00039d00       ??_G?$LocalConvex@VCapsuleV@Gu@physx@@@Gu@physx@@UAEPAXI@Z 1003ad00 f i GuContactCapsuleConvex.obj
 0001:00039d40       ??_G?$LocalConvex@VConvexHullV@Gu@physx@@@Gu@physx@@UAEPAXI@Z 1003ad40 f i GuContactCapsuleConvex.obj
 0001:00039d40       ??_E?$LocalConvex@VConvexHullV@Gu@physx@@@Gu@physx@@UAEPAXI@Z 1003ad40 f i GuContactCapsuleConvex.obj
 0001:00039d80       ??_EGjkConvex@Gu@physx@@UAEPAXI@Z 1003ad80 f i GuContactCapsuleConvex.obj
 0001:00039d80       ??_GGjkConvex@Gu@physx@@UAEPAXI@Z 1003ad80 f i GuContactCapsuleConvex.obj
 0001:00039dc0       ??_EGjkConvexBase@Gu@physx@@UAEPAXI@Z 1003adc0 f i GuContactCapsuleConvex.obj
 0001:00039dc0       ??_GGjkConvexBase@Gu@physx@@UAEPAXI@Z 1003adc0 f i GuContactCapsuleConvex.obj
 0001:00039e00       ??_ERefCountable@Cm@physx@@UAEPAXI@Z 1003ae00 f i GuContactCapsuleConvex.obj
 0001:00039e00       ??_GRefCountable@Cm@physx@@UAEPAXI@Z 1003ae00 f i GuContactCapsuleConvex.obj
 0001:00039e40       ??_VUserAllocated@shdfnd@physx@@SAXPAX@Z 1003ae40 f i GuContactCapsuleConvex.obj
 0001:00039e70       ??__G@YGXPAX0IIP6EPAX00@Z@Z 1003ae70 f i GuContactCapsuleConvex.obj
 0001:00039ee0       ?BAllEqTTTT@aos@shdfnd@physx@@YAIT__m128@@@Z 1003aee0 f i GuContactCapsuleConvex.obj
 0001:00039f40       ?BAllTrue3_R@internalWindowsSimd@aos@shdfnd@physx@@YAIT__m128@@@Z 1003af40 f i GuContactCapsuleConvex.obj
 0001:00039fa0       ?BAllTrue4_R@internalWindowsSimd@aos@shdfnd@physx@@YAIT__m128@@@Z 1003afa0 f i GuContactCapsuleConvex.obj
 0001:0003a000       ?BAnd@aos@shdfnd@physx@@YA?AT__m128@@T4@0@Z 1003b000 f i GuContactCapsuleConvex.obj
 0001:0003a050       ?BFFFF@aos@shdfnd@physx@@YA?AT__m128@@XZ 1003b050 f i GuContactCapsuleConvex.obj
 0001:0003a090       ?BLoad@aos@shdfnd@physx@@YA?AT__m128@@_N@Z 1003b090 f i GuContactCapsuleConvex.obj
 0001:0003a0e0       ?BTTTF@aos@shdfnd@physx@@YA?AT__m128@@XZ 1003b0e0 f i GuContactCapsuleConvex.obj
 0001:0003a130       ?BTTTT@aos@shdfnd@physx@@YA?AT__m128@@XZ 1003b130 f i GuContactCapsuleConvex.obj
 0001:0003a180       ?CalculateConvexMargin@Gu@physx@@YAXPBUConvexHullData@12@AAM11ABT__m128@@@Z 1003b180 f i GuContactCapsuleConvex.obj
 0001:0003a330       ?ComputeCubemapNearestOffset@physx@@YAIABVPxVec3@1@I@Z 1003b330 f i GuContactCapsuleConvex.obj
 0001:0003a440       ?ConstructSkewMatrix@Gu@physx@@YAXABT__m128@@0AAUMat33V@aos@shdfnd@2@1_N@Z 1003b440 f i GuContactCapsuleConvex.obj
 0001:0003a810       ?CubemapLookup@physx@@YA?AW4CubeIndex@1@ABVPxVec3@1@AAM1@Z 1003b810 f i GuContactCapsuleConvex.obj
 0001:0003a9c0       ?FAbs@aos@shdfnd@physx@@YA?AT__m128@@T4@@Z 1003b9c0 f i GuContactCapsuleConvex.obj
 0001:0003aa70       ?FAdd@aos@shdfnd@physx@@YA?AT__m128@@T4@0@Z 1003ba70 f i GuContactCapsuleConvex.obj
 0001:0003ab60       ?FAllEq@aos@shdfnd@physx@@YAIT__m128@@0@Z 1003bb60 f i GuContactCapsuleConvex.obj
 0001:0003ac60       ?FAllGrtr@aos@shdfnd@physx@@YAIT__m128@@0@Z 1003bc60 f i GuContactCapsuleConvex.obj
 0001:0003ad50       ?FAllGrtrOrEq@aos@shdfnd@physx@@YAIT__m128@@0@Z 1003bd50 f i GuContactCapsuleConvex.obj
 0001:0003ae40       ?FClamp@aos@shdfnd@physx@@YA?AT__m128@@T4@00@Z 1003be40 f i GuContactCapsuleConvex.obj
 0001:0003af50       ?FDiv@aos@shdfnd@physx@@YA?AT__m128@@T4@0@Z 1003bf50 f i GuContactCapsuleConvex.obj
 0001:0003b040       ?FEps@aos@shdfnd@physx@@YA?AT__m128@@XZ 1003c040 f i GuContactCapsuleConvex.obj
 0001:0003b090       ?FIsGrtr@aos@shdfnd@physx@@YA?AT__m128@@T4@0@Z 1003c090 f i GuContactCapsuleConvex.obj
 0001:0003b190       ?FIsGrtrOrEq@aos@shdfnd@physx@@YA?AT__m128@@T4@0@Z 1003c190 f i GuContactCapsuleConvex.obj
 0001:0003b290       ?FMax@aos@shdfnd@physx@@YA?AT__m128@@T4@0@Z 1003c290 f i GuContactCapsuleConvex.obj
 0001:0003b380       ?FMax@aos@shdfnd@physx@@YA?AT__m128@@XZ 1003c380 f i GuContactCapsuleConvex.obj
 0001:0003b3d0       ?FMin@aos@shdfnd@physx@@YA?AT__m128@@T4@0@Z 1003c3d0 f i GuContactCapsuleConvex.obj
 0001:0003b4c0       ?FMul@aos@shdfnd@physx@@YA?AT__m128@@T4@0@Z 1003c4c0 f i GuContactCapsuleConvex.obj
 0001:0003b5b0       ?FOne@aos@shdfnd@physx@@YA?AT__m128@@XZ 1003c5b0 f i GuContactCapsuleConvex.obj
 0001:0003b600       ?FRecip@aos@shdfnd@physx@@YA?AT__m128@@T4@@Z 1003c600 f i GuContactCapsuleConvex.obj
 0001:0003b6b0       ?FSel@aos@shdfnd@physx@@YA?AT__m128@@T4@00@Z 1003c6b0 f i GuContactCapsuleConvex.obj
 0001:0003b850       ?FStore@aos@shdfnd@physx@@YAXT__m128@@PIAM@Z 1003c850 f i GuContactCapsuleConvex.obj
 0001:0003b8e0       ?FSub@aos@shdfnd@physx@@YA?AT__m128@@T4@0@Z 1003c8e0 f i GuContactCapsuleConvex.obj
 0001:0003b9d0       ?FZero@aos@shdfnd@physx@@YA?AT__m128@@XZ 1003c9d0 f i GuContactCapsuleConvex.obj
 0001:0003ba10       ?GJKCPairDoSimplex@Gu@physx@@YA?AT__m128@@PIAT3@00ABT3@AAI@Z 1003ca10 f i GuContactCapsuleConvex.obj
 0001:0003bb50       ?I4Load@aos@shdfnd@physx@@YA?AT__m128@@H@Z 1003cb50 f i GuContactCapsuleConvex.obj
 0001:0003bb90       ?M33Diagonal@aos@shdfnd@physx@@YA?AUMat33V@123@ABT__m128@@@Z 1003cb90 f i GuContactCapsuleConvex.obj
 0001:0003bc70       ?M33Identity@aos@shdfnd@physx@@YA?AUMat33V@123@XZ 1003cc70 f i GuContactCapsuleConvex.obj
 0001:0003bce0       ?M33MulM33@aos@shdfnd@physx@@YA?AUMat33V@123@ABU4123@0@Z 1003cce0 f i GuContactCapsuleConvex.obj
 0001:0003bd80       ?M33MulV3@aos@shdfnd@physx@@YA?AT__m128@@ABUMat33V@123@T4@@Z 1003cd80 f i GuContactCapsuleConvex.obj
 0001:0003bee0       ?M33Trnsps@aos@shdfnd@physx@@YA?AUMat33V@123@ABU4123@@Z 1003cee0 f i GuContactCapsuleConvex.obj
 0001:0003bf70       ?M33TrnspsMulV3@aos@shdfnd@physx@@YA?AT__m128@@ABUMat33V@123@T4@@Z 1003cf70 f i GuContactCapsuleConvex.obj
 0001:0003c060       ?PxI32_From_VecI32V@aos@shdfnd@physx@@YAXABT__m128@@PAH@Z 1003d060 f i GuContactCapsuleConvex.obj
 0001:0003c080       ?QuatVLoadU@aos@shdfnd@physx@@YA?AT__m128@@PBM@Z 1003d080 f i GuContactCapsuleConvex.obj
 0001:0003c0d0       ?QuatVLoadXYZW@aos@shdfnd@physx@@YA?AT__m128@@MMMM@Z 1003d0d0 f i GuContactCapsuleConvex.obj
 0001:0003c120       ?V3Add@aos@shdfnd@physx@@YA?AT__m128@@T4@0@Z 1003d120 f i GuContactCapsuleConvex.obj
 0001:0003c210       ?V3AllEq@aos@shdfnd@physx@@YAIT__m128@@0@Z 1003d210 f i GuContactCapsuleConvex.obj
 0001:0003c310       ?V3Cross@aos@shdfnd@physx@@YA?AT__m128@@ABUVecCrossV@123@0@Z 1003d310 f i GuContactCapsuleConvex.obj
 0001:0003c380       ?V3Cross@aos@shdfnd@physx@@YA?AT__m128@@T4@0@Z 1003d380 f i GuContactCapsuleConvex.obj
 0001:0003c530       ?V3Dot@aos@shdfnd@physx@@YA?AT__m128@@T4@0@Z 1003d530 f i GuContactCapsuleConvex.obj
 0001:0003c6b0       ?V3ExtractMin@aos@shdfnd@physx@@YA?AT__m128@@T4@@Z 1003d6b0 f i GuContactCapsuleConvex.obj
 0001:0003c7c0       ?V3GetX@aos@shdfnd@physx@@YA?AT__m128@@T4@@Z 1003d7c0 f i GuContactCapsuleConvex.obj
 0001:0003c860       ?V3GetY@aos@shdfnd@physx@@YA?AT__m128@@T4@@Z 1003d860 f i GuContactCapsuleConvex.obj
 0001:0003c900       ?V3GetZ@aos@shdfnd@physx@@YA?AT__m128@@T4@@Z 1003d900 f i GuContactCapsuleConvex.obj
 0001:0003c9a0       ?V3Length@aos@shdfnd@physx@@YA?AT__m128@@T4@@Z 1003d9a0 f i GuContactCapsuleConvex.obj
 0001:0003ca50       ?V3LoadU@aos@shdfnd@physx@@YA?AT__m128@@ABVPxVec3@3@@Z 1003da50 f i GuContactCapsuleConvex.obj
 0001:0003cab0       ?V3LoadU@aos@shdfnd@physx@@YA?AT__m128@@PBM@Z 1003dab0 f i GuContactCapsuleConvex.obj
 0001:0003cb30       ?V3LoadU_SafeReadW@aos@shdfnd@physx@@YA?AT__m128@@ABVPxVec3@3@@Z 1003db30 f i GuContactCapsuleConvex.obj
 0001:0003cb90       ?V3Mul@aos@shdfnd@physx@@YA?AT__m128@@T4@0@Z 1003db90 f i GuContactCapsuleConvex.obj
 0001:0003cc80       ?V3Neg@aos@shdfnd@physx@@YA?AT__m128@@T4@@Z 1003dc80 f i GuContactCapsuleConvex.obj
 0001:0003cd20       ?V3NegScaleSub@aos@shdfnd@physx@@YA?AT__m128@@T4@00@Z 1003dd20 f i GuContactCapsuleConvex.obj
 0001:0003ce90       ?V3Normalize@aos@shdfnd@physx@@YA?AT__m128@@T4@@Z 1003de90 f i GuContactCapsuleConvex.obj
 0001:0003cf50       ?V3One@aos@shdfnd@physx@@YA?AT__m128@@XZ 1003df50 f i GuContactCapsuleConvex.obj
 0001:0003cfa0       ?V3PrepareCross@aos@shdfnd@physx@@YA?AUVecCrossV@123@T__m128@@@Z 1003dfa0 f i GuContactCapsuleConvex.obj
 0001:0003d070       ?V3Recip@aos@shdfnd@physx@@YA?AT__m128@@T4@@Z 1003e070 f i GuContactCapsuleConvex.obj
 0001:0003d180       ?V3Scale@aos@shdfnd@physx@@YA?AT__m128@@T4@0@Z 1003e180 f i GuContactCapsuleConvex.obj
 0001:0003d270       ?V3ScaleAdd@aos@shdfnd@physx@@YA?AT__m128@@T4@00@Z 1003e270 f i GuContactCapsuleConvex.obj
 0001:0003d3e0       ?V3ScaleInv@aos@shdfnd@physx@@YA?AT__m128@@T4@0@Z 1003e3e0 f i GuContactCapsuleConvex.obj
 0001:0003d4d0       ?V3Sel@aos@shdfnd@physx@@YA?AT__m128@@T4@00@Z 1003e4d0 f i GuContactCapsuleConvex.obj
 0001:0003d5d0       ?V3Splat@aos@shdfnd@physx@@YA?AT__m128@@T4@@Z 1003e5d0 f i GuContactCapsuleConvex.obj
 0001:0003d6a0       ?V3StoreU@aos@shdfnd@physx@@YAXT__m128@@AAVPxVec3@3@@Z 1003e6a0 f i GuContactCapsuleConvex.obj
 0001:0003d740       ?V3Sub@aos@shdfnd@physx@@YA?AT__m128@@T4@0@Z 1003e740 f i GuContactCapsuleConvex.obj
 0001:0003d830       ?V3Transpose@aos@shdfnd@physx@@YAXAAT__m128@@00@Z 1003e830 f i GuContactCapsuleConvex.obj
 0001:0003da80       ?V3UnitX@aos@shdfnd@physx@@YA?AT__m128@@XZ 1003ea80 f i GuContactCapsuleConvex.obj
 0001:0003daf0       ?V3UnitY@aos@shdfnd@physx@@YA?AT__m128@@XZ 1003eaf0 f i GuContactCapsuleConvex.obj
 0001:0003db60       ?V3UnitZ@aos@shdfnd@physx@@YA?AT__m128@@XZ 1003eb60 f i GuContactCapsuleConvex.obj
 0001:0003dbd0       ?V3Zero@aos@shdfnd@physx@@YA?AT__m128@@XZ 1003ebd0 f i GuContactCapsuleConvex.obj
 0001:0003dc10       ?V4IsEq@aos@shdfnd@physx@@YA?AT__m128@@T4@0@Z 1003ec10 f i GuContactCapsuleConvex.obj
 0001:0003dc60       ?V4LoadXYZW@aos@shdfnd@physx@@YA?AT__m128@@ABM000@Z 1003ec60 f i GuContactCapsuleConvex.obj
 0001:0003dcc0       ?V4ReadW@aos@shdfnd@physx@@YAMABT__m128@@@Z 1003ecc0 f i GuContactCapsuleConvex.obj
 0001:0003dcd0       ?V4ReadX@aos@shdfnd@physx@@YAMABT__m128@@@Z 1003ecd0 f i GuContactCapsuleConvex.obj
 0001:0003dce0       ?V4ReadY@aos@shdfnd@physx@@YAMABT__m128@@@Z 1003ece0 f i GuContactCapsuleConvex.obj
 0001:0003dcf0       ?V4ReadZ@aos@shdfnd@physx@@YAMABT__m128@@@Z 1003ecf0 f i GuContactCapsuleConvex.obj
 0001:0003dd00       ?V4Sel@aos@shdfnd@physx@@YA?AT__m128@@T4@00@Z 1003ed00 f i GuContactCapsuleConvex.obj
 0001:0003dd70       ?V4StoreA@aos@shdfnd@physx@@YAXT__m128@@PAM@Z 1003ed70 f i GuContactCapsuleConvex.obj
 0001:0003de10       ?VecI32V_And@aos@shdfnd@physx@@YA?AT__m128@@ABT4@0@Z 1003ee10 f i GuContactCapsuleConvex.obj
 0001:0003de60       ?VecI32V_From_BoolV@aos@shdfnd@physx@@YA?AT__m128@@ABT4@@Z 1003ee60 f i GuContactCapsuleConvex.obj
 0001:0003de70       ?VecI32V_IsEq@aos@shdfnd@physx@@YA?AT__m128@@ABT4@0@Z 1003ee70 f i GuContactCapsuleConvex.obj
 0001:0003def0       ?VecI32V_One@aos@shdfnd@physx@@YA?AT__m128@@XZ 1003eef0 f i GuContactCapsuleConvex.obj
 0001:0003df30       ?allElementsEqualBoolV@_VecMathTests@aos@shdfnd@physx@@YA_NT__m128@@0@Z 1003ef30 f i GuContactCapsuleConvex.obj
 0001:0003dfb0       ?bruteForceSearch@ConvexHullV@Gu@physx@@QBEIABT__m128@@@Z 1003efb0 f i GuContactCapsuleConvex.obj
 0001:0003e0e0       ?closestPtPointSegment@Gu@physx@@YA?AT__m128@@PIAT3@AAI@Z 1003f0e0 f i GuContactCapsuleConvex.obj
 0001:0003e2f0       ?closestPtPointTriangle@Gu@physx@@YA?AT__m128@@PIAT3@PAT3@1AAI@Z 1003f2f0 f i GuContactCapsuleConvex.obj
 0001:0003e660       ?closestPtPointTriangleBaryCentric@Gu@physx@@YA?AT__m128@@ABT3@00PIAIAAIAAT3@@Z 1003f660 f i GuContactCapsuleConvex.obj
 0001:0003f6d0       ?createDiagonal@PxMat33@physx@@SA?BV12@ABVPxVec3@2@@Z 100406d0 f i GuContactCapsuleConvex.obj
 0001:0003f790       ?doVirtualGetSweepMargin@GjkConvex@Gu@physx@@ABE?AT__m128@@XZ 10040790 f i GuContactCapsuleConvex.obj
 0001:0003f7c0       ?doVirtualSupport@GjkConvex@Gu@physx@@ABE?AT__m128@@ABT4@@Z 100407c0 f i GuContactCapsuleConvex.obj
 0001:0003f7f0       ?doVirtualSupport@GjkConvex@Gu@physx@@ABE?AT__m128@@ABT4@AAHPAT4@@Z 100407f0 f i GuContactCapsuleConvex.obj
 0001:0003f830       ?doVirtualSupportPoint@GjkConvex@Gu@physx@@ABE?AT__m128@@HPAT4@@Z 10040830 f i GuContactCapsuleConvex.obj
 0001:0003f870       ?getCenter@ConvexV@Gu@physx@@QBE?AT__m128@@XZ 10040870 f i GuContactCapsuleConvex.obj
 0001:0003f8a0       ?getCenter@GjkConvexBase@Gu@physx@@QBE?AT__m128@@XZ 100408a0 f i GuContactCapsuleConvex.obj
 0001:0003f8d0       ?getClosestPoint@Gu@physx@@YAXPIBT__m128@@00ABT3@AAT3@2I@Z 100408d0 f i GuContactCapsuleConvex.obj
 0001:0003fd00       ?getConjugate@PxQuat@physx@@QBE?AV12@XZ 10040d00 f i GuContactCapsuleConvex.obj
 0001:0003fd80       ?getDeterminant@PxMat33@physx@@QBEMXZ 10040d80 f i GuContactCapsuleConvex.obj
 0001:0003fdc0       ?getHull@ConvexMesh@Gu@physx@@QAEAAUConvexHullData@23@XZ 10040dc0 f i GuContactCapsuleConvex.obj
 0001:0003fde0       ?getHullVertices@ConvexHullData@Gu@physx@@QBEPBVPxVec3@3@XZ 10040de0 f i GuContactCapsuleConvex.obj
 0001:0003fe20       ?getIndex@CapsuleV@Gu@physx@@QBEXT__m128@@AAH@Z 10040e20 f i GuContactCapsuleConvex.obj
 0001:0003fec0       ?getIndexBuffer@ConvexMesh@Gu@physx@@UBEPBEXZ 10040ec0 f i GuContactCapsuleConvex.obj
 0001:0003fee0       ?getInverse@PxMat33@physx@@QBE?BV12@XZ 10040ee0 f i GuContactCapsuleConvex.obj
 0001:00040190       ?getInverse@PxMeshScale@physx@@QBE?AV12@XZ 10041190 f i GuContactCapsuleConvex.obj
 0001:00040220       ?getInverse@PxTransform@physx@@QBE?AV12@XZ 10041220 f i GuContactCapsuleConvex.obj
 0001:000402d0       ?getMargin@ConvexV@Gu@physx@@QBE?AT__m128@@XZ 100412d0 f i GuContactCapsuleConvex.obj
 0001:00040330       ?getMargin@GjkConvexBase@Gu@physx@@QBE?AT__m128@@XZ 10041330 f i GuContactCapsuleConvex.obj
 0001:00040360       ?getMinMargin@ConvexV@Gu@physx@@QBE?AT__m128@@XZ 10041360 f i GuContactCapsuleConvex.obj
 0001:000403c0       ?getMinMargin@GjkConvexBase@Gu@physx@@QBE?AT__m128@@XZ 100413c0 f i GuContactCapsuleConvex.obj
 0001:000403f0       ?getNbPolygons@ConvexMesh@Gu@physx@@UBEIXZ 100413f0 f i GuContactCapsuleConvex.obj
 0001:00040410       ?getNbVertices@ConvexMesh@Gu@physx@@UBEIXZ 10041410 f i GuContactCapsuleConvex.obj
 0001:00040430       ?getSweepMargin@?$LocalConvex@VCapsuleV@Gu@physx@@@Gu@physx@@UBE?AT__m128@@XZ 10041430 f i GuContactCapsuleConvex.obj
 0001:00040460       ?getSweepMargin@?$LocalConvex@VConvexHullV@Gu@physx@@@Gu@physx@@UBE?AT__m128@@XZ 10041460 f i GuContactCapsuleConvex.obj
 0001:00040490       ?getSweepMargin@CapsuleV@Gu@physx@@QBE?AT__m128@@XZ 10041490 f i GuContactCapsuleConvex.obj
 0001:000404e0       ?getSweepMargin@ConvexV@Gu@physx@@QBE?AT__m128@@XZ 100414e0 f i GuContactCapsuleConvex.obj
 0001:00040540       ?getSweepMargin@GjkConvex@Gu@physx@@UBE?AT__m128@@XZ 10041540 f i GuContactCapsuleConvex.obj
 0001:00040570       ?getVertexData8@ConvexHullData@Gu@physx@@QBEPBEXZ 10041570 f i GuContactCapsuleConvex.obj
 0001:00040620       ?getVertices@ConvexMesh@Gu@physx@@UBEPBVPxVec3@3@XZ 10041620 f i GuContactCapsuleConvex.obj
 0001:00040640       ?hillClimbing@ConvexHullV@Gu@physx@@QBEIABT__m128@@@Z 10041640 f i GuContactCapsuleConvex.obj
 0001:00040900       ?init@FastVertex2ShapeScaling@Cm@physx@@QAEXABVPxMeshScale@3@@Z 10041900 f i GuContactCapsuleConvex.obj
 0001:00040930       ?init@FastVertex2ShapeScaling@Cm@physx@@QAEXABVPxVec3@3@ABVPxQuat@3@@Z 10041930 f i GuContactCapsuleConvex.obj
 0001:00040a40       ?isAligned16@aos@shdfnd@physx@@YA_NPAX@Z 10041a40 f i GuContactCapsuleConvex.obj
 0001:00040a70       ?isBitSet@?$PxBitAndDataT@G$0IAAA@@physx@@QBEGXZ 10041a70 f i GuContactCapsuleConvex.obj
 0001:00040a90       ?isFinite@PxTransform@physx@@QBE_NXZ 10041a90 f i GuContactCapsuleConvex.obj
 0001:00040af0       ?isIdentity@PxMeshScale@physx@@QBE_NXZ 10041af0 f i GuContactCapsuleConvex.obj
 0001:00040b70       ?isMarginEqRadius@ConvexV@Gu@physx@@QBE?AT__m128@@XZ 10041b70 f i GuContactCapsuleConvex.obj
 0001:00040bd0       ?isMarginEqRadius@GjkConvexBase@Gu@physx@@QBE?AT__m128@@XZ 10041bd0 f i GuContactCapsuleConvex.obj
 0001:00040c00       ?isSane@PxTransform@physx@@QBE_NXZ 10041c00 f i GuContactCapsuleConvex.obj
 0001:00040c50       ?isUnit@PxQuat@physx@@QBE_NXZ 10041c50 f i GuContactCapsuleConvex.obj
 0001:00040ce0       ?isValidFloatV@aos@shdfnd@physx@@YA_NT__m128@@@Z 10041ce0 f i GuContactCapsuleConvex.obj
 0001:00040eb0       ?isValidVec3V@aos@shdfnd@physx@@YA_NT__m128@@@Z 10041eb0 f i GuContactCapsuleConvex.obj
 0001:00040f30       ?m128_F2I@internalWindowsSimd@aos@shdfnd@physx@@YA?AT__m128i@@T__m128@@@Z 10041f30 f i GuContactCapsuleConvex.obj
 0001:00040f70       ?m128_I2F@internalWindowsSimd@aos@shdfnd@physx@@YA?AT__m128@@T__m128i@@@Z 10041f70 f i GuContactCapsuleConvex.obj
 0001:00040fb0       ?onRefCountZero@RefCountable@Cm@physx@@UAEXXZ 10041fb0 f i GuContactCapsuleConvex.obj
 0001:00041000       ?requires@ConvexMesh@Gu@physx@@UAEXAAVPxProcessPxBaseCallback@3@@Z 10042000 f i GuContactCapsuleConvex.obj
 0001:00041010       ?rotate@Matrix34@Cm@physx@@QBE?AVPxVec3@3@ABV43@@Z 10042010 f i GuContactCapsuleConvex.obj
 0001:00041040       ?rotate@PsMatTransformV@aos@shdfnd@physx@@QBE?AT__m128@@ABT5@@Z 10042040 f i GuContactCapsuleConvex.obj
 0001:000410a0       ?rotate@PxTransform@physx@@QBE?AVPxVec3@2@ABV32@@Z 100420a0 f i GuContactCapsuleConvex.obj
 0001:00041120       ?rotateInv@PxQuat@physx@@QBE?BVPxVec3@2@ABV32@@Z 10042120 f i GuContactCapsuleConvex.obj
 0001:00041310       ?rotateTranspose@Matrix34@Cm@physx@@QBE?AVPxVec3@3@ABV43@@Z 10042310 f i GuContactCapsuleConvex.obj
 0001:00041340       ?selectMax@intrinsics@physx@@YAMMM@Z 10042340 f i GuContactCapsuleConvex.obj
 0001:00041380       ?setBit@?$PxBitAndDataT@I$0IAAAAAAA@@physx@@QAEXXZ 10042380 f i GuContactCapsuleConvex.obj
 0001:000413b0       ?support@?$LocalConvex@VCapsuleV@Gu@physx@@@Gu@physx@@UBE?AT__m128@@ABT4@@Z 100423b0 f i GuContactCapsuleConvex.obj
 0001:000413e0       ?support@?$LocalConvex@VCapsuleV@Gu@physx@@@Gu@physx@@UBE?AT__m128@@ABT4@AAHPAT4@@Z 100423e0 f i GuContactCapsuleConvex.obj
 0001:00041420       ?support@?$LocalConvex@VConvexHullV@Gu@physx@@@Gu@physx@@UBE?AT__m128@@ABT4@@Z 10042420 f i GuContactCapsuleConvex.obj
 0001:00041450       ?support@?$LocalConvex@VConvexHullV@Gu@physx@@@Gu@physx@@UBE?AT__m128@@ABT4@AAHPAT4@@Z 10042450 f i GuContactCapsuleConvex.obj
 0001:00041490       ?support@GjkConvex@Gu@physx@@UBE?AT__m128@@ABT4@@Z 10042490 f i GuContactCapsuleConvex.obj
 0001:000414c0       ?support@GjkConvex@Gu@physx@@UBE?AT__m128@@ABT4@AAHPAT4@@Z 100424c0 f i GuContactCapsuleConvex.obj
 0001:00041500       ?supportLocal@CapsuleV@Gu@physx@@QBE?AT__m128@@ABT4@@Z 10042500 f i GuContactCapsuleConvex.obj
 0001:000415c0       ?supportLocal@CapsuleV@Gu@physx@@QBE?AT__m128@@ABT4@AAHPAT4@@Z 100425c0 f i GuContactCapsuleConvex.obj
 0001:000416b0       ?supportLocal@ConvexHullV@Gu@physx@@QBE?AT__m128@@ABT4@@Z 100426b0 f i GuContactCapsuleConvex.obj
 0001:00041770       ?supportLocal@ConvexHullV@Gu@physx@@QBE?AT__m128@@ABT4@AAHPAT4@@Z 10042770 f i GuContactCapsuleConvex.obj
 0001:00041840       ?supportPoint@?$LocalConvex@VCapsuleV@Gu@physx@@@Gu@physx@@UBE?AT__m128@@HPAT4@@Z 10042840 f i GuContactCapsuleConvex.obj
 0001:00041880       ?supportPoint@?$LocalConvex@VConvexHullV@Gu@physx@@@Gu@physx@@UBE?AT__m128@@HPAT4@@Z 10042880 f i GuContactCapsuleConvex.obj
 0001:000418c0       ?supportPoint@CapsuleV@Gu@physx@@QBE?AT__m128@@HPAT4@@Z 100428c0 f i GuContactCapsuleConvex.obj
 0001:00041900       ?supportPoint@ConvexHullV@Gu@physx@@QBE?AT__m128@@HPAT4@@Z 10042900 f i GuContactCapsuleConvex.obj
 0001:00041980       ?supportPoint@GjkConvex@Gu@physx@@UBE?AT__m128@@HPAT4@@Z 10042980 f i GuContactCapsuleConvex.obj
 0001:000419b0       ?supportVertexIndex@ConvexHullV@Gu@physx@@QBEIABT__m128@@@Z 100429b0 f i GuContactCapsuleConvex.obj
 0001:00041a00       ?toMat33@PxMeshScale@physx@@QBE?AVPxMat33@2@XZ 10042a00 f i GuContactCapsuleConvex.obj
 0001:00041ac0       ?transform@PxTransform@physx@@QBE?AVPxVec3@2@ABV32@@Z 10042ac0 f i GuContactCapsuleConvex.obj
 0001:00041b60       ?transformInv@PxTransform@physx@@QBE?AV12@ABV12@@Z 10042b60 f i GuContactCapsuleConvex.obj
 0001:00041cd0       ?contactCapsuleMesh@Gu@physx@@YA_NABVGeometryUnion@12@0ABVPxTransform@2@1ABUNarrowPhaseParams@12@AAUCache@12@AAVContactBuffer@12@PAVRenderOutput@Cm@2@@Z 10042cd0 f   GuContactCapsuleMesh.obj
 0001:00041ed0       ?contactCapsuleHeightfield@Gu@physx@@YA_NABVGeometryUnion@12@0ABVPxTransform@2@1ABUNarrowPhaseParams@12@AAUCache@12@AAVContactBuffer@12@PAVRenderOutput@Cm@2@@Z 10042ed0 f   GuContactCapsuleMesh.obj
 0001:00042d30       ??$PX_UNUSED@M@@YAXABM@Z   10043d30 f i GuContactCapsuleMesh.obj
 0001:00042d40       ??$checkType@$$CBUPxHeightFieldGeometryLL@physx@@@physx@@YAXABVGeometryUnion@Gu@0@@Z 10043d40 f i GuContactCapsuleMesh.obj
 0001:00042db0       ??$checkType@$$CBUPxTriangleMeshGeometryLL@physx@@@physx@@YAXABVGeometryUnion@Gu@0@@Z 10043db0 f i GuContactCapsuleMesh.obj
 0001:00042e20       ??$get@$$CBUPxHeightFieldGeometryLL@physx@@@GeometryUnion@Gu@physx@@QBEABUPxHeightFieldGeometryLL@2@XZ 10043e20 f i GuContactCapsuleMesh.obj
 0001:00042e40       ??$get@$$CBUPxTriangleMeshGeometryLL@physx@@@GeometryUnion@Gu@physx@@QBEABUPxTriangleMeshGeometryLL@2@XZ 10043e40 f i GuContactCapsuleMesh.obj
 0001:00042e60       ??0?$EntityReport@I@Gu@physx@@QAE@XZ 10043e60 f i GuContactCapsuleMesh.obj
 0001:00042e80       ??0?$MeshHitCallback@UPxRaycastHit@physx@@@Gu@physx@@QAE@W4Enum@CallbackMode@12@@Z 10043e80 f i GuContactCapsuleMesh.obj
 0001:00042eb0       ??0?$PxFlags@W4Enum@PxHeightFieldFlag@physx@@G@physx@@QAE@ABV01@@Z 10043eb0 f i GuContactCapsuleMesh.obj
 0001:00042ee0       ??0?$PxFlags@W4Enum@PxHeightFieldFlag@physx@@G@physx@@QAE@W4PxEMPTY@1@@Z 10043ee0 f i GuContactCapsuleMesh.obj
 0001:00042f00       ??0?$PxFlags@W4Enum@PxHeightFieldFlag@physx@@G@physx@@QAE@XZ 10043f00 f i GuContactCapsuleMesh.obj
 0001:00042f20       ??0Capsule@Gu@physx@@QAE@ABVSegment@12@M@Z 10043f20 f i GuContactCapsuleMesh.obj
 0001:000433b0       ??0CenterExtents@Gu@physx@@QAE@ABV012@@Z 100443b0 f i GuContactCapsuleMesh.obj
 0001:000433f0       ??0FastVertex2ShapeScaling@Cm@physx@@QAE@ABVPxMeshScale@2@@Z 100443f0 f i GuContactCapsuleMesh.obj
 0001:00043430       ??0HeightFieldData@Gu@physx@@QAE@$$QAU012@@Z 10044430 f i GuContactCapsuleMesh.obj
 0001:000434f0       ??0HeightFieldData@Gu@physx@@QAE@ABU012@@Z 100444f0 f i GuContactCapsuleMesh.obj
 0001:000435b0       ??0HeightFieldData@Gu@physx@@QAE@W4PxEMPTY@2@@Z 100445b0 f i GuContactCapsuleMesh.obj
 0001:000435e0       ??0HeightFieldData@Gu@physx@@QAE@XZ 100445e0 f i GuContactCapsuleMesh.obj
 0001:00043610       ??0HeightFieldUtil@Gu@physx@@QAE@ABVPxHeightFieldGeometry@2@@Z 10044610 f i GuContactCapsuleMesh.obj
 0001:00043650       ??0HeightFieldUtil@Gu@physx@@QAE@ABVPxHeightFieldGeometry@2@ABVHeightField@12@@Z 10044650 f i GuContactCapsuleMesh.obj
 0001:00043690       ??0HeightFieldUtil@Gu@physx@@QAE@XZ 10044690 f i GuContactCapsuleMesh.obj
 0001:000436b0       ??0PxBounds3@physx@@QAE@ABVPxVec3@1@0@Z 100446b0 f i GuContactCapsuleMesh.obj
 0001:000436f0       ??0PxBounds3@physx@@QAE@XZ 100446f0 f i GuContactCapsuleMesh.obj
 0001:00043720       ??0PxTriangle@physx@@QAE@XZ 10044720 f i GuContactCapsuleMesh.obj
 0001:00043750       ??0Segment@Gu@physx@@QAE@ABV012@@Z 10044750 f i GuContactCapsuleMesh.obj
 0001:00043790       ??0Segment@Gu@physx@@QAE@ABVPxVec3@2@0@Z 10044790 f i GuContactCapsuleMesh.obj
 0001:000437d0       ??0TrianglePadded@Gu@physx@@QAE@XZ 100447d0 f i GuContactCapsuleMesh.obj
 0001:000437f0       ??0Vec3p@Gu@physx@@QAE@ABVPxVec3@2@@Z 100447f0 f i GuContactCapsuleMesh.obj
 0001:00043820       ??0Vec3p@Gu@physx@@QAE@XZ  10044820 f i GuContactCapsuleMesh.obj
 0001:00043840       ??1?$EntityReport@I@Gu@physx@@UAE@XZ 10044840 f i GuContactCapsuleMesh.obj
 0001:00043860       ??1?$MeshHitCallback@UPxRaycastHit@physx@@@Gu@physx@@UAE@XZ 10044860 f i GuContactCapsuleMesh.obj
 0001:00043880       ??1Capsule@Gu@physx@@QAE@XZ 10044880 f i GuContactCapsuleMesh.obj
 0001:00043950       ??1CenterExtents@Gu@physx@@QAE@XZ 10044950 f i GuContactCapsuleMesh.obj
 0001:00043960       ??1HeightFieldData@Gu@physx@@QAE@XZ 10044960 f i GuContactCapsuleMesh.obj
 0001:00043980       ??1PxHeightField@physx@@MAE@XZ 10044980 f i GuContactCapsuleMesh.obj
 0001:000439b0       ??1PxTriangle@physx@@QAE@XZ 100449b0 f i GuContactCapsuleMesh.obj
 0001:000439c0       ??1TrianglePadded@Gu@physx@@QAE@XZ 100449c0 f i GuContactCapsuleMesh.obj
 0001:000439e0       ??1Vec3p@Gu@physx@@QAE@XZ  100449e0 f i GuContactCapsuleMesh.obj
 0001:000439f0       ??4?$PxFlags@W4Enum@PxHeightFieldFlag@physx@@G@physx@@QAEAAV01@ABV01@@Z 100449f0 f i GuContactCapsuleMesh.obj
 0001:00043a20       ??4CenterExtents@Gu@physx@@QAEAAV012@ABV012@@Z 10044a20 f i GuContactCapsuleMesh.obj
 0001:00043a60       ??4HeightFieldData@Gu@physx@@QAEAAU012@$$QAU012@@Z 10044a60 f i GuContactCapsuleMesh.obj
 0001:00043b20       ??4HeightFieldData@Gu@physx@@QAEAAU012@ABU012@@Z 10044b20 f i GuContactCapsuleMesh.obj
 0001:00043be0       ??4HeightFieldUtil@Gu@physx@@QAEAAV012@$$QAV012@@Z 10044be0 f i GuContactCapsuleMesh.obj
 0001:00043c40       ??4HeightFieldUtil@Gu@physx@@QAEAAV012@ABV012@@Z 10044c40 f i GuContactCapsuleMesh.obj
 0001:00043c80       ??4PxBounds3@physx@@QAEAAV01@$$QAV01@@Z 10044c80 f i GuContactCapsuleMesh.obj
 0001:00043cc0       ??4Vec3p@Gu@physx@@QAEAAV012@ABV012@@Z 10044cc0 f i GuContactCapsuleMesh.obj
 0001:00043d00       ??B?$PxBitAndDataT@E$0IA@@physx@@QBEEXZ 10044d00 f i GuContactCapsuleMesh.obj
 0001:00043d20       ??B?$PxFlags@W4Enum@PxHeightFieldFlag@physx@@G@physx@@QBE_NXZ 10044d20 f i GuContactCapsuleMesh.obj
 0001:00043d50       ??I?$PxFlags@W4Enum@PxHeightFieldFlag@physx@@G@physx@@QBE?AV01@W4Enum@PxHeightFieldFlag@1@@Z 10044d50 f i GuContactCapsuleMesh.obj
 0001:00043da0       ??_EPxHeightField@physx@@MAEPAXI@Z 10044da0 f i GuContactCapsuleMesh.obj
 0001:00043e40       ??_G?$EntityReport@I@Gu@physx@@UAEPAXI@Z 10044e40 f i GuContactCapsuleMesh.obj
 0001:00043e40       ??_E?$EntityReport@I@Gu@physx@@UAEPAXI@Z 10044e40 f i GuContactCapsuleMesh.obj
 0001:00043e80       ??_G?$MeshHitCallback@UPxRaycastHit@physx@@@Gu@physx@@UAEPAXI@Z 10044e80 f i GuContactCapsuleMesh.obj
 0001:00043e80       ??_E?$MeshHitCallback@UPxRaycastHit@physx@@@Gu@physx@@UAEPAXI@Z 10044e80 f i GuContactCapsuleMesh.obj
 0001:00043ec0       ??_ECapsuleHeightfieldContactGenerationCallback@?A0x4ed422bb@@UAEPAXI@Z 10044ec0 f i GuContactCapsuleMesh.obj
 0001:00043ec0       ??_GCapsuleHeightfieldContactGenerationCallback@?A0x4ed422bb@@UAEPAXI@Z 10044ec0 f i GuContactCapsuleMesh.obj
 0001:00043f00       ??_GCapsuleMeshContactGenerationCallback_NoScale@?A0x4ed422bb@@UAEPAXI@Z 10044f00 f i GuContactCapsuleMesh.obj
 0001:00043f00       ??_ECapsuleMeshContactGenerationCallback_NoScale@?A0x4ed422bb@@UAEPAXI@Z 10044f00 f i GuContactCapsuleMesh.obj
 0001:00043f40       ??_GCapsuleMeshContactGenerationCallback_Scale@?A0x4ed422bb@@UAEPAXI@Z 10044f40 f i GuContactCapsuleMesh.obj
 0001:00043f40       ??_ECapsuleMeshContactGenerationCallback_Scale@?A0x4ed422bb@@UAEPAXI@Z 10044f40 f i GuContactCapsuleMesh.obj
 0001:00043f80       ?PxCeil@physx@@YAMM@Z      10044f80 f i GuContactCapsuleMesh.obj
 0001:00043fa0       ?PxFloor@physx@@YAMM@Z     10044fa0 f i GuContactCapsuleMesh.obj
 0001:00043fc0       ?basisExtent@PxBounds3@physx@@SA?AV12@ABVPxVec3@2@ABVPxMat33@2@0@Z 10044fc0 f i GuContactCapsuleMesh.obj
 0001:00044210       ?ceilUp@HeightFieldUtil@Gu@physx@@SAMM@Z 10045210 f i GuContactCapsuleMesh.obj
 0001:00044280       ?clipShapeNormalToVertexVoronoi@HeightFieldUtil@Gu@physx@@QBE_NAAVPxVec3@3@III@Z 10045280 f i GuContactCapsuleMesh.obj
 0001:00044760       ?computeBarycentricPoint@shdfnd@physx@@YA?AVPxVec3@2@ABV32@00MM@Z 10045760 f i GuContactCapsuleMesh.obj
 0001:00044860       ?computePointNormal@HeightFieldUtil@Gu@physx@@QBE?AVPxVec3@3@IABV43@ABVPxTransform@3@MMMMAAM@Z 10045860 f i GuContactCapsuleMesh.obj
 0001:00044960       ?denormalizedNormal@PxTriangle@physx@@QBEXAAVPxVec3@2@@Z 10045960 f i GuContactCapsuleMesh.obj
 0001:000449e0       ?distanceSegmentTriangleSquared@Gu@physx@@YAMABVSegment@12@ABVPxVec3@2@11PAM22@Z 100459e0 f i GuContactCapsuleMesh.obj
 0001:00044a30       ?flipsNormal@FastVertex2ShapeScaling@Cm@physx@@QBE_NXZ 10045a30 f i GuContactCapsuleMesh.obj
 0001:00044a50       ?floorDown@HeightFieldUtil@Gu@physx@@SAMM@Z 10045a50 f i GuContactCapsuleMesh.obj
 0001:00044ac0       ?fsel@intrinsics@physx@@YAMMMM@Z 10045ac0 f i GuContactCapsuleMesh.obj
 0001:00044b00       ?getCenter@PxBounds3@physx@@QBE?AVPxVec3@2@XZ 10045b00 f i GuContactCapsuleMesh.obj
 0001:00044bb0       ?getConcreteType@PxBase@physx@@QBEGXZ 10045bb0 f i GuContactCapsuleMesh.obj
 0001:00044bd0       ?getConcreteTypeName@PxHeightField@physx@@UBEPBDXZ 10045bd0 f i GuContactCapsuleMesh.obj
 0001:00044bf0       ?getConvexEdgeFlags@Gu@physx@@YAEPBEI@Z 10045bf0 f i GuContactCapsuleMesh.obj
 0001:00044c20       ?getConvexEdgeThreshold@HeightField@Gu@physx@@UBEMXZ 10045c20 f i GuContactCapsuleMesh.obj
 0001:00044c40       ?getData@HeightField@Gu@physx@@QBEABUHeightFieldData@23@XZ 10045c40 f i GuContactCapsuleMesh.obj
 0001:00044c60       ?getDimensions@PxBounds3@physx@@QBE?AVPxVec3@2@XZ 10045c60 f i GuContactCapsuleMesh.obj
 0001:00044cf0       ?getEdgeDirection@HeightFieldUtil@Gu@physx@@QBE?AVPxVec3@3@II@Z 10045cf0 f i GuContactCapsuleMesh.obj
 0001:00045050       ?getExtents@PxBounds3@physx@@QBE?AVPxVec3@2@XZ 10046050 f i GuContactCapsuleMesh.obj
 0001:000450f0       ?getExtraTrigData@TriangleMesh@Gu@physx@@QBEPBEXZ 100460f0 f i GuContactCapsuleMesh.obj
 0001:00045110       ?getFeatureIndex@HeightFieldUtil@Gu@physx@@SAII@Z 10046110 f i GuContactCapsuleMesh.obj
 0001:00045120       ?getFeatureType@HeightFieldUtil@Gu@physx@@SA?AW4Feature@123@I@Z 10046120 f i GuContactCapsuleMesh.obj
 0001:00045130       ?getFlags@HeightField@Gu@physx@@UBE?AV?$PxFlags@W4Enum@PxHeightFieldFlag@physx@@G@3@XZ 10046130 f i GuContactCapsuleMesh.obj
 0001:00045160       ?getFormat@HeightField@Gu@physx@@UBE?AW4Enum@PxHeightFieldFormat@3@XZ 10046160 f i GuContactCapsuleMesh.obj
 0001:00045180       ?getHeight@HeightField@Gu@physx@@QBEMI@Z 10046180 f i GuContactCapsuleMesh.obj
 0001:000451b0       ?getHeight@HeightField@Gu@physx@@UBEMMM@Z 100461b0 f i GuContactCapsuleMesh.obj
 0001:000451f0       ?getHeightAtShapePoint2@HeightFieldUtil@Gu@physx@@QBEMIMM@Z 100461f0 f i GuContactCapsuleMesh.obj
 0001:00045260       ?getHeightAtShapePoint@HeightFieldUtil@Gu@physx@@QBEMMM@Z 10046260 f i GuContactCapsuleMesh.obj
 0001:000452e0       ?getHeightField@HeightFieldUtil@Gu@physx@@QBEABVHeightField@23@XZ 100462e0 f i GuContactCapsuleMesh.obj
 0001:00045300       ?getHeightFieldGeometry@HeightFieldUtil@Gu@physx@@QBEABVPxHeightFieldGeometry@3@XZ 10046300 f i GuContactCapsuleMesh.obj
 0001:00045320       ?getHeightInternal2@HeightField@Gu@physx@@QBEMIMM@Z 10046320 f i GuContactCapsuleMesh.obj
 0001:00045570       ?getHeightInternal@HeightField@Gu@physx@@QBEMMM@Z 10046570 f i GuContactCapsuleMesh.obj
 0001:000455e0       ?getMaterialIndex0@HeightField@Gu@physx@@QBEGI@Z 100465e0 f i GuContactCapsuleMesh.obj
 0001:00045610       ?getMaterialIndex1@HeightField@Gu@physx@@QBEGI@Z 10046610 f i GuContactCapsuleMesh.obj
 0001:00045640       ?getNbColumns@HeightField@Gu@physx@@UBEIXZ 10046640 f i GuContactCapsuleMesh.obj
 0001:00045660       ?getNbColumnsFast@HeightField@Gu@physx@@QBEIXZ 10046660 f i GuContactCapsuleMesh.obj
 0001:00045680       ?getNbRows@HeightField@Gu@physx@@UBEIXZ 10046680 f i GuContactCapsuleMesh.obj
 0001:000456a0       ?getNbRowsFast@HeightField@Gu@physx@@QBEIXZ 100466a0 f i GuContactCapsuleMesh.obj
 0001:000456c0       ?getNextIndex3@shdfnd@physx@@YAII@Z 100466c0 f i GuContactCapsuleMesh.obj
 0001:000456e0       ?getNormalAtShapePoint2@HeightFieldUtil@Gu@physx@@QBE?AVPxVec3@3@IMM@Z 100466e0 f i GuContactCapsuleMesh.obj
 0001:00045760       ?getNormalAtShapePoint@HeightFieldUtil@Gu@physx@@QBE?AVPxVec3@3@MM@Z 10046760 f i GuContactCapsuleMesh.obj
 0001:000457f0       ?getNormal_2@HeightField@Gu@physx@@QBE?AVPxVec3@3@IMMMMM@Z 100467f0 f i GuContactCapsuleMesh.obj
 0001:00045b00       ?getNormal_@HeightField@Gu@physx@@QBE?AVPxVec3@3@MMMMM@Z 10046b00 f i GuContactCapsuleMesh.obj
 0001:00045bb0       ?getOneOverColumnScale@HeightFieldUtil@Gu@physx@@QBEMXZ 10046bb0 f i GuContactCapsuleMesh.obj
 0001:00045bd0       ?getOneOverHeightScale@HeightFieldUtil@Gu@physx@@QBEMXZ 10046bd0 f i GuContactCapsuleMesh.obj
 0001:00045bf0       ?getOneOverRowScale@HeightFieldUtil@Gu@physx@@QBEMXZ 10046bf0 f i GuContactCapsuleMesh.obj
 0001:00045c10       ?getPaddedBounds@HeightFieldData@Gu@physx@@QBEABVCenterExtentsPadded@23@XZ 10046c10 f i GuContactCapsuleMesh.obj
 0001:00045c30       ?getSample@HeightField@Gu@physx@@QBEABUPxHeightFieldSample@3@I@Z 10046c30 f i GuContactCapsuleMesh.obj
 0001:00045cb0       ?getSampleStride@HeightField@Gu@physx@@UBEIXZ 10046cb0 f i GuContactCapsuleMesh.obj
 0001:00045cd0       ?getScaledVertices@Cm@physx@@YAXPAVPxVec3@2@ABV32@11_NABVFastVertex2ShapeScaling@12@@Z 10046cd0 f i GuContactCapsuleMesh.obj
 0001:00045df0       ?getThickness@HeightField@Gu@physx@@UBEMXZ 10046df0 f i GuContactCapsuleMesh.obj
 0001:00045e10       ?getTimestamp@HeightField@Gu@physx@@UBEIXZ 10046e10 f i GuContactCapsuleMesh.obj
 0001:00045e30       ?getTriangleMaterial@HeightField@Gu@physx@@QBEGI@Z 10046e30 f i GuContactCapsuleMesh.obj
 0001:00045e90       ?getTriangleMaterialIndex@HeightField@Gu@physx@@UBEGI@Z 10046e90 f i GuContactCapsuleMesh.obj
 0001:00045eb0       ?getTriangleNormal@HeightField@Gu@physx@@UBE?AVPxVec3@3@I@Z 10046eb0 f i GuContactCapsuleMesh.obj
 0001:00045ee0       ?getTriangleNormalInternal@HeightField@Gu@physx@@QBE?AVPxVec3@3@I@Z 10046ee0 f i GuContactCapsuleMesh.obj
 0001:00046150       ?getTriangleVertexIndices@HeightField@Gu@physx@@QBEXIAAI00@Z 10047150 f i GuContactCapsuleMesh.obj
 0001:00046280       ?getVertexNormal@HeightFieldUtil@Gu@physx@@QBE?AVPxVec3@3@I@Z 10047280 f i GuContactCapsuleMesh.obj
 0001:000462f0       ?hf2shapen@HeightFieldUtil@Gu@physx@@QBE?AVPxVec3@3@ABV43@@Z 100472f0 f i GuContactCapsuleMesh.obj
 0001:00046360       ?hf2shapep@HeightFieldUtil@Gu@physx@@QBE?AVPxVec3@3@ABV43@@Z 10047360 f i GuContactCapsuleMesh.obj
 0001:000463e0       ?hf2worldn@HeightFieldUtil@Gu@physx@@QBE?AVPxVec3@3@ABVPxTransform@3@ABV43@@Z 100473e0 f i GuContactCapsuleMesh.obj
 0001:00046420       ?hf2worldp@HeightFieldUtil@Gu@physx@@QBE?AVPxVec3@3@ABVPxTransform@3@ABV43@@Z 10047420 f i GuContactCapsuleMesh.obj
 0001:00046460       ?initialize@HeightFieldUtil@Gu@physx@@AAEXXZ 10047460 f i GuContactCapsuleMesh.obj
 0001:00046630       ?initialize@HeightFieldUtil@Gu@physx@@QAEXABVPxHeightFieldGeometry@3@ABVHeightField@23@@Z 10047630 f i GuContactCapsuleMesh.obj
 0001:00046660       ?intersectOBB@Midphase@Gu@physx@@YAXPBVTriangleMesh@23@ABVBox@23@AAU?$MeshHitCallback@UPxRaycastHit@physx@@@23@_N3@Z 10047660 f i GuContactCapsuleMesh.obj
 0001:000466b0       ?intersectRayTriangle@Gu@physx@@YA_NABVPxVec3@2@0000AAM11_NM@Z 100476b0 f i GuContactCapsuleMesh.obj
 0001:00046a30       ?intersectRayTriangleCulling@Gu@physx@@YA_NABVPxVec3@2@0000AAM11M@Z 10047a30 f i GuContactCapsuleMesh.obj
 0001:00046a80       ?isBitSet@?$PxBitAndDataT@E$0IA@@physx@@QBEEXZ 10047a80 f i GuContactCapsuleMesh.obj
 0001:00046aa0       ?isCollisionVertex@HeightField@Gu@physx@@QBE_NIIIG@Z 10047aa0 f i GuContactCapsuleMesh.obj
 0001:00046af0       ?isCollisionVertex@HeightFieldUtil@Gu@physx@@QBE_NIII@Z 10047af0 f i GuContactCapsuleMesh.obj
 0001:00046b20       ?isFirstTriangle@HeightField@Gu@physx@@QBE_NI@Z 10047b20 f i GuContactCapsuleMesh.obj
 0001:00046b60       ?isKindOf@PxHeightField@physx@@MBE_NPBD@Z 10047b60 f i GuContactCapsuleMesh.obj
 0001:00046bc0       ?isQueryVertex@HeightFieldUtil@Gu@physx@@QBE_NIII@Z 10047bc0 f i GuContactCapsuleMesh.obj
 0001:00046cc0       ?isShapePointOnHeightField@HeightFieldUtil@Gu@physx@@QBE_NMM@Z 10047cc0 f i GuContactCapsuleMesh.obj
 0001:00046d90       ?isValidVertex@HeightField@Gu@physx@@QBE_NI@Z 10047d90 f i GuContactCapsuleMesh.obj
 0001:00046de0       ?isZerothVertexShared@HeightField@Gu@physx@@QBE_NI@Z 10047de0 f i GuContactCapsuleMesh.obj
 0001:00046e30       ?makeFeatureCode@HeightFieldUtil@Gu@physx@@SAIIW4Feature@123@@Z 10047e30 f i GuContactCapsuleMesh.obj
 0001:00046e50       ?normal@PxTriangle@physx@@QBEXAAVPxVec3@2@@Z 10047e50 f i GuContactCapsuleMesh.obj
 0001:000476d0       ?rotateInv@PxTransform@physx@@QBE?AVPxVec3@2@ABV32@@Z 100486d0 f i GuContactCapsuleMesh.obj
 0001:00047750       ?shape2hfp@HeightFieldUtil@Gu@physx@@QBE?AVPxVec3@3@ABV43@@Z 10048750 f i GuContactCapsuleMesh.obj
 0001:000477c0       ?tessFlag@PxHeightFieldSample@physx@@QBEEXZ 100487c0 f i GuContactCapsuleMesh.obj
 0001:00047800       ?transformFast@PxBounds3@physx@@SA?AV12@ABVPxTransform@2@ABV12@@Z 10048800 f i GuContactCapsuleMesh.obj
 0001:000478c0       ?transformQueryBounds@FastVertex2ShapeScaling@Cm@physx@@QBEXAAVPxVec3@3@0AAVPxMat33@3@@Z 100488c0 f i GuContactCapsuleMesh.obj
 0001:000479f0       _ceilf                     100489f0 f i GuContactCapsuleMesh.obj
 0001:00047a20       _floorf                    10048a20 f i GuContactCapsuleMesh.obj
 0001:00047a50       ?contactBoxConvex@Gu@physx@@YA_NABVGeometryUnion@12@0ABVPxTransform@2@1ABUNarrowPhaseParams@12@AAUCache@12@AAVContactBuffer@12@PAVRenderOutput@Cm@2@@Z 10048a50 f   GuContactConvexConvex.obj
 0001:00047b60       ?contactConvexConvex@Gu@physx@@YA_NABVGeometryUnion@12@0ABVPxTransform@2@1ABUNarrowPhaseParams@12@AAUCache@12@AAVContactBuffer@12@PAVRenderOutput@Cm@2@@Z 10048b60 f   GuContactConvexConvex.obj
 0001:0004a5f0       ??0Matrix34@Cm@physx@@QAE@ABVPxVec3@2@000@Z 1004b5f0 f i GuContactConvexConvex.obj
 0001:0004a630       ??0PxPlane@physx@@QAE@ABVPxVec3@1@M@Z 1004b630 f i GuContactConvexConvex.obj
 0001:0004a670       ??0SeparatingAxes@Gu@physx@@QAE@$$QAV012@@Z 1004b670 f i GuContactConvexConvex.obj
 0001:0004a6c0       ??0SeparatingAxes@Gu@physx@@QAE@ABV012@@Z 1004b6c0 f i GuContactConvexConvex.obj
 0001:0004a710       ??0SeparatingAxes@Gu@physx@@QAE@XZ 1004b710 f i GuContactConvexConvex.obj
 0001:0004a750       ??4PxBounds3@physx@@QAEAAV01@ABV01@@Z 1004b750 f i GuContactConvexConvex.obj
 0001:0004a790       ??4PxPlane@physx@@QAEAAV01@$$QAV01@@Z 1004b790 f i GuContactConvexConvex.obj
 0001:0004a7d0       ??4PxTransform@physx@@QAEAAV01@$$QAV01@@Z 1004b7d0 f i GuContactConvexConvex.obj
 0001:0004a810       ??4SeparatingAxes@Gu@physx@@QAEAAV012@$$QAV012@@Z 1004b810 f i GuContactConvexConvex.obj
 0001:0004a880       ??4SeparatingAxes@Gu@physx@@QAEAAV012@ABV012@@Z 1004b880 f i GuContactConvexConvex.obj
 0001:0004a8f0       ??LFastVertex2ShapeScaling@Cm@physx@@QBE?AVPxVec3@2@ABV32@@Z 1004b8f0 f i GuContactConvexConvex.obj
 0001:0004a920       ?BoxSupport@@YAXQBMABVPxVec3@physx@@QAM@Z 1004b920 f i GuContactConvexConvex.obj
 0001:0004a9f0       ?PxcMultiplyAdd3x4@@YAMIABVPxVec3@physx@@0ABVMatrix34@Cm@2@@Z 1004b9f0 f i GuContactConvexConvex.obj
 0001:0004ab00       ?PxcMultiplySub3x4@@YAMIABVPxVec3@physx@@0ABVMatrix34@Cm@2@@Z 1004bb00 f i GuContactConvexConvex.obj
 0001:0004abe0       ?getAxes@SeparatingAxes@Gu@physx@@QBEPBVPxVec3@3@XZ 1004bbe0 f i GuContactConvexConvex.obj
 0001:0004ac00       ?getMax@HullPolygonData@Gu@physx@@QBEMXZ 1004bc00 f i GuContactConvexConvex.obj
 0001:0004ac30       ?getMin@HullPolygonData@Gu@physx@@QBEMPIBVPxVec3@3@@Z 1004bc30 f i GuContactConvexConvex.obj
 0001:0004ac60       ?getNumAxes@SeparatingAxes@Gu@physx@@QBEIXZ 1004bc60 f i GuContactConvexConvex.obj
 0001:0004ac80       ?getPolygonVertexRefs@PolygonalData@Gu@physx@@QBEPBEABUHullPolygonData@23@@Z 1004bc80 f i GuContactConvexConvex.obj
 0001:0004aca0       ?prefetchLine@shdfnd@physx@@YAXPBXI@Z 1004bca0 f i GuContactConvexConvex.obj
 0001:0004acc0       ?reset@SeparatingAxes@Gu@physx@@QAEXXZ 1004bcc0 f i GuContactConvexConvex.obj
 0001:0004ace0       ?set@Matrix34@Cm@physx@@QAEXABVPxQuat@3@@Z 1004bce0 f i GuContactConvexConvex.obj
 0001:0004ad30       ?transformPlaneToShapeSpace@FastVertex2ShapeScaling@Cm@physx@@QBEXABVPxVec3@3@MAAV43@AAM@Z 1004bd30 f i GuContactConvexConvex.obj
 0001:0004adc0       ?contactBoxMesh@Gu@physx@@YA_NABVGeometryUnion@12@0ABVPxTransform@2@1ABUNarrowPhaseParams@12@AAUCache@12@AAVContactBuffer@12@PAVRenderOutput@Cm@2@@Z 1004bdc0 f   GuContactConvexMesh.obj
 0001:0004aec0       ?contactConvexMesh@Gu@physx@@YA_NABVGeometryUnion@12@0ABVPxTransform@2@1ABUNarrowPhaseParams@12@AAUCache@12@AAVContactBuffer@12@PAVRenderOutput@Cm@2@@Z 1004bec0 f   GuContactConvexMesh.obj
 0001:0004afa0       ?contactBoxHeightfield@Gu@physx@@YA_NABVGeometryUnion@12@0ABVPxTransform@2@1ABUNarrowPhaseParams@12@AAUCache@12@AAVContactBuffer@12@PAVRenderOutput@Cm@2@@Z 1004bfa0 f   GuContactConvexMesh.obj
 0001:0004b090       ?contactConvexHeightfield@Gu@physx@@YA_NABVGeometryUnion@12@0ABVPxTransform@2@1ABUNarrowPhaseParams@12@AAUCache@12@AAVContactBuffer@12@PAVRenderOutput@Cm@2@@Z 1004c090 f   GuContactConvexMesh.obj
 0001:0004e4c0       ??$PxMin@I@physx@@YAIII@Z  1004f4c0 f i GuContactConvexMesh.obj
 0001:0004e4f0       ??0?$Array@IV?$InlineAllocator@$0BBAA@VNamedAllocator@shdfnd@physx@@@shdfnd@physx@@@shdfnd@physx@@QAE@ABV?$InlineAllocator@$0BBAA@VNamedAllocator@shdfnd@physx@@@12@@Z 1004f4f0 f i GuContactConvexMesh.obj
 0001:0004e550       ??0?$CacheMap@UCachedEdge@Gu@physx@@$0IA@@Gu@physx@@QAE@XZ 1004f550 f i GuContactConvexMesh.obj
 0001:0004e5d0       ??0?$CacheMap@UCachedVertex@Gu@physx@@$0IA@@Gu@physx@@QAE@XZ 1004f5d0 f i GuContactConvexMesh.obj
 0001:0004e650       ??0?$InlineAllocator@$0BBAA@VNamedAllocator@shdfnd@physx@@@shdfnd@physx@@QAE@ABV012@@Z 1004f650 f i GuContactConvexMesh.obj
 0001:0004e680       ??0?$InlineAllocator@$0BBAA@VNamedAllocator@shdfnd@physx@@@shdfnd@physx@@QAE@ABVNamedAllocator@12@@Z 1004f680 f i GuContactConvexMesh.obj
 0001:0004e6b0       ??0?$InlineArray@I$0EEA@VNamedAllocator@shdfnd@physx@@@shdfnd@physx@@QAE@ABVNamedAllocator@12@@Z 1004f6b0 f i GuContactConvexMesh.obj
 0001:0004e730       ??0BoxPadded@Gu@physx@@QAE@XZ 1004f730 f i GuContactConvexMesh.obj
 0001:0004e750       ??0CachedEdge@Gu@physx@@QAE@II@Z 1004f750 f i GuContactConvexMesh.obj
 0001:0004e7a0       ??0CachedEdge@Gu@physx@@QAE@XZ 1004f7a0 f i GuContactConvexMesh.obj
 0001:0004e7c0       ??0CachedVertex@Gu@physx@@QAE@I@Z 1004f7c0 f i GuContactConvexMesh.obj
 0001:0004e7e0       ??0CachedVertex@Gu@physx@@QAE@XZ 1004f7e0 f i GuContactConvexMesh.obj
 0001:0004e800       ??0ConvexMeshContactGenerationCallback@@QAE@AAV?$InlineArray@I$0EEA@VNamedAllocator@shdfnd@physx@@@shdfnd@physx@@ABVPxTransform@3@1ABUPolygonalData@Gu@3@ABVMatrix34@Cm@3@3PBVTriangleMesh@63@PIBEABVFastVertex2ShapeScaling@83@6MM_N7M11AAVContactBuffer@63@ABVBoxPadded@63@@Z 1004f800 f i GuContactConvexMesh.obj
 0001:0004e9a0       ??0Matrix34@Cm@physx@@QAE@ABV012@@Z 1004f9a0 f i GuContactConvexMesh.obj
 0001:0004e9e0       ??0PxPlane@physx@@QAE@ABVPxVec3@1@00@Z 1004f9e0 f i GuContactConvexMesh.obj
 0001:0004ea80       ??0PxTransform@physx@@QAE@ABV01@@Z 1004fa80 f i GuContactConvexMesh.obj
 0001:0004eac0       ??1?$Array@IV?$InlineAllocator@$0BBAA@VNamedAllocator@shdfnd@physx@@@shdfnd@physx@@@shdfnd@physx@@QAE@XZ 1004fac0 f i GuContactConvexMesh.obj
 0001:0004eb40       ??1?$InlineAllocator@$0BBAA@VNamedAllocator@shdfnd@physx@@@shdfnd@physx@@QAE@XZ 1004fb40 f i GuContactConvexMesh.obj
 0001:0004eb60       ??1?$InlineArray@I$0EEA@VNamedAllocator@shdfnd@physx@@@shdfnd@physx@@QAE@XZ 1004fb60 f i GuContactConvexMesh.obj
 0001:0004eb80       ??1BoxPadded@Gu@physx@@QAE@XZ 1004fb80 f i GuContactConvexMesh.obj
 0001:0004eba0       ??1ConvexMeshContactGenerationCallback@@UAE@XZ 1004fba0 f i GuContactConvexMesh.obj
 0001:0004ebe0       ??8CachedEdge@Gu@physx@@QBE_NABU012@@Z 1004fbe0 f i GuContactConvexMesh.obj
 0001:0004ec30       ??8CachedVertex@Gu@physx@@QBE_NABU012@@Z 1004fc30 f i GuContactConvexMesh.obj
 0001:0004ec70       ??_EConvexMeshContactGenerationCallback@@UAEPAXI@Z 1004fc70 f i GuContactConvexMesh.obj
 0001:0004ec70       ??_GConvexMeshContactGenerationCallback@@UAEPAXI@Z 1004fc70 f i GuContactConvexMesh.obj
 0001:0004ecb0       ??_GConvexVsHeightfieldContactGenerationCallback@?A0xb841215c@@UAEPAXI@Z 1004fcb0 f i GuContactConvexMesh.obj
 0001:0004ecb0       ??_EConvexVsHeightfieldContactGenerationCallback@?A0xb841215c@@UAEPAXI@Z 1004fcb0 f i GuContactConvexMesh.obj
 0001:0004ecf0       ?addData@?$CacheMap@UCachedEdge@Gu@physx@@$0IA@@Gu@physx@@QAE_NABUCachedEdge@23@@Z 1004fcf0 f i GuContactConvexMesh.obj
 0001:0004ee80       ?addData@?$CacheMap@UCachedVertex@Gu@physx@@$0IA@@Gu@physx@@QAE_NABUCachedVertex@23@@Z 1004fe80 f i GuContactConvexMesh.obj
 0001:0004f000       ?allocate@?$Array@IV?$InlineAllocator@$0BBAA@VNamedAllocator@shdfnd@physx@@@shdfnd@physx@@@shdfnd@physx@@IAEPAII@Z 10050000 f i GuContactConvexMesh.obj
 0001:0004f080       ?allocate@?$InlineAllocator@$0BBAA@VNamedAllocator@shdfnd@physx@@@shdfnd@physx@@QAEPAXIPBDH@Z 10050080 f i GuContactConvexMesh.obj
 0001:0004f0e0       ?begin@?$Array@IV?$InlineAllocator@$0BBAA@VNamedAllocator@shdfnd@physx@@@shdfnd@physx@@@shdfnd@physx@@QAEPAIXZ 100500e0 f i GuContactConvexMesh.obj
 0001:0004f100       ?capacity@?$Array@IV?$InlineAllocator@$0BBAA@VNamedAllocator@shdfnd@physx@@@shdfnd@physx@@@shdfnd@physx@@QBEIXZ 10050100 f i GuContactConvexMesh.obj
 0001:0004f120       ?contains@?$CacheMap@UCachedEdge@Gu@physx@@$0IA@@Gu@physx@@QBE_NABUCachedEdge@23@@Z 10050120 f i GuContactConvexMesh.obj
 0001:0004f1b0       ?contains@?$CacheMap@UCachedVertex@Gu@physx@@$0IA@@Gu@physx@@QBE_NABUCachedVertex@23@@Z 100501b0 f i GuContactConvexMesh.obj
 0001:0004f240       ?copy@?$Array@IV?$InlineAllocator@$0BBAA@VNamedAllocator@shdfnd@physx@@@shdfnd@physx@@@shdfnd@physx@@KAXPAI0PBI@Z 10050240 f i GuContactConvexMesh.obj
 0001:0004f2f0       ?deallocate@?$Array@IV?$InlineAllocator@$0BBAA@VNamedAllocator@shdfnd@physx@@@shdfnd@physx@@@shdfnd@physx@@IAEXPAX@Z 100502f0 f i GuContactConvexMesh.obj
 0001:0004f310       ?deallocate@?$InlineAllocator@$0BBAA@VNamedAllocator@shdfnd@physx@@@shdfnd@physx@@QAEXPAX@Z 10050310 f i GuContactConvexMesh.obj
 0001:0004f350       ?destroy@?$Array@IV?$InlineAllocator@$0BBAA@VNamedAllocator@shdfnd@physx@@@shdfnd@physx@@@shdfnd@physx@@KAXPAI0@Z 10050350 f i GuContactConvexMesh.obj
 0001:0004f380       ?end@?$Array@IV?$InlineAllocator@$0BBAA@VNamedAllocator@shdfnd@physx@@@shdfnd@physx@@@shdfnd@physx@@QAEPAIXZ 10050380 f i GuContactConvexMesh.obj
 0001:0004f3b0       ?forceSize_Unsafe@?$Array@IV?$InlineAllocator@$0BBAA@VNamedAllocator@shdfnd@physx@@@shdfnd@physx@@@shdfnd@physx@@QAEXI@Z 100503b0 f i GuContactConvexMesh.obj
 0001:0004f430       ?getHashCode@CachedEdge@Gu@physx@@QBEIXZ 10050430 f i GuContactConvexMesh.obj
 0001:0004f460       ?getHashCode@CachedVertex@Gu@physx@@QBEIXZ 10050460 f i GuContactConvexMesh.obj
 0001:0004f480       ?grow@?$Array@IV?$InlineAllocator@$0BBAA@VNamedAllocator@shdfnd@physx@@@shdfnd@physx@@@shdfnd@physx@@IAEXI@Z 10050480 f i GuContactConvexMesh.obj
 0001:0004f500       ?isArrayOfPOD@?$Array@IV?$InlineAllocator@$0BBAA@VNamedAllocator@shdfnd@physx@@@shdfnd@physx@@@shdfnd@physx@@SA_NXZ 10050500 f i GuContactConvexMesh.obj
 0001:0004f510       ?isInUserMemory@?$Array@IV?$InlineAllocator@$0BBAA@VNamedAllocator@shdfnd@physx@@@shdfnd@physx@@@shdfnd@physx@@QBEIXZ 10050510 f i GuContactConvexMesh.obj
 0001:0004f790       ?processHit@ConvexMeshContactGenerationCallback@@UAE_NABUPxRaycastHit@physx@@ABVPxVec3@3@11AAMPBI@Z 10050790 f i GuContactConvexMesh.obj
 0001:0004f880       ?recreate@?$Array@IV?$InlineAllocator@$0BBAA@VNamedAllocator@shdfnd@physx@@@shdfnd@physx@@@shdfnd@physx@@IAEXI@Z 10050880 f i GuContactConvexMesh.obj
 0001:0004f9b0       ?reserve@?$Array@IV?$InlineAllocator@$0BBAA@VNamedAllocator@shdfnd@physx@@@shdfnd@physx@@@shdfnd@physx@@QAEXI@Z 100509b0 f i GuContactConvexMesh.obj
 0001:0004f9e0       ?size@?$Array@IV?$InlineAllocator@$0BBAA@VNamedAllocator@shdfnd@physx@@@shdfnd@physx@@@shdfnd@physx@@QBEIXZ 100509e0 f i GuContactConvexMesh.obj
 0001:0004fa00       ?contactPlaneBox@Gu@physx@@YA_NABVGeometryUnion@12@0ABVPxTransform@2@1ABUNarrowPhaseParams@12@AAUCache@12@AAVContactBuffer@12@PAVRenderOutput@Cm@2@@Z 10050a00 f   GuContactPlaneBox.obj
 0001:000502a0       ??$PxUnionCast@PAIPAM@physx@@YAPAIPAM@Z 100512a0 f i GuContactPlaneBox.obj
 0001:000502e0       ?contactPlaneCapsule@Gu@physx@@YA_NABVGeometryUnion@12@0ABVPxTransform@2@1ABUNarrowPhaseParams@12@AAUCache@12@AAVContactBuffer@12@PAVRenderOutput@Cm@2@@Z 100512e0 f   GuContactPlaneCapsule.obj
 0001:000504f0       ?contactPlaneConvex@Gu@physx@@YA_NABVGeometryUnion@12@0ABVPxTransform@2@1ABUNarrowPhaseParams@12@AAUCache@12@AAVContactBuffer@12@PAVRenderOutput@Cm@2@@Z 100514f0 f   GuContactPlaneConvex.obj
 0001:00050740       ??4Matrix34@Cm@physx@@QAEABV012@ABV012@@Z 10051740 f i GuContactPlaneConvex.obj
 0001:00050780       ??AMatrix34@Cm@physx@@QAEAAVPxVec3@2@H@Z 10051780 f i GuContactPlaneConvex.obj
 0001:000507a0       ?contact@ContactBuffer@Gu@physx@@QAEPAUContactPoint@23@XZ 100517a0 f i GuContactPlaneConvex.obj
 0001:00050800       ?getVertex2ShapeSkew@FastVertex2ShapeScaling@Cm@physx@@QBEABVPxMat33@3@XZ 10051800 f i GuContactPlaneConvex.obj
 0001:00050870       ?findRotationMatrixFromZ@Gu@physx@@YA?AVPxMat33@2@ABVPxVec3@2@@Z 10051870 f   GuContactPolygonPolygon.obj
 0001:00050ea0       ?contactPolygonPolygonExt@Gu@physx@@YA_NIPBVPxVec3@2@PBEABVMatrix34@Cm@2@ABVPxPlane@2@ABVPxMat33@2@I01234ABV32@22IIAAVContactBuffer@12@_N5M@Z 10051ea0 f   GuContactPolygonPolygon.obj
 0001:00052e40       ??4ContactPoint@Gu@physx@@QAEAAU012@ABU012@@Z 10053e40 f i GuContactPolygonPolygon.obj
 0001:00052f10       ??APxMat33@physx@@QAEAAVPxVec3@1@I@Z 10053f10 f i GuContactPolygonPolygon.obj
 0001:00052f30       ??RPxMat33@physx@@QAEAAMII@Z 10053f30 f i GuContactPolygonPolygon.obj
 0001:00052f60       ?EdgeEdgeContactSpecial@@YA_NABVPxVec3@physx@@ABVPxPlane@2@00000AAMAAV12@IIM@Z 10053f60 f i GuContactPolygonPolygon.obj
 0001:000531e0       ?cross001@shdfnd@physx@@YA?AVPxVec3@2@ABV32@@Z 100541e0 f i GuContactPolygonPolygon.obj
 0001:00053230       ?degToRad@shdfnd@physx@@YAMM@Z 10054230 f i GuContactPolygonPolygon.obj
 0001:00053260       ?pointInTriangle2D@@YA_NMMMMMMMM@Z 10054260 f i GuContactPolygonPolygon.obj
 0001:00053410       ?transform2D@@YAXAAM0ABVPxVec3@physx@@ABVMatrix34@Cm@2@@Z 10054410 f i GuContactPolygonPolygon.obj
 0001:000534d0       ?transform2DT@@YAXAAM0ABVPxVec3@physx@@ABVPxMat33@2@@Z 100544d0 f i GuContactPolygonPolygon.obj
 0001:00053510       ?transformTranspose@@YA?AVMatrix34@Cm@physx@@ABVPxMat33@3@ABV123@@Z 10054510 f i GuContactPolygonPolygon.obj
 0001:00053590       ?transformZ@@YAMABVPxVec3@physx@@ABVMatrix34@Cm@2@@Z 10054590 f i GuContactPolygonPolygon.obj
 0001:00053600       ?contactSphereBox@Gu@physx@@YA_NABVGeometryUnion@12@0ABVPxTransform@2@1ABUNarrowPhaseParams@12@AAUCache@12@AAVContactBuffer@12@PAVRenderOutput@Cm@2@@Z 10054600 f   GuContactSphereBox.obj
 0001:00053ca0       ??$checkType@$$CBVPxSphereGeometry@physx@@@physx@@YAXABVGeometryUnion@Gu@0@@Z 10054ca0 f i GuContactSphereBox.obj
 0001:00053d10       ??$get@$$CBVPxSphereGeometry@physx@@@GeometryUnion@Gu@physx@@QBEABVPxSphereGeometry@2@XZ 10054d10 f i GuContactSphereBox.obj
 0001:00053d80       ?contactSphereCapsule@Gu@physx@@YA_NABVGeometryUnion@12@0ABVPxTransform@2@1ABUNarrowPhaseParams@12@AAUCache@12@AAVContactBuffer@12@PAVRenderOutput@Cm@2@@Z 10054d80 f   GuContactSphereCapsule.obj
 0001:00054020       ?distancePointSegmentSquared@Gu@physx@@YAMABVPxVec3@2@00PAM@Z 10055020 f i GuContactSphereCapsule.obj
 0001:00054060       ?distancePointSegmentSquared@Gu@physx@@YAMABVSegment@12@ABVPxVec3@2@PAM@Z 10055060 f i GuContactSphereCapsule.obj
 0001:00054090       ?distancePointSegmentSquaredInternal@Gu@physx@@YAMABVPxVec3@2@00PAM@Z 10055090 f i GuContactSphereCapsule.obj
 0001:000541d0       ?contactSphereMesh@Gu@physx@@YA_NABVGeometryUnion@12@0ABVPxTransform@2@1ABUNarrowPhaseParams@12@AAUCache@12@AAVContactBuffer@12@PAVRenderOutput@Cm@2@@Z 100551d0 f   GuContactSphereMesh.obj
 0001:000543e0       ?contactSphereHeightfield@Gu@physx@@YA_NABVGeometryUnion@12@0ABVPxTransform@2@1ABUNarrowPhaseParams@12@AAUCache@12@AAVContactBuffer@12@PAVRenderOutput@Cm@2@@Z 100553e0 f   GuContactSphereMesh.obj
 0001:00054e80       ??$median3@USortKey@@$$CBU?$Less@USortKey@@@shdfnd@physx@@@internal@shdfnd@physx@@YAXPAUSortKey@@HHABU?$Less@USortKey@@@12@@Z 10055e80 f i GuContactSphereMesh.obj
 0001:00054fb0       ??$partition@USortKey@@$$CBU?$Less@USortKey@@@shdfnd@physx@@@internal@shdfnd@physx@@YAHPAUSortKey@@HHABU?$Less@USortKey@@@12@@Z 10055fb0 f i GuContactSphereMesh.obj
 0001:00055170       ??$smallSort@USortKey@@$$CBU?$Less@USortKey@@@shdfnd@physx@@@internal@shdfnd@physx@@YAXPAUSortKey@@HHABU?$Less@USortKey@@@12@@Z 10056170 f i GuContactSphereMesh.obj
 0001:00055230       ??$sort@USortKey@@U?$Less@USortKey@@@shdfnd@physx@@VNullAllocator@?A0x42fb0d48@@@shdfnd@physx@@YAXPAUSortKey@@IABU?$Less@USortKey@@@01@ABVNullAllocator@?A0x42fb0d48@@I@Z 10056230 f i GuContactSphereMesh.obj
 0001:000554f0       ??$swap@USortKey@@@shdfnd@physx@@YAXAAUSortKey@@0@Z 100564f0 f i GuContactSphereMesh.obj
 0001:00055540       ??0?$ScopedPointer@HVTempAllocator@shdfnd@physx@@@shdfnd@physx@@QAE@XZ 10056540 f i GuContactSphereMesh.obj
 0001:00055560       ??0?$Stack@VNullAllocator@?A0x42fb0d48@@@internal@shdfnd@physx@@QAE@PAHIABVNullAllocator@?A0x42fb0d48@@@Z 10056560 f i GuContactSphereMesh.obj
 0001:000557e0       ??0TempAllocator@shdfnd@physx@@QAE@PBD@Z 100567e0 f i GuContactSphereMesh.obj
 0001:00055800       ??0TriangleData@@QAE@XZ    10056800 f i GuContactSphereMesh.obj
 0001:00055820       ??1?$ScopedPointer@HVTempAllocator@shdfnd@physx@@@shdfnd@physx@@QAE@XZ 10056820 f i GuContactSphereMesh.obj
 0001:00055850       ??1?$Stack@VNullAllocator@?A0x42fb0d48@@@internal@shdfnd@physx@@QAE@XZ 10056850 f i GuContactSphereMesh.obj
 0001:00055900       ??B?$ScopedPointer@HVTempAllocator@shdfnd@physx@@@shdfnd@physx@@QBEPAHXZ 10056900 f i GuContactSphereMesh.obj
 0001:00055920       ??MSortKey@@QBE_NABU0@@Z   10056920 f i GuContactSphereMesh.obj
 0001:00055960       ??R?$Less@USortKey@@@shdfnd@physx@@QBE_NABUSortKey@@0@Z 10056960 f i GuContactSphereMesh.obj
 0001:00055980       ??_ESphereHeightfieldContactGenerationCallback@?A0x42fb0d48@@UAEPAXI@Z 10056980 f i GuContactSphereMesh.obj
 0001:00055980       ??_GSphereHeightfieldContactGenerationCallback@?A0x42fb0d48@@UAEPAXI@Z 10056980 f i GuContactSphereMesh.obj
 0001:000559c0       ??_GSphereMeshContactGenerationCallback_NoScale@?A0x42fb0d48@@UAEPAXI@Z 100569c0 f i GuContactSphereMesh.obj
 0001:000559c0       ??_ESphereMeshContactGenerationCallback_NoScale@?A0x42fb0d48@@UAEPAXI@Z 100569c0 f i GuContactSphereMesh.obj
 0001:00055a00       ??_GSphereMeshContactGenerationCallback_Scale@?A0x42fb0d48@@UAEPAXI@Z 10056a00 f i GuContactSphereMesh.obj
 0001:00055a00       ??_ESphereMeshContactGenerationCallback_Scale@?A0x42fb0d48@@UAEPAXI@Z 10056a00 f i GuContactSphereMesh.obj
 0001:00055ca0       ?empty@?$Stack@VNullAllocator@?A0x42fb0d48@@@internal@shdfnd@physx@@QAE_NXZ 10056ca0 f i GuContactSphereMesh.obj
 0001:00056010       ?grow@?$Stack@VNullAllocator@?A0x42fb0d48@@@internal@shdfnd@physx@@QAEXXZ 10057010 f i GuContactSphereMesh.obj
 0001:000561a0       ?pop@?$Stack@VNullAllocator@?A0x42fb0d48@@@internal@shdfnd@physx@@QAEXAAH0@Z 100571a0 f i GuContactSphereMesh.obj
 0001:00056820       ?push@?$Stack@VNullAllocator@?A0x42fb0d48@@@internal@shdfnd@physx@@QAEXHH@Z 10057820 f i GuContactSphereMesh.obj
 0001:000568b0       ?transformInv@PxTransform@physx@@QBE?AVPxVec3@2@ABV32@@Z 100578b0 f i GuContactSphereMesh.obj
 0001:00056940       ?contactSpherePlane@Gu@physx@@YA_NABVGeometryUnion@12@0ABVPxTransform@2@1ABUNarrowPhaseParams@12@AAUCache@12@AAVContactBuffer@12@PAVRenderOutput@Cm@2@@Z 10057940 f   GuContactSpherePlane.obj
 0001:00056a40       ?contactSphereSphere@Gu@physx@@YA_NABVGeometryUnion@12@0ABVPxTransform@2@1ABUNarrowPhaseParams@12@AAUCache@12@AAVContactBuffer@12@PAVRenderOutput@Cm@2@@Z 10057a40 f   GuContactSphereSphere.obj
 0001:00056c10       ?selectNormal@Gu@physx@@YA_NEMM@Z 10057c10 f   GuFeatureCode.obj
 0001:00056e10       ?legacyContactBoxHeightfield@Gu@physx@@YA_NABVGeometryUnion@12@0ABVPxTransform@2@1ABUNarrowPhaseParams@12@AAUCache@12@AAVContactBuffer@12@PAVRenderOutput@Cm@2@@Z 10057e10 f   GuLegacyContactBoxHeightField.obj
 0001:00058380       ??$PxMax@M@physx@@YAMMM@Z  10059380 f i GuLegacyContactBoxHeightField.obj
 0001:000583b0       ??$PxMin@H@physx@@YAHHH@Z  100593b0 f i GuLegacyContactBoxHeightField.obj
 0001:000583e0       ??$PxMin@M@physx@@YAMMM@Z  100593e0 f i GuLegacyContactBoxHeightField.obj
 0001:00058410       ??$swap@I@shdfnd@physx@@YAXAAI0@Z 10059410 f i GuLegacyContactBoxHeightField.obj
 0001:00058440       ??$swap@PBVPxVec3@physx@@@shdfnd@physx@@YAXAAPBVPxVec3@1@0@Z 10059440 f i GuLegacyContactBoxHeightField.obj
 0001:00058470       ??$traceSegment@UGuContactTraceSegmentCallback@Gu@physx@@$00$0A@@HeightFieldUtil@Gu@physx@@QBEXABVPxVec3@2@0MPAUGuContactTraceSegmentCallback@12@ABVPxBounds3@2@_NPBV32@@Z 10059470 f i GuLegacyContactBoxHeightField.obj
 0001:0005a7a0       ??0?$OverlapTraceSegment@UGuContactTraceSegmentCallback@Gu@physx@@@HeightFieldUtil@Gu@physx@@QAE@ABV123@ABVHeightField@23@@Z 1005b7a0 f i GuLegacyContactBoxHeightField.obj
 0001:0005a7f0       ??0GuContactHeightfieldTraceSegmentHelper@Gu@physx@@QAE@ABVHeightFieldUtil@12@@Z 1005b7f0 f i GuLegacyContactBoxHeightField.obj
 0001:0005a840       ??0GuContactTraceSegmentCallback@Gu@physx@@QAE@ABVPxVec3@2@AAVContactBuffer@12@VMatrix34@Cm@2@M@Z 1005b840 f i GuLegacyContactBoxHeightField.obj
 0001:0005a8a0       ?PxSign@physx@@YAMM@Z      1005b8a0 f i GuLegacyContactBoxHeightField.obj
 0001:0005a8c0       ?addIndex@?$OverlapTraceSegment@UGuContactTraceSegmentCallback@Gu@physx@@@HeightFieldUtil@Gu@physx@@QAE_NI@Z 1005b8c0 f i GuLegacyContactBoxHeightField.obj
 0001:0005a930       ?ceil@shdfnd@physx@@YAMM@Z 1005b930 f i GuLegacyContactBoxHeightField.obj
 0001:0005a950       ?computeRectangleDifference@?$OverlapTraceSegment@UGuContactTraceSegmentCallback@Gu@physx@@@HeightFieldUtil@Gu@physx@@QAEXABUOverlapRectangle@1234@0AAUOverlapLine@1234@@Z 1005b950 f i GuLegacyContactBoxHeightField.obj
 0001:0005aa40       ?faceHit@GuContactTraceSegmentCallback@Gu@physx@@QAE_NABVHeightFieldUtil@23@ABVPxVec3@3@IMM@Z 1005ba40 f i GuLegacyContactBoxHeightField.obj
 0001:0005aa60       ?floatFloor@shdfnd@physx@@YAMM@Z 1005ba60 f i GuLegacyContactBoxHeightField.obj
 0001:0005aa80       ?floor@shdfnd@physx@@YAMM@Z 1005ba80 f i GuLegacyContactBoxHeightField.obj
 0001:0005aaa0       ?getMax@HeightField@Gu@physx@@QBEIMI@Z 1005baa0 f i GuLegacyContactBoxHeightField.obj
 0001:0005ab40       ?getMaxColumn@HeightField@Gu@physx@@QBEIM@Z 1005bb40 f i GuLegacyContactBoxHeightField.obj
 0001:0005ab80       ?getMaxRow@HeightField@Gu@physx@@QBEIM@Z 1005bb80 f i GuLegacyContactBoxHeightField.obj
 0001:0005abc0       ?getMin@HeightField@Gu@physx@@QBEIMI@Z 1005bbc0 f i GuLegacyContactBoxHeightField.obj
 0001:0005ac60       ?getMinColumn@HeightField@Gu@physx@@QBEIM@Z 1005bc60 f i GuLegacyContactBoxHeightField.obj
 0001:0005aca0       ?getMinRow@HeightField@Gu@physx@@QBEIM@Z 1005bca0 f i GuLegacyContactBoxHeightField.obj
 0001:0005ace0       ?getThicknessFast@HeightField@Gu@physx@@QBEMXZ 1005bce0 f i GuLegacyContactBoxHeightField.obj
 0001:0005ad00       ?init@?$OverlapTraceSegment@UGuContactTraceSegmentCallback@Gu@physx@@@HeightFieldUtil@Gu@physx@@QAE_NHHHHHPAUGuContactTraceSegmentCallback@34@@Z 1005bd00 f i GuLegacyContactBoxHeightField.obj
 0001:0005ae20       ?initialized@?$OverlapTraceSegment@UGuContactTraceSegmentCallback@Gu@physx@@@HeightFieldUtil@Gu@physx@@QBE_NXZ 1005be20 f i GuLegacyContactBoxHeightField.obj
 0001:0005ae40       ?invalidate@OverlapRectangle@?$OverlapTraceSegment@UGuContactTraceSegmentCallback@Gu@physx@@@HeightFieldUtil@Gu@physx@@QAEXXZ 1005be40 f i GuLegacyContactBoxHeightField.obj
 0001:0005ae80       ?isDeltaHeightInsideExtent@HeightField@Gu@physx@@QBE_NMM@Z 1005be80 f i GuLegacyContactBoxHeightField.obj
 0001:0005af20       ?onEvent@GuContactTraceSegmentCallback@Gu@physx@@QAE_NIPAI@Z 1005bf20 f i GuLegacyContactBoxHeightField.obj
 0001:0005af40       ?prepare@?$OverlapTraceSegment@UGuContactTraceSegmentCallback@Gu@physx@@@HeightFieldUtil@Gu@physx@@QAEXABVPxVec3@4@00AAM1@Z 1005bf40 f i GuLegacyContactBoxHeightField.obj
 0001:0005b2d0       ?reportOverlaps@?$OverlapTraceSegment@UGuContactTraceSegmentCallback@Gu@physx@@@HeightFieldUtil@Gu@physx@@QAE_NXZ 1005c2d0 f i GuLegacyContactBoxHeightField.obj
 0001:0005b330       ?sign@intrinsics@physx@@YAMM@Z 1005c330 f i GuLegacyContactBoxHeightField.obj
 0001:0005b380       ?step@?$OverlapTraceSegment@UGuContactTraceSegmentCallback@Gu@physx@@@HeightFieldUtil@Gu@physx@@QAE_NHH@Z 1005c380 f i GuLegacyContactBoxHeightField.obj
 0001:0005b460       ?testVertexIndex@?$OverlapTraceSegment@UGuContactTraceSegmentCallback@Gu@physx@@@HeightFieldUtil@Gu@physx@@QAE_NI@Z 1005c460 f i GuLegacyContactBoxHeightField.obj
 0001:0005b600       ?traceSegment@GuContactHeightfieldTraceSegmentHelper@Gu@physx@@QBEXABVPxVec3@3@0PAUGuContactTraceSegmentCallback@23@@Z 1005c600 f i GuLegacyContactBoxHeightField.obj
 0001:0005b660       ?transformTranspose@Matrix34@Cm@physx@@QBE?AVPxVec3@3@ABV43@@Z 1005c660 f i GuLegacyContactBoxHeightField.obj
 0001:0005b6a0       ?underFaceHit@GuContactTraceSegmentCallback@Gu@physx@@QAE_NABVHeightFieldUtil@23@ABVPxVec3@3@1MMMI@Z 1005c6a0 f i GuLegacyContactBoxHeightField.obj
 0001:0005b8f0       ?visitCells@?$OverlapTraceSegment@UGuContactTraceSegmentCallback@Gu@physx@@@HeightFieldUtil@Gu@physx@@QAE_NABUOverlapLine@1234@@Z 1005c8f0 f i GuLegacyContactBoxHeightField.obj
 0001:0005bac0       ?visitCells@?$OverlapTraceSegment@UGuContactTraceSegmentCallback@Gu@physx@@@HeightFieldUtil@Gu@physx@@QAE_NABUOverlapRectangle@1234@@Z 1005cac0 f i GuLegacyContactBoxHeightField.obj
 0001:0005bc10       ?legacyContactCapsuleHeightfield@Gu@physx@@YA_NABVGeometryUnion@12@0ABVPxTransform@2@1ABUNarrowPhaseParams@12@AAUCache@12@AAVContactBuffer@12@PAVRenderOutput@Cm@2@@Z 1005cc10 f   GuLegacyContactCapsuleHeightField.obj
 0001:0005d060       ??0PxSphereGeometry@physx@@QAE@M@Z 1005e060 f i GuLegacyContactCapsuleHeightField.obj
 0001:0005d090       ??0PxTransform@physx@@QAE@ABVPxVec3@1@@Z 1005e090 f i GuLegacyContactCapsuleHeightField.obj
 0001:0005d0d0       ??B?$PxFlags@W4Enum@PxMeshGeometryFlag@physx@@E@physx@@QBEIXZ 1005e0d0 f i GuLegacyContactCapsuleHeightField.obj
 0001:0005d0f0       ?getEdgeTriangleIndices@HeightField@Gu@physx@@QBEIIQAI@Z 1005e0f0 f i GuLegacyContactCapsuleHeightField.obj
 0001:0005d2f0       ?getTriangleVertices@HeightField@Gu@physx@@QBEXIIIAAVPxVec3@3@00@Z 1005e2f0 f i GuLegacyContactCapsuleHeightField.obj
 0001:0005dbe0       ?isDeltaHeightOppositeExtent@HeightField@Gu@physx@@QBE_NM@Z 1005ebe0 f i GuLegacyContactCapsuleHeightField.obj
 0001:0005dce0       ?legacyContactConvexHeightfield@Gu@physx@@YA_NABVGeometryUnion@12@0ABVPxTransform@2@1ABUNarrowPhaseParams@12@AAUCache@12@AAVContactBuffer@12@PAVRenderOutput@Cm@2@@Z 1005ece0 f   GuLegacyContactConvexHeightField.obj
 0001:0005f2f0       ??0EdgeCache@Gu@physx@@QAE@XZ 100602f0 f i GuLegacyContactConvexHeightField.obj
 0001:0005f320       ?hash@EdgeCache@Gu@physx@@QBEII@Z 10060320 f i GuLegacyContactConvexHeightField.obj
 0001:0005f350       ?isInCache@EdgeCache@Gu@physx@@QAE_NEE@Z 10060350 f i GuLegacyContactConvexHeightField.obj
 0001:0005f410       ?legacyContactSphereHeightfield@Gu@physx@@YA_NABVGeometryUnion@12@0ABVPxTransform@2@1ABUNarrowPhaseParams@12@AAUCache@12@AAVContactBuffer@12@PAVRenderOutput@Cm@2@@Z 10060410 f   GuLegacyContactSphereHeightField.obj
 0001:0005f440       ?GuContactSphereHeightFieldShared@@YA_NABVGeometryUnion@Gu@physx@@0ABVPxTransform@3@1ABUNarrowPhaseParams@23@AAUCache@23@AAVContactBuffer@23@PAVRenderOutput@Cm@3@_N@Z 10060440 f   GuLegacyContactSphereHeightField.obj
 0001:00060500       ?contact@ContactBuffer@Gu@physx@@QAE_NABVPxVec3@3@0MGI@Z 10061500 f i GuLegacyContactSphereHeightField.obj
 0001:00060630       ?getBasisVector1@PxQuat@physx@@QBE?AVPxVec3@2@XZ 10061630 f i GuLegacyContactSphereHeightField.obj
 0001:00060720       ?barycentricCoordinates@Gu@physx@@YAXABT__m128@@00AAT3@@Z 10061720 f   GuBarycentricCoordinates.obj
 0001:00060810       ?barycentricCoordinates@Gu@physx@@YAXABT__m128@@000AAT3@1@Z 10061810 f   GuBarycentricCoordinates.obj
 0001:00060b60       ?barycentricCoordinates@Gu@physx@@YAXABT__m128@@00AAT3@1@Z 10061b60 f   GuBarycentricCoordinates.obj
 0001:00060ee0       ?FIsEq@aos@shdfnd@physx@@YA?AT__m128@@T4@0@Z 10061ee0 f i GuBarycentricCoordinates.obj
 0001:00060fe0       ?addAxis@SeparatingAxes@Gu@physx@@QAE_NABVPxVec3@3@@Z 10061fe0 f   GuSeparatingAxes.obj
 0001:000610c0       ??0BigConvexData@physx@@QAE@XZ 100620c0 f   GuBigConvexData.obj
 0001:00061120       ??1BigConvexData@physx@@QAE@XZ 10062120 f   GuBigConvexData.obj
 0001:000611a0       ?Load@BigConvexData@physx@@QAE_NAAVPxInputStream@2@@Z 100621a0 f   GuBigConvexData.obj
 0001:000612b0       ?ComputeOffset@BigConvexData@physx@@QBEIABVPxVec3@2@@Z 100622b0 f   GuBigConvexData.obj
 0001:000612d0       ?ComputeNearestOffset@BigConvexData@physx@@QBEIABVPxVec3@2@@Z 100622d0 f   GuBigConvexData.obj
 0001:000612f0       ?exportExtraData@BigConvexData@physx@@QAEXAAVPxSerializationContext@2@@Z 100622f0 f   GuBigConvexData.obj
 0001:00061390       ?importExtraData@BigConvexData@physx@@QAEXAAVPxDeserializationContext@2@@Z 10062390 f   GuBigConvexData.obj
 0001:00061410       ?CreateOffsets@BigConvexData@physx@@IAEXXZ 10062410 f   GuBigConvexData.obj
 0001:00061480       ?VLoad@BigConvexData@physx@@IAE_NAAVPxInputStream@2@@Z 10062480 f   GuBigConvexData.obj
 0001:00061810       ??$readExtraData@E$0BA@@PxDeserializationContext@physx@@QAEPAEI@Z 10062810 f i GuBigConvexData.obj
 0001:00061840       ??$readExtraData@E@PxDeserializationContext@physx@@QAEPAEI@Z 10062840 f i GuBigConvexData.obj
 0001:00061880       ??$readExtraData@UValency@Gu@physx@@@PxDeserializationContext@physx@@QAEPAUValency@Gu@1@I@Z 10062880 f i GuBigConvexData.obj
 0001:000618c0       ??0BigConvexData@physx@@QAE@W4PxEMPTY@1@@Z 100628c0 f i GuBigConvexData.obj
 0001:000618e0       ??4BigConvexData@physx@@QAEAAV01@ABV01@@Z 100628e0 f i GuBigConvexData.obj
 0001:00061910       ?ComputeCubemapOffset@physx@@YAIABVPxVec3@1@I@Z 10062910 f i GuBigConvexData.obj
 0001:00061a10       ?GetAdjacentVerts@BigConvexData@physx@@QBEPBEXZ 10062a10 f i GuBigConvexData.obj
 0001:00061a30       ?GetNbNeighbors@BigConvexData@physx@@QBEGI@Z 10062a30 f i GuBigConvexData.obj
 0001:00061a50       ?GetNbSamples@BigConvexData@physx@@QBEIXZ 10062a50 f i GuBigConvexData.obj
 0001:00061a70       ?GetNbVerts@BigConvexData@physx@@QBEIXZ 10062a70 f i GuBigConvexData.obj
 0001:00061a90       ?GetNeighbors@BigConvexData@physx@@QBEPBEI@Z 10062a90 f i GuBigConvexData.obj
 0001:00061ac0       ?GetOffset@BigConvexData@physx@@QBEGI@Z 10062ac0 f i GuBigConvexData.obj
 0001:00061af0       ?GetSubdiv@BigConvexData@physx@@QBEIXZ 10062af0 f i GuBigConvexData.obj
 0001:00061b10       ?GetValencies@BigConvexData@physx@@QBEPBUValency@Gu@2@XZ 10062b10 f i GuBigConvexData.obj
 0001:00061b30       ?GetValency@BigConvexData@physx@@QBEGI@Z 10062b30 f i GuBigConvexData.obj
 0001:00061b50       ?__global_array_delete@@YAXPAX@Z 10062b50 f i GuBigConvexData.obj
 0001:00061b70       ?__global_array_delete@@YAXPAXI@Z 10062b70 f i GuBigConvexData.obj
 0001:00061b90       ?__global_delete@@YAXPAX@Z 10062b90 f i GuBigConvexData.obj
 0001:00061bb0       ?__global_delete@@YAXPAXI@Z 10062bb0 f i GuBigConvexData.obj
 0001:00061bd0       ?to16@shdfnd@physx@@YAGI@Z 10062bd0 f i GuBigConvexData.obj
 0001:00061c30       ?getScaledConvex@Gu@physx@@YAXAAPAVPxVec3@2@AAPAEPAV32@PAE_NPBV32@PBEIABVFastVertex2ShapeScaling@Cm@2@@Z 10062c30 f   GuConvexHelper.obj
 0001:00061cd0       ?getConvexData@Gu@physx@@YA_NABVGeometryUnion@12@AAVFastVertex2ShapeScaling@Cm@2@AAVPxBounds3@2@AAUPolygonalData@12@@Z 10062cd0 f   GuConvexHelper.obj
 0001:00061da0       ?findUniqueConvexEdges@Gu@physx@@YAIIPIAUConvexEdge@12@IPIBUHullPolygonData@12@PIBE@Z 10062da0 f   GuConvexHelper.obj
 0001:00062020       ??$PX_UNUSED@VPxVec3@physx@@@@YAXABVPxVec3@physx@@@Z 10063020 f i GuConvexHelper.obj
 0001:00062030       ?isEmpty@CenterExtents@Gu@physx@@QBE_NXZ 10063030 f i GuConvexHelper.obj
 0001:00062060       ?isEmpty@Cm@physx@@YA_NABVPxVec3@2@0@Z 10063060 f i GuConvexHelper.obj
 0001:00062100       ?isValid@CenterExtents@Gu@physx@@QBE_NXZ 10063100 f i GuConvexHelper.obj
 0001:00062130       ?isValid@Cm@physx@@YA_NABVPxVec3@2@0@Z 10063130 f i GuConvexHelper.obj
 0001:00062210       ?reset@InternalObjectsData@Gu@physx@@QAEXXZ 10063210 f i GuConvexHelper.obj
 0001:00062280       ?transformFast@CenterExtents@Gu@physx@@QBE?AVPxBounds3@3@ABVPxMat33@3@@Z 10063280 f i GuConvexHelper.obj
 0001:000623b0       ?exportExtraData@ConvexMesh@Gu@physx@@UAEXAAVPxSerializationContext@3@@Z 100633b0 f   GuConvexMesh.obj
 0001:00062440       ?importExtraData@ConvexMesh@Gu@physx@@QAEXAAVPxDeserializationContext@3@@Z 10063440 f   GuConvexMesh.obj
 0001:000624e0       ?onRefCountZero@ConvexMesh@Gu@physx@@UAEXXZ 100634e0 f   GuConvexMesh.obj
 0001:00062560       ?createObject@ConvexMesh@Gu@physx@@SAPAV123@AAPAEAAVPxDeserializationContext@3@@Z 10063560 f   GuConvexMesh.obj
 0001:000625e0       ??0ConvexMesh@Gu@physx@@QAE@XZ 100635e0 f   GuConvexMesh.obj
 0001:00062680       ??0ConvexMesh@Gu@physx@@QAE@AAVGuMeshFactory@2@AAUConvexHullData@12@@Z 10063680 f   GuConvexMesh.obj
 0001:00062730       ?load@ConvexMesh@Gu@physx@@QAE_NAAVPxInputStream@3@@Z 10063730 f   GuConvexMesh.obj
 0001:00062c40       ?release@ConvexMesh@Gu@physx@@UAEXXZ 10063c40 f   GuConvexMesh.obj
 0001:00062c60       ?getPolygonData@ConvexMesh@Gu@physx@@UBE_NIAAUPxHullPolygon@3@@Z 10063c60 f   GuConvexMesh.obj
 0001:00062d00       ?isGpuCompatible@ConvexMesh@Gu@physx@@UBE_NXZ 10063d00 f   GuConvexMesh.obj
 0001:00062d60       ?getReferenceCount@ConvexMesh@Gu@physx@@UBEIXZ 10063d60 f   GuConvexMesh.obj
 0001:00062d80       ?acquireReference@ConvexMesh@Gu@physx@@UAEXXZ 10063d80 f   GuConvexMesh.obj
 0001:00062da0       ?getMassInformation@ConvexMesh@Gu@physx@@UBEXAAMAAVPxMat33@3@AAVPxVec3@3@@Z 10063da0 f   GuConvexMesh.obj
 0001:00062de0       ?getLocalBounds@ConvexMesh@Gu@physx@@UBE?AVPxBounds3@3@XZ 10063de0 f   GuConvexMesh.obj
 0001:00062e60       ??1ConvexMesh@Gu@physx@@UAE@XZ 10063e60 f   GuConvexMesh.obj
 0001:00063a20       ??$PX_UNUSED@G@@YAXABG@Z   10064a20 f i GuConvexMesh.obj
 0001:00063a30       ??$deletePxBase@VConvexMesh@Gu@physx@@@Cm@physx@@YAXPAVConvexMesh@Gu@1@@Z 10064a30 f i GuConvexMesh.obj
 0001:00063ac0       ??$readExtraData@VBigConvexData@physx@@$0BA@@PxDeserializationContext@physx@@QAEPAVBigConvexData@1@I@Z 10064ac0 f i GuConvexMesh.obj
 0001:00063af0       ??$readExtraData@VBigConvexData@physx@@@PxDeserializationContext@physx@@QAEPAVBigConvexData@1@I@Z 10064af0 f i GuConvexMesh.obj
 0001:00063b30       ??0?$PxBitAndDataT@G$0IAAA@@physx@@QAE@G_N@Z 10064b30 f i GuConvexMesh.obj
 0001:00063b80       ??0?$PxBitAndDataT@G$0IAAA@@physx@@QAE@XZ 10064b80 f i GuConvexMesh.obj
 0001:00063ba0       ??0?$PxBitAndDataT@I$0IAAAAAAA@@physx@@QAE@I_N@Z 10064ba0 f i GuConvexMesh.obj
 0001:00063bf0       ??0?$PxFlags@W4Enum@PxBaseFlag@physx@@G@physx@@QAE@W4Enum@PxBaseFlag@1@@Z 10064bf0 f i GuConvexMesh.obj
 0001:00063c10       ??0?$ReflectionAllocator@VBigConvexData@physx@@@shdfnd@physx@@QAE@PBD@Z 10064c10 f i GuConvexMesh.obj
 0001:00063c30       ??0CenterExtents@Gu@physx@@QAE@ABVPxBounds3@2@@Z 10064c30 f i GuConvexMesh.obj
 0001:00063ca0       ??0ConvexHullData@Gu@physx@@QAE@XZ 10064ca0 f i GuConvexMesh.obj
 0001:00063ce0       ??0PxBase@physx@@IAE@GV?$PxFlags@W4Enum@PxBaseFlag@physx@@G@1@@Z 10064ce0 f i GuConvexMesh.obj
 0001:00063d20       ??0PxConvexMesh@physx@@IAE@GV?$PxFlags@W4Enum@PxBaseFlag@physx@@G@1@@Z 10064d20 f i GuConvexMesh.obj
 0001:00063d60       ??0RefCountable@Cm@physx@@QAE@I@Z 10064d60 f i GuConvexMesh.obj
 0001:00063de0       ??1ConvexHullData@Gu@physx@@QAE@XZ 10064de0 f i GuConvexMesh.obj
 0001:00063e00       ??2UserAllocated@shdfnd@physx@@SAPAXIPAX@Z 10064e00 f i GuConvexMesh.obj
 0001:00063e10       ??4ConvexHullData@Gu@physx@@QAEAAU012@ABU012@@Z 10064e10 f i GuConvexMesh.obj
 0001:00063ed0       ??B?$PxBitAndDataT@I$0IAAAAAAA@@physx@@QBEIXZ 10064ed0 f i GuConvexMesh.obj
 0001:00063ef0       ??Uphysx@@YA?AV?$PxFlags@W4Enum@PxBaseFlag@physx@@G@0@W4Enum@PxBaseFlag@0@0@Z 10064ef0 f i GuConvexMesh.obj
 0001:00063f30       ??_5?$PxFlags@W4Enum@PxBaseFlag@physx@@G@physx@@QAEAAV01@W4Enum@PxBaseFlag@1@@Z 10064f30 f i GuConvexMesh.obj
 0001:00063f60       ??_GBigConvexData@physx@@QAEPAXI@Z 10064f60 f i GuConvexMesh.obj
 0001:00063fc0       ?ReadDwordBuffer@physx@@YA_NPAII_NAAVPxInputStream@1@@Z 10064fc0 f i GuConvexMesh.obj
 0001:00063ff0       ?allocate@?$ReflectionAllocator@VBigConvexData@physx@@@shdfnd@physx@@QAEPAXIPBDH@Z 10064ff0 f i GuConvexMesh.obj
 0001:00064050       ?centerExtents@PxBounds3@physx@@SA?AV12@ABVPxVec3@2@0@Z 10065050 f i GuConvexMesh.obj
 0001:000640a0       ?computeBufferSize@Gu@physx@@YAIABUConvexHullData@12@I@Z 100650a0 f i GuConvexMesh.obj
 0001:00064190       ?decRefCount@RefCountable@Cm@physx@@QAEXXZ 10065190 f i GuConvexMesh.obj
 0001:00064210       ?flip@physx@@YAXAAG@Z      10065210 f i GuConvexMesh.obj
 0001:00064280       ?flip@physx@@YAXAAM@Z      10065280 f i GuConvexMesh.obj
 0001:00064330       ?flipData@Gu@physx@@YAXAAUHullPolygonData@12@@Z 10065330 f i GuConvexMesh.obj
 0001:00064390       ?getBaseFlags@PxBase@physx@@QBE?AV?$PxFlags@W4Enum@PxBaseFlag@physx@@G@2@XZ 10065390 f i GuConvexMesh.obj
 0001:000643c0       ?getBufferSize@ConvexMesh@Gu@physx@@QBEIXZ 100653c0 f i GuConvexMesh.obj
 0001:000643f0       ?getHull@ConvexMesh@Gu@physx@@QBEABUConvexHullData@23@XZ 100653f0 f i GuConvexMesh.obj
 0001:00064410       ?getInertia@ConvexMesh@Gu@physx@@QBEABVPxMat33@3@XZ 10065410 f i GuConvexMesh.obj
 0001:00064430       ?getMass@ConvexMesh@Gu@physx@@QBEMXZ 10065430 f i GuConvexMesh.obj
 0001:00064450       ?getName@?$ReflectionAllocator@VBigConvexData@physx@@@shdfnd@physx@@CAPBDXZ 10065450 f i GuConvexMesh.obj
 0001:000644a0       ?getNb@ConvexMesh@Gu@physx@@ABEIXZ 100654a0 f i GuConvexMesh.obj
 0001:000644c0       ?getRefCount@RefCountable@Cm@physx@@QBEIXZ 100654c0 f i GuConvexMesh.obj
 0001:000644e0       ?incRefCount@RefCountable@Cm@physx@@QAEXXZ 100654e0 f i GuConvexMesh.obj
 0001:00064550       ?markSerializedMem@Cm@physx@@YAXPAXI@Z 10065550 f i GuConvexMesh.obj
 0001:00064590       ?notifyReleaseConvexMesh@GuMeshFactory@physx@@MAEXABVPxConvexMesh@2@@Z 10065590 f i GuConvexMesh.obj
 0001:000645a0       ?notifyReleaseHeightField@GuMeshFactory@physx@@MAEXABVPxHeightField@2@@Z 100655a0 f i GuConvexMesh.obj
 0001:000645b0       ?notifyReleaseTriangleMesh@GuMeshFactory@physx@@MAEXABVPxTriangleMesh@2@@Z 100655b0 f i GuConvexMesh.obj
 0001:000645c0       ?resolveReferences@ConvexMesh@Gu@physx@@QAEXAAVPxDeserializationContext@3@@Z 100655c0 f i GuConvexMesh.obj
 0001:000645d0       ?setEmpty@CenterExtents@Gu@physx@@QAEXXZ 100655d0 f i GuConvexMesh.obj
 0001:00064610       ?BFFTF@aos@shdfnd@physx@@YA?AT__m128@@XZ 10065610 f i GuConvexSupportTable.obj
 0001:00064660       ?BFTFF@aos@shdfnd@physx@@YA?AT__m128@@XZ 10065660 f i GuConvexSupportTable.obj
 0001:000646b0       ?BFTTF@aos@shdfnd@physx@@YA?AT__m128@@XZ 100656b0 f i GuConvexSupportTable.obj
 0001:00064700       ?BTFFF@aos@shdfnd@physx@@YA?AT__m128@@XZ 10065700 f i GuConvexSupportTable.obj
 0001:00064750       ?BTFTF@aos@shdfnd@physx@@YA?AT__m128@@XZ 10065750 f i GuConvexSupportTable.obj
 0001:000647a0       ?BTTFF@aos@shdfnd@physx@@YA?AT__m128@@XZ 100657a0 f i GuConvexSupportTable.obj
 0001:000647f0       ?computeHullOBB@Gu@physx@@YAXAAVBox@12@ABVPxBounds3@2@MABVMatrix34@Cm@2@2ABVFastVertex2ShapeScaling@62@_N@Z 100657f0 f   GuConvexUtilsInternal.obj
 0001:000648a0       ?computeVertexSpaceOBB@Gu@physx@@YAXAAVBox@12@ABV312@ABVPxTransform@2@ABVPxMeshScale@2@@Z 100658a0 f   GuConvexUtilsInternal.obj
 0001:00064910       ?computeOBBAroundConvex@Gu@physx@@YAXAAVBox@12@ABVPxConvexMeshGeometry@2@PBVPxConvexMesh@2@ABVPxTransform@2@@Z 10065910 f   GuConvexUtilsInternal.obj
 0001:00064b50       ??DMatrix34@Cm@physx@@QBE?AV012@ABVPxMat33@2@@Z 10065b50 f i GuConvexUtilsInternal.obj
 0001:00064b90       ??Dphysx@@YA?AVMatrix34@Cm@0@ABVPxMeshScale@0@ABV120@@Z 10065b90 f i GuConvexUtilsInternal.obj
 0001:00064bf0       ?getLocalBoundsFast@ConvexMesh@Gu@physx@@QBEABVCenterExtents@23@XZ 10065bf0 f i GuConvexUtilsInternal.obj
 0001:00064c10       ?transform@physx@@YA?AVBox@Gu@1@ABVMatrix34@Cm@1@ABV231@@Z 10065c10 f i GuConvexUtilsInternal.obj
 0001:00064d60       ?transformTranspose@Matrix34@Cm@physx@@QBE?AV123@ABV123@@Z 10065d60 f i GuConvexUtilsInternal.obj
 0001:00064e00       ?localSearch@physx@@YAXAAIABVPxVec3@1@PBV21@PBUBigConvexRawData@Gu@1@@Z 10065e00 f   GuHillClimbing.obj
 0001:00065150       ??0PolygonalBox@Gu@physx@@QAE@ABVPxVec3@2@@Z 10066150 f   GuShapeConvex.obj
 0001:00065940       ?getPolygonalData@PolygonalBox@Gu@physx@@QBEXPIAUPolygonalData@23@@Z 10066940 f   GuShapeConvex.obj
 0001:00065a30       ?getPolygonalData_Convex@Gu@physx@@YAXPIAUPolygonalData@12@PIBUConvexHullData@12@ABVFastVertex2ShapeScaling@Cm@2@@Z 10066a30 f   GuShapeConvex.obj
 0001:00066a40       ??$PX_UNUSED@VFastVertex2ShapeScaling@Cm@physx@@@@YAXABVFastVertex2ShapeScaling@Cm@physx@@@Z 10067a40 f i GuShapeConvex.obj
 0001:00066a50       ??0HullPolygonData@Gu@physx@@QAE@XZ 10067a50 f i GuShapeConvex.obj
 0001:00066a70       ?getFacesByEdges8@ConvexHullData@Gu@physx@@QBEPBEXZ 10067a70 f i GuShapeConvex.obj
 0001:00066ac0       ?getSamples2@BigConvexRawData@Gu@physx@@QBEPBEXZ 10067ac0 f i GuShapeConvex.obj
 0001:00066ae0       ?distancePointBoxSquared@Gu@physx@@YAMABVPxVec3@2@00ABVPxMat33@2@PAV32@@Z 10067ae0 f   GuDistancePointBox.obj
 0001:00066d50       ?closestPtPointTriangle@Gu@physx@@YA?AVPxVec3@2@ABV32@000AAM1@Z 10067d50 f   GuDistancePointTriangle.obj
 0001:000671a0       ?distancePointTriangleSquared@Gu@physx@@YA?AT__m128@@ABT3@000AAT3@11@Z 100681a0 f   GuDistancePointTriangle.obj
 0001:000682c0       ?distanceSegmentBoxSquared@Gu@physx@@YAMABVPxVec3@2@000ABVPxMat33@2@PAMPAV32@@Z 100692c0 f   GuDistanceSegmentBox.obj
 0001:0006b6e0       ?distanceSegmentSegmentSquared@Gu@physx@@YAMABVPxVec3@2@0M00MPAM1@Z 1006c6e0 f   GuDistanceSegmentSegment.obj
 0001:0006c730       ?distanceSegmentSegmentSquared@Gu@physx@@YAMABVPxVec3@2@000PAM1@Z 1006d730 f   GuDistanceSegmentSegment.obj
 0001:0006c940       ?distanceSegmentSegmentSquared@Gu@physx@@YA?AT__m128@@ABT3@000AAT3@1@Z 1006d940 f   GuDistanceSegmentSegment.obj
 0001:0006ce50       ?distanceSegmentSegmentSquared4@Gu@physx@@YA?AT__m128@@ABT3@000000000AAT3@1@Z 1006de50 f   GuDistanceSegmentSegment.obj
 0001:0006e350       ?FHalf@aos@shdfnd@physx@@YA?AT__m128@@XZ 1006f350 f i GuDistanceSegmentSegment.obj
 0001:0006e3a0       ?FScaleAdd@aos@shdfnd@physx@@YA?AT__m128@@T4@00@Z 1006f3a0 f i GuDistanceSegmentSegment.obj
 0001:0006e510       ?V3Dot4@aos@shdfnd@physx@@YA?AT__m128@@ABT4@0000000@Z 1006f510 f i GuDistanceSegmentSegment.obj
 0001:0006e7b0       ?V4Clamp@aos@shdfnd@physx@@YA?AT__m128@@T4@00@Z 1006f7b0 f i GuDistanceSegmentSegment.obj
 0001:0006e820       ?V4Div@aos@shdfnd@physx@@YA?AT__m128@@T4@0@Z 1006f820 f i GuDistanceSegmentSegment.obj
 0001:0006e870       ?V4Eps@aos@shdfnd@physx@@YA?AT__m128@@XZ 1006f870 f i GuDistanceSegmentSegment.obj
 0001:0006e8c0       ?V4IsGrtr@aos@shdfnd@physx@@YA?AT__m128@@T4@0@Z 1006f8c0 f i GuDistanceSegmentSegment.obj
 0001:0006e910       ?V4IsGrtrOrEq@aos@shdfnd@physx@@YA?AT__m128@@T4@0@Z 1006f910 f i GuDistanceSegmentSegment.obj
 0001:0006e960       ?V4Max@aos@shdfnd@physx@@YA?AT__m128@@T4@0@Z 1006f960 f i GuDistanceSegmentSegment.obj
 0001:0006e9b0       ?V4Min@aos@shdfnd@physx@@YA?AT__m128@@T4@0@Z 1006f9b0 f i GuDistanceSegmentSegment.obj
 0001:0006ea00       ?V4One@aos@shdfnd@physx@@YA?AT__m128@@XZ 1006fa00 f i GuDistanceSegmentSegment.obj
 0001:0006ea50       ?V4Recip@aos@shdfnd@physx@@YA?AT__m128@@T4@@Z 1006fa50 f i GuDistanceSegmentSegment.obj
 0001:0006eaa0       ?V4Splat@aos@shdfnd@physx@@YA?AT__m128@@T4@@Z 1006faa0 f i GuDistanceSegmentSegment.obj
 0001:0006eb30       ?V4Sub@aos@shdfnd@physx@@YA?AT__m128@@T4@0@Z 1006fb30 f i GuDistanceSegmentSegment.obj
 0001:0006eb80       ?V4UnpackXY@aos@shdfnd@physx@@YA?AT__m128@@ABT4@0@Z 1006fb80 f i GuDistanceSegmentSegment.obj
 0001:0006ebd0       ?V4UnpackZW@aos@shdfnd@physx@@YA?AT__m128@@ABT4@0@Z 1006fbd0 f i GuDistanceSegmentSegment.obj
 0001:0006ec20       ?V4Zero@aos@shdfnd@physx@@YA?AT__m128@@XZ 1006fc20 f i GuDistanceSegmentSegment.obj
 0001:0006ec60       ?distanceSegmentTriangleSquared@Gu@physx@@YAMABVPxVec3@2@0000PAM11@Z 1006fc60 f   GuDistanceSegmentTriangle.obj
 0001:00070110       ?distanceSegmentTriangleSquared@Gu@physx@@YA?AT__m128@@ABT3@0000AAT3@1@Z 10071110 f   GuDistanceSegmentTriangle.obj
 0001:00071b30       ?FNeg@aos@shdfnd@physx@@YA?AT__m128@@T4@@Z 10072b30 f i GuDistanceSegmentTriangle.obj
 0001:00071bd0       ?distancePointTriangleSquared@Gu@physx@@YAMABVPxVec3@2@000PAM1@Z 10072bd0 f i GuDistanceSegmentTriangle.obj
 0001:00071c80       ?isValidTriangleBarycentricCoord@Gu@physx@@YA?AT__m128@@ABT3@0@Z 10072c80 f i GuDistanceSegmentTriangle.obj
 0001:00071ec0       ?sweepBoxBox@Gu@physx@@YA_NABVBox@12@0ABVPxVec3@2@MV?$PxFlags@W4Enum@PxHitFlag@physx@@G@2@AAUPxSweepHit@2@@Z 10072ec0 f   GuSweepBoxBox.obj
 0001:000728e0       ??0?$PxFlags@W4Enum@PxHitFlag@physx@@G@physx@@QAE@ABV01@@Z 100738e0 f i GuSweepBoxBox.obj
 0001:00072910       ??0?$PxFlags@W4Enum@PxHitFlag@physx@@G@physx@@QAE@W4Enum@PxHitFlag@1@@Z 10073910 f i GuSweepBoxBox.obj
 0001:00072930       ??4?$PxFlags@W4Enum@PxHitFlag@physx@@G@physx@@QAEAAV01@ABV01@@Z 10073930 f i GuSweepBoxBox.obj
 0001:00072960       ??B?$PxFlags@W4Enum@PxHitFlag@physx@@G@physx@@QBE_NXZ 10073960 f i GuSweepBoxBox.obj
 0001:00072990       ??I?$PxFlags@W4Enum@PxHitFlag@physx@@G@physx@@QBE?AV01@W4Enum@PxHitFlag@1@@Z 10073990 f i GuSweepBoxBox.obj
 0001:000729e0       ??U?$PxFlags@W4Enum@PxHitFlag@physx@@G@physx@@QBE?AV01@W4Enum@PxHitFlag@1@@Z 100739e0 f i GuSweepBoxBox.obj
 0001:00072a30       ??Uphysx@@YA?AV?$PxFlags@W4Enum@PxHitFlag@physx@@G@0@W4Enum@PxHitFlag@0@0@Z 10073a30 f i GuSweepBoxBox.obj
 0001:00072a70       ??_5?$PxFlags@W4Enum@PxHitFlag@physx@@G@physx@@QAEAAV01@W4Enum@PxHitFlag@1@@Z 10073a70 f i GuSweepBoxBox.obj
 0001:00072aa0       ?buildMatrixFromBox@physx@@YAXAAVMatrix34@Cm@1@ABVBox@Gu@1@@Z 10073aa0 f i GuSweepBoxBox.obj
 0001:00072ad0       ?computeWorldToBoxMatrix@physx@@YAXAAVMatrix34@Cm@1@ABVBox@Gu@1@@Z 10073ad0 f i GuSweepBoxBox.obj
 0001:00072b70       ?sweepBoxSphere@Gu@physx@@YA_NABVBox@12@MABVPxVec3@2@1MAAMAAV42@V?$PxFlags@W4Enum@PxHitFlag@physx@@G@2@@Z 10073b70 f   GuSweepBoxSphere.obj
 0001:00073180       ??0Capsule@Gu@physx@@QAE@ABVPxVec3@2@0M@Z 10074180 f i GuSweepBoxSphere.obj
 0001:000731c0       ??0Sphere@Gu@physx@@QAE@ABVPxVec3@2@M@Z 100741c0 f i GuSweepBoxSphere.obj
 0001:00073200       ??1Sphere@Gu@physx@@QAE@XZ 10074200 f i GuSweepBoxSphere.obj
 0001:00073210       ?computePoint@Segment@Gu@physx@@QBEXAAVPxVec3@3@M@Z 10074210 f i GuSweepBoxSphere.obj
 0001:00073280       ?intersectRayCapsule@Gu@physx@@YA_NABVPxVec3@2@000MAAM@Z 10074280 f i GuSweepBoxSphere.obj
 0001:00073450       ?intersectRayCapsule@Gu@physx@@YA_NABVPxVec3@2@0ABVCapsule@12@AAM@Z 10074450 f i GuSweepBoxSphere.obj
 0001:000734e0       ?sweepBoxTriangle@Gu@physx@@YA_NABVPxTriangle@2@ABVPxBounds3@2@ABVPxVec3@2@2AAV52@3AAM_N@Z 100744e0 f   GuSweepBoxTriangle_FeatureBased.obj
 0001:00074be0       ??0PxTriangle@physx@@QAE@ABV01@@Z 10075be0 f i GuSweepBoxTriangle_FeatureBased.obj
 0001:000756b0       ?triBoxSweepTestBoxSpace@Gu@physx@@YAHABVPxTriangle@2@ABVPxVec3@2@11MAAM_N@Z 100766b0 f   GuSweepBoxTriangle_SAT.obj
 0001:00075980       ?cross010@shdfnd@physx@@YA?AVPxVec3@2@ABV32@@Z 10076980 f i GuSweepBoxTriangle_SAT.obj
 0001:000759d0       ?cross100@shdfnd@physx@@YA?AVPxVec3@2@ABV32@@Z 100769d0 f i GuSweepBoxTriangle_SAT.obj
 0001:00075a20       ?testSeparationAxes@Gu@physx@@YAHABVPxTriangle@2@ABVPxVec3@2@111MAAM@Z 10076a20 f i GuSweepBoxTriangle_SAT.obj
 0001:00075d80       ?triBoxSweepTestBoxSpace_inlined@Gu@physx@@YAHABVPxTriangle@2@ABVPxVec3@2@11MAAMI@Z 10076d80 f i GuSweepBoxTriangle_SAT.obj
 0001:00075e10       ?sweepCapsuleBox@Gu@physx@@YA_NABVCapsule@12@ABVPxTransform@2@ABVPxVec3@2@2MAAV52@AAM3V?$PxFlags@W4Enum@PxHitFlag@physx@@G@2@@Z 10076e10 f   GuSweepCapsuleBox.obj
 0001:00076be0       ??0?$PxFlags@W4Enum@PxHitFlag@physx@@G@physx@@QAE@G@Z 10077be0 f i GuSweepCapsuleBox.obj
 0001:00076c00       ??0?$ScopedPointer@VPxTriangle@physx@@VTempAllocator@shdfnd@2@@shdfnd@physx@@QAE@XZ 10077c00 f i GuSweepCapsuleBox.obj
 0001:00076c20       ??0PxActorShape@physx@@QAE@XZ 10077c20 f i GuSweepCapsuleBox.obj
 0001:00076c50       ??0PxLocationHit@physx@@QAE@XZ 10077c50 f i GuSweepCapsuleBox.obj
 0001:00076cd0       ??0PxMat33Padded@Gu@physx@@QAE@ABVPxQuat@2@@Z 10077cd0 f i GuSweepCapsuleBox.obj
 0001:00076d90       ??0PxQueryHit@physx@@QAE@XZ 10077d90 f i GuSweepCapsuleBox.obj
 0001:00076dc0       ??0PxSweepHit@physx@@QAE@XZ 10077dc0 f i GuSweepCapsuleBox.obj
 0001:00076de0       ??1?$ScopedPointer@VPxTriangle@physx@@VTempAllocator@shdfnd@2@@shdfnd@physx@@QAE@XZ 10077de0 f i GuSweepCapsuleBox.obj
 0001:00076e10       ??1PxMat33Padded@Gu@physx@@QAE@XZ 10077e10 f i GuSweepCapsuleBox.obj
 0001:00076e20       ??B?$ScopedPointer@VPxTriangle@physx@@VTempAllocator@shdfnd@2@@shdfnd@physx@@QBEPAVPxTriangle@2@XZ 10077e20 f i GuSweepCapsuleBox.obj
 0001:00076e90       ?sweepCapsuleCapsule@Gu@physx@@YA_NABVCapsule@12@0ABVPxVec3@2@MAAMAAV42@3IAAG@Z 10077e90 f   GuSweepCapsuleCapsule.obj
 0001:00077f20       ??0Capsule@Gu@physx@@QAE@XZ 10078f20 f i GuSweepCapsuleCapsule.obj
 0001:00077f40       ??0PxTriangle@physx@@QAE@ABVPxVec3@1@00@Z 10078f40 f i GuSweepCapsuleCapsule.obj
 0001:00077fc0       ??4Capsule@Gu@physx@@QAEAAV012@ABV012@@Z 10078fc0 f i GuSweepCapsuleCapsule.obj
 0001:00078000       ??4Segment@Gu@physx@@QAEAAV012@ABV012@@Z 10079000 f i GuSweepCapsuleCapsule.obj
 0001:00078040       ??B?$PxFlags@W4Enum@PxHitFlag@physx@@G@physx@@QBEGXZ 10079040 f i GuSweepCapsuleCapsule.obj
 0001:00078060       ??B?$PxFlags@W4Enum@PxHitFlag@physx@@G@physx@@QBEIXZ 10079060 f i GuSweepCapsuleCapsule.obj
 0001:000780d0       ?sweepCapsuleTriangles_Precise@Gu@physx@@YA_NIPIBVPxTriangle@2@ABVCapsule@12@ABVPxVec3@2@MPIBIAAUPxSweepHit@2@AAV52@V?$PxFlags@W4Enum@PxHitFlag@physx@@G@2@_NPBVBoxPadded@12@@Z 100790d0 f   GuSweepCapsuleTriangle.obj
 0001:00079aa0       ??0CapsuleTriangleOverlapData@Gu@physx@@QAE@XZ 1007aaa0 f i GuSweepCapsuleTriangle.obj
 0001:00079ac0       ??4PxTriangle@physx@@QAEXABV01@@Z 1007aac0 f i GuSweepCapsuleTriangle.obj
 0001:00079b40       ?coarseCullingTri@Gu@physx@@YA_NABVPxVec3@2@0MMPIBV32@@Z 1007ab40 f i GuSweepCapsuleTriangle.obj
 0001:00079e00       ?computeAlignmentValue@Gu@physx@@YAMABVPxVec3@2@0@Z 1007ae00 f i GuSweepCapsuleTriangle.obj
 0001:00079e50       ?computeSphereTriangleImpactData@Gu@physx@@YA_NAAUPxSweepHit@2@AAVPxVec3@2@IMABV42@22PIBVPxTriangle@2@_N4@Z 1007ae50 f i GuSweepCapsuleTriangle.obj
 0001:00079f90       ?cullTriangle@Gu@physx@@YA_NPIBVPxVec3@2@ABV32@MMM@Z 1007af90 f i GuSweepCapsuleTriangle.obj
 0001:0007a0d0       ?getInitIndex@Gu@physx@@YAIPIBII@Z 1007b0d0 f i GuSweepCapsuleTriangle.obj
 0001:0007a160       ?getTriangleIndex@physx@@YAIII@Z 1007b160 f i GuSweepCapsuleTriangle.obj
 0001:0007a1a0       ?init@CapsuleTriangleOverlapData@Gu@physx@@QAEXABVCapsule@23@@Z 1007b1a0 f i GuSweepCapsuleTriangle.obj
 0001:0007a250       ?keepTriangle@Gu@physx@@YA_NMMMMMM@Z 1007b250 f i GuSweepCapsuleTriangle.obj
 0001:0007a350       ?rejectTriangle@Gu@physx@@YA_NABVPxVec3@2@0MMPIBV32@M@Z 1007b350 f i GuSweepCapsuleTriangle.obj
 0001:0007a3f0       ?setInitialOverlapResults@Gu@physx@@YA_NAAUPxSweepHit@2@ABVPxVec3@2@I@Z 1007b3f0 f i GuSweepCapsuleTriangle.obj
 0001:0007a470       ?shouldFlipNormal@Gu@physx@@YA_NABVPxVec3@2@_N100@Z 1007b470 f i GuSweepCapsuleTriangle.obj
 0001:0007a550       ?squareDistance@Gu@physx@@YAMABVPxVec3@2@0M0@Z 1007b550 f i GuSweepCapsuleTriangle.obj
 0001:0007a660       ?sweepSphereCapsule@Gu@physx@@YA_NABVSphere@12@ABVCapsule@12@ABVPxVec3@2@MAAMAAV52@4V?$PxFlags@W4Enum@PxHitFlag@physx@@G@2@@Z 1007b660 f   GuSweepSphereCapsule.obj
 0001:0007aa00       ?sweepSphereSphere@Gu@physx@@YA_NABVPxVec3@2@M0M0AAMAAV32@@Z 1007ba00 f   GuSweepSphereSphere.obj
 0001:0007ae80       ?sweepSphereVSTri@Gu@physx@@YA_NPIBVPxVec3@2@ABV32@1M1AAMAA_N_N@Z 1007be80 f   GuSweepSphereTriangle.obj
 0001:0007b350       ?sweepSphereVSQuad@Gu@physx@@YA_NPIBVPxVec3@2@ABV32@1M1AAM@Z 1007c350 f   GuSweepSphereTriangle.obj
 0001:0007b9b0       ?sweepSphereTriangles@Gu@physx@@YA_NIPIBVPxTriangle@2@ABVPxVec3@2@M1MPIBIAAUPxSweepHit@2@AAV42@_N555@Z 1007c9b0 f   GuSweepSphereTriangle.obj
 0001:0007c4e0       ?closestPtPointTriangle2@Gu@physx@@YA?AVPxVec3@2@ABV32@00000@Z 1007d4e0 f i GuSweepSphereTriangle.obj
 0001:0007c940       ?computeSphereTriImpactData@Gu@physx@@YAXAAVPxVec3@2@0ABV32@1MABVPxTriangle@2@@Z 1007d940 f   GuSweepTriangleUtils.obj
 0001:0007ca10       ?computeBoxTriImpactData@Gu@physx@@YAXAAVPxVec3@2@0ABV32@1ABVPxTriangle@2@M@Z 1007da10 f   GuSweepTriangleUtils.obj
 0001:0007cc50       ?computeEdgeEdgeNormal@Gu@physx@@YAXAAVPxVec3@2@ABV32@1111M@Z 1007dc50 f   GuSweepTriangleUtils.obj
 0001:0007d440       ??$getConvex@VBoxV@Gu@physx@@@GjkConvexBase@Gu@physx@@QBEABVBoxV@12@XZ 1007e440 f i GuSweepTriangleUtils.obj
 0001:0007d460       ??$getConvex@VTriangleV@Gu@physx@@@GjkConvexBase@Gu@physx@@QBEABVTriangleV@12@XZ 1007e460 f i GuSweepTriangleUtils.obj
 0001:0007d480       ??$gjk@U?$LocalConvex@VTriangleV@Gu@physx@@@Gu@physx@@U?$LocalConvex@VBoxV@Gu@physx@@@23@@Gu@physx@@YA?AW4GjkStatus@01@ABU?$LocalConvex@VTriangleV@Gu@physx@@@01@ABU?$LocalConvex@VBoxV@Gu@physx@@@01@ABT__m128@@2AAT5@333@Z 1007e480 f i GuSweepTriangleUtils.obj
 0001:0007e070       ??0?$LocalConvex@VBoxV@Gu@physx@@@Gu@physx@@QAE@ABVBoxV@12@@Z 1007f070 f i GuSweepTriangleUtils.obj
 0001:0007e0a0       ??0?$LocalConvex@VTriangleV@Gu@physx@@@Gu@physx@@QAE@ABVTriangleV@12@@Z 1007f0a0 f i GuSweepTriangleUtils.obj
 0001:0007e0d0       ??0BoxV@Gu@physx@@QAE@ABT__m128@@0@Z 1007f0d0 f i GuSweepTriangleUtils.obj
 0001:0007e190       ??0ConvexV@Gu@physx@@QAE@W4Type@ConvexType@12@@Z 1007f190 f i GuSweepTriangleUtils.obj
 0001:0007e220       ??0TriangleV@Gu@physx@@QAE@ABT__m128@@00@Z 1007f220 f i GuSweepTriangleUtils.obj
 0001:0007e370       ??1?$LocalConvex@VBoxV@Gu@physx@@@Gu@physx@@UAE@XZ 1007f370 f i GuSweepTriangleUtils.obj
 0001:0007e390       ??1?$LocalConvex@VTriangleV@Gu@physx@@@Gu@physx@@UAE@XZ 1007f390 f i GuSweepTriangleUtils.obj
 0001:0007e3b0       ??1BoxV@Gu@physx@@QAE@XZ   1007f3b0 f i GuSweepTriangleUtils.obj
 0001:0007e3d0       ??1TriangleV@Gu@physx@@QAE@XZ 1007f3d0 f i GuSweepTriangleUtils.obj
 0001:0007e3f0       ??_E?$LocalConvex@VBoxV@Gu@physx@@@Gu@physx@@UAEPAXI@Z 1007f3f0 f i GuSweepTriangleUtils.obj
 0001:0007e3f0       ??_G?$LocalConvex@VBoxV@Gu@physx@@@Gu@physx@@UAEPAXI@Z 1007f3f0 f i GuSweepTriangleUtils.obj
 0001:0007e430       ??_G?$LocalConvex@VTriangleV@Gu@physx@@@Gu@physx@@UAEPAXI@Z 1007f430 f i GuSweepTriangleUtils.obj
 0001:0007e430       ??_E?$LocalConvex@VTriangleV@Gu@physx@@@Gu@physx@@UAEPAXI@Z 1007f430 f i GuSweepTriangleUtils.obj
 0001:0007e470       ?BGetBitMask@aos@shdfnd@physx@@YAIT__m128@@@Z 1007f470 f i GuSweepTriangleUtils.obj
 0001:0007e4b0       ?CalculateBoxMargin@Gu@physx@@YAXABT__m128@@AAM11MM@Z 1007f4b0 f i GuSweepTriangleUtils.obj
 0001:0007e610       ?V3IsGrtr@aos@shdfnd@physx@@YA?AT__m128@@T4@0@Z 1007f610 f i GuSweepTriangleUtils.obj
 0001:0007e710       ?VecI32V_Sel@aos@shdfnd@physx@@YA?AT__m128@@T4@ABT4@1@Z 1007f710 f i GuSweepTriangleUtils.obj
 0001:0007e800       ?VecI32V_Two@aos@shdfnd@physx@@YA?AT__m128@@XZ 1007f800 f i GuSweepTriangleUtils.obj
 0001:0007e840       ?VecI32V_Zero@aos@shdfnd@physx@@YA?AT__m128@@XZ 1007f840 f i GuSweepTriangleUtils.obj
 0001:0007e880       ?getIndex@BoxV@Gu@physx@@QBEXT__m128@@AAH@Z 1007f880 f i GuSweepTriangleUtils.obj
 0001:0007e8d0       ?getSweepMargin@?$LocalConvex@VBoxV@Gu@physx@@@Gu@physx@@UBE?AT__m128@@XZ 1007f8d0 f i GuSweepTriangleUtils.obj
 0001:0007e900       ?getSweepMargin@?$LocalConvex@VTriangleV@Gu@physx@@@Gu@physx@@UBE?AT__m128@@XZ 1007f900 f i GuSweepTriangleUtils.obj
 0001:0007e930       ?getSweepMargin@TriangleV@Gu@physx@@QBE?AT__m128@@XZ 1007f930 f i GuSweepTriangleUtils.obj
 0001:0007e980       ?isZero@PxVec3@physx@@QBE_NXZ 1007f980 f i GuSweepTriangleUtils.obj
 0001:0007ea00       ?support@?$LocalConvex@VBoxV@Gu@physx@@@Gu@physx@@UBE?AT__m128@@ABT4@@Z 1007fa00 f i GuSweepTriangleUtils.obj
 0001:0007ea30       ?support@?$LocalConvex@VBoxV@Gu@physx@@@Gu@physx@@UBE?AT__m128@@ABT4@AAHPAT4@@Z 1007fa30 f i GuSweepTriangleUtils.obj
 0001:0007ea70       ?support@?$LocalConvex@VTriangleV@Gu@physx@@@Gu@physx@@UBE?AT__m128@@ABT4@@Z 1007fa70 f i GuSweepTriangleUtils.obj
 0001:0007eaa0       ?support@?$LocalConvex@VTriangleV@Gu@physx@@@Gu@physx@@UBE?AT__m128@@ABT4@AAHPAT4@@Z 1007faa0 f i GuSweepTriangleUtils.obj
 0001:0007eae0       ?supportLocal@BoxV@Gu@physx@@QBE?AT__m128@@ABT4@@Z 1007fae0 f i GuSweepTriangleUtils.obj
 0001:0007eb80       ?supportLocal@BoxV@Gu@physx@@QBE?AT__m128@@ABT4@AAHPAT4@@Z 1007fb80 f i GuSweepTriangleUtils.obj
 0001:0007ec40       ?supportLocal@TriangleV@Gu@physx@@QBE?AT__m128@@ABT4@@Z 1007fc40 f i GuSweepTriangleUtils.obj
 0001:0007ee20       ?supportLocal@TriangleV@Gu@physx@@QBE?AT__m128@@ABT4@AAHPAT4@@Z 1007fe20 f i GuSweepTriangleUtils.obj
 0001:0007f0e0       ?supportPoint@?$LocalConvex@VBoxV@Gu@physx@@@Gu@physx@@UBE?AT__m128@@HPAT4@@Z 100800e0 f i GuSweepTriangleUtils.obj
 0001:0007f120       ?supportPoint@?$LocalConvex@VTriangleV@Gu@physx@@@Gu@physx@@UBE?AT__m128@@HPAT4@@Z 10080120 f i GuSweepTriangleUtils.obj
 0001:0007f160       ?supportPoint@BoxV@Gu@physx@@QBE?AT__m128@@HPAT4@@Z 10080160 f i GuSweepTriangleUtils.obj
 0001:0007f1f0       ?supportPoint@TriangleV@Gu@physx@@QBE?AT__m128@@HPAT4@@Z 100801f0 f i GuSweepTriangleUtils.obj
 0001:0007f220       ?epaPenetration@Gu@physx@@YA?AW4GjkStatus@12@ABUGjkConvex@12@0PIAE1EAAT__m128@@222_N@Z 10080220 f   GuEPA.obj
 0001:0007f7d0       ?silhouette@Facet@Gu@physx@@QAEXABT__m128@@PIBT4@1AAVEdgeBuffer@23@AAV?$InlineDeferredIDPool@$0EA@@Cm@3@@Z 100807d0 f   GuEPA.obj
 0001:0007f830       ?PenetrationDepth@EPA@Gu@physx@@QAE?AW4GjkStatus@23@ABUGjkConvex@23@0PIBT__m128@@11HAAT6@222_N@Z 10080830 f   GuEPA.obj
 0001:00080660       ?expandPoint@EPA@Gu@physx@@QAE_NABUGjkConvex@23@0AAHABT__m128@@2@Z 10081660 f   GuEPA.obj
 0001:00080740       ?expandSegment@EPA@Gu@physx@@QAE_NABUGjkConvex@23@0AAHABT__m128@@2@Z 10081740 f   GuEPA.obj
 0001:000809c0       ?expandTriangle@EPA@Gu@physx@@QAE_NAAHABT__m128@@1@Z 100819c0 f   GuEPA.obj
 0001:00080a60       ?addFacet@EPA@Gu@physx@@QAEPAVFacet@23@IIIABT__m128@@0@Z 10081a60 f   GuEPA.obj
 0001:000818a0       ??0?$DeferredIDPoolBase@V?$InlineFixedArray@I$0EA@@Cm@physx@@@Cm@physx@@QAE@XZ 100828a0 f i GuEPA.obj
 0001:000818d0       ??0?$IDPoolBase@V?$InlineFixedArray@I$0EA@@Cm@physx@@@Cm@physx@@QAE@XZ 100828d0 f i GuEPA.obj
 0001:00081900       ??0?$InlineDeferredIDPool@$0EA@@Cm@physx@@QAE@XZ 10082900 f i GuEPA.obj
 0001:00081920       ??0?$InlineFixedArray@I$0EA@@Cm@physx@@QAE@XZ 10082920 f i GuEPA.obj
 0001:00081950       ??0?$InlinePriorityQueue@PAVFacet@Gu@physx@@$0EA@UFacetDistanceComparator@23@@Cm@physx@@QAE@ABUFacetDistanceComparator@Gu@2@@Z 10082950 f i GuEPA.obj
 0001:00081980       ??0?$PriorityQueueBase@PAVFacet@Gu@physx@@UFacetDistanceComparator@23@@Cm@physx@@QAE@ABUFacetDistanceComparator@Gu@2@PAPAVFacet@42@@Z 10082980 f i GuEPA.obj
 0001:000819b0       ??0EPA@Gu@physx@@QAE@XZ    100829b0 f i GuEPA.obj
 0001:00081a20       ??0Edge@Gu@physx@@QAE@PIAVFacet@12@I@Z 10082a20 f i GuEPA.obj
 0001:00081a50       ??0Edge@Gu@physx@@QAE@XZ   10082a50 f i GuEPA.obj
 0001:00081a70       ??0EdgeBuffer@Gu@physx@@QAE@XZ 10082a70 f i GuEPA.obj
 0001:00081ab0       ??0Facet@Gu@physx@@QAE@III@Z 10082ab0 f i GuEPA.obj
 0001:00081bc0       ??0Facet@Gu@physx@@QAE@XZ  10082bc0 f i GuEPA.obj
 0001:00081be0       ??1?$DeferredIDPoolBase@V?$InlineFixedArray@I$0EA@@Cm@physx@@@Cm@physx@@QAE@XZ 10082be0 f i GuEPA.obj
 0001:00081c10       ??1?$IDPoolBase@V?$InlineFixedArray@I$0EA@@Cm@physx@@@Cm@physx@@QAE@XZ 10082c10 f i GuEPA.obj
 0001:00081c30       ??1?$InlineDeferredIDPool@$0EA@@Cm@physx@@QAE@XZ 10082c30 f i GuEPA.obj
 0001:00081c50       ??1?$InlineFixedArray@I$0EA@@Cm@physx@@QAE@XZ 10082c50 f i GuEPA.obj
 0001:00081c60       ??1?$InlinePriorityQueue@PAVFacet@Gu@physx@@$0EA@UFacetDistanceComparator@23@@Cm@physx@@QAE@XZ 10082c60 f i GuEPA.obj
 0001:00081c80       ??1?$PriorityQueueBase@PAVFacet@Gu@physx@@UFacetDistanceComparator@23@@Cm@physx@@QAE@XZ 10082c80 f i GuEPA.obj
 0001:00081c90       ??1EPA@Gu@physx@@QAE@XZ    10082c90 f i GuEPA.obj
 0001:00081cc0       ??4Edge@Gu@physx@@QAEAAV012@ABV012@@Z 10082cc0 f i GuEPA.obj
 0001:00081cf0       ??A?$InlineFixedArray@I$0EA@@Cm@physx@@QAEAAII@Z 10082cf0 f i GuEPA.obj
 0001:00081d60       ??AFacet@Gu@physx@@QBEII@Z 10082d60 f i GuEPA.obj
 0001:00081d80       ??MFacet@Gu@physx@@QBE_NABV012@@Z 10082d80 f i GuEPA.obj
 0001:00081dc0       ??RFacetDistanceComparator@Gu@physx@@QBE_NPBVFacet@12@0@Z 10082dc0 f i GuEPA.obj
 0001:00081de0       ?FNegScaleSub@aos@shdfnd@physx@@YA?AT__m128@@T4@00@Z 10082de0 f i GuEPA.obj
 0001:00081f50       ?FRsqrt@aos@shdfnd@physx@@YA?AT__m128@@T4@@Z 10082f50 f i GuEPA.obj
 0001:00082000       ?Get@EdgeBuffer@Gu@physx@@QAEPAVEdge@23@I@Z 10083000 f i GuEPA.obj
 0001:00082070       ?Insert@EdgeBuffer@Gu@physx@@QAEPAVEdge@23@PIAVFacet@23@I@Z 10083070 f i GuEPA.obj
 0001:00082120       ?IsEmpty@EdgeBuffer@Gu@physx@@QAE_NXZ 10083120 f i GuEPA.obj
 0001:00082160       ?MakeEmpty@EdgeBuffer@Gu@physx@@QAEXXZ 10083160 f i GuEPA.obj
 0001:00082180       ?Size@EdgeBuffer@Gu@physx@@QAEIXZ 10083180 f i GuEPA.obj
 0001:000821a0       ?V3Abs@aos@shdfnd@physx@@YA?AT__m128@@T4@@Z 100831a0 f i GuEPA.obj
 0001:00082250       ?V3Max@aos@shdfnd@physx@@YA?AT__m128@@T4@0@Z 10083250 f i GuEPA.obj
 0001:00082340       ?Valid@Facet@Gu@physx@@QAE_NXZ 10083340 f i GuEPA.obj
 0001:000823e0       ?clear@?$InlineFixedArray@I$0EA@@Cm@physx@@QAEXXZ 100833e0 f i GuEPA.obj
 0001:00082400       ?clear@?$PriorityQueueBase@PAVFacet@Gu@physx@@UFacetDistanceComparator@23@@Cm@physx@@QAEXXZ 10083400 f i GuEPA.obj
 0001:00082420       ?compare@?$PriorityQueueBase@PAVFacet@Gu@physx@@UFacetDistanceComparator@23@@Cm@physx@@IBE_NABQAVFacet@Gu@3@0@Z 10083420 f i GuEPA.obj
 0001:00082450       ?deferredFreeID@?$DeferredIDPoolBase@V?$InlineFixedArray@I$0EA@@Cm@physx@@@Cm@physx@@QAEXI@Z 10083450 f i GuEPA.obj
 0001:00082480       ?empty@?$PriorityQueueBase@PAVFacet@Gu@physx@@UFacetDistanceComparator@23@@Cm@physx@@QBE_NXZ 10083480 f i GuEPA.obj
 0001:000824c0       ?freeID@?$IDPoolBase@V?$InlineFixedArray@I$0EA@@Cm@physx@@@Cm@physx@@QAEXI@Z 100834c0 f i GuEPA.obj
 0001:00082510       ?getClosestPoint@Facet@Gu@physx@@QBEXPIBT__m128@@0AAT4@1@Z 10083510 f i GuEPA.obj
 0001:00082b10       ?getFacet@Edge@Gu@physx@@QBEPAVFacet@23@XZ 10083b10 f i GuEPA.obj
 0001:00082b30       ?getIndex@Edge@Gu@physx@@QBEIXZ 10083b30 f i GuEPA.obj
 0001:00082b50       ?getNewID@?$IDPoolBase@V?$InlineFixedArray@I$0EA@@Cm@physx@@@Cm@physx@@QAEIXZ 10083b50 f i GuEPA.obj
 0001:00082bb0       ?getNumRemainingIDs@?$InlineDeferredIDPool@$0EA@@Cm@physx@@QAEIXZ 10083bb0 f i GuEPA.obj
 0001:00082be0       ?getNumUsedID@?$IDPoolBase@V?$InlineFixedArray@I$0EA@@Cm@physx@@@Cm@physx@@QBEIXZ 10083be0 f i GuEPA.obj
 0001:00082c10       ?getPlaneDist@Facet@Gu@physx@@QBE?AT__m128@@ABT4@PIBT4@1@Z 10083c10 f i GuEPA.obj
 0001:00082cf0       ?getPlaneDist@Facet@Gu@physx@@QBE?AT__m128@@XZ 10083cf0 f i GuEPA.obj
 0001:00082d50       ?getPlaneNormal@Facet@Gu@physx@@QBE?AT__m128@@XZ 10083d50 f i GuEPA.obj
 0001:00082d80       ?getSource@Edge@Gu@physx@@QBEIXZ 10083d80 f i GuEPA.obj
 0001:00082e00       ?getTarget@Edge@Gu@physx@@QBEIXZ 10083e00 f i GuEPA.obj
 0001:00082e80       ?incMod3@Gu@physx@@YAII@Z  10083e80 f i GuEPA.obj
 0001:00082ea0       ?isObsolete@Facet@Gu@physx@@QBE_NXZ 10083ea0 f i GuEPA.obj
 0001:00082ec0       ?isValid2@Facet@Gu@physx@@QAE?AT__m128@@IIIPIBT4@0ABT4@1@Z 10083ec0 f i GuEPA.obj
 0001:00083340       ?left@?$PriorityQueueBase@PAVFacet@Gu@physx@@UFacetDistanceComparator@23@@Cm@physx@@KAII@Z 10084340 f i GuEPA.obj
 0001:00083350       ?link@Facet@Gu@physx@@QAE_NIPIAV123@I@Z 10084350 f i GuEPA.obj
 0001:00083430       ?parent@?$PriorityQueueBase@PAVFacet@Gu@physx@@UFacetDistanceComparator@23@@Cm@physx@@KAII@Z 10084430 f i GuEPA.obj
 0001:00083440       ?pop@?$PriorityQueueBase@PAVFacet@Gu@physx@@UFacetDistanceComparator@23@@Cm@physx@@QAEPAVFacet@Gu@3@XZ 10084440 f i GuEPA.obj
 0001:00083650       ?popBack@?$InlineFixedArray@I$0EA@@Cm@physx@@QAEIXZ 10084650 f i GuEPA.obj
 0001:000836e0       ?processDeferredIds@?$DeferredIDPoolBase@V?$InlineFixedArray@I$0EA@@Cm@physx@@@Cm@physx@@QAEXXZ 100846e0 f i GuEPA.obj
 0001:00083760       ?push@?$InlinePriorityQueue@PAVFacet@Gu@physx@@$0EA@UFacetDistanceComparator@23@@Cm@physx@@QAEXAAPAVFacet@Gu@3@@Z 10084760 f i GuEPA.obj
 0001:000837d0       ?push@?$PriorityQueueBase@PAVFacet@Gu@physx@@UFacetDistanceComparator@23@@Cm@physx@@QAEXABQAVFacet@Gu@3@@Z 100847d0 f i GuEPA.obj
 0001:000838f0       ?pushBack@?$InlineFixedArray@I$0EA@@Cm@physx@@QAEXABI@Z 100848f0 f i GuEPA.obj
 0001:00083990       ?silhouette@Facet@Gu@physx@@QAEXIABT__m128@@PIBT4@1AAVEdgeBuffer@23@AAV?$InlineDeferredIDPool@$0EA@@Cm@3@@Z 10084990 f i GuEPA.obj
 0001:00083c60       ?size@?$InlineFixedArray@I$0EA@@Cm@physx@@QBEIXZ 10084c60 f i GuEPA.obj
 0001:00083c80       ?size@?$PriorityQueueBase@PAVFacet@Gu@physx@@UFacetDistanceComparator@23@@Cm@physx@@QBEIXZ 10084c80 f i GuEPA.obj
 0001:00083ca0       ?toI8@shdfnd@physx@@YACI@Z 10084ca0 f i GuEPA.obj
 0001:00083d00       ?top@?$PriorityQueueBase@PAVFacet@Gu@physx@@UFacetDistanceComparator@23@@Cm@physx@@QAEPAVFacet@Gu@3@XZ 10084d00 f i GuEPA.obj
 0001:00083d30       ?valid@?$PriorityQueueBase@PAVFacet@Gu@physx@@UFacetDistanceComparator@23@@Cm@physx@@QBE_NXZ 10084d30 f i GuEPA.obj
 0001:00083db0       ?closestPtPointTetrahedron@Gu@physx@@YA?AT__m128@@PIAT3@00AAI@Z 10084db0 f   GuGJKSimplex.obj
 0001:000841a0       ?closestPtPointTetrahedron@Gu@physx@@YA?AT__m128@@PIAT3@00PIAH1AAI@Z 100851a0 f   GuGJKSimplex.obj
 0001:00084e80       ?BAllEqFFFF@aos@shdfnd@physx@@YAIT__m128@@@Z 10085e80 f i GuGJKSimplex.obj
 0001:00084ee0       ?BGetW@aos@shdfnd@physx@@YA?AT__m128@@T4@@Z 10085ee0 f i GuGJKSimplex.obj
 0001:00084f30       ?BGetX@aos@shdfnd@physx@@YA?AT__m128@@T4@@Z 10085f30 f i GuGJKSimplex.obj
 0001:00084f80       ?BGetY@aos@shdfnd@physx@@YA?AT__m128@@T4@@Z 10085f80 f i GuGJKSimplex.obj
 0001:00084fd0       ?BGetZ@aos@shdfnd@physx@@YA?AT__m128@@T4@@Z 10085fd0 f i GuGJKSimplex.obj
 0001:00085020       ?PointOutsideOfPlane4@Gu@physx@@YA?AT__m128@@ABT3@000@Z 10086020 f i GuGJKSimplex.obj
 0001:00085440       ?V4Merge@aos@shdfnd@physx@@YA?AT__m128@@ABT4@000@Z 10086440 f i GuGJKSimplex.obj
 0001:00085630       ?closestPtPointTriangle@Gu@physx@@YA?AT__m128@@PIAT3@PAT3@1PIAH2AAI@Z 10086630 f i GuGJKSimplex.obj
 0001:00085a60       ?testGjk@Gu@physx@@YA?AW4GjkStatus@12@AAUGjkConvex@12@0ABT__m128@@1AAT5@222@Z 10086a60 f   GuGJKTest.obj
 0001:00085a90       ?testGjkPenetration@Gu@physx@@YA?AW4GjkStatus@12@AAUGjkConvex@12@0ABT__m128@@1AAT5@222@Z 10086a90 f   GuGJKTest.obj
 0001:00085b10       ?testGjkPenetration@Gu@physx@@YA?AW4GjkStatus@12@AAUGjkConvex@12@0ABT__m128@@1AAT5@222PAE3E@Z 10086b10 f   GuGJKTest.obj
 0001:00085b80       ?testEpaPenetration@Gu@physx@@YA?AW4GjkStatus@12@AAUGjkConvex@12@0AAT__m128@@111@Z 10086b80 f   GuGJKTest.obj
 0001:00085bf0       ?testEpaPenetration@Gu@physx@@YA?AW4GjkStatus@12@AAUGjkConvex@12@0AAT__m128@@111PAE2E@Z 10086bf0 f   GuGJKTest.obj
 0001:00085c60       ?testGjkRaycast@Gu@physx@@YA_NAAUGjkConvex@12@0ABT__m128@@111AAT4@22M@Z 10086c60 f   GuGJKTest.obj
 0001:00085d30       ??$PX_UNUSED@T__m128@@@@YAXABT__m128@@@Z 10086d30 f i GuGJKTest.obj
 0001:00085d40       ??$gjk@UGjkConvex@Gu@physx@@U123@@Gu@physx@@YA?AW4GjkStatus@01@ABUGjkConvex@01@0ABT__m128@@1AAT4@222@Z 10086d40 f i GuGJKTest.obj
 0001:00086930       ??$gjkPenetration@UGjkConvex@Gu@physx@@U123@@Gu@physx@@YA?AW4GjkStatus@01@ABUGjkConvex@01@0ABT__m128@@1AAT4@222PIAE3AAE_N@Z 10087930 f i GuGJKTest.obj
 0001:00087a80       ??$gjkRaycast@UGjkConvex@Gu@physx@@U123@@Gu@physx@@YA_NABUGjkConvex@01@0ABT__m128@@111AAT3@22M@Z 10088a80 f i GuGJKTest.obj
 0001:00088980       ?GJKCPairDoSimplex@Gu@physx@@YA?AT__m128@@PIAT3@00PIAH1ABT3@AAI@Z 10089980 f i GuGJKTest.obj
 0001:00088ae0       ?V3NormalizeSafe@aos@shdfnd@physx@@YA?AT__m128@@T4@0@Z 10089ae0 f i GuGJKTest.obj
 0001:00088c10       ?assignWarmStartValue@Gu@physx@@YAXPIAE0AAEPIAH2I@Z 10089c10 f i GuGJKTest.obj
 0001:00088cf0       ?getMarginIsRadius@ConvexV@Gu@physx@@QBE_NXZ 10089cf0 f i GuGJKTest.obj
 0001:00088d10       ?getMarginIsRadius@GjkConvexBase@Gu@physx@@QBE_NXZ 10089d10 f i GuGJKTest.obj
 0001:00088d30       ?to8@shdfnd@physx@@YAEH@Z  10089d30 f i GuGJKTest.obj
 0001:00088dd0       ?intersectOBBOBB@Gu@physx@@YA_NABVPxVec3@2@0ABVPxMat33@2@001_N@Z 10089dd0 f   GuIntersectionBoxBox.obj
 0001:0008a1d0       ?intersectCapsuleTriangle@Gu@physx@@YA_NABVPxVec3@2@000ABVCapsule@12@ABUCapsuleTriangleOverlapData@12@@Z 1008b1d0 f   GuIntersectionCapsuleTriangle.obj
 0001:0008a450       ??$PxClamp@M@physx@@YAMMMM@Z 1008b450 f i GuIntersectionCapsuleTriangle.obj
 0001:0008a4f0       ??9PxVec3@physx@@QBE_NABV01@@Z 1008b4f0 f i GuIntersectionCapsuleTriangle.obj
 0001:0008a570       ?computeEdgeAxis@Gu@physx@@YA?AVPxVec3@2@ABV32@000MM@Z 1008b570 f i GuIntersectionCapsuleTriangle.obj
 0001:0008a7f0       ?testAxis@Gu@physx@@YAIABVPxVec3@2@00ABVCapsule@12@0@Z 1008b7f0 f i GuIntersectionCapsuleTriangle.obj
 0001:0008a970       ?intersectEdgeEdge@Gu@physx@@YA_NABVPxVec3@2@0000AAMAAV32@@Z 1008b970 f   GuIntersectionEdgeEdge.obj
 0001:0008ad40       ?rayAABBIntersect@Gu@physx@@YA_NABVPxVec3@2@000AAV32@@Z 1008bd40 f   GuIntersectionRayBox.obj
 0001:0008b060       ?rayAABBIntersect2@Gu@physx@@YAIABVPxVec3@2@000AAV32@AAM@Z 1008c060 f   GuIntersectionRayBox.obj
 0001:0008b3a0       ?intersectRayAABB@Gu@physx@@YAHABVPxVec3@2@000AAM1@Z 1008c3a0 f   GuIntersectionRayBox.obj
 0001:0008b5b0       ?intersectRayAABB@Gu@physx@@YAHABVPxVec3@2@0000AAM1@Z 1008c5b0 f   GuIntersectionRayBox.obj
 0001:0008b8d0       ?intersectRayAABB2@Gu@physx@@YA_NABVPxVec3@2@000MAAM1@Z 1008c8d0 f   GuIntersectionRayBox.obj
 0001:0008bd80       ?intersectRayAABB2@Gu@physx@@YA_NABT__m128@@0000AAT3@1@Z 1008cd80 f   GuIntersectionRayBox.obj
 0001:0008c560       ?V3IsGrtrOrEq@aos@shdfnd@physx@@YA?AT__m128@@T4@0@Z 1008d560 f i GuIntersectionRayBox.obj
 0001:0008c660       ?V3Min@aos@shdfnd@physx@@YA?AT__m128@@T4@0@Z 1008d660 f i GuIntersectionRayBox.obj
 0001:0008c750       ?V3Sign@aos@shdfnd@physx@@YA?AT__m128@@T4@@Z 1008d750 f i GuIntersectionRayBox.obj
 0001:0008c860       ?recip@intrinsics@physx@@YAMM@Z 1008d860 f i GuIntersectionRayBox.obj
 0001:0008c890       ?intersectRayCapsuleInternal@Gu@physx@@YAIABVPxVec3@2@000MQAM@Z 1008d890 f   GuIntersectionRayCapsule.obj
 0001:0008d660       ?intersectRaySphereBasic@Gu@physx@@YA_NABVPxVec3@2@0M0MAAMPAV32@@Z 1008e660 f   GuIntersectionRaySphere.obj
 0001:0008d7a0       ?intersectRaySphere@Gu@physx@@YA_NABVPxVec3@2@0M0MAAMPAV32@@Z 1008e7a0 f   GuIntersectionRaySphere.obj
 0001:0008d930       ?intersectSphereBox@Gu@physx@@YA_NABVSphere@12@ABVBox@12@@Z 1008e930 f   GuIntersectionSphereBox.obj
 0001:0008db10       ?intersectTriangleBox_ReferenceCode@Gu@physx@@YAHABVPxVec3@2@0000@Z 1008eb10 f   GuIntersectionTriangleBox.obj
 0001:0008e600       ?intersectTriangleBox_Unsafe@Gu@physx@@YAHABVPxVec3@2@0000@Z 1008f600 f   GuIntersectionTriangleBox.obj
 0001:0008e6e0       ?intersectTriangleBox@Gu@physx@@YAHABVBoxPadded@12@ABVPxVec3@2@11@Z 1008f6e0 f   GuIntersectionTriangleBox.obj
 0001:0008f250       ?intersectTriangleBoxBV4@@YAHABVPxVec3@physx@@00ABVPxMat33@2@00@Z 10090250 f   GuIntersectionTriangleBox.obj
 0001:0008f9a0       ?BAnyTrue3_R@internalWindowsSimd@aos@shdfnd@physx@@YAIT__m128@@@Z 100909a0 f i GuIntersectionTriangleBox.obj
 0001:0008fa00       ?U4LoadXYZW@aos@shdfnd@physx@@YA?AT__m128@@IIII@Z 10090a00 f i GuIntersectionTriangleBox.obj
 0001:0008fa80       ?V4Abs@aos@shdfnd@physx@@YA?AT__m128@@T4@@Z 10090a80 f i GuIntersectionTriangleBox.obj
 0001:0008fae0       ?V4AllGrtrOrEq3@aos@shdfnd@physx@@YAIT__m128@@0@Z 10090ae0 f i GuIntersectionTriangleBox.obj
 0001:0008fb40       ?V4AnyGrtr3@aos@shdfnd@physx@@YAIT__m128@@0@Z 10090b40 f i GuIntersectionTriangleBox.obj
 0001:0008fba0       ?V4Cross@aos@shdfnd@physx@@YA?AT__m128@@T4@0@Z 10090ba0 f i GuIntersectionTriangleBox.obj
 0001:0008fca0       ?V4Dot3@aos@shdfnd@physx@@YA?AT__m128@@T4@0@Z 10090ca0 f i GuIntersectionTriangleBox.obj
 0001:0008fd80       ?V4NegMulSub@aos@shdfnd@physx@@YA?AT__m128@@T4@00@Z 10090d80 f i GuIntersectionTriangleBox.obj
 0001:0008fdf0       ?V4PermYZXW@aos@shdfnd@physx@@YA?AT__m128@@T4@@Z 10090df0 f i GuIntersectionTriangleBox.obj
 0001:0008fe40       ?V4Scale@aos@shdfnd@physx@@YA?AT__m128@@T4@0@Z 10090e40 f i GuIntersectionTriangleBox.obj
 0001:0008fe90       ?V4U32and@aos@shdfnd@physx@@YA?AT__m128@@T4@0@Z 10090e90 f i GuIntersectionTriangleBox.obj
 0001:0008ff10       ?V4U32or@aos@shdfnd@physx@@YA?AT__m128@@T4@0@Z 10090f10 f i GuIntersectionTriangleBox.obj
 0001:0008ff90       ?V4U32xor@aos@shdfnd@physx@@YA?AT__m128@@T4@0@Z 10090f90 f i GuIntersectionTriangleBox.obj
 0001:00090010       ?Vec4V_From_FloatV@aos@shdfnd@physx@@YA?AT__m128@@T4@@Z 10091010 f i GuIntersectionTriangleBox.obj
 0001:00090050       ?Vec4V_ReinterpretFrom_VecU32V@aos@shdfnd@physx@@YA?AT__m128@@T4@@Z 10091050 f i GuIntersectionTriangleBox.obj
 0001:00090090       ?VecU32V_ReinterpretFrom_Vec4V@aos@shdfnd@physx@@YA?AT__m128@@T4@@Z 10091090 f i GuIntersectionTriangleBox.obj
 0001:000900d0       ??0BV32Tree@Gu@physx@@QAE@W4PxEMPTY@2@@Z 100910d0 f   GuBV32.obj
 0001:00090100       ?exportExtraData@BV32Tree@Gu@physx@@QAEXAAVPxSerializationContext@3@@Z 10091100 f   GuBV32.obj
 0001:00090140       ?importExtraData@BV32Tree@Gu@physx@@QAEXAAVPxDeserializationContext@3@@Z 10091140 f   GuBV32.obj
 0001:00090170       ??0BV32Tree@Gu@physx@@QAE@XZ 10091170 f   GuBV32.obj
 0001:000901a0       ??0BV32Tree@Gu@physx@@QAE@PAVSourceMesh@12@ABVPxBounds3@2@@Z 100911a0 f   GuBV32.obj
 0001:000901e0       ??1BV32Tree@Gu@physx@@QAE@XZ 100911e0 f   GuBV32.obj
 0001:00090200       ?load@BV32Tree@Gu@physx@@QAE_NAAVPxInputStream@3@I@Z 10091200 f   GuBV32.obj
 0001:000904e0       ?calculateLeafNode@BV32Tree@Gu@physx@@QAEXAAUBV32Data@23@@Z 100914e0 f   GuBV32.obj
 0001:000905b0       ?createSOAformatNode@BV32Tree@Gu@physx@@QAEXAAUBV32DataPacked@23@ABUBV32Data@23@IAAI2@Z 100915b0 f   GuBV32.obj
 0001:000907d0       ?reset@BV32Tree@Gu@physx@@QAEXXZ 100917d0 f   GuBV32.obj
 0001:00090820       ??4BV32Tree@Gu@physx@@QAEXAAV012@@Z 10091820 f   GuBV32.obj
 0001:00090890       ?init@BV32Tree@Gu@physx@@QAE_NPAVSourceMesh@23@ABVPxBounds3@3@@Z 10091890 f   GuBV32.obj
 0001:000908c0       ?release@BV32Tree@Gu@physx@@QAEXXZ 100918c0 f   GuBV32.obj
 0001:00090b50       ??$readExtraData@UBV32Data@Gu@physx@@@PxDeserializationContext@physx@@QAEPAUBV32Data@Gu@1@I@Z 10091b50 f i GuBV32.obj
 0001:00090b90       ??0LocalBounds@Gu@physx@@QAE@XZ 10091b90 f i GuBV32.obj
 0001:00090bd0       ??4LocalBounds@Gu@physx@@QAEAAU012@ABU012@@Z 10091bd0 f i GuBV32.obj
 0001:00090c10       ?getChildOffset@BV32Data@Gu@physx@@QBEIXZ 10091c10 f i GuBV32.obj
 0001:00090c80       ?getNbChildren@BV32Data@Gu@physx@@QBEIXZ 10091c80 f i GuBV32.obj
 0001:00090cf0       ?init@LocalBounds@Gu@physx@@QAEXABVPxBounds3@3@@Z 10091cf0 f i GuBV32.obj
 0001:00090d40       ?isLeaf@BV32Data@Gu@physx@@QBEIXZ 10091d40 f i GuBV32.obj
 0001:00090d60       ?littleEndian@shdfnd@physx@@YADXZ 10091d60 f i GuBV32.obj
 0001:00090d80       ?BuildBV32Ex@Gu@physx@@YA_NAAVBV32Tree@12@AAVSourceMesh@12@MI@Z 10091d80 f   GuBV32Build.obj
 0001:00091df0       ??$?2V?$ReflectionAllocator@UBV32Node@@@shdfnd@physx@@@UserAllocated@shdfnd@physx@@SAPAXIV?$ReflectionAllocator@UBV32Node@@@12@PBDH@Z 10092df0 f i GuBV32Build.obj
 0001:00091e10       ??$?_UV?$ReflectionAllocator@UBV32Data@Gu@physx@@@shdfnd@physx@@@UserAllocated@shdfnd@physx@@SAPAXIV?$ReflectionAllocator@UBV32Data@Gu@physx@@@12@PBDH@Z 10092e10 f i GuBV32Build.obj
 0001:00091e30       ??$swap@PAVAABBTreeNode@Gu@physx@@@shdfnd@physx@@YAXAAPAVAABBTreeNode@Gu@1@0@Z 10092e30 f i GuBV32Build.obj
 0001:00091e60       ??$swap@VAABBTreeNode@Gu@physx@@@shdfnd@physx@@YAXAAVAABBTreeNode@Gu@1@0@Z 10092e60 f i GuBV32Build.obj
 0001:00091eb0       ??0?$ReflectionAllocator@UBV32Data@Gu@physx@@@shdfnd@physx@@QAE@PBD@Z 10092eb0 f i GuBV32Build.obj
 0001:00091ed0       ??0?$ReflectionAllocator@UBV32Node@@@shdfnd@physx@@QAE@PBD@Z 10092ed0 f i GuBV32Build.obj
 0001:00091ef0       ??0AABBTreeNode@Gu@physx@@QAE@ABV012@@Z 10092ef0 f i GuBV32Build.obj
 0001:00091f40       ??0BV32Data@Gu@physx@@QAE@XZ 10092f40 f i GuBV32Build.obj
 0001:00091f90       ??0BV32Node@@QAE@XZ        10092f90 f i GuBV32Build.obj
 0001:00091fd0       ??0PxBounds3@physx@@QAE@ABV01@@Z 10092fd0 f i GuBV32Build.obj
 0001:00092010       ??1AABBTreeNode@Gu@physx@@QAE@XZ 10093010 f i GuBV32Build.obj
 0001:00092050       ??4AABBTreeNode@Gu@physx@@QAEAAV012@ABV012@@Z 10093050 f i GuBV32Build.obj
 0001:000925f0       ?allocate@?$ReflectionAllocator@UBV32Data@Gu@physx@@@shdfnd@physx@@QAEPAXIPBDH@Z 100935f0 f i GuBV32Build.obj
 0001:00092650       ?allocate@?$ReflectionAllocator@UBV32Node@@@shdfnd@physx@@QAEPAXIPBDH@Z 10093650 f i GuBV32Build.obj
 0001:000926b0       ?getAABB@AABBTreeNode@Gu@physx@@QBEABVPxBounds3@3@XZ 100936b0 f i GuBV32Build.obj
 0001:000926d0       ?getBV@AABBTree@Gu@physx@@QBEABVPxBounds3@3@XZ 100936d0 f i GuBV32Build.obj
 0001:000926f0       ?getChild@BV32Node@@QBEPBU1@I@Z 100936f0 f i GuBV32Build.obj
 0001:00092710       ?getIndices@AABBTree@Gu@physx@@QBEPBIXZ 10093710 f i GuBV32Build.obj
 0001:00092730       ?getName@?$ReflectionAllocator@UBV32Data@Gu@physx@@@shdfnd@physx@@CAPBDXZ 10093730 f i GuBV32Build.obj
 0001:00092780       ?getName@?$ReflectionAllocator@UBV32Node@@@shdfnd@physx@@CAPBDXZ 10093780 f i GuBV32Build.obj
 0001:000927d0       ?getNbPrimitives@AABBTreeNode@Gu@physx@@QBEIXZ 100937d0 f i GuBV32Build.obj
 0001:000927f0       ?getNbTriangles@SourceMesh@Gu@physx@@QBEIXZ 100937f0 f i GuBV32Build.obj
 0001:00092810       ?getNeg@AABBTreeNode@Gu@physx@@QBEPBV123@XZ 10093810 f i GuBV32Build.obj
 0001:00092850       ?getNodes@AABBTree@Gu@physx@@QBEPBVAABBTreeNode@23@XZ 10093850 f i GuBV32Build.obj
 0001:00092870       ?getPos@AABBTreeNode@Gu@physx@@QBEPBV123@XZ 10093870 f i GuBV32Build.obj
 0001:00092890       ?getPrimitives@AABBTreeNode@Gu@physx@@QBEPBIXZ 10093890 f i GuBV32Build.obj
 0001:000928b0       ?isLeaf@AABBTreeNode@Gu@physx@@QBE_NXZ 100938b0 f i GuBV32Build.obj
 0001:000928f0       ?isLeaf@BV32Node@@QBEII@Z  100938f0 f i GuBV32Build.obj
 0001:00092920       ?setEmpty@BV32Data@Gu@physx@@QAEXXZ 10093920 f i GuBV32Build.obj
 0001:000929c0       ??0SourceMesh@Gu@physx@@QAE@XZ 100939c0 f   GuBV4.obj
 0001:000929e0       ??1SourceMesh@Gu@physx@@QAE@XZ 100939e0 f   GuBV4.obj
 0001:00092a10       ?reset@SourceMesh@Gu@physx@@QAEXXZ 10093a10 f   GuBV4.obj
 0001:00092a60       ??4SourceMesh@Gu@physx@@QAEXAAV012@@Z 10093a60 f   GuBV4.obj
 0001:00092ac0       ?remapTopology@SourceMesh@Gu@physx@@QAEXPBI@Z 10093ac0 f   GuBV4.obj
 0001:00092e20       ?isValid@SourceMesh@Gu@physx@@QBE_NXZ 10093e20 f   GuBV4.obj
 0001:00092e70       ??0BV4Tree@Gu@physx@@QAE@W4PxEMPTY@2@@Z 10093e70 f   GuBV4.obj
 0001:00092eb0       ?exportExtraData@BV4Tree@Gu@physx@@QAEXAAVPxSerializationContext@3@@Z 10093eb0 f   GuBV4.obj
 0001:00092ef0       ?importExtraData@BV4Tree@Gu@physx@@QAEXAAVPxDeserializationContext@3@@Z 10093ef0 f   GuBV4.obj
 0001:00092f20       ??0BV4Tree@Gu@physx@@QAE@XZ 10093f20 f   GuBV4.obj
 0001:00092f60       ??0BV4Tree@Gu@physx@@QAE@PAVSourceMesh@12@ABVPxBounds3@2@@Z 10093f60 f   GuBV4.obj
 0001:00092fb0       ??1BV4Tree@Gu@physx@@QAE@XZ 10093fb0 f   GuBV4.obj
 0001:00092fd0       ?load@BV4Tree@Gu@physx@@QAE_NAAVPxInputStream@3@I@Z 10093fd0 f   GuBV4.obj
 0001:000932a0       ?reset@BV4Tree@Gu@physx@@QAEXXZ 100942a0 f   GuBV4.obj
 0001:00093320       ??4BV4Tree@Gu@physx@@QAEXAAV012@@Z 10094320 f   GuBV4.obj
 0001:000933b0       ?init@BV4Tree@Gu@physx@@QAE_NPAVSourceMesh@23@ABVPxBounds3@3@@Z 100943b0 f   GuBV4.obj
 0001:000933e0       ?release@BV4Tree@Gu@physx@@QAEXXZ 100943e0 f   GuBV4.obj
 0001:000936d0       ??$?_UV?$ReflectionAllocator@VIndTri16@Gu@physx@@@shdfnd@physx@@@UserAllocated@shdfnd@physx@@SAPAXIV?$ReflectionAllocator@VIndTri16@Gu@physx@@@12@PBDH@Z 100946d0 f i GuBV4.obj
 0001:000936f0       ??$?_UV?$ReflectionAllocator@VIndTri32@Gu@physx@@@shdfnd@physx@@@UserAllocated@shdfnd@physx@@SAPAXIV?$ReflectionAllocator@VIndTri32@Gu@physx@@@12@PBDH@Z 100946f0 f i GuBV4.obj
 0001:00093710       ??$readExtraData@UBVDataPacked@Gu@physx@@@PxDeserializationContext@physx@@QAEPAUBVDataPacked@Gu@1@I@Z 10094710 f i GuBV4.obj
 0001:00093750       ??0?$ReflectionAllocator@VIndTri16@Gu@physx@@@shdfnd@physx@@QAE@PBD@Z 10094750 f i GuBV4.obj
 0001:00093770       ??0?$ReflectionAllocator@VIndTri32@Gu@physx@@@shdfnd@physx@@QAE@PBD@Z 10094770 f i GuBV4.obj
 0001:00093790       ??0IndTri16@Gu@physx@@QAE@XZ 10094790 f i GuBV4.obj
 0001:000937b0       ??0IndTri32@Gu@physx@@QAE@XZ 100947b0 f i GuBV4.obj
 0001:000937d0       ??1IndTri16@Gu@physx@@QAE@XZ 100947d0 f i GuBV4.obj
 0001:000937e0       ??1IndTri32@Gu@physx@@QAE@XZ 100947e0 f i GuBV4.obj
 0001:000937f0       ??_EIndTri16@Gu@physx@@QAEPAXI@Z 100947f0 f i GuBV4.obj
 0001:000938d0       ??_EIndTri32@Gu@physx@@QAEPAXI@Z 100948d0 f i GuBV4.obj
 0001:000939b0       ?allocate@?$ReflectionAllocator@VIndTri16@Gu@physx@@@shdfnd@physx@@QAEPAXIPBDH@Z 100949b0 f i GuBV4.obj
 0001:00093a10       ?allocate@?$ReflectionAllocator@VIndTri32@Gu@physx@@@shdfnd@physx@@QAEPAXIPBDH@Z 10094a10 f i GuBV4.obj
 0001:00093a70       ?getName@?$ReflectionAllocator@VIndTri16@Gu@physx@@@shdfnd@physx@@CAPBDXZ 10094a70 f i GuBV4.obj
 0001:00093ac0       ?getName@?$ReflectionAllocator@VIndTri32@Gu@physx@@@shdfnd@physx@@CAPBDXZ 10094ac0 f i GuBV4.obj
 0001:00093b10       ??0AABBTree@Gu@physx@@QAE@XZ 10094b10 f   GuBV4Build.obj
 0001:00093b40       ??1AABBTree@Gu@physx@@QAE@XZ 10094b40 f   GuBV4Build.obj
 0001:00093b60       ?buildFromMesh@AABBTree@Gu@physx@@QAE_NAAVSourceMesh@23@I@Z 10094b60 f   GuBV4Build.obj
 0001:00093f70       ?release@AABBTree@Gu@physx@@QAEXXZ 10094f70 f   GuBV4Build.obj
 0001:00093fe0       ?walk@AABBTree@Gu@physx@@QBEIP6A_NPBVAABBTreeNode@23@IPAX@Z1@Z 10094fe0 f   GuBV4Build.obj
 0001:00094020       ?BuildBV4Ex@Gu@physx@@YA_NAAVBV4Tree@12@AAVSourceMesh@12@MI@Z 10095020 f   GuBV4Build.obj
 0001:00095040       ??0BVData@@QAE@XZ          10096040 f   GuBV4Build.obj
 0001:00095080       ??1BV4BuildParams@@QAE@XZ  10096080 f   GuBV4Build.obj
 0001:000950a0       ?allocateNode@BV4BuildParams@@QAEPAUBV4Node@@XZ 100960a0 f   GuBV4Build.obj
 0001:00095170       ?releaseNodes@BV4BuildParams@@QAEXXZ 10096170 f   GuBV4Build.obj
 0001:00096ad0       ??$?2V?$ReflectionAllocator@USlab@BV4BuildParams@@@shdfnd@physx@@@UserAllocated@shdfnd@physx@@SAPAXIV?$ReflectionAllocator@USlab@BV4BuildParams@@@12@PBDH@Z 10097ad0 f i GuBV4Build.obj
 0001:00096af0       ??$?_UV?$ReflectionAllocator@UBVDataPacked@Gu@physx@@@shdfnd@physx@@@UserAllocated@shdfnd@physx@@SAPAXIV?$ReflectionAllocator@UBVDataPacked@Gu@physx@@@12@PBDH@Z 10097af0 f i GuBV4Build.obj
 0001:00096b10       ??$?_UV?$ReflectionAllocator@VAABBTreeNode@Gu@physx@@@shdfnd@physx@@@UserAllocated@shdfnd@physx@@SAPAXIV?$ReflectionAllocator@VAABBTreeNode@Gu@physx@@@12@PBDH@Z 10097b10 f i GuBV4Build.obj
 0001:00096b30       ??0?$ReflectionAllocator@UBVDataPacked@Gu@physx@@@shdfnd@physx@@QAE@PBD@Z 10097b30 f i GuBV4Build.obj
 0001:00096b50       ??0?$ReflectionAllocator@USlab@BV4BuildParams@@@shdfnd@physx@@QAE@PBD@Z 10097b50 f i GuBV4Build.obj
 0001:00096b70       ??0?$ReflectionAllocator@VAABBTreeNode@Gu@physx@@@shdfnd@physx@@QAE@PBD@Z 10097b70 f i GuBV4Build.obj
 0001:00096b90       ??0AABBTreeNode@Gu@physx@@QAE@XZ 10097b90 f i GuBV4Build.obj
 0001:00096be0       ??0BV4BuildParams@@QAE@M@Z 10097be0 f i GuBV4Build.obj
 0001:00096c10       ??0BV4Node@@QAE@XZ         10097c10 f i GuBV4Build.obj
 0001:00096c40       ??0BuildStats@Gu@physx@@QAE@XZ 10097c40 f i GuBV4Build.obj
 0001:00096c70       ??0Slab@BV4BuildParams@@QAE@XZ 10097c70 f i GuBV4Build.obj
 0001:00096ca0       ??1BV4Node@@QAE@XZ         10097ca0 f i GuBV4Build.obj
 0001:00096cd0       ??1BVData@@QAE@XZ          10097cd0 f i GuBV4Build.obj
 0001:00096cf0       ??1Slab@BV4BuildParams@@QAE@XZ 10097cf0 f i GuBV4Build.obj
 0001:00096d20       ??_EAABBTreeNode@Gu@physx@@QAEPAXI@Z 10097d20 f i GuBV4Build.obj
 0001:00096e00       ??_GSlab@BV4BuildParams@@QAEPAXI@Z 10097e00 f i GuBV4Build.obj
 0001:00097a30       ?allocate@?$ReflectionAllocator@UBVDataPacked@Gu@physx@@@shdfnd@physx@@QAEPAXIPBDH@Z 10098a30 f i GuBV4Build.obj
 0001:00097a90       ?allocate@?$ReflectionAllocator@USlab@BV4BuildParams@@@shdfnd@physx@@QAEPAXIPBDH@Z 10098a90 f i GuBV4Build.obj
 0001:00097af0       ?allocate@?$ReflectionAllocator@VAABBTreeNode@Gu@physx@@@shdfnd@physx@@QAEPAXIPBDH@Z 10098af0 f i GuBV4Build.obj
 0001:00097b50       ?encodePNS@BVDataPacked@Gu@physx@@QAEXI@Z 10098b50 f i GuBV4Build.obj
 0001:00097bd0       ?getCenter@PxBounds3@physx@@QBEMI@Z 10098bd0 f i GuBV4Build.obj
 0001:00097c80       ?getChild@BV4Node@@QBEPBU1@I@Z 10098c80 f i GuBV4Build.obj
 0001:00097ca0       ?getCount@BuildStats@Gu@physx@@QBEIXZ 10098ca0 f i GuBV4Build.obj
 0001:00097cc0       ?getName@?$ReflectionAllocator@UBVDataPacked@Gu@physx@@@shdfnd@physx@@CAPBDXZ 10098cc0 f i GuBV4Build.obj
 0001:00097d10       ?getName@?$ReflectionAllocator@USlab@BV4BuildParams@@@shdfnd@physx@@CAPBDXZ 10098d10 f i GuBV4Build.obj
 0001:00097d60       ?getName@?$ReflectionAllocator@VAABBTreeNode@Gu@physx@@@shdfnd@physx@@CAPBDXZ 10098d60 f i GuBV4Build.obj
 0001:00097db0       ?getTriangle@SourceMesh@Gu@physx@@QBEXAAUVertexPointers@23@I@Z 10098db0 f i GuBV4Build.obj
 0001:00097e50       ?getType@BV4Node@@QBEIXZ   10098e50 f i GuBV4Build.obj
 0001:00097eb0       ?getVertexReferences@Gu@physx@@YAXAAI00IPBVIndTri32@12@PBVIndTri16@12@@Z 10098eb0 f i GuBV4Build.obj
 0001:00097f70       ?increaseCount@BuildStats@Gu@physx@@QAEXI@Z 10098f70 f i GuBV4Build.obj
 0001:00097f90       ?isLeaf@BV4Node@@QBEII@Z   10098f90 f i GuBV4Build.obj
 0001:00097fc0       ?setCount@BuildStats@Gu@physx@@QAEXI@Z 10098fc0 f i GuBV4Build.obj
 0001:000995a0       ?Sweep_AABB_BV4@@YAHABVBox@Gu@physx@@ABVPxVec3@3@MABVBV4Tree@23@PIAVSweepHit@23@I@Z 1009a5a0 f   GuBV4_AABBSweep.obj
 0001:0009bc30       ?Sweep_AABB_BV4_CB@@YAXABVBox@Gu@physx@@ABVPxVec3@3@MABVBV4Tree@23@PIBVPxMat44@3@P6A_NPAXABVSweepHit@23@@Z4I_N@Z 1009cc30 f   GuBV4_AABBSweep.obj
 0001:0009e2f0       ?GenericSweep_AABB_CB@@YAXABVBox@Gu@physx@@ABVPxVec3@3@MABVBV4Tree@23@P6A_NPAX111IAAM@Z3I@Z 1009f2f0 f   GuBV4_AABBSweep.obj
 0001:000a2ba0       ??$V4SplatElement@$00@aos@shdfnd@physx@@YA?AT__m128@@T3@@Z 100a3ba0 f i GuBV4_AABBSweep.obj
 0001:000a2c00       ??$V4SplatElement@$01@aos@shdfnd@physx@@YA?AT__m128@@T3@@Z 100a3c00 f i GuBV4_AABBSweep.obj
 0001:000a2c60       ??$V4SplatElement@$0A@@aos@shdfnd@physx@@YA?AT__m128@@T3@@Z 100a3c60 f i GuBV4_AABBSweep.obj
 0001:000a2cc0       ??$reportUnlimitedCallbackHit@UBoxSweepParamsCB@?A0x9df7c0bf@@@Gu@physx@@YAXPIAUBoxSweepParamsCB@?A0x9df7c0bf@@ABVSweepHit@01@@Z 100a3cc0 f i GuBV4_AABBSweep.obj
 0001:000a2d10       ??$setupMeshPointersAndQuantizedCoeffs@UBoxSweepParams@?A0x9df7c0bf@@@Gu@physx@@YAXPIAUBoxSweepParams@?A0x9df7c0bf@@PIBVSourceMesh@01@PIBVBV4Tree@01@@Z 100a3d10 f i GuBV4_AABBSweep.obj
 0001:000a2dd0       ??$setupMeshPointersAndQuantizedCoeffs@UBoxSweepParamsCB@?A0x9df7c0bf@@@Gu@physx@@YAXPIAUBoxSweepParamsCB@?A0x9df7c0bf@@PIBVSourceMesh@01@PIBVBV4Tree@01@@Z 100a3dd0 f i GuBV4_AABBSweep.obj
 0001:000a2e90       ??$setupMeshPointersAndQuantizedCoeffs@UGenericSweepParamsCB@?A0x9df7c0bf@@@Gu@physx@@YAXPIAUGenericSweepParamsCB@?A0x9df7c0bf@@PIBVSourceMesh@01@PIBVBV4Tree@01@@Z 100a3e90 f i GuBV4_AABBSweep.obj
 0001:000a2f50       ??$setupParamsFlags@UBoxSweepParams@?A0x9df7c0bf@@@Gu@physx@@YAXPIAUBoxSweepParams@?A0x9df7c0bf@@I@Z 100a3f50 f i GuBV4_AABBSweep.obj
 0001:000a2fa0       ??$setupParamsFlags@UBoxSweepParamsCB@?A0x9df7c0bf@@@Gu@physx@@YAXPIAUBoxSweepParamsCB@?A0x9df7c0bf@@I@Z 100a3fa0 f i GuBV4_AABBSweep.obj
 0001:000a2ff0       ??$setupParamsFlags@UGenericSweepParamsCB@?A0x9df7c0bf@@@Gu@physx@@YAXPIAUGenericSweepParamsCB@?A0x9df7c0bf@@I@Z 100a3ff0 f i GuBV4_AABBSweep.obj
 0001:000a31a0       ??0RayParams@@QAE@XZ       100a41a0 f i GuBV4_AABBSweep.obj
 0001:000a31e0       ??0RaycastHitInternal@Gu@physx@@QAE@XZ 100a41e0 f i GuBV4_AABBSweep.obj
 0001:000a3200       ??0SweepHit@Gu@physx@@QAE@XZ 100a4200 f i GuBV4_AABBSweep.obj
 0001:000a32b0       ??1RayParams@@QAE@XZ       100a42b0 f i GuBV4_AABBSweep.obj
 0001:000a32f0       ??1RaycastHitInternal@Gu@physx@@QAE@XZ 100a42f0 f i GuBV4_AABBSweep.obj
 0001:000a3300       ??1SweepHit@Gu@physx@@QAE@XZ 100a4300 f i GuBV4_AABBSweep.obj
 0001:000a3310       ??I?$PxFlags@W4Enum@PxHitFlag@physx@@G@physx@@QBE?AV01@ABV01@@Z 100a4310 f i GuBV4_AABBSweep.obj
 0001:000a3360       ?V4LoadA@aos@shdfnd@physx@@YA?AT__m128@@QBM@Z 100a4360 f i GuBV4_AABBSweep.obj
 0001:000a3400       ?V4RecipFast@aos@shdfnd@physx@@YA?AT__m128@@T4@@Z 100a4400 f i GuBV4_AABBSweep.obj
 0001:000a3440       ?computeBoxLocalImpact@Gu@physx@@YAXAAVPxVec3@2@0AAV?$PxFlags@W4Enum@PxHitFlag@physx@@G@2@ABVBox@12@ABV32@ABVPxTriangle@2@V42@_N6M@Z 100a4440 f i GuBV4_AABBSweep.obj
 0001:000a3610       ?decodePNSNoShift@BVDataSwizzled@Gu@physx@@QBEII@Z 100a4610 f i GuBV4_AABBSweep.obj
 0001:000a3bc0       ?getChildData@BVDataSwizzled@Gu@physx@@QBEII@Z 100a4bc0 f i GuBV4_AABBSweep.obj
 0001:000a3be0       ?getNbPrimitives@Gu@physx@@YAIAAI@Z 100a4be0 f i GuBV4_AABBSweep.obj
 0001:000a3c10       ?getPrimitive@BVDataSwizzled@Gu@physx@@QBEII@Z 100a4c10 f i GuBV4_AABBSweep.obj
 0001:000a3c30       ?getTris16@SourceMesh@Gu@physx@@QBEPBVIndTri16@23@XZ 100a4c30 f i GuBV4_AABBSweep.obj
 0001:000a3c50       ?getTris32@SourceMesh@Gu@physx@@QBEPBVIndTri32@23@XZ 100a4c50 f i GuBV4_AABBSweep.obj
 0001:000a3c70       ?getVerts@SourceMesh@Gu@physx@@QBEPBVPxVec3@3@XZ 100a4c70 f i GuBV4_AABBSweep.obj
 0001:000a3c90       ?invertBoxMatrix@Gu@physx@@YAXAAVPxMat33@2@AAVPxVec3@2@ABVBox@12@@Z 100a4c90 f i GuBV4_AABBSweep.obj
 0001:000a3ec0       ?isLeaf@BVDataSwizzled@Gu@physx@@QBEII@Z 100a4ec0 f i GuBV4_AABBSweep.obj
 0001:000a3ee0       ?shouldFlipNormal@Gu@physx@@YA_NABVPxVec3@2@_N1ABVPxTriangle@2@0PBVPxTransform@2@@Z 100a4ee0 f i GuBV4_AABBSweep.obj
 0001:000a4070       ?BV4_OverlapBoxAny@@YAHABVBox@Gu@physx@@ABVBV4Tree@23@PIBVPxMat44@3@@Z 100a5070 f   GuBV4_BoxOverlap.obj
 0001:000a4350       ?BV4_OverlapBoxAll@@YAIABVBox@Gu@physx@@ABVBV4Tree@23@PIBVPxMat44@3@PAIIAA_N@Z 100a5350 f   GuBV4_BoxOverlap.obj
 0001:000a4650       ?BV4_OverlapBoxCB@@YAXABVBox@Gu@physx@@ABVBV4Tree@23@P6A_NPAXABVPxVec3@3@33IPBI@Z2@Z 100a5650 f   GuBV4_BoxOverlap.obj
 0001:000a4b70       ?BV4_OverlapCapsuleAny@@YAHABVCapsule@Gu@physx@@ABVBV4Tree@23@PIBVPxMat44@3@@Z 100a5b70 f   GuBV4_BoxOverlap.obj
 0001:000a4e20       ?BV4_OverlapCapsuleAll@@YAIABVCapsule@Gu@physx@@ABVBV4Tree@23@PIBVPxMat44@3@PAIIAA_N@Z 100a5e20 f   GuBV4_BoxOverlap.obj
 0001:000a5100       ?BV4_OverlapCapsuleCB@@YAXABVCapsule@Gu@physx@@ABVBV4Tree@23@PIBVPxMat44@3@P6A_NPAXABVPxVec3@3@44IPBI@Z3@Z 100a6100 f   GuBV4_BoxOverlap.obj
 0001:000a5a50       ??$BV4_ProcessNodeNoOrder_Swizzled@VLeafFunction_BoxOverlapAll@?A0x2e6d8db0@@$00UOBBParamsAll@@@@YAHPIAIAAIPIBUBVDataSwizzled@Gu@physx@@PIAUOBBParamsAll@@@Z 100a6a50 f i GuBV4_BoxOverlap.obj
 0001:000a5d80       ??$BV4_ProcessNodeNoOrder_Swizzled@VLeafFunction_BoxOverlapAll@?A0x2e6d8db0@@$01UOBBParamsAll@@@@YAHPIAIAAIPIBUBVDataSwizzled@Gu@physx@@PIAUOBBParamsAll@@@Z 100a6d80 f i GuBV4_BoxOverlap.obj
 0001:000a60b0       ??$BV4_ProcessNodeNoOrder_Swizzled@VLeafFunction_BoxOverlapAll@?A0x2e6d8db0@@$02UOBBParamsAll@@@@YAHPIAIAAIPIBUBVDataSwizzled@Gu@physx@@PIAUOBBParamsAll@@@Z 100a70b0 f i GuBV4_BoxOverlap.obj
 0001:000a63e0       ??$BV4_ProcessNodeNoOrder_Swizzled@VLeafFunction_BoxOverlapAll@?A0x2e6d8db0@@$0A@UOBBParamsAll@@@@YAHPIAIAAIPIBUBVDataSwizzled@Gu@physx@@PIAUOBBParamsAll@@@Z 100a73e0 f i GuBV4_BoxOverlap.obj
 0001:000a6710       ??$BV4_ProcessNodeNoOrder_Swizzled@VLeafFunction_BoxOverlapAny@?A0x2e6d8db0@@$00UOBBParams@@@@YAHPIAIAAIPIBUBVDataSwizzled@Gu@physx@@PIAUOBBParams@@@Z 100a7710 f i GuBV4_BoxOverlap.obj
 0001:000a6a40       ??$BV4_ProcessNodeNoOrder_Swizzled@VLeafFunction_BoxOverlapAny@?A0x2e6d8db0@@$01UOBBParams@@@@YAHPIAIAAIPIBUBVDataSwizzled@Gu@physx@@PIAUOBBParams@@@Z 100a7a40 f i GuBV4_BoxOverlap.obj
 0001:000a6d70       ??$BV4_ProcessNodeNoOrder_Swizzled@VLeafFunction_BoxOverlapAny@?A0x2e6d8db0@@$02UOBBParams@@@@YAHPIAIAAIPIBUBVDataSwizzled@Gu@physx@@PIAUOBBParams@@@Z 100a7d70 f i GuBV4_BoxOverlap.obj
 0001:000a70a0       ??$BV4_ProcessNodeNoOrder_Swizzled@VLeafFunction_BoxOverlapAny@?A0x2e6d8db0@@$0A@UOBBParams@@@@YAHPIAIAAIPIBUBVDataSwizzled@Gu@physx@@PIAUOBBParams@@@Z 100a80a0 f i GuBV4_BoxOverlap.obj
 0001:000a73d0       ??$BV4_ProcessNodeNoOrder_Swizzled@VLeafFunction_BoxOverlapCB@?A0x2e6d8db0@@$00UOBBParamsCB@@@@YAHPIAIAAIPIBUBVDataSwizzled@Gu@physx@@PIAUOBBParamsCB@@@Z 100a83d0 f i GuBV4_BoxOverlap.obj
 0001:000a7700       ??$BV4_ProcessNodeNoOrder_Swizzled@VLeafFunction_BoxOverlapCB@?A0x2e6d8db0@@$01UOBBParamsCB@@@@YAHPIAIAAIPIBUBVDataSwizzled@Gu@physx@@PIAUOBBParamsCB@@@Z 100a8700 f i GuBV4_BoxOverlap.obj
 0001:000a7a30       ??$BV4_ProcessNodeNoOrder_Swizzled@VLeafFunction_BoxOverlapCB@?A0x2e6d8db0@@$02UOBBParamsCB@@@@YAHPIAIAAIPIBUBVDataSwizzled@Gu@physx@@PIAUOBBParamsCB@@@Z 100a8a30 f i GuBV4_BoxOverlap.obj
 0001:000a7d60       ??$BV4_ProcessNodeNoOrder_Swizzled@VLeafFunction_BoxOverlapCB@?A0x2e6d8db0@@$0A@UOBBParamsCB@@@@YAHPIAIAAIPIBUBVDataSwizzled@Gu@physx@@PIAUOBBParamsCB@@@Z 100a8d60 f i GuBV4_BoxOverlap.obj
 0001:000a8090       ??$BV4_ProcessNodeNoOrder_Swizzled@VLeafFunction_CapsuleOverlapAll@?A0x2e6d8db0@@$00UCapsuleParamsAll@@@@YAHPIAIAAIPIBUBVDataSwizzled@Gu@physx@@PIAUCapsuleParamsAll@@@Z 100a9090 f i GuBV4_BoxOverlap.obj
 0001:000a83c0       ??$BV4_ProcessNodeNoOrder_Swizzled@VLeafFunction_CapsuleOverlapAll@?A0x2e6d8db0@@$01UCapsuleParamsAll@@@@YAHPIAIAAIPIBUBVDataSwizzled@Gu@physx@@PIAUCapsuleParamsAll@@@Z 100a93c0 f i GuBV4_BoxOverlap.obj
 0001:000a86f0       ??$BV4_ProcessNodeNoOrder_Swizzled@VLeafFunction_CapsuleOverlapAll@?A0x2e6d8db0@@$02UCapsuleParamsAll@@@@YAHPIAIAAIPIBUBVDataSwizzled@Gu@physx@@PIAUCapsuleParamsAll@@@Z 100a96f0 f i GuBV4_BoxOverlap.obj
 0001:000a8a20       ??$BV4_ProcessNodeNoOrder_Swizzled@VLeafFunction_CapsuleOverlapAll@?A0x2e6d8db0@@$0A@UCapsuleParamsAll@@@@YAHPIAIAAIPIBUBVDataSwizzled@Gu@physx@@PIAUCapsuleParamsAll@@@Z 100a9a20 f i GuBV4_BoxOverlap.obj
 0001:000a8d50       ??$BV4_ProcessNodeNoOrder_Swizzled@VLeafFunction_CapsuleOverlapAny@?A0x2e6d8db0@@$00UCapsuleParamsAny@@@@YAHPIAIAAIPIBUBVDataSwizzled@Gu@physx@@PIAUCapsuleParamsAny@@@Z 100a9d50 f i GuBV4_BoxOverlap.obj
 0001:000a9080       ??$BV4_ProcessNodeNoOrder_Swizzled@VLeafFunction_CapsuleOverlapAny@?A0x2e6d8db0@@$01UCapsuleParamsAny@@@@YAHPIAIAAIPIBUBVDataSwizzled@Gu@physx@@PIAUCapsuleParamsAny@@@Z 100aa080 f i GuBV4_BoxOverlap.obj
 0001:000a93b0       ??$BV4_ProcessNodeNoOrder_Swizzled@VLeafFunction_CapsuleOverlapAny@?A0x2e6d8db0@@$02UCapsuleParamsAny@@@@YAHPIAIAAIPIBUBVDataSwizzled@Gu@physx@@PIAUCapsuleParamsAny@@@Z 100aa3b0 f i GuBV4_BoxOverlap.obj
 0001:000a96e0       ??$BV4_ProcessNodeNoOrder_Swizzled@VLeafFunction_CapsuleOverlapAny@?A0x2e6d8db0@@$0A@UCapsuleParamsAny@@@@YAHPIAIAAIPIBUBVDataSwizzled@Gu@physx@@PIAUCapsuleParamsAny@@@Z 100aa6e0 f i GuBV4_BoxOverlap.obj
 0001:000a9a10       ??$BV4_ProcessNodeNoOrder_Swizzled@VLeafFunction_CapsuleOverlapCB@?A0x2e6d8db0@@$00UCapsuleParamsCB@@@@YAHPIAIAAIPIBUBVDataSwizzled@Gu@physx@@PIAUCapsuleParamsCB@@@Z 100aaa10 f i GuBV4_BoxOverlap.obj
 0001:000a9d40       ??$BV4_ProcessNodeNoOrder_Swizzled@VLeafFunction_CapsuleOverlapCB@?A0x2e6d8db0@@$01UCapsuleParamsCB@@@@YAHPIAIAAIPIBUBVDataSwizzled@Gu@physx@@PIAUCapsuleParamsCB@@@Z 100aad40 f i GuBV4_BoxOverlap.obj
 0001:000aa070       ??$BV4_ProcessNodeNoOrder_Swizzled@VLeafFunction_CapsuleOverlapCB@?A0x2e6d8db0@@$02UCapsuleParamsCB@@@@YAHPIAIAAIPIBUBVDataSwizzled@Gu@physx@@PIAUCapsuleParamsCB@@@Z 100ab070 f i GuBV4_BoxOverlap.obj
 0001:000aa3a0       ??$BV4_ProcessNodeNoOrder_Swizzled@VLeafFunction_CapsuleOverlapCB@?A0x2e6d8db0@@$0A@UCapsuleParamsCB@@@@YAHPIAIAAIPIBUBVDataSwizzled@Gu@physx@@PIAUCapsuleParamsCB@@@Z 100ab3a0 f i GuBV4_BoxOverlap.obj
 0001:000aa6d0       ??$precomputeData@UOBBTestParams@@@@YAXPIAUOBBTestParams@@PIAVPxMat33@physx@@PIBV12@@Z 100ab6d0 f i GuBV4_BoxOverlap.obj
 0001:000aaaa0       ??$setupBoxData@UOBBTestParams@@@@YAXPIAUOBBTestParams@@ABVPxVec3@physx@@PIBVPxMat33@2@@Z 100abaa0 f i GuBV4_BoxOverlap.obj
 0001:000aabe0       ??$setupMeshPointersAndQuantizedCoeffs@UCapsuleParamsAll@@@Gu@physx@@YAXPIAUCapsuleParamsAll@@PIBVSourceMesh@01@PIBVBV4Tree@01@@Z 100abbe0 f i GuBV4_BoxOverlap.obj
 0001:000aacb0       ??$setupMeshPointersAndQuantizedCoeffs@UCapsuleParamsAny@@@Gu@physx@@YAXPIAUCapsuleParamsAny@@PIBVSourceMesh@01@PIBVBV4Tree@01@@Z 100abcb0 f i GuBV4_BoxOverlap.obj
 0001:000aad80       ??$setupMeshPointersAndQuantizedCoeffs@UCapsuleParamsCB@@@Gu@physx@@YAXPIAUCapsuleParamsCB@@PIBVSourceMesh@01@PIBVBV4Tree@01@@Z 100abd80 f i GuBV4_BoxOverlap.obj
 0001:000aae50       ??$setupMeshPointersAndQuantizedCoeffs@UOBBParams@@@Gu@physx@@YAXPIAUOBBParams@@PIBVSourceMesh@01@PIBVBV4Tree@01@@Z 100abe50 f i GuBV4_BoxOverlap.obj
 0001:000aaf20       ??$setupMeshPointersAndQuantizedCoeffs@UOBBParamsAll@@@Gu@physx@@YAXPIAUOBBParamsAll@@PIBVSourceMesh@01@PIBVBV4Tree@01@@Z 100abf20 f i GuBV4_BoxOverlap.obj
 0001:000aaff0       ??$setupMeshPointersAndQuantizedCoeffs@UOBBParamsCB@@@Gu@physx@@YAXPIAUOBBParamsCB@@PIBVSourceMesh@01@PIBVBV4Tree@01@@Z 100abff0 f i GuBV4_BoxOverlap.obj
 0001:000ab0c0       ??0CapsuleParamsAll@@QAE@XZ 100ac0c0 f i GuBV4_BoxOverlap.obj
 0001:000ab0e0       ??0CapsuleParamsAny@@QAE@XZ 100ac0e0 f i GuBV4_BoxOverlap.obj
 0001:000ab120       ??0CapsuleParamsCB@@QAE@XZ 100ac120 f i GuBV4_BoxOverlap.obj
 0001:000ab140       ??0OBBParams@@QAE@XZ       100ac140 f i GuBV4_BoxOverlap.obj
 0001:000ab180       ??0OBBParamsAll@@QAE@XZ    100ac180 f i GuBV4_BoxOverlap.obj
 0001:000ab1a0       ??0OBBParamsCB@@QAE@XZ     100ac1a0 f i GuBV4_BoxOverlap.obj
 0001:000ab1c0       ??0OBBTestParams@@QAE@XZ   100ac1c0 f i GuBV4_BoxOverlap.obj
 0001:000ab270       ??0PxMat44@physx@@QAE@XZ   100ac270 f i GuBV4_BoxOverlap.obj
 0001:000ab2c0       ??1CapsuleParamsAll@@QAE@XZ 100ac2c0 f i GuBV4_BoxOverlap.obj
 0001:000ab2e0       ??1CapsuleParamsAny@@QAE@XZ 100ac2e0 f i GuBV4_BoxOverlap.obj
 0001:000ab310       ??1CapsuleParamsCB@@QAE@XZ 100ac310 f i GuBV4_BoxOverlap.obj
 0001:000ab330       ??1OBBParams@@QAE@XZ       100ac330 f i GuBV4_BoxOverlap.obj
 0001:000ab360       ??1OBBParamsAll@@QAE@XZ    100ac360 f i GuBV4_BoxOverlap.obj
 0001:000ab380       ??1OBBParamsCB@@QAE@XZ     100ac380 f i GuBV4_BoxOverlap.obj
 0001:000ab3a0       ??1OBBTestParams@@QAE@XZ   100ac3a0 f i GuBV4_BoxOverlap.obj
 0001:000ab450       ?BV4_BoxBoxOverlap@@YAHT__m128@@0PIBUOBBTestParams@@@Z 100ac450 f i GuBV4_BoxOverlap.obj
 0001:000ab990       ?computeLocalBox@Gu@physx@@YAXAAVBox@12@ABV312@PIBVPxMat44@2@@Z 100ac990 f i GuBV4_BoxOverlap.obj
 0001:000ab9f0       ?computeLocalCapsule@Gu@physx@@YAXAAVCapsule@12@ABV312@PIBVPxMat44@2@@Z 100ac9f0 f i GuBV4_BoxOverlap.obj
 0001:000ac0e0       ?inverseTransform@Gu@physx@@YA?AVPxVec3@2@PIBVPxMat44@2@ABV32@@Z 100ad0e0 f i GuBV4_BoxOverlap.obj
 0001:000ac320       ?invertPRMatrix@Gu@physx@@YAXPIAVPxMat44@2@PIBV32@@Z 100ad320 f i GuBV4_BoxOverlap.obj
 0001:000ac590       ?precomputeBoxData@OBBTestParams@@QAEXABVPxVec3@physx@@PIBVPxMat33@3@@Z 100ad590 f i GuBV4_BoxOverlap.obj
 0001:000ac5e0       ?rotateBox@Gu@physx@@YAXAAVBox@12@ABVPxMat44@2@ABV312@@Z 100ad5e0 f i GuBV4_BoxOverlap.obj
 0001:000ada10       ?BV4_CapsuleSweepSingle@@YAHABVCapsule@Gu@physx@@ABVPxVec3@3@MABVBV4Tree@23@PIAVSweepHit@23@I@Z 100aea10 f   GuBV4_CapsuleSweep.obj
 0001:000ae880       ?BV4_CapsuleSweepCB@@YAXABVCapsule@Gu@physx@@ABVPxVec3@3@MABVBV4Tree@23@PIBVPxMat44@3@P6A_NPAXABVSweepHit@23@@Z4I_N@Z 100af880 f   GuBV4_CapsuleSweep.obj
 0001:000afdf0       ??$BV4_ProcessNodeNoOrder_Swizzled@VLeafFunction_CapsuleSweepAny@?A0xb4a3b36b@@$00UCapsuleSweepParams@2@@@YAHPIAIAAIPIBUBVDataSwizzled@Gu@physx@@PIAUCapsuleSweepParams@?A0xb4a3b36b@@@Z 100b0df0 f i GuBV4_CapsuleSweep.obj
 0001:000b0120       ??$BV4_ProcessNodeNoOrder_Swizzled@VLeafFunction_CapsuleSweepAny@?A0xb4a3b36b@@$01UCapsuleSweepParams@2@@@YAHPIAIAAIPIBUBVDataSwizzled@Gu@physx@@PIAUCapsuleSweepParams@?A0xb4a3b36b@@@Z 100b1120 f i GuBV4_CapsuleSweep.obj
 0001:000b0450       ??$BV4_ProcessNodeNoOrder_Swizzled@VLeafFunction_CapsuleSweepAny@?A0xb4a3b36b@@$02UCapsuleSweepParams@2@@@YAHPIAIAAIPIBUBVDataSwizzled@Gu@physx@@PIAUCapsuleSweepParams@?A0xb4a3b36b@@@Z 100b1450 f i GuBV4_CapsuleSweep.obj
 0001:000b0780       ??$BV4_ProcessNodeNoOrder_Swizzled@VLeafFunction_CapsuleSweepAny@?A0xb4a3b36b@@$0A@UCapsuleSweepParams@2@@@YAHPIAIAAIPIBUBVDataSwizzled@Gu@physx@@PIAUCapsuleSweepParams@?A0xb4a3b36b@@@Z 100b1780 f i GuBV4_CapsuleSweep.obj
 0001:000b0ab0       ??$BV4_ProcessNodeNoOrder_Swizzled@VLeafFunction_CapsuleSweepCB@?A0xb4a3b36b@@$00UCapsuleSweepParamsCB@2@@@YAHPIAIAAIPIBUBVDataSwizzled@Gu@physx@@PIAUCapsuleSweepParamsCB@?A0xb4a3b36b@@@Z 100b1ab0 f i GuBV4_CapsuleSweep.obj
 0001:000b0de0       ??$BV4_ProcessNodeNoOrder_Swizzled@VLeafFunction_CapsuleSweepCB@?A0xb4a3b36b@@$01UCapsuleSweepParamsCB@2@@@YAHPIAIAAIPIBUBVDataSwizzled@Gu@physx@@PIAUCapsuleSweepParamsCB@?A0xb4a3b36b@@@Z 100b1de0 f i GuBV4_CapsuleSweep.obj
 0001:000b1110       ??$BV4_ProcessNodeNoOrder_Swizzled@VLeafFunction_CapsuleSweepCB@?A0xb4a3b36b@@$02UCapsuleSweepParamsCB@2@@@YAHPIAIAAIPIBUBVDataSwizzled@Gu@physx@@PIAUCapsuleSweepParamsCB@?A0xb4a3b36b@@@Z 100b2110 f i GuBV4_CapsuleSweep.obj
 0001:000b1440       ??$BV4_ProcessNodeNoOrder_Swizzled@VLeafFunction_CapsuleSweepCB@?A0xb4a3b36b@@$0A@UCapsuleSweepParamsCB@2@@@YAHPIAIAAIPIBUBVDataSwizzled@Gu@physx@@PIAUCapsuleSweepParamsCB@?A0xb4a3b36b@@@Z 100b2440 f i GuBV4_CapsuleSweep.obj
 0001:000b1770       ??$BV4_ProcessNodeOrdered2_Swizzled@VLeafFunction_CapsuleSweepCB@?A0xb4a3b36b@@$00UCapsuleSweepParamsCB@2@@@YAXAAIPIBUBVDataSwizzled@Gu@physx@@PIAUCapsuleSweepParamsCB@?A0xb4a3b36b@@@Z 100b2770 f i GuBV4_CapsuleSweep.obj
 0001:000b1a80       ??$BV4_ProcessNodeOrdered2_Swizzled@VLeafFunction_CapsuleSweepCB@?A0xb4a3b36b@@$01UCapsuleSweepParamsCB@2@@@YAXAAIPIBUBVDataSwizzled@Gu@physx@@PIAUCapsuleSweepParamsCB@?A0xb4a3b36b@@@Z 100b2a80 f i GuBV4_CapsuleSweep.obj
 0001:000b1d80       ??$BV4_ProcessNodeOrdered2_Swizzled@VLeafFunction_CapsuleSweepCB@?A0xb4a3b36b@@$02UCapsuleSweepParamsCB@2@@@YAXAAIPIBUBVDataSwizzled@Gu@physx@@PIAUCapsuleSweepParamsCB@?A0xb4a3b36b@@@Z 100b2d80 f i GuBV4_CapsuleSweep.obj
 0001:000b2090       ??$BV4_ProcessNodeOrdered2_Swizzled@VLeafFunction_CapsuleSweepCB@?A0xb4a3b36b@@$0A@UCapsuleSweepParamsCB@2@@@YAXAAIPIBUBVDataSwizzled@Gu@physx@@PIAUCapsuleSweepParamsCB@?A0xb4a3b36b@@@Z 100b3090 f i GuBV4_CapsuleSweep.obj
 0001:000b23a0       ??$BV4_ProcessNodeOrdered2_Swizzled@VLeafFunction_CapsuleSweepClosest@?A0xb4a3b36b@@$00UCapsuleSweepParams@2@@@YAXAAIPIBUBVDataSwizzled@Gu@physx@@PIAUCapsuleSweepParams@?A0xb4a3b36b@@@Z 100b33a0 f i GuBV4_CapsuleSweep.obj
 0001:000b26b0       ??$BV4_ProcessNodeOrdered2_Swizzled@VLeafFunction_CapsuleSweepClosest@?A0xb4a3b36b@@$01UCapsuleSweepParams@2@@@YAXAAIPIBUBVDataSwizzled@Gu@physx@@PIAUCapsuleSweepParams@?A0xb4a3b36b@@@Z 100b36b0 f i GuBV4_CapsuleSweep.obj
 0001:000b29b0       ??$BV4_ProcessNodeOrdered2_Swizzled@VLeafFunction_CapsuleSweepClosest@?A0xb4a3b36b@@$02UCapsuleSweepParams@2@@@YAXAAIPIBUBVDataSwizzled@Gu@physx@@PIAUCapsuleSweepParams@?A0xb4a3b36b@@@Z 100b39b0 f i GuBV4_CapsuleSweep.obj
 0001:000b2cc0       ??$BV4_ProcessNodeOrdered2_Swizzled@VLeafFunction_CapsuleSweepClosest@?A0xb4a3b36b@@$0A@UCapsuleSweepParams@2@@@YAXAAIPIBUBVDataSwizzled@Gu@physx@@PIAUCapsuleSweepParams@?A0xb4a3b36b@@@Z 100b3cc0 f i GuBV4_CapsuleSweep.obj
 0001:000b2fd0       ??$PX_UNUSED@_N@@YAXAB_N@Z 100b3fd0 f i GuBV4_CapsuleSweep.obj
 0001:000b2fe0       ??$precomputeData@UBoxSweepParams@?A0xb4a3b36b@@@@YAXPIAUBoxSweepParams@?A0xb4a3b36b@@PIAVPxMat33@physx@@PIBV23@@Z 100b3fe0 f i GuBV4_CapsuleSweep.obj
 0001:000b33b0       ??$reportUnlimitedCallbackHit@UCapsuleSweepParamsCB@?A0xb4a3b36b@@@Gu@physx@@YAXPIAUCapsuleSweepParamsCB@?A0xb4a3b36b@@ABVSweepHit@01@@Z 100b43b0 f i GuBV4_CapsuleSweep.obj
 0001:000b3410       ??$setupBoxData@UBoxSweepParams@?A0xb4a3b36b@@@@YAXPIAUBoxSweepParams@?A0xb4a3b36b@@ABVPxVec3@physx@@PIBVPxMat33@3@@Z 100b4410 f i GuBV4_CapsuleSweep.obj
 0001:000b3550       ??$setupMeshPointersAndQuantizedCoeffs@UCapsuleSweepParams@?A0xb4a3b36b@@@Gu@physx@@YAXPIAUCapsuleSweepParams@?A0xb4a3b36b@@PIBVSourceMesh@01@PIBVBV4Tree@01@@Z 100b4550 f i GuBV4_CapsuleSweep.obj
 0001:000b3620       ??$setupMeshPointersAndQuantizedCoeffs@UCapsuleSweepParamsCB@?A0xb4a3b36b@@@Gu@physx@@YAXPIAUCapsuleSweepParamsCB@?A0xb4a3b36b@@PIBVSourceMesh@01@PIBVBV4Tree@01@@Z 100b4620 f i GuBV4_CapsuleSweep.obj
 0001:000b36f0       ??$setupParamsFlags@UCapsuleSweepParams@?A0xb4a3b36b@@@Gu@physx@@YAXPIAUCapsuleSweepParams@?A0xb4a3b36b@@I@Z 100b46f0 f i GuBV4_CapsuleSweep.obj
 0001:000b3740       ??$setupParamsFlags@UCapsuleSweepParamsCB@?A0xb4a3b36b@@@Gu@physx@@YAXPIAUCapsuleSweepParamsCB@?A0xb4a3b36b@@I@Z 100b4740 f i GuBV4_CapsuleSweep.obj
 0001:000b3b00       ?coarseCullingQuad@Gu@physx@@YA_NABVPxVec3@2@0MMPIBV32@@Z 100b4b00 f i GuBV4_CapsuleSweep.obj
 0001:000b3d20       ?computeBasis@shdfnd@physx@@YAXABVPxVec3@2@0AAV32@11@Z 100b4d20 f i GuBV4_CapsuleSweep.obj
 0001:000b3d80       ?computeBasis@shdfnd@physx@@YAXABVPxVec3@2@AAV32@1@Z 100b4d80 f i GuBV4_CapsuleSweep.obj
 0001:000b41f0       ?cullQuad@Gu@physx@@YA_NPIBVPxVec3@2@ABV32@MMM@Z 100b51f0 f i GuBV4_CapsuleSweep.obj
 0001:000b45f0       ?rejectQuad@Gu@physx@@YA_NABVPxVec3@2@0MMPIBV32@M@Z 100b55f0 f i GuBV4_CapsuleSweep.obj
 0001:000b58f0       ?BV4_CapsuleSweepSingleAA@@YAHABVCapsule@Gu@physx@@ABVPxVec3@3@MABVBV4Tree@23@PIAVSweepHit@23@I@Z 100b68f0 f   GuBV4_CapsuleSweepAA.obj
 0001:000b91e0       ??$setupMeshPointersAndQuantizedCoeffs@UCapsuleSweepParams@?A0x95abd81f@@@Gu@physx@@YAXPIAUCapsuleSweepParams@?A0x95abd81f@@PIBVSourceMesh@01@PIBVBV4Tree@01@@Z 100ba1e0 f i GuBV4_CapsuleSweepAA.obj
 0001:000b92a0       ??$setupParamsFlags@UCapsuleSweepParams@?A0x95abd81f@@@Gu@physx@@YAXPIAUCapsuleSweepParams@?A0x95abd81f@@I@Z 100ba2a0 f i GuBV4_CapsuleSweepAA.obj
 0001:000b94a0       ?abs@PxVec3@physx@@QBE?AV12@XZ 100ba4a0 f i GuBV4_CapsuleSweepAA.obj
 0001:000baef0       ?Sweep_OBB_BV4@@YAHABVBox@Gu@physx@@ABVPxVec3@3@MABVBV4Tree@23@PIAVSweepHit@23@I@Z 100bbef0 f   GuBV4_OBBSweep.obj
 0001:000bb8b0       ?Sweep_OBB_BV4_CB@@YAXABVBox@Gu@physx@@ABVPxVec3@3@MABVBV4Tree@23@PIBVPxMat44@3@P6A_NPAXABVSweepHit@23@@Z4I_N@Z 100bc8b0 f   GuBV4_OBBSweep.obj
 0001:000bc2a0       ?GenericSweep_OBB_CB@@YAXABVBox@Gu@physx@@ABVPxVec3@3@MABVBV4Tree@23@P6A_NPAX111IAAM@Z3I@Z 100bd2a0 f   GuBV4_OBBSweep.obj
 0001:000bcdc0       ?BV4_BoxSweepSingle@@YAHABVBox@Gu@physx@@ABVPxVec3@3@MABVBV4Tree@23@PIBVPxMat44@3@PIAVSweepHit@23@I@Z 100bddc0 f   GuBV4_OBBSweep.obj
 0001:000bcec0       ?BV4_BoxSweepCB@@YAXABVBox@Gu@physx@@ABVPxVec3@3@MABVBV4Tree@23@PIBVPxMat44@3@P6A_NPAXABVSweepHit@23@@Z4I_N@Z 100bdec0 f   GuBV4_OBBSweep.obj
 0001:000bcf80       ?BV4_GenericSweepCB@@YAXABVBox@Gu@physx@@ABVPxVec3@3@MABVBV4Tree@23@P6A_NPAX111IAAM@Z3_N@Z 100bdf80 f   GuBV4_OBBSweep.obj
 0001:000bde00       ??$BV4_ProcessNodeNoOrder_Swizzled@VLeafFunction_BoxSweepAny@?A0xf0f24d3e@@$00UBoxSweepParams@2@@@YAHPIAIAAIPIBUBVDataSwizzled@Gu@physx@@PIAUBoxSweepParams@?A0xf0f24d3e@@@Z 100bee00 f i GuBV4_OBBSweep.obj
 0001:000be130       ??$BV4_ProcessNodeNoOrder_Swizzled@VLeafFunction_BoxSweepAny@?A0xf0f24d3e@@$01UBoxSweepParams@2@@@YAHPIAIAAIPIBUBVDataSwizzled@Gu@physx@@PIAUBoxSweepParams@?A0xf0f24d3e@@@Z 100bf130 f i GuBV4_OBBSweep.obj
 0001:000be460       ??$BV4_ProcessNodeNoOrder_Swizzled@VLeafFunction_BoxSweepAny@?A0xf0f24d3e@@$02UBoxSweepParams@2@@@YAHPIAIAAIPIBUBVDataSwizzled@Gu@physx@@PIAUBoxSweepParams@?A0xf0f24d3e@@@Z 100bf460 f i GuBV4_OBBSweep.obj
 0001:000be790       ??$BV4_ProcessNodeNoOrder_Swizzled@VLeafFunction_BoxSweepAny@?A0xf0f24d3e@@$0A@UBoxSweepParams@2@@@YAHPIAIAAIPIBUBVDataSwizzled@Gu@physx@@PIAUBoxSweepParams@?A0xf0f24d3e@@@Z 100bf790 f i GuBV4_OBBSweep.obj
 0001:000beac0       ??$BV4_ProcessNodeNoOrder_Swizzled@VLeafFunction_BoxSweepAnyCB@?A0xf0f24d3e@@$00UGenericSweepParamsCB@2@@@YAHPIAIAAIPIBUBVDataSwizzled@Gu@physx@@PIAUGenericSweepParamsCB@?A0xf0f24d3e@@@Z 100bfac0 f i GuBV4_OBBSweep.obj
 0001:000bedf0       ??$BV4_ProcessNodeNoOrder_Swizzled@VLeafFunction_BoxSweepAnyCB@?A0xf0f24d3e@@$01UGenericSweepParamsCB@2@@@YAHPIAIAAIPIBUBVDataSwizzled@Gu@physx@@PIAUGenericSweepParamsCB@?A0xf0f24d3e@@@Z 100bfdf0 f i GuBV4_OBBSweep.obj
 0001:000bf120       ??$BV4_ProcessNodeNoOrder_Swizzled@VLeafFunction_BoxSweepAnyCB@?A0xf0f24d3e@@$02UGenericSweepParamsCB@2@@@YAHPIAIAAIPIBUBVDataSwizzled@Gu@physx@@PIAUGenericSweepParamsCB@?A0xf0f24d3e@@@Z 100c0120 f i GuBV4_OBBSweep.obj
 0001:000bf450       ??$BV4_ProcessNodeNoOrder_Swizzled@VLeafFunction_BoxSweepAnyCB@?A0xf0f24d3e@@$0A@UGenericSweepParamsCB@2@@@YAHPIAIAAIPIBUBVDataSwizzled@Gu@physx@@PIAUGenericSweepParamsCB@?A0xf0f24d3e@@@Z 100c0450 f i GuBV4_OBBSweep.obj
 0001:000bf780       ??$BV4_ProcessNodeNoOrder_Swizzled@VLeafFunction_BoxSweepCB@?A0xf0f24d3e@@$00UBoxSweepParamsCB@2@@@YAHPIAIAAIPIBUBVDataSwizzled@Gu@physx@@PIAUBoxSweepParamsCB@?A0xf0f24d3e@@@Z 100c0780 f i GuBV4_OBBSweep.obj
 0001:000bfab0       ??$BV4_ProcessNodeNoOrder_Swizzled@VLeafFunction_BoxSweepCB@?A0xf0f24d3e@@$01UBoxSweepParamsCB@2@@@YAHPIAIAAIPIBUBVDataSwizzled@Gu@physx@@PIAUBoxSweepParamsCB@?A0xf0f24d3e@@@Z 100c0ab0 f i GuBV4_OBBSweep.obj
 0001:000bfde0       ??$BV4_ProcessNodeNoOrder_Swizzled@VLeafFunction_BoxSweepCB@?A0xf0f24d3e@@$02UBoxSweepParamsCB@2@@@YAHPIAIAAIPIBUBVDataSwizzled@Gu@physx@@PIAUBoxSweepParamsCB@?A0xf0f24d3e@@@Z 100c0de0 f i GuBV4_OBBSweep.obj
 0001:000c0110       ??$BV4_ProcessNodeNoOrder_Swizzled@VLeafFunction_BoxSweepCB@?A0xf0f24d3e@@$0A@UBoxSweepParamsCB@2@@@YAHPIAIAAIPIBUBVDataSwizzled@Gu@physx@@PIAUBoxSweepParamsCB@?A0xf0f24d3e@@@Z 100c1110 f i GuBV4_OBBSweep.obj
 0001:000c0440       ??$BV4_ProcessNodeOrdered2_Swizzled@VLeafFunction_BoxSweepCB@?A0xf0f24d3e@@$00UBoxSweepParamsCB@2@@@YAXAAIPIBUBVDataSwizzled@Gu@physx@@PIAUBoxSweepParamsCB@?A0xf0f24d3e@@@Z 100c1440 f i GuBV4_OBBSweep.obj
 0001:000c0750       ??$BV4_ProcessNodeOrdered2_Swizzled@VLeafFunction_BoxSweepCB@?A0xf0f24d3e@@$01UBoxSweepParamsCB@2@@@YAXAAIPIBUBVDataSwizzled@Gu@physx@@PIAUBoxSweepParamsCB@?A0xf0f24d3e@@@Z 100c1750 f i GuBV4_OBBSweep.obj
 0001:000c0a50       ??$BV4_ProcessNodeOrdered2_Swizzled@VLeafFunction_BoxSweepCB@?A0xf0f24d3e@@$02UBoxSweepParamsCB@2@@@YAXAAIPIBUBVDataSwizzled@Gu@physx@@PIAUBoxSweepParamsCB@?A0xf0f24d3e@@@Z 100c1a50 f i GuBV4_OBBSweep.obj
 0001:000c0d60       ??$BV4_ProcessNodeOrdered2_Swizzled@VLeafFunction_BoxSweepCB@?A0xf0f24d3e@@$0A@UBoxSweepParamsCB@2@@@YAXAAIPIBUBVDataSwizzled@Gu@physx@@PIAUBoxSweepParamsCB@?A0xf0f24d3e@@@Z 100c1d60 f i GuBV4_OBBSweep.obj
 0001:000c1070       ??$BV4_ProcessNodeOrdered2_Swizzled@VLeafFunction_BoxSweepClosest@?A0xf0f24d3e@@$00UBoxSweepParams@2@@@YAXAAIPIBUBVDataSwizzled@Gu@physx@@PIAUBoxSweepParams@?A0xf0f24d3e@@@Z 100c2070 f i GuBV4_OBBSweep.obj
 0001:000c1380       ??$BV4_ProcessNodeOrdered2_Swizzled@VLeafFunction_BoxSweepClosest@?A0xf0f24d3e@@$01UBoxSweepParams@2@@@YAXAAIPIBUBVDataSwizzled@Gu@physx@@PIAUBoxSweepParams@?A0xf0f24d3e@@@Z 100c2380 f i GuBV4_OBBSweep.obj
 0001:000c1680       ??$BV4_ProcessNodeOrdered2_Swizzled@VLeafFunction_BoxSweepClosest@?A0xf0f24d3e@@$02UBoxSweepParams@2@@@YAXAAIPIBUBVDataSwizzled@Gu@physx@@PIAUBoxSweepParams@?A0xf0f24d3e@@@Z 100c2680 f i GuBV4_OBBSweep.obj
 0001:000c1990       ??$BV4_ProcessNodeOrdered2_Swizzled@VLeafFunction_BoxSweepClosest@?A0xf0f24d3e@@$0A@UBoxSweepParams@2@@@YAXAAIPIBUBVDataSwizzled@Gu@physx@@PIAUBoxSweepParams@?A0xf0f24d3e@@@Z 100c2990 f i GuBV4_OBBSweep.obj
 0001:000c1ca0       ??$BV4_ProcessNodeOrdered2_Swizzled@VLeafFunction_BoxSweepClosestCB@?A0xf0f24d3e@@$00UGenericSweepParamsCB@2@@@YAXAAIPIBUBVDataSwizzled@Gu@physx@@PIAUGenericSweepParamsCB@?A0xf0f24d3e@@@Z 100c2ca0 f i GuBV4_OBBSweep.obj
 0001:000c1fb0       ??$BV4_ProcessNodeOrdered2_Swizzled@VLeafFunction_BoxSweepClosestCB@?A0xf0f24d3e@@$01UGenericSweepParamsCB@2@@@YAXAAIPIBUBVDataSwizzled@Gu@physx@@PIAUGenericSweepParamsCB@?A0xf0f24d3e@@@Z 100c2fb0 f i GuBV4_OBBSweep.obj
 0001:000c22b0       ??$BV4_ProcessNodeOrdered2_Swizzled@VLeafFunction_BoxSweepClosestCB@?A0xf0f24d3e@@$02UGenericSweepParamsCB@2@@@YAXAAIPIBUBVDataSwizzled@Gu@physx@@PIAUGenericSweepParamsCB@?A0xf0f24d3e@@@Z 100c32b0 f i GuBV4_OBBSweep.obj
 0001:000c25c0       ??$BV4_ProcessNodeOrdered2_Swizzled@VLeafFunction_BoxSweepClosestCB@?A0xf0f24d3e@@$0A@UGenericSweepParamsCB@2@@@YAXAAIPIBUBVDataSwizzled@Gu@physx@@PIAUGenericSweepParamsCB@?A0xf0f24d3e@@@Z 100c35c0 f i GuBV4_OBBSweep.obj
 0001:000c28d0       ??$precomputeData@UBoxSweepParams@?A0xf0f24d3e@@@@YAXPIAUBoxSweepParams@?A0xf0f24d3e@@PIAVPxMat33@physx@@PIBV23@@Z 100c38d0 f i GuBV4_OBBSweep.obj
 0001:000c2ca0       ??$reportUnlimitedCallbackHit@UBoxSweepParamsCB@?A0xf0f24d3e@@@Gu@physx@@YAXPIAUBoxSweepParamsCB@?A0xf0f24d3e@@ABVSweepHit@01@@Z 100c3ca0 f i GuBV4_OBBSweep.obj
 0001:000c2d00       ??$setupBoxData@UBoxSweepParams@?A0xf0f24d3e@@@@YAXPIAUBoxSweepParams@?A0xf0f24d3e@@ABVPxVec3@physx@@PIBVPxMat33@3@@Z 100c3d00 f i GuBV4_OBBSweep.obj
 0001:000c2e40       ??$setupMeshPointersAndQuantizedCoeffs@UBoxSweepParams@?A0xf0f24d3e@@@Gu@physx@@YAXPIAUBoxSweepParams@?A0xf0f24d3e@@PIBVSourceMesh@01@PIBVBV4Tree@01@@Z 100c3e40 f i GuBV4_OBBSweep.obj
 0001:000c2f10       ??$setupMeshPointersAndQuantizedCoeffs@UBoxSweepParamsCB@?A0xf0f24d3e@@@Gu@physx@@YAXPIAUBoxSweepParamsCB@?A0xf0f24d3e@@PIBVSourceMesh@01@PIBVBV4Tree@01@@Z 100c3f10 f i GuBV4_OBBSweep.obj
 0001:000c2fe0       ??$setupMeshPointersAndQuantizedCoeffs@UGenericSweepParamsCB@?A0xf0f24d3e@@@Gu@physx@@YAXPIAUGenericSweepParamsCB@?A0xf0f24d3e@@PIBVSourceMesh@01@PIBVBV4Tree@01@@Z 100c3fe0 f i GuBV4_OBBSweep.obj
 0001:000c30b0       ??$setupParamsFlags@UBoxSweepParams@?A0xf0f24d3e@@@Gu@physx@@YAXPIAUBoxSweepParams@?A0xf0f24d3e@@I@Z 100c40b0 f i GuBV4_OBBSweep.obj
 0001:000c3100       ??$setupParamsFlags@UBoxSweepParamsCB@?A0xf0f24d3e@@@Gu@physx@@YAXPIAUBoxSweepParamsCB@?A0xf0f24d3e@@I@Z 100c4100 f i GuBV4_OBBSweep.obj
 0001:000c3150       ??$setupParamsFlags@UGenericSweepParamsCB@?A0xf0f24d3e@@@Gu@physx@@YAXPIAUGenericSweepParamsCB@?A0xf0f24d3e@@I@Z 100c4150 f i GuBV4_OBBSweep.obj
 0001:000c4140       ?BV4_RaycastSingle@@YAHABVPxVec3@physx@@0ABVBV4Tree@Gu@2@PIBVPxMat44@2@PIAUPxRaycastHit@2@MMIV?$PxFlags@W4Enum@PxHitFlag@physx@@G@2@@Z 100c5140 f   GuBV4_Raycast.obj
 0001:000c6750       ?BV4_RaycastCB@@YAXABVPxVec3@physx@@0ABVBV4Tree@Gu@2@PIBVPxMat44@2@MMIP6A?AW4HitCode@42@PAX000IMMM@Z3@Z 100c7750 f   GuBV4_Raycast.obj
 0001:000c77f0       ?BV4_RaycastAll@@YAIABVPxVec3@physx@@0ABVBV4Tree@Gu@2@PIBVPxMat44@2@PIAUPxRaycastHit@2@IMMIV?$PxFlags@W4Enum@PxHitFlag@physx@@G@2@@Z 100c87f0 f   GuBV4_Raycast.obj
 0001:000c9c00       ??$RayTriOverlapT@URayParams@@@@YAHAAUPxRaycastHit@physx@@ABVPxVec3@1@11PIBURayParams@@@Z 100cac00 f i GuBV4_Raycast.obj
 0001:000c9fd0       ??$setupMeshPointersAndQuantizedCoeffs@URayParams@@@Gu@physx@@YAXPIAURayParams@@PIBVSourceMesh@01@PIBVBV4Tree@01@@Z 100cafd0 f i GuBV4_Raycast.obj
 0001:000ca090       ??$setupMeshPointersAndQuantizedCoeffs@URayParamsAll@?A0x536d15d4@@@Gu@physx@@YAXPIAURayParamsAll@?A0x536d15d4@@PIBVSourceMesh@01@PIBVBV4Tree@01@@Z 100cb090 f i GuBV4_Raycast.obj
 0001:000ca150       ??$setupMeshPointersAndQuantizedCoeffs@URayParamsCB@?A0x536d15d4@@@Gu@physx@@YAXPIAURayParamsCB@?A0x536d15d4@@PIBVSourceMesh@01@PIBVBV4Tree@01@@Z 100cb150 f i GuBV4_Raycast.obj
 0001:000ca210       ??$setupParamsFlags@URayParams@@@Gu@physx@@YAXPIAURayParams@@I@Z 100cb210 f i GuBV4_Raycast.obj
 0001:000ca260       ??$setupParamsFlags@URayParamsAll@?A0x536d15d4@@@Gu@physx@@YAXPIAURayParamsAll@?A0x536d15d4@@I@Z 100cb260 f i GuBV4_Raycast.obj
 0001:000ca2b0       ??$setupParamsFlags@URayParamsCB@?A0x536d15d4@@@Gu@physx@@YAXPIAURayParamsCB@?A0x536d15d4@@I@Z 100cb2b0 f i GuBV4_Raycast.obj
 0001:000ca300       ??0?$PxFlags@W4Enum@PxHitFlag@physx@@G@physx@@QAE@XZ 100cb300 f i GuBV4_Raycast.obj
 0001:000ca370       ??0RaycastHitInternalUV@@QAE@XZ 100cb370 f i GuBV4_Raycast.obj
 0001:000ca3d0       ??1RaycastHitInternalUV@@QAE@XZ 100cb3d0 f i GuBV4_Raycast.obj
 0001:000ca3f0       ?computeLocalRay@Gu@physx@@YAXAAVPxVec3@2@0ABV32@1PIBVPxMat44@2@@Z 100cb3f0 f i GuBV4_Raycast.obj
 0001:000ca9c0       ?inverseRotate@Gu@physx@@YA?AVPxVec3@2@PIBVPxMat44@2@ABV32@@Z 100cb9c0 f i GuBV4_Raycast.obj
 0001:000cae10       ?BV4_OverlapSphereAny@@YAHABVSphere@Gu@physx@@ABVBV4Tree@23@PIBVPxMat44@3@@Z 100cbe10 f   GuBV4_SphereOverlap.obj
 0001:000cb0a0       ?BV4_OverlapSphereAll@@YAIABVSphere@Gu@physx@@ABVBV4Tree@23@PIBVPxMat44@3@PAIIAA_N@Z 100cc0a0 f   GuBV4_SphereOverlap.obj
 0001:000cb370       ?BV4_OverlapSphereCB@@YAXABVSphere@Gu@physx@@ABVBV4Tree@23@PIBVPxMat44@3@P6A_NPAXABVPxVec3@3@44IPBI@Z3@Z 100cc370 f   GuBV4_SphereOverlap.obj
 0001:000cb8a0       ??$BV4_ProcessNodeNoOrder_Swizzled@VLeafFunction_SphereOverlapAll@?A0x207c9de6@@$00USphereParamsAll@@@@YAHPIAIAAIPIBUBVDataSwizzled@Gu@physx@@PIAUSphereParamsAll@@@Z 100cc8a0 f i GuBV4_SphereOverlap.obj
 0001:000cbb60       ??$BV4_ProcessNodeNoOrder_Swizzled@VLeafFunction_SphereOverlapAll@?A0x207c9de6@@$01USphereParamsAll@@@@YAHPIAIAAIPIBUBVDataSwizzled@Gu@physx@@PIAUSphereParamsAll@@@Z 100ccb60 f i GuBV4_SphereOverlap.obj
 0001:000cbe20       ??$BV4_ProcessNodeNoOrder_Swizzled@VLeafFunction_SphereOverlapAll@?A0x207c9de6@@$02USphereParamsAll@@@@YAHPIAIAAIPIBUBVDataSwizzled@Gu@physx@@PIAUSphereParamsAll@@@Z 100cce20 f i GuBV4_SphereOverlap.obj
 0001:000cc0e0       ??$BV4_ProcessNodeNoOrder_Swizzled@VLeafFunction_SphereOverlapAll@?A0x207c9de6@@$0A@USphereParamsAll@@@@YAHPIAIAAIPIBUBVDataSwizzled@Gu@physx@@PIAUSphereParamsAll@@@Z 100cd0e0 f i GuBV4_SphereOverlap.obj
 0001:000cc3a0       ??$BV4_ProcessNodeNoOrder_Swizzled@VLeafFunction_SphereOverlapAny@?A0x207c9de6@@$00USphereParams@@@@YAHPIAIAAIPIBUBVDataSwizzled@Gu@physx@@PIAUSphereParams@@@Z 100cd3a0 f i GuBV4_SphereOverlap.obj
 0001:000cc660       ??$BV4_ProcessNodeNoOrder_Swizzled@VLeafFunction_SphereOverlapAny@?A0x207c9de6@@$01USphereParams@@@@YAHPIAIAAIPIBUBVDataSwizzled@Gu@physx@@PIAUSphereParams@@@Z 100cd660 f i GuBV4_SphereOverlap.obj
 0001:000cc920       ??$BV4_ProcessNodeNoOrder_Swizzled@VLeafFunction_SphereOverlapAny@?A0x207c9de6@@$02USphereParams@@@@YAHPIAIAAIPIBUBVDataSwizzled@Gu@physx@@PIAUSphereParams@@@Z 100cd920 f i GuBV4_SphereOverlap.obj
 0001:000ccbe0       ??$BV4_ProcessNodeNoOrder_Swizzled@VLeafFunction_SphereOverlapAny@?A0x207c9de6@@$0A@USphereParams@@@@YAHPIAIAAIPIBUBVDataSwizzled@Gu@physx@@PIAUSphereParams@@@Z 100cdbe0 f i GuBV4_SphereOverlap.obj
 0001:000ccea0       ??$BV4_ProcessNodeNoOrder_Swizzled@VLeafFunction_SphereOverlapCB@?A0x207c9de6@@$00USphereParamsCB@@@@YAHPIAIAAIPIBUBVDataSwizzled@Gu@physx@@PIAUSphereParamsCB@@@Z 100cdea0 f i GuBV4_SphereOverlap.obj
 0001:000cd160       ??$BV4_ProcessNodeNoOrder_Swizzled@VLeafFunction_SphereOverlapCB@?A0x207c9de6@@$01USphereParamsCB@@@@YAHPIAIAAIPIBUBVDataSwizzled@Gu@physx@@PIAUSphereParamsCB@@@Z 100ce160 f i GuBV4_SphereOverlap.obj
 0001:000cd420       ??$BV4_ProcessNodeNoOrder_Swizzled@VLeafFunction_SphereOverlapCB@?A0x207c9de6@@$02USphereParamsCB@@@@YAHPIAIAAIPIBUBVDataSwizzled@Gu@physx@@PIAUSphereParamsCB@@@Z 100ce420 f i GuBV4_SphereOverlap.obj
 0001:000cd6e0       ??$BV4_ProcessNodeNoOrder_Swizzled@VLeafFunction_SphereOverlapCB@?A0x207c9de6@@$0A@USphereParamsCB@@@@YAHPIAIAAIPIBUBVDataSwizzled@Gu@physx@@PIAUSphereParamsCB@@@Z 100ce6e0 f i GuBV4_SphereOverlap.obj
 0001:000cd9a0       ??$setupMeshPointersAndQuantizedCoeffs@USphereParams@@@Gu@physx@@YAXPIAUSphereParams@@PIBVSourceMesh@01@PIBVBV4Tree@01@@Z 100ce9a0 f i GuBV4_SphereOverlap.obj
 0001:000cda60       ??$setupMeshPointersAndQuantizedCoeffs@USphereParamsAll@@@Gu@physx@@YAXPIAUSphereParamsAll@@PIBVSourceMesh@01@PIBVBV4Tree@01@@Z 100cea60 f i GuBV4_SphereOverlap.obj
 0001:000cdb20       ??$setupMeshPointersAndQuantizedCoeffs@USphereParamsCB@@@Gu@physx@@YAXPIAUSphereParamsCB@@PIBVSourceMesh@01@PIBVBV4Tree@01@@Z 100ceb20 f i GuBV4_SphereOverlap.obj
 0001:000cdbe0       ??0SphereParams@@QAE@XZ    100cebe0 f i GuBV4_SphereOverlap.obj
 0001:000cdc30       ??0SphereParamsAll@@QAE@XZ 100cec30 f i GuBV4_SphereOverlap.obj
 0001:000cdc50       ??0SphereParamsCB@@QAE@XZ  100cec50 f i GuBV4_SphereOverlap.obj
 0001:000cdc70       ??1SphereParams@@QAE@XZ    100cec70 f i GuBV4_SphereOverlap.obj
 0001:000cdca0       ??1SphereParamsAll@@QAE@XZ 100ceca0 f i GuBV4_SphereOverlap.obj
 0001:000cdcc0       ??1SphereParamsCB@@QAE@XZ  100cecc0 f i GuBV4_SphereOverlap.obj
 0001:000cdce0       ?computeLocalSphere@Gu@physx@@YAXAAMAAVPxVec3@2@ABVSphere@12@PIBVPxMat44@2@@Z 100cece0 f i GuBV4_SphereOverlap.obj
 0001:000ce240       ?BV4_SphereSweepSingle@@YAHABVSphere@Gu@physx@@ABVPxVec3@3@MABVBV4Tree@23@PIBVPxMat44@3@PIAVSweepHit@23@I@Z 100cf240 f   GuBV4_SphereSweep.obj
 0001:000d0ce0       ?BV4_SphereSweepCB@@YAXABVSphere@Gu@physx@@ABVPxVec3@3@MABVBV4Tree@23@PIBVPxMat44@3@P6A_NPAXABVSweepHit@23@@Z4I_N@Z 100d1ce0 f   GuBV4_SphereSweep.obj
 0001:000d33d0       ?BV4_GenericSweepCB_Old@@YAXABVPxVec3@physx@@00MABVBV4Tree@Gu@2@PIBVPxMat44@2@P6A_NPAX000IAAM@Z3@Z 100d43d0 f   GuBV4_SphereSweep.obj
 0001:000d6550       ??$reportUnlimitedCallbackHit@USphereSweepParamsCB@?A0x478e3210@@@Gu@physx@@YAXPIAUSphereSweepParamsCB@?A0x478e3210@@ABVSweepHit@01@@Z 100d7550 f i GuBV4_SphereSweep.obj
 0001:000d65a0       ??$setupMeshPointersAndQuantizedCoeffs@UBoxSweepParamsCB@?A0x478e3210@@@Gu@physx@@YAXPIAUBoxSweepParamsCB@?A0x478e3210@@PIBVSourceMesh@01@PIBVBV4Tree@01@@Z 100d75a0 f i GuBV4_SphereSweep.obj
 0001:000d6660       ??$setupMeshPointersAndQuantizedCoeffs@USphereSweepParams@?A0x478e3210@@@Gu@physx@@YAXPIAUSphereSweepParams@?A0x478e3210@@PIBVSourceMesh@01@PIBVBV4Tree@01@@Z 100d7660 f i GuBV4_SphereSweep.obj
 0001:000d6720       ??$setupMeshPointersAndQuantizedCoeffs@USphereSweepParamsCB@?A0x478e3210@@@Gu@physx@@YAXPIAUSphereSweepParamsCB@?A0x478e3210@@PIBVSourceMesh@01@PIBVBV4Tree@01@@Z 100d7720 f i GuBV4_SphereSweep.obj
 0001:000d67e0       ??$setupParamsFlags@USphereSweepParams@?A0x478e3210@@@Gu@physx@@YAXPIAUSphereSweepParams@?A0x478e3210@@I@Z 100d77e0 f i GuBV4_SphereSweep.obj
 0001:000d6830       ??$setupParamsFlags@USphereSweepParamsCB@?A0x478e3210@@@Gu@physx@@YAXPIAUSphereSweepParamsCB@?A0x478e3210@@I@Z 100d7830 f i GuBV4_SphereSweep.obj
 0001:000d68f0       ??0Sphere@Gu@physx@@QAE@XZ 100d78f0 f i GuBV4_SphereSweep.obj
 0001:000d6aa0       ??4Sphere@Gu@physx@@QAEAAV012@ABV012@@Z 100d7aa0 f i GuBV4_SphereSweep.obj
 0001:000d6e90       ?getTriangle@PxMeshQuery@physx@@SAXABVPxTriangleMeshGeometry@2@ABVPxTransform@2@IAAVPxTriangle@2@PAI3@Z 100d7e90 f   GuMeshQuery.obj
 0001:000d6f60       ?getTriangle@PxMeshQuery@physx@@SAXABVPxHeightFieldGeometry@2@ABVPxTransform@2@IAAVPxTriangle@2@PAI3@Z 100d7f60 f   GuMeshQuery.obj
 0001:000d6fa0       ?findOverlapTriangleMesh@PxMeshQuery@physx@@SAIABVPxGeometry@2@ABVPxTransform@2@ABVPxTriangleMeshGeometry@2@1PAIIIAA_N@Z 100d7fa0 f   GuMeshQuery.obj
 0001:000d7170       ?findOverlapHeightField@PxMeshQuery@physx@@SAIABVPxGeometry@2@ABVPxTransform@2@ABVPxHeightFieldGeometry@2@1PAIIIAA_N@Z 100d8170 f   GuMeshQuery.obj
 0001:000d73f0       ?sweep@PxMeshQuery@physx@@SA_NABVPxVec3@2@MABVPxGeometry@2@ABVPxTransform@2@IPBVPxTriangle@2@AAUPxSweepHit@2@V?$PxFlags@W4Enum@PxHitFlag@physx@@G@2@PBIM_N@Z 100d83f0 f   GuMeshQuery.obj
 0001:000d7890       ?intersectOBB_Particles@Gu@physx@@YAXPBVTriangleMesh@12@ABVBox@12@AAU?$MeshHitCallback@UPxRaycastHit@physx@@@12@_N3@Z 100d8890 f   GuMeshQuery.obj
 0001:000d7bd0       ??0LimitedResults@Gu@physx@@QAE@PAIII@Z 100d8bd0 f i GuMeshQuery.obj
 0001:000d7c10       ??0PxBoxGeometry@physx@@QAE@XZ 100d8c10 f i GuMeshQuery.obj
 0001:000d7c60       ??0PxCapsuleGeometry@physx@@QAE@MM@Z 100d8c60 f i GuMeshQuery.obj
 0001:000d7cb0       ??0PxProfileScoped@physx@@QAE@PBD_N_K@Z 100d8cb0 f i GuMeshQuery.obj
 0001:000d7d50       ??0SIMDGuard@shdfnd@physx@@QAE@XZ 100d8d50 f i GuMeshQuery.obj
 0001:000d7db0       ??1PxProfileScoped@physx@@QAE@XZ 100d8db0 f i GuMeshQuery.obj
 0001:000d7e10       ??1SIMDGuard@shdfnd@physx@@QAE@XZ 100d8e10 f i GuMeshQuery.obj
 0001:000d7e40       ??4PxBoxGeometry@physx@@QAEAAV01@ABV01@@Z 100d8e40 f i GuMeshQuery.obj
 0001:000d7e80       ??Dphysx@@YA?AVMatrix34@Cm@0@ABVPxTransform@0@ABVPxMeshScale@0@@Z 100d8e80 f i GuMeshQuery.obj
 0001:000d7ee0       ??_GHfTrianglesEntityReport2@?A0x622f8541@@UAEPAXI@Z 100d8ee0 f i GuMeshQuery.obj
 0001:000d7ee0       ??_EHfTrianglesEntityReport2@?A0x622f8541@@UAEPAXI@Z 100d8ee0 f i GuMeshQuery.obj
 0001:000d7f20       ?add@LimitedResults@Gu@physx@@QAE_NI@Z 100d8f20 f i GuMeshQuery.obj
 0001:000d7fa0       ?computeWorldTriangle@TriangleMesh@Gu@physx@@QBEXAAVPxTriangle@3@IABVMatrix34@Cm@3@_NPIAI3@Z 100d8fa0 f i GuMeshQuery.obj
 0001:000d82a0       ?getAdjacencies@TriangleMesh@Gu@physx@@QBEPBIXZ 100d92a0 f i GuMeshQuery.obj
 0001:000d82c0       ?getCapsule@Gu@physx@@YAXAAVCapsule@12@ABVPxCapsuleGeometry@2@ABVPxTransform@2@@Z 100d92c0 f i GuMeshQuery.obj
 0001:000d82f0       ?getTrianglesFast@TriangleMesh@Gu@physx@@QBEPBXXZ 100d92f0 f i GuMeshQuery.obj
 0001:000d8310       ?getVerticesFast@TriangleMesh@Gu@physx@@QBEPBVPxVec3@3@XZ 100d9310 f i GuMeshQuery.obj
 0001:000d8330       ?has16BitIndices@TriangleMesh@Gu@physx@@QBE_NXZ 100d9330 f i GuMeshQuery.obj
 0001:000d8360       ?hasNegativeDeterminant@PxMeshScale@physx@@QBE_NXZ 100d9360 f i GuMeshQuery.obj
 0001:000d83b0       ?intersectBoxVsMesh@Midphase@Gu@physx@@YA_NABVBox@23@ABVTriangleMesh@23@ABVPxTransform@3@ABVPxMeshScale@3@PAULimitedResults@23@@Z 100d93b0 f i GuMeshQuery.obj
 0001:000d8400       ?intersectCapsuleVsMesh@Midphase@Gu@physx@@YA_NABVCapsule@23@ABVTriangleMesh@23@ABVPxTransform@3@ABVPxMeshScale@3@PAULimitedResults@23@@Z 100d9400 f i GuMeshQuery.obj
 0001:000d8450       ?intersectSphereVsMesh@Midphase@Gu@physx@@YA_NABVSphere@23@ABVTriangleMesh@23@ABVPxTransform@3@ABVPxMeshScale@3@PAULimitedResults@23@@Z 100d9450 f i GuMeshQuery.obj
 0001:000d84a0       ?isValid@PxTransform@physx@@QBE_NXZ 100d94a0 f i GuMeshQuery.obj
 0001:000d8690       ?poseExtent@PxBounds3@physx@@SA?AV12@ABVPxTransform@2@ABVPxVec3@2@@Z 100d9690 f i GuMeshQuery.obj
 0001:000d86d0       ?reset@LimitedResults@Gu@physx@@QAEXXZ 100d96d0 f i GuMeshQuery.obj
 0001:000d87e0       ?raycast_triangleMesh_BV4@Gu@physx@@YAIPBVTriangleMesh@12@ABVPxTriangleMeshGeometry@2@ABVPxTransform@2@ABVPxVec3@2@3MV?$PxFlags@W4Enum@PxHitFlag@physx@@G@2@IPIAUPxRaycastHit@2@@Z 100d97e0 f   GuMidphaseBV4.obj
 0001:000d8d60       ?intersectSphereVsMesh_BV4@Gu@physx@@YA_NABVSphere@12@ABVTriangleMesh@12@ABVPxTransform@2@ABVPxMeshScale@2@PAULimitedResults@12@@Z 100d9d60 f   GuMidphaseBV4.obj
 0001:000d8f60       ?intersectBoxVsMesh_BV4@Gu@physx@@YA_NABVBox@12@ABVTriangleMesh@12@ABVPxTransform@2@ABVPxMeshScale@2@PAULimitedResults@12@@Z 100d9f60 f   GuMidphaseBV4.obj
 0001:000d9120       ?intersectCapsuleVsMesh_BV4@Gu@physx@@YA_NABVCapsule@12@ABVTriangleMesh@12@ABVPxTransform@2@ABVPxMeshScale@2@PAULimitedResults@12@@Z 100da120 f   GuMidphaseBV4.obj
 0001:000d9310       ?intersectOBB_BV4@Gu@physx@@YAXPBVTriangleMesh@12@ABVBox@12@AAU?$MeshHitCallback@UPxRaycastHit@physx@@@12@_N3@Z 100da310 f   GuMidphaseBV4.obj
 0001:000d9350       ?sweepCapsule_MeshGeom_BV4@Gu@physx@@YA_NPBVTriangleMesh@12@ABVPxTriangleMeshGeometry@2@ABVPxTransform@2@ABVCapsule@12@ABVPxVec3@2@MAAUPxSweepHit@2@V?$PxFlags@W4Enum@PxHitFlag@physx@@G@2@M@Z 100da350 f   GuMidphaseBV4.obj
 0001:000d99a0       ?sweepBox_MeshGeom_BV4@Gu@physx@@YA_NPBVTriangleMesh@12@ABVPxTriangleMeshGeometry@2@ABVPxTransform@2@ABVBox@12@ABVPxVec3@2@MAAUPxSweepHit@2@V?$PxFlags@W4Enum@PxHitFlag@physx@@G@2@M@Z 100da9a0 f   GuMidphaseBV4.obj
 0001:000da180       ?sweepConvex_MeshGeom_BV4@Gu@physx@@YAXPBVTriangleMesh@12@ABVBox@12@ABVPxVec3@2@MAAUSweepConvexMeshHitCallback@12@_N@Z 100db180 f   GuMidphaseBV4.obj
 0001:000dbb40       ??0?$PxFlags@W4Enum@PxMeshGeometryFlag@physx@@E@physx@@QAE@ABV01@@Z 100dcb40 f i GuMidphaseBV4.obj
 0001:000dbb60       ??0BV4RaycastCBParams@@QAE@PAUPxRaycastHit@physx@@IPBVPxMeshScale@2@PBVPxTransform@2@PBVMatrix34@Cm@2@IABVPxVec3@2@_NM@Z 100dcb60 f i GuMidphaseBV4.obj
 0001:000dbbf0       ??0CapsuleV@Gu@physx@@QAE@XZ 100dcbf0 f i GuMidphaseBV4.obj
 0001:000dbfa0       ??0Matrix34Padded@Gu@physx@@QAE@ABVMatrix34@Cm@2@@Z 100dcfa0 f i GuMidphaseBV4.obj
 0001:000dbfd0       ??0PxRaycastHit@physx@@QAE@XZ 100dcfd0 f i GuMidphaseBV4.obj
 0001:000dc060       ??1Matrix34Padded@Gu@physx@@QAE@XZ 100dd060 f i GuMidphaseBV4.obj
 0001:000dc070       ??1SweepBoxMeshHitCallback@Gu@physx@@UAE@XZ 100dd070 f i GuMidphaseBV4.obj
 0001:000dc0a0       ??1SweepCapsuleMeshHitCallback@Gu@physx@@UAE@XZ 100dd0a0 f i GuMidphaseBV4.obj
 0001:000dc0c0       ??1SweepShapeMeshHitCallback@Gu@physx@@UAE@XZ 100dd0c0 f i GuMidphaseBV4.obj
 0001:000dc0e0       ??4PxLocationHit@physx@@QAEAAU01@ABU01@@Z 100dd0e0 f i GuMidphaseBV4.obj
 0001:000dc170       ??4PxRaycastHit@physx@@QAEAAU01@ABU01@@Z 100dd170 f i GuMidphaseBV4.obj
 0001:000dc1f0       ??B?$PxFlags@W4Enum@PxMeshGeometryFlag@physx@@E@physx@@QBE_NXZ 100dd1f0 f i GuMidphaseBV4.obj
 0001:000dc220       ??I?$PxFlags@W4Enum@PxMeshGeometryFlag@physx@@E@physx@@QBE?AV01@W4Enum@PxMeshGeometryFlag@1@@Z 100dd220 f i GuMidphaseBV4.obj
 0001:000dc270       ??_GSweepBoxMeshHitCallback@Gu@physx@@UAEPAXI@Z 100dd270 f i GuMidphaseBV4.obj
 0001:000dc270       ??_ESweepBoxMeshHitCallback@Gu@physx@@UAEPAXI@Z 100dd270 f i GuMidphaseBV4.obj
 0001:000dc2b0       ?basisExtent@Cm@physx@@YA?AVPxVec3@2@ABV32@000@Z 100dd2b0 f i GuMidphaseBV4.obj
 0001:000dc4c0       ?computeSweepData@physx@@YAMABVPxTriangleMeshGeometry@1@AAVPxVec3@1@11M@Z 100dd4c0 f i GuMidphaseBV4.obj
 0001:000dc690       ?getBV4Tree@BV4TriangleMesh@Gu@physx@@QBEABVBV4Tree@23@XZ 100dd690 f i GuMidphaseBV4.obj
 0001:000dc6b0       ?getGeomEpsilon@TriangleMesh@Gu@physx@@QBEMXZ 100dd6b0 f i GuMidphaseBV4.obj
 0001:000dc6d0       ?getInverse@physx@@YAXAAVPxMat33@1@AAVPxVec3@1@ABV21@ABV31@@Z 100dd6d0 f i GuMidphaseBV4.obj
 0001:000dc730       ?initialize@CapsuleV@Gu@physx@@QAEXABT__m128@@00@Z 100dd730 f i GuMidphaseBV4.obj
 0001:000dc830       ?isSet@?$PxFlags@W4Enum@PxMeshGeometryFlag@physx@@E@physx@@QBE_NW4Enum@PxMeshGeometryFlag@2@@Z 100dd830 f i GuMidphaseBV4.obj
 0001:000dc880       ?multiply@PxVec3@physx@@QBE?AV12@ABV12@@Z 100dd880 f i GuMidphaseBV4.obj
 0001:000dc8f0       ?normalizeSafe@PxVec3@physx@@QAEMXZ 100dd8f0 f i GuMidphaseBV4.obj
 0001:000dcdf0       ?setupSweepHitForMTD@Gu@physx@@YAXAAUPxSweepHit@2@_NABVPxVec3@2@@Z 100dddf0 f i GuMidphaseBV4.obj
 0001:000dce80       ?transform@PxMeshScale@physx@@QBE?AVPxVec3@2@ABV32@@Z 100dde80 f i GuMidphaseBV4.obj
 0001:000dcfc0       ?raycast_triangleMesh_RTREE@Gu@physx@@YAIPBVTriangleMesh@12@ABVPxTriangleMeshGeometry@2@ABVPxTransform@2@ABVPxVec3@2@3MV?$PxFlags@W4Enum@PxHitFlag@physx@@G@2@IPIAUPxRaycastHit@2@@Z 100ddfc0 f   GuMidphaseRTree.obj
 0001:000dd260       ?intersectSphereVsMesh_RTREE@Gu@physx@@YA_NABVSphere@12@ABVTriangleMesh@12@ABVPxTransform@2@ABVPxMeshScale@2@PAULimitedResults@12@@Z 100de260 f   GuMidphaseRTree.obj
 0001:000dd290       ?intersectBoxVsMesh_RTREE@Gu@physx@@YA_NABVBox@12@ABVTriangleMesh@12@ABVPxTransform@2@ABVPxMeshScale@2@PAULimitedResults@12@@Z 100de290 f   GuMidphaseRTree.obj
 0001:000dd2c0       ?intersectCapsuleVsMesh_RTREE@Gu@physx@@YA_NABVCapsule@12@ABVTriangleMesh@12@ABVPxTransform@2@ABVPxMeshScale@2@PAULimitedResults@12@@Z 100de2c0 f   GuMidphaseRTree.obj
 0001:000dd2f0       ?intersectOBB_RTREE@Gu@physx@@YAXPBVTriangleMesh@12@ABVBox@12@AAU?$MeshHitCallback@UPxRaycastHit@physx@@@12@_N3@Z 100de2f0 f   GuMidphaseRTree.obj
 0001:000dd320       ?sweepCapsule_MeshGeom_RTREE@Gu@physx@@YA_NPBVTriangleMesh@12@ABVPxTriangleMeshGeometry@2@ABVPxTransform@2@ABVCapsule@12@ABVPxVec3@2@MAAUPxSweepHit@2@V?$PxFlags@W4Enum@PxHitFlag@physx@@G@2@M@Z 100de320 f   GuMidphaseRTree.obj
 0001:000dd600       ?sweepBox_MeshGeom_RTREE@Gu@physx@@YA_NPBVTriangleMesh@12@ABVPxTriangleMeshGeometry@2@ABVPxTransform@2@ABVBox@12@ABVPxVec3@2@MAAUPxSweepHit@2@V?$PxFlags@W4Enum@PxHitFlag@physx@@G@2@M@Z 100de600 f   GuMidphaseRTree.obj
 0001:000ddbc0       ?sweepConvex_MeshGeom_RTREE@Gu@physx@@YAXPBVTriangleMesh@12@ABVBox@12@ABVPxVec3@2@MAAUSweepConvexMeshHitCallback@12@_N@Z 100debc0 f   GuMidphaseRTree.obj
 0001:000ddc70       ?collideOBB@MeshRayCollider@@SAXABVBox@Gu@physx@@_NPBVRTreeTriangleMesh@34@AAU?$MeshHitCallback@UPxRaycastHit@physx@@@34@1@Z 100dec70 f   GuMidphaseRTree.obj
 0001:000e1a60       ??$collide@$00$00@MeshRayCollider@@SAXABVPxVec3@physx@@0M_NPBVRTreeTriangleMesh@Gu@2@AAU?$MeshHitCallback@UPxRaycastHit@physx@@@42@PBV12@@Z 100e2a60 f i GuMidphaseRTree.obj
 0001:000e1cb0       ??$collide@$00$0A@@MeshRayCollider@@SAXABVPxVec3@physx@@0M_NPBVRTreeTriangleMesh@Gu@2@AAU?$MeshHitCallback@UPxRaycastHit@physx@@@42@PBV12@@Z 100e2cb0 f i GuMidphaseRTree.obj
 0001:000e1f00       ??$collide@$0A@$00@MeshRayCollider@@SAXABVPxVec3@physx@@0M_NPBVRTreeTriangleMesh@Gu@2@AAU?$MeshHitCallback@UPxRaycastHit@physx@@@42@PBV12@@Z 100e2f00 f i GuMidphaseRTree.obj
 0001:000e2140       ??$collide@$0A@$0A@@MeshRayCollider@@SAXABVPxVec3@physx@@0M_NPBVRTreeTriangleMesh@Gu@2@AAU?$MeshHitCallback@UPxRaycastHit@physx@@@42@PBV12@@Z 100e3140 f i GuMidphaseRTree.obj
 0001:000e25c0       ??0?$RayRTreeCallback@$00$00@@QAE@MAAU?$MeshHitCallback@UPxRaycastHit@physx@@@Gu@physx@@HPBXPBVPxVec3@3@ABV43@3M_N2@Z 100e35c0 f i GuMidphaseRTree.obj
 0001:000e27e0       ??0?$RayRTreeCallback@$00$0A@@@QAE@MAAU?$MeshHitCallback@UPxRaycastHit@physx@@@Gu@physx@@HPBXPBVPxVec3@3@ABV43@3M_N2@Z 100e37e0 f i GuMidphaseRTree.obj
 0001:000e2a00       ??0?$RayRTreeCallback@$0A@$00@@QAE@MAAU?$MeshHitCallback@UPxRaycastHit@physx@@@Gu@physx@@HPBXPBVPxVec3@3@ABV43@3M_N2@Z 100e3a00 f i GuMidphaseRTree.obj
 0001:000e2c20       ??0?$RayRTreeCallback@$0A@$0A@@@QAE@MAAU?$MeshHitCallback@UPxRaycastHit@physx@@@Gu@physx@@HPBXPBVPxVec3@3@ABV43@3M_N2@Z 100e3c20 f i GuMidphaseRTree.obj
 0001:000e2e40       ??0Callback@RTree@Gu@physx@@QAE@XZ 100e3e40 f i GuMidphaseRTree.obj
 0001:000e2e60       ??0CallbackRaycast@RTree@Gu@physx@@QAE@XZ 100e3e60 f i GuMidphaseRTree.obj
 0001:000e2ee0       ??0PxLocationHit@physx@@QAE@ABU01@@Z 100e3ee0 f i GuMidphaseRTree.obj
 0001:000e2f70       ??0PxRaycastHit@physx@@QAE@ABU01@@Z 100e3f70 f i GuMidphaseRTree.obj
 0001:000e2fe0       ??0RayMeshColliderCallback@@QAE@W4Enum@CallbackMode@Gu@physx@@PAUPxRaycastHit@4@IPBVPxMeshScale@4@PBVPxTransform@4@PBVMatrix34@Cm@4@IABVPxVec3@4@_NM@Z 100e3fe0 f i GuMidphaseRTree.obj
 0001:000e3090       ??0SimpleRayTriOverlap@@QAE@ABVPxVec3@physx@@0_NM@Z 100e4090 f i GuMidphaseRTree.obj
 0001:000e3230       ??1?$RayRTreeCallback@$00$00@@UAE@XZ 100e4230 f i GuMidphaseRTree.obj
 0001:000e3340       ??1?$RayRTreeCallback@$00$0A@@@UAE@XZ 100e4340 f i GuMidphaseRTree.obj
 0001:000e3450       ??1?$RayRTreeCallback@$0A@$00@@UAE@XZ 100e4450 f i GuMidphaseRTree.obj
 0001:000e3560       ??1?$RayRTreeCallback@$0A@$0A@@@UAE@XZ 100e4560 f i GuMidphaseRTree.obj
 0001:000e3670       ??1Callback@RTree@Gu@physx@@UAE@XZ 100e4670 f i GuMidphaseRTree.obj
 0001:000e3690       ??1CallbackRaycast@RTree@Gu@physx@@UAE@XZ 100e4690 f i GuMidphaseRTree.obj
 0001:000e36e0       ??1RayMeshColliderCallback@@UAE@XZ 100e46e0 f i GuMidphaseRTree.obj
 0001:000e36f7       ??_E?$RayRTreeCallback@$00$00@@W3AEPAXI@Z 100e46f7 f i GuMidphaseRTree.obj
 0001:000e3701       ??_E?$RayRTreeCallback@$00$0A@@@W3AEPAXI@Z 100e4701 f i GuMidphaseRTree.obj
 0001:000e370b       ??_E?$RayRTreeCallback@$0A@$00@@W3AEPAXI@Z 100e470b f i GuMidphaseRTree.obj
 0001:000e3715       ??_E?$RayRTreeCallback@$0A@$0A@@@W3AEPAXI@Z 100e4715 f i GuMidphaseRTree.obj
 0001:000e3720       ??_G?$IntersectBoxVsMeshCallback@$00@?A0x4db54ca9@@UAEPAXI@Z 100e4720 f i GuMidphaseRTree.obj
 0001:000e3720       ??_E?$IntersectBoxVsMeshCallback@$00@?A0x4db54ca9@@UAEPAXI@Z 100e4720 f i GuMidphaseRTree.obj
 0001:000e3760       ??_E?$IntersectBoxVsMeshCallback@$0A@@?A0x4db54ca9@@UAEPAXI@Z 100e4760 f i GuMidphaseRTree.obj
 0001:000e3760       ??_G?$IntersectBoxVsMeshCallback@$0A@@?A0x4db54ca9@@UAEPAXI@Z 100e4760 f i GuMidphaseRTree.obj
 0001:000e37a0       ??_G?$IntersectCapsuleVsMeshCallback@$00@?A0x4db54ca9@@UAEPAXI@Z 100e47a0 f i GuMidphaseRTree.obj
 0001:000e37a0       ??_E?$IntersectCapsuleVsMeshCallback@$00@?A0x4db54ca9@@UAEPAXI@Z 100e47a0 f i GuMidphaseRTree.obj
 0001:000e37e0       ??_G?$IntersectCapsuleVsMeshCallback@$0A@@?A0x4db54ca9@@UAEPAXI@Z 100e47e0 f i GuMidphaseRTree.obj
 0001:000e37e0       ??_E?$IntersectCapsuleVsMeshCallback@$0A@@?A0x4db54ca9@@UAEPAXI@Z 100e47e0 f i GuMidphaseRTree.obj
 0001:000e3820       ??_G?$IntersectSphereVsMeshCallback@$00@?A0x4db54ca9@@UAEPAXI@Z 100e4820 f i GuMidphaseRTree.obj
 0001:000e3820       ??_E?$IntersectSphereVsMeshCallback@$00@?A0x4db54ca9@@UAEPAXI@Z 100e4820 f i GuMidphaseRTree.obj
 0001:000e3860       ??_E?$IntersectSphereVsMeshCallback@$0A@@?A0x4db54ca9@@UAEPAXI@Z 100e4860 f i GuMidphaseRTree.obj
 0001:000e3860       ??_G?$IntersectSphereVsMeshCallback@$0A@@?A0x4db54ca9@@UAEPAXI@Z 100e4860 f i GuMidphaseRTree.obj
 0001:000e38a0       ??_G?$RayRTreeCallback@$00$00@@UAEPAXI@Z 100e48a0 f i GuMidphaseRTree.obj
 0001:000e38a0       ??_E?$RayRTreeCallback@$00$00@@UAEPAXI@Z 100e48a0 f i GuMidphaseRTree.obj
 0001:000e38e0       ??_E?$RayRTreeCallback@$00$0A@@@UAEPAXI@Z 100e48e0 f i GuMidphaseRTree.obj
 0001:000e38e0       ??_G?$RayRTreeCallback@$00$0A@@@UAEPAXI@Z 100e48e0 f i GuMidphaseRTree.obj
 0001:000e3920       ??_E?$RayRTreeCallback@$0A@$00@@UAEPAXI@Z 100e4920 f i GuMidphaseRTree.obj
 0001:000e3920       ??_G?$RayRTreeCallback@$0A@$00@@UAEPAXI@Z 100e4920 f i GuMidphaseRTree.obj
 0001:000e3960       ??_E?$RayRTreeCallback@$0A@$0A@@@UAEPAXI@Z 100e4960 f i GuMidphaseRTree.obj
 0001:000e3960       ??_G?$RayRTreeCallback@$0A@$0A@@@UAEPAXI@Z 100e4960 f i GuMidphaseRTree.obj
 0001:000e39a0       ??_ECallback@RTree@Gu@physx@@UAEPAXI@Z 100e49a0 f i GuMidphaseRTree.obj
 0001:000e39a0       ??_GCallback@RTree@Gu@physx@@UAEPAXI@Z 100e49a0 f i GuMidphaseRTree.obj
 0001:000e39e0       ??_ECallbackRaycast@RTree@Gu@physx@@UAEPAXI@Z 100e49e0 f i GuMidphaseRTree.obj
 0001:000e39e0       ??_GCallbackRaycast@RTree@Gu@physx@@UAEPAXI@Z 100e49e0 f i GuMidphaseRTree.obj
 0001:000e3a20       ??_EIntersectShapeVsMeshCallback@?A0x4db54ca9@@UAEPAXI@Z 100e4a20 f i GuMidphaseRTree.obj
 0001:000e3a20       ??_GIntersectShapeVsMeshCallback@?A0x4db54ca9@@UAEPAXI@Z 100e4a20 f i GuMidphaseRTree.obj
 0001:000e3a60       ??_GRayMeshColliderCallback@@UAEPAXI@Z 100e4a60 f i GuMidphaseRTree.obj
 0001:000e3a60       ??_ERayMeshColliderCallback@@UAEPAXI@Z 100e4a60 f i GuMidphaseRTree.obj
 0001:000e3aa0       ?GetNbTriangles@LeafTriangles@Gu@physx@@QBEIXZ 100e4aa0 f i GuMidphaseRTree.obj
 0001:000e3ac0       ?GetTriangleIndex@LeafTriangles@Gu@physx@@QBEIXZ 100e4ac0 f i GuMidphaseRTree.obj
 0001:000e3ae0       ?LeafGetNbTriangles@Gu@physx@@YAII@Z 100e4ae0 f i GuMidphaseRTree.obj
 0001:000e3b00       ?LeafGetTriangleIndex@Gu@physx@@YAII@Z 100e4b00 f i GuMidphaseRTree.obj
 0001:000e3b10       ?getRTree@RTreeTriangleMesh@Gu@physx@@QBEABURTree@23@XZ 100e4b10 f i GuMidphaseRTree.obj
 0001:000e3b30       ?getVertIndices@?$RayRTreeCallback@$00$00@@QAEXIAAI00@Z 100e4b30 f i GuMidphaseRTree.obj
 0001:000e3c10       ?getVertIndices@?$RayRTreeCallback@$00$0A@@@QAEXIAAI00@Z 100e4c10 f i GuMidphaseRTree.obj
 0001:000e3cf0       ?getVertIndices@?$RayRTreeCallback@$0A@$00@@QAEXIAAI00@Z 100e4cf0 f i GuMidphaseRTree.obj
 0001:000e3dd0       ?getVertIndices@?$RayRTreeCallback@$0A@$0A@@@QAEXIAAI00@Z 100e4dd0 f i GuMidphaseRTree.obj
 0001:000e3eb0       ?inAnyMode@?$MeshHitCallback@UPxRaycastHit@physx@@@Gu@physx@@QBE_NXZ 100e4eb0 f i GuMidphaseRTree.obj
 0001:000e3ef0       ?inClosestMode@?$MeshHitCallback@UPxRaycastHit@physx@@@Gu@physx@@QBE_NXZ 100e4ef0 f i GuMidphaseRTree.obj
 0001:000e3f30       ?largestAxis@shdfnd@physx@@YAIABVPxVec3@2@AAI1@Z 100e4f30 f i GuMidphaseRTree.obj
 0001:000e3ff0       ?overlap@SimpleRayTriOverlap@@QBEHABVPxVec3@physx@@00AAUPxRaycastHit@3@@Z 100e4ff0 f i GuMidphaseRTree.obj
 0001:000e4e40       ?processHit@RayMeshColliderCallback@@UAE_NABUPxRaycastHit@physx@@ABVPxVec3@3@11AAMPBI@Z 100e5e40 f i GuMidphaseRTree.obj
 0001:000e5190       ?processResults@?$RayRTreeCallback@$00$00@@UAE_NIPAI@Z 100e6190 f i GuMidphaseRTree.obj
 0001:000e51c0       ?processResults@?$RayRTreeCallback@$00$00@@UAE_NIPAIAAM@Z 100e61c0 f i GuMidphaseRTree.obj
 0001:000e5840       ?processResults@?$RayRTreeCallback@$00$0A@@@UAE_NIPAI@Z 100e6840 f i GuMidphaseRTree.obj
 0001:000e5870       ?processResults@?$RayRTreeCallback@$00$0A@@@UAE_NIPAIAAM@Z 100e6870 f i GuMidphaseRTree.obj
 0001:000e5ee0       ?processResults@?$RayRTreeCallback@$0A@$00@@UAE_NIPAI@Z 100e6ee0 f i GuMidphaseRTree.obj
 0001:000e5f10       ?processResults@?$RayRTreeCallback@$0A@$00@@UAE_NIPAIAAM@Z 100e6f10 f i GuMidphaseRTree.obj
 0001:000e6580       ?processResults@?$RayRTreeCallback@$0A@$0A@@@UAE_NIPAI@Z 100e7580 f i GuMidphaseRTree.obj
 0001:000e65b0       ?processResults@?$RayRTreeCallback@$0A@$0A@@@UAE_NIPAIAAM@Z 100e75b0 f i GuMidphaseRTree.obj
 0001:000e6c20       ?profile@Callback@RTree@Gu@physx@@UAEXXZ 100e7c20 f i GuMidphaseRTree.obj
 0001:000e6c80       ?transformBoxOrthonormal@physx@@YA?AVBox@Gu@1@ABV231@ABVPxTransform@1@@Z 100e7c80 f i GuMidphaseRTree.obj
 0001:000e6d60       ?checkOverlapAABB_triangleGeom@Gu@physx@@YA_NABVPxGeometry@2@ABVPxTransform@2@ABVPxBounds3@2@@Z 100e7d60 f   GuOverlapTestsMesh.obj
 0001:000e6eb0       ?GeomOverlapCallback_SphereMesh@@YA_NABVPxGeometry@physx@@ABVPxTransform@2@01PAUTriggerCache@Gu@2@@Z 100e7eb0 f   GuOverlapTestsMesh.obj
 0001:000e6fa0       ?GeomOverlapCallback_CapsuleMesh@@YA_NABVPxGeometry@physx@@ABVPxTransform@2@01PAUTriggerCache@Gu@2@@Z 100e7fa0 f   GuOverlapTestsMesh.obj
 0001:000e7090       ?GeomOverlapCallback_BoxMesh@@YA_NABVPxGeometry@physx@@ABVPxTransform@2@01PAUTriggerCache@Gu@2@@Z 100e8090 f   GuOverlapTestsMesh.obj
 0001:000e7190       ?GeomOverlapCallback_ConvexMesh@@YA_NABVPxGeometry@physx@@ABVPxTransform@2@01PAUTriggerCache@Gu@2@@Z 100e8190 f   GuOverlapTestsMesh.obj
 0001:000e75a0       ??$PX_UNUSED@PAUTriggerCache@Gu@physx@@@@YAXABQAUTriggerCache@Gu@physx@@@Z 100e85a0 f i GuOverlapTestsMesh.obj
 0001:000e75b0       ??$gjk@U?$RelativeConvex@VTriangleV@Gu@physx@@@Gu@physx@@U?$LocalConvex@VConvexHullV@Gu@physx@@@23@@Gu@physx@@YA?AW4GjkStatus@01@ABU?$RelativeConvex@VTriangleV@Gu@physx@@@01@ABU?$LocalConvex@VConvexHullV@Gu@physx@@@01@ABT__m128@@2AAT5@333@Z 100e85b0 f i GuOverlapTestsMesh.obj
 0001:000e81a0       ??0?$RelativeConvex@VTriangleV@Gu@physx@@@Gu@physx@@QAE@ABVTriangleV@12@ABVPsMatTransformV@aos@shdfnd@2@@Z 100e91a0 f i GuOverlapTestsMesh.obj
 0001:000e8220       ??0ConvexHullV@Gu@physx@@QAE@XZ 100e9220 f i GuOverlapTestsMesh.obj
 0001:000e8260       ??0ConvexVsMeshOverlapCallback@@QAE@ABVConvexMesh@Gu@physx@@ABVPxMeshScale@3@ABVFastVertex2ShapeScaling@Cm@3@ABVPxTransform@3@3_NABVBox@23@@Z 100e9260 f i GuOverlapTestsMesh.obj
 0001:000e8650       ??0PsMatTransformV@aos@shdfnd@physx@@QAE@ABT__m128@@ABUMat33V@123@@Z 100e9650 f i GuOverlapTestsMesh.obj
 0001:000e86a0       ??0PsMatTransformV@aos@shdfnd@physx@@QAE@XZ 100e96a0 f i GuOverlapTestsMesh.obj
 0001:000e8720       ??1?$RelativeConvex@VTriangleV@Gu@physx@@@Gu@physx@@UAE@XZ 100e9720 f i GuOverlapTestsMesh.obj
 0001:000e8740       ??1ConvexVsMeshOverlapCallback@@UAE@XZ 100e9740 f i GuOverlapTestsMesh.obj
 0001:000e8770       ??_E?$RelativeConvex@VTriangleV@Gu@physx@@@Gu@physx@@UAEPAXI@Z 100e9770 f i GuOverlapTestsMesh.obj
 0001:000e8770       ??_G?$RelativeConvex@VTriangleV@Gu@physx@@@Gu@physx@@UAEPAXI@Z 100e9770 f i GuOverlapTestsMesh.obj
 0001:000e87b0       ??_EConvexVsMeshOverlapCallback@@UAEPAXI@Z 100e97b0 f i GuOverlapTestsMesh.obj
 0001:000e87b0       ??_GConvexVsMeshOverlapCallback@@UAEPAXI@Z 100e97b0 f i GuOverlapTestsMesh.obj
 0001:000e87f0       ?BAnyTrue3@aos@shdfnd@physx@@YA?AT__m128@@T4@@Z 100e97f0 f i GuOverlapTestsMesh.obj
 0001:000e8890       ?BOr@aos@shdfnd@physx@@YA?AT__m128@@T4@0@Z 100e9890 f i GuOverlapTestsMesh.obj
 0001:000e88e0       ?getSweepMargin@?$RelativeConvex@VTriangleV@Gu@physx@@@Gu@physx@@UBE?AT__m128@@XZ 100e98e0 f i GuOverlapTestsMesh.obj
 0001:000e8910       ?processHit@ConvexVsMeshOverlapCallback@@UAE_NABUPxRaycastHit@physx@@ABVPxVec3@3@11AAMPBI@Z 100e9910 f i GuOverlapTestsMesh.obj
 0001:000e8d50       ?support@?$RelativeConvex@VTriangleV@Gu@physx@@@Gu@physx@@UBE?AT__m128@@ABT4@@Z 100e9d50 f i GuOverlapTestsMesh.obj
 0001:000e8da0       ?support@?$RelativeConvex@VTriangleV@Gu@physx@@@Gu@physx@@UBE?AT__m128@@ABT4@AAHPAT4@@Z 100e9da0 f i GuOverlapTestsMesh.obj
 0001:000e8df0       ?supportPoint@?$RelativeConvex@VTriangleV@Gu@physx@@@Gu@physx@@UBE?AT__m128@@HPAT4@@Z 100e9df0 f i GuOverlapTestsMesh.obj
 0001:000e8e60       ?supportRelative@TriangleV@Gu@physx@@QBE?AT__m128@@ABT4@ABVPsMatTransformV@aos@shdfnd@3@1@Z 100e9e60 f i GuOverlapTestsMesh.obj
 0001:000e8ed0       ?supportRelative@TriangleV@Gu@physx@@QBE?AT__m128@@ABT4@ABVPsMatTransformV@aos@shdfnd@3@1AAHPAT4@@Z 100e9ed0 f i GuOverlapTestsMesh.obj
 0001:000e8f50       ?transform@PsMatTransformV@aos@shdfnd@physx@@QBE?AT__m128@@ABT5@@Z 100e9f50 f i GuOverlapTestsMesh.obj
 0001:000e8fd0       ??0RTree@Gu@physx@@QAE@W4PxEMPTY@2@@Z 100e9fd0 f   GuRTree.obj
 0001:000e9020       ?exportExtraData@RTree@Gu@physx@@QAEXAAVPxSerializationContext@3@@Z 100ea020 f   GuRTree.obj
 0001:000e9060       ?importExtraData@RTree@Gu@physx@@QAEXAAVPxDeserializationContext@3@@Z 100ea060 f   GuRTree.obj
 0001:000e9090       ?save@RTree@Gu@physx@@QBE_NAAVPxOutputStream@3@@Z 100ea090 f   GuRTree.obj
 0001:000e9300       ?load@RTree@Gu@physx@@QAE_NAAVPxInputStream@3@I@Z 100ea300 f   GuRTree.obj
 0001:000e9600       ?refitAllStaticTree@RTree@Gu@physx@@QAEXAAUCallbackRefit@123@PAVPxBounds3@3@@Z 100ea600 f   GuRTree.obj
 0001:000e9ae0       ?validate@RTree@Gu@physx@@QAEXPAUCallbackRefit@123@@Z 100eaae0 f   GuRTree.obj
 0001:000e9b50       ?computeBottomLevelCount@RTree@Gu@physx@@QBEII@Z 100eab50 f   GuRTree.obj
 0001:000e9cd0       ?validateRecursive@RTree@Gu@physx@@IAEXIURTreeNodeQ@23@PAURTreePage@23@PAUCallbackRefit@123@@Z 100eacd0 f   GuRTree.obj
 0001:000ea880       ??$PX_UNUSED@URTreeNodeQ@Gu@physx@@@@YAXABURTreeNodeQ@Gu@physx@@@Z 100eb880 f i GuRTree.obj
 0001:000ea890       ??$readExtraData@URTreePage@Gu@physx@@@PxDeserializationContext@physx@@QAEPAURTreePage@Gu@1@I@Z 100eb890 f i GuRTree.obj
 0001:000ea8d0       ??0?$AlignedAllocator@$0IA@VNonTrackingAllocator@shdfnd@physx@@@shdfnd@physx@@QAE@ABVNonTrackingAllocator@12@@Z 100eb8d0 f i GuRTree.obj
 0001:000ea8f0       ?WriteDwordBuffer@physx@@YAXPBII_NAAVPxOutputStream@1@@Z 100eb8f0 f i GuRTree.obj
 0001:000ea920       ?allocate@?$AlignedAllocator@$0IA@VNonTrackingAllocator@shdfnd@physx@@@shdfnd@physx@@QAEPAXIPBDH@Z 100eb920 f i GuRTree.obj
 0001:000ea9a0       ?computeBounds@RTreePage@Gu@physx@@QAEXAAURTreeNodeQ@23@@Z 100eb9a0 f i GuRTree.obj
 0001:000eabf0       ?deallocate@?$AlignedAllocator@$0IA@VNonTrackingAllocator@shdfnd@physx@@@shdfnd@physx@@QAEXPAX@Z 100ebbf0 f i GuRTree.obj
 0001:000eac40       ?getNode@RTreePage@Gu@physx@@QBEXIAAURTreeNodeQ@23@@Z 100ebc40 f i GuRTree.obj
 0001:000ead30       ?isEmpty@RTreePage@Gu@physx@@QBE_NI@Z 100ebd30 f i GuRTree.obj
 0001:000ead80       ?isLeaf@RTreeNodeQ@Gu@physx@@QBEIXZ 100ebd80 f i GuRTree.obj
 0001:000eada0       ?isLeaf@RTreePage@Gu@physx@@QBEII@Z 100ebda0 f i GuRTree.obj
 0001:000eadc0       ?maximum@PxVec3@physx@@QBE?AV12@ABV12@@Z 100ebdc0 f i GuRTree.obj
 0001:000eae70       ?minimum@PxVec3@physx@@QBE?AV12@ABV12@@Z 100ebe70 f i GuRTree.obj
 0001:000eaf20       ?nodeCount@RTreePage@Gu@physx@@QBEIXZ 100ebf20 f i GuRTree.obj
 0001:000eaf80       ?release@RTree@Gu@physx@@QAEXXZ 100ebf80 f i GuRTree.obj
 0001:000eafe0       ?writeChunk@physx@@YAXCCCCAAVPxOutputStream@1@@Z 100ebfe0 f i GuRTree.obj
 0001:000eb040       ?traverseAABB@RTree@Gu@physx@@QBEXABVPxVec3@3@0IPAIPAUCallback@123@@Z 100ec040 f   GuRTreeQueries.obj
 0001:000eb6e0       ?traverseOBB@RTree@Gu@physx@@QBEXABVBox@23@IPAIPAUCallback@123@@Z 100ec6e0 f   GuRTreeQueries.obj
 0001:000eda30       ??$PX_UNUSED@PAI@@YAXABQAI@Z 100eea30 f i GuRTreeQueries.obj
 0001:000eda40       ??$traverseRay@$00@RTree@Gu@physx@@QBEXABVPxVec3@2@0IPAIPAUCallbackRaycast@012@PBV32@M@Z 100eea40 f i GuRTreeQueries.obj
 0001:000ee940       ??$traverseRay@$0A@@RTree@Gu@physx@@QBEXABVPxVec3@2@0IPAIPAUCallbackRaycast@012@PBV32@M@Z 100ef940 f i GuRTreeQueries.obj
 0001:000ef830       ?U4Load@aos@shdfnd@physx@@YA?AT__m128@@I@Z 100f0830 f i GuRTreeQueries.obj
 0001:000ef870       ?U4StoreA@aos@shdfnd@physx@@YAXT__m128@@PAI@Z 100f0870 f i GuRTreeQueries.obj
 0001:000ef910       ?V4Andc@aos@shdfnd@physx@@YA?AT__m128@@T4@0@Z 100f0910 f i GuRTreeQueries.obj
 0001:000ef980       ?V4IsGrtrV32u@aos@shdfnd@physx@@YA?AT__m128@@T4@0@Z 100f0980 f i GuRTreeQueries.obj
 0001:000ef9d0       ?V4U32Andc@aos@shdfnd@physx@@YA?AT__m128@@T4@0@Z 100f09d0 f i GuRTreeQueries.obj
 0001:000efa50       ?V4U32StoreAligned@aos@shdfnd@physx@@YAXT__m128@@PAT4@@Z 100f0a50 f i GuRTreeQueries.obj
 0001:000efa90       ?Vec4V_From_PxVec3_WUndefined@aos@shdfnd@physx@@YA?AT__m128@@ABVPxVec3@3@@Z 100f0a90 f i GuRTreeQueries.obj
 0001:000efaf0       ?VecU32V_From_BoolV@aos@shdfnd@physx@@YA?AT__m128@@ABT4@@Z 100f0af0 f i GuRTreeQueries.obj
 0001:000efb90       ??0SweepShapeMeshHitCallback@Gu@physx@@QAE@W4Enum@CallbackMode@12@ABV?$PxFlags@W4Enum@PxHitFlag@physx@@G@2@_NM@Z 100f0b90 f   GuSweepsMesh.obj
 0001:000efbf0       ??0SweepCapsuleMeshHitCallback@Gu@physx@@QAE@AAUPxSweepHit@2@ABVMatrix34@Cm@2@M_NABVCapsule@12@ABVPxVec3@2@ABV?$PxFlags@W4Enum@PxHitFlag@physx@@G@2@2M@Z 100f0bf0 f   GuSweepsMesh.obj
 0001:000efcb0       ?processHit@SweepCapsuleMeshHitCallback@Gu@physx@@UAE_NABUPxRaycastHit@3@ABVPxVec3@3@11AAMPBI@Z 100f0cb0 f   GuSweepsMesh.obj
 0001:000f0030       ?finalizeHit@SweepCapsuleMeshHitCallback@Gu@physx@@QBE_NAAUPxSweepHit@3@ABVCapsule@23@ABVPxTriangleMeshGeometry@3@ABVPxTransform@3@_N@Z 100f1030 f   GuSweepsMesh.obj
 0001:000f01c0       ??0SweepBoxMeshHitCallback@Gu@physx@@QAE@W4Enum@CallbackMode@12@ABVMatrix34Padded@12@M_NABVBox@12@ABVPxVec3@2@44ABV?$PxFlags@W4Enum@PxHitFlag@physx@@G@2@M2M@Z 100f11c0 f   GuSweepsMesh.obj
 0001:000f03b0       ?processHit@SweepBoxMeshHitCallback@Gu@physx@@UAE_NABUPxRaycastHit@3@ABVPxVec3@3@11AAMPBI@Z 100f13b0 f   GuSweepsMesh.obj
 0001:000f0b50       ?finalizeHit@SweepBoxMeshHitCallback@Gu@physx@@QBE_NAAUPxSweepHit@3@ABVPxTriangleMeshGeometry@3@ABVPxTransform@3@2ABVPxVec3@3@_N4@Z 100f1b50 f   GuSweepsMesh.obj
 0001:000f0e20       ??0SweepConvexMeshHitCallback@Gu@physx@@QAE@ABUConvexHullData@12@ABVPxMeshScale@2@ABVFastVertex2ShapeScaling@Cm@2@ABVPxTransform@2@3ABVPxVec3@2@MV?$PxFlags@W4Enum@PxHitFlag@physx@@G@2@_NM6M@Z 100f1e20 f   GuSweepsMesh.obj
 0001:000f1190       ?processHit@SweepConvexMeshHitCallback@Gu@physx@@UAE_NABUPxRaycastHit@3@ABVPxVec3@3@11AAMPBI@Z 100f2190 f   GuSweepsMesh.obj
 0001:000f1370       ?finalizeHit@SweepConvexMeshHitCallback@Gu@physx@@QAE_NAAUPxSweepHit@3@ABVPxTriangleMeshGeometry@3@ABVPxTransform@3@ABVPxConvexMeshGeometry@3@2ABVPxVec3@3@M_N555@Z 100f2370 f   GuSweepsMesh.obj
 0001:000f1a30       ?sweepCapsule_MeshGeom@@YA_NABVPxGeometry@physx@@ABVPxTransform@2@ABVPxCapsuleGeometry@2@1ABVCapsule@Gu@2@ABVPxVec3@2@MAAUPxSweepHit@2@V?$PxFlags@W4Enum@PxHitFlag@physx@@G@2@M@Z 100f2a30 f   GuSweepsMesh.obj
 0001:000f1c20       ?sweepBox_MeshGeom@@YA_NABVPxGeometry@physx@@ABVPxTransform@2@ABVPxBoxGeometry@2@1ABVBox@Gu@2@ABVPxVec3@2@MAAUPxSweepHit@2@V?$PxFlags@W4Enum@PxHitFlag@physx@@G@2@M@Z 100f2c20 f   GuSweepsMesh.obj
 0001:000f1ce0       ?sweepConvex_MeshGeom@@YA_NABVPxGeometry@physx@@ABVPxTransform@2@ABVPxConvexMeshGeometry@2@1ABVPxVec3@2@MAAUPxSweepHit@2@V?$PxFlags@W4Enum@PxHitFlag@physx@@G@2@M@Z 100f2ce0 f   GuSweepsMesh.obj
 0001:000f2a10       ??$PX_UNUSED@VPxBoxGeometry@physx@@@@YAXABVPxBoxGeometry@physx@@@Z 100f3a10 f i GuSweepsMesh.obj
 0001:000f2a20       ??$PX_UNUSED@VPxCapsuleGeometry@physx@@@@YAXABVPxCapsuleGeometry@physx@@@Z 100f3a20 f i GuSweepsMesh.obj
 0001:000f2a30       ??$PX_UNUSED@VPxTransform@physx@@@@YAXABVPxTransform@physx@@@Z 100f3a30 f i GuSweepsMesh.obj
 0001:000f2a40       ??$getConvex@VShrunkBoxV@Gu@physx@@@GjkConvexBase@Gu@physx@@QBEABVShrunkBoxV@12@XZ 100f3a40 f i GuSweepsMesh.obj
 0001:000f2a60       ??$getConvex@VShrunkConvexHullV@Gu@physx@@@GjkConvexBase@Gu@physx@@QBEABVShrunkConvexHullV@12@XZ 100f3a60 f i GuSweepsMesh.obj
 0001:000f2a80       ??$gjkPenetration@U?$LocalConvex@VTriangleV@Gu@physx@@@Gu@physx@@U?$LocalConvex@VShrunkBoxV@Gu@physx@@@23@@Gu@physx@@YA?AW4GjkStatus@01@ABU?$LocalConvex@VTriangleV@Gu@physx@@@01@ABU?$LocalConvex@VShrunkBoxV@Gu@physx@@@01@ABT__m128@@2AAT5@333PIAE4AAE_N@Z 100f3a80 f i GuSweepsMesh.obj
 0001:000f3bd0       ??$gjkPenetration@U?$LocalConvex@VTriangleV@Gu@physx@@@Gu@physx@@U?$LocalConvex@VShrunkConvexHullV@Gu@physx@@@23@@Gu@physx@@YA?AW4GjkStatus@01@ABU?$LocalConvex@VTriangleV@Gu@physx@@@01@ABU?$LocalConvex@VShrunkConvexHullV@Gu@physx@@@01@ABT__m128@@2AAT5@333PIAE4AAE_N@Z 100f4bd0 f i GuSweepsMesh.obj
 0001:000f4d20       ??$gjkRaycast@U?$LocalConvex@VTriangleV@Gu@physx@@@Gu@physx@@U?$LocalConvex@VBoxV@Gu@physx@@@23@@Gu@physx@@YA_NABU?$LocalConvex@VTriangleV@Gu@physx@@@01@ABU?$LocalConvex@VBoxV@Gu@physx@@@01@ABT__m128@@222AAT4@33M@Z 100f5d20 f i GuSweepsMesh.obj
 0001:000f5c20       ??$gjkRaycast@U?$LocalConvex@VTriangleV@Gu@physx@@@Gu@physx@@U?$LocalConvex@VConvexHullV@Gu@physx@@@23@@Gu@physx@@YA_NABU?$LocalConvex@VTriangleV@Gu@physx@@@01@ABU?$LocalConvex@VConvexHullV@Gu@physx@@@01@ABT__m128@@222AAT4@33M@Z 100f6c20 f i GuSweepsMesh.obj
 0001:000f6b20       ??$gjkRaycastPenetration@U?$LocalConvex@VTriangleV@Gu@physx@@@Gu@physx@@U?$LocalConvex@VBoxV@Gu@physx@@@23@@Gu@physx@@YA_NABU?$LocalConvex@VTriangleV@Gu@physx@@@01@ABU?$LocalConvex@VBoxV@Gu@physx@@@01@ABT__m128@@222AAT4@33M_N@Z 100f7b20 f i GuSweepsMesh.obj
 0001:000f6e00       ??$gjkRaycastPenetration@U?$LocalConvex@VTriangleV@Gu@physx@@@Gu@physx@@U?$LocalConvex@VConvexHullV@Gu@physx@@@23@@Gu@physx@@YA_NABU?$LocalConvex@VTriangleV@Gu@physx@@@01@ABU?$LocalConvex@VConvexHullV@Gu@physx@@@01@ABT__m128@@222AAT4@33M_N@Z 100f7e00 f i GuSweepsMesh.obj
 0001:000f70e0       ??0?$LocalConvex@VShrunkBoxV@Gu@physx@@@Gu@physx@@QAE@ABVShrunkBoxV@12@@Z 100f80e0 f i GuSweepsMesh.obj
 0001:000f7110       ??0?$LocalConvex@VShrunkConvexHullV@Gu@physx@@@Gu@physx@@QAE@ABVShrunkConvexHullV@12@@Z 100f8110 f i GuSweepsMesh.obj
 0001:000f7140       ??0PsTransformV@aos@shdfnd@physx@@QAE@ABT__m128@@0@Z 100f8140 f i GuSweepsMesh.obj
 0001:000f71d0       ??1?$LocalConvex@VShrunkBoxV@Gu@physx@@@Gu@physx@@UAE@XZ 100f81d0 f i GuSweepsMesh.obj
 0001:000f71f0       ??1?$LocalConvex@VShrunkConvexHullV@Gu@physx@@@Gu@physx@@UAE@XZ 100f81f0 f i GuSweepsMesh.obj
 0001:000f7210       ??1SweepConvexMeshHitCallback@Gu@physx@@UAE@XZ 100f8210 f i GuSweepsMesh.obj
 0001:000f7250       ??4PxSweepHit@physx@@QAEAAU01@ABU01@@Z 100f8250 f i GuSweepsMesh.obj
 0001:000f7290       ??_5?$PxFlags@W4Enum@PxHitFlag@physx@@G@physx@@QAEAAV01@ABV01@@Z 100f8290 f i GuSweepsMesh.obj
 0001:000f72c0       ??_E?$LocalConvex@VShrunkBoxV@Gu@physx@@@Gu@physx@@UAEPAXI@Z 100f82c0 f i GuSweepsMesh.obj
 0001:000f72c0       ??_G?$LocalConvex@VShrunkBoxV@Gu@physx@@@Gu@physx@@UAEPAXI@Z 100f82c0 f i GuSweepsMesh.obj
 0001:000f7300       ??_E?$LocalConvex@VShrunkConvexHullV@Gu@physx@@@Gu@physx@@UAEPAXI@Z 100f8300 f i GuSweepsMesh.obj
 0001:000f7300       ??_G?$LocalConvex@VShrunkConvexHullV@Gu@physx@@@Gu@physx@@UAEPAXI@Z 100f8300 f i GuSweepsMesh.obj
 0001:000f7340       ??_GSweepCapsuleMeshHitCallback@Gu@physx@@UAEPAXI@Z 100f8340 f i GuSweepsMesh.obj
 0001:000f7340       ??_ESweepCapsuleMeshHitCallback@Gu@physx@@UAEPAXI@Z 100f8340 f i GuSweepsMesh.obj
 0001:000f7380       ??_GSweepConvexMeshHitCallback@Gu@physx@@UAEPAXI@Z 100f8380 f i GuSweepsMesh.obj
 0001:000f7380       ??_ESweepConvexMeshHitCallback@Gu@physx@@UAEPAXI@Z 100f8380 f i GuSweepsMesh.obj
 0001:000f73c0       ??_ESweepShapeMeshHitCallback@Gu@physx@@UAEPAXI@Z 100f83c0 f i GuSweepsMesh.obj
 0001:000f73c0       ??_GSweepShapeMeshHitCallback@Gu@physx@@UAEPAXI@Z 100f83c0 f i GuSweepsMesh.obj
 0001:000f7400       ?QuatConjugate@aos@shdfnd@physx@@YA?AT__m128@@T4@@Z 100f8400 f i GuSweepsMesh.obj
 0001:000f7470       ?QuatIdentity@aos@shdfnd@physx@@YA?AT__m128@@XZ 100f8470 f i GuSweepsMesh.obj
 0001:000f74d0       ?QuatLength@aos@shdfnd@physx@@YA?AT__m128@@T4@@Z 100f84d0 f i GuSweepsMesh.obj
 0001:000f7520       ?QuatMul@aos@shdfnd@physx@@YA?AT__m128@@T4@0@Z 100f8520 f i GuSweepsMesh.obj
 0001:000f7750       ?QuatRotate@aos@shdfnd@physx@@YA?AT__m128@@T4@0@Z 100f8750 f i GuSweepsMesh.obj
 0001:000f7930       ?QuatRotateInv@aos@shdfnd@physx@@YA?AT__m128@@T4@0@Z 100f8930 f i GuSweepsMesh.obj
 0001:000f7b10       ?QuatTransform@aos@shdfnd@physx@@YA?AT__m128@@T4@00@Z 100f8b10 f i GuSweepsMesh.obj
 0001:000f7d20       ?V4Dot@aos@shdfnd@physx@@YA?AT__m128@@T4@0@Z 100f8d20 f i GuSweepsMesh.obj
 0001:000f7e20       ?V4Length@aos@shdfnd@physx@@YA?AT__m128@@T4@@Z 100f8e20 f i GuSweepsMesh.obj
 0001:000f7e80       ?V4ScaleAdd@aos@shdfnd@physx@@YA?AT__m128@@T4@00@Z 100f8e80 f i GuSweepsMesh.obj
 0001:000f7f40       ?V4SetW@aos@shdfnd@physx@@YA?AT__m128@@T4@0@Z 100f8f40 f i GuSweepsMesh.obj
 0001:000f8000       ?getFacesByVertices8@ConvexHullData@Gu@physx@@QBEPBEXZ 100f9000 f i GuSweepsMesh.obj
 0001:000f8070       ?getShape2VertexSkew@FastVertex2ShapeScaling@Cm@physx@@QBEABVPxMat33@3@XZ 100f9070 f i GuSweepsMesh.obj
 0001:000f8090       ?getShrunkConvex@?$LocalConvex@VBoxV@Gu@physx@@@Gu@physx@@QBE?AU?$LocalConvex@VShrunkBoxV@Gu@physx@@@23@XZ 100f9090 f i GuSweepsMesh.obj
 0001:000f80c0       ?getShrunkConvex@?$LocalConvex@VConvexHullV@Gu@physx@@@Gu@physx@@QBE?AU?$LocalConvex@VShrunkConvexHullV@Gu@physx@@@23@XZ 100f90c0 f i GuSweepsMesh.obj
 0001:000f80f0       ?getShrunkConvex@?$LocalConvex@VTriangleV@Gu@physx@@@Gu@physx@@QBE?AU123@XZ 100f90f0 f i GuSweepsMesh.obj
 0001:000f8120       ?getSweepContactEps@Gu@physx@@YA?AT__m128@@ABT3@0@Z 100f9120 f i GuSweepsMesh.obj
 0001:000f81c0       ?getSweepMargin@?$LocalConvex@VShrunkBoxV@Gu@physx@@@Gu@physx@@UBE?AT__m128@@XZ 100f91c0 f i GuSweepsMesh.obj
 0001:000f81f0       ?getSweepMargin@?$LocalConvex@VShrunkConvexHullV@Gu@physx@@@Gu@physx@@UBE?AT__m128@@XZ 100f91f0 f i GuSweepsMesh.obj
 0001:000f8220       ?initialize@ConvexHullV@Gu@physx@@QAEXPBUConvexHullData@23@ABT__m128@@11_N@Z 100f9220 f i GuSweepsMesh.obj
 0001:000f8360       ?intersectPlanes@Gu@physx@@YA?AT__m128@@ABT3@00000@Z 100f9360 f i GuSweepsMesh.obj
 0001:000f8490       ?isFinite@PsTransformV@aos@shdfnd@physx@@QBE_NXZ 100f9490 f i GuSweepsMesh.obj
 0001:000f84d0       ?isFiniteQuatV@aos@shdfnd@physx@@YA_NT__m128@@@Z 100f94d0 f i GuSweepsMesh.obj
 0001:000f8510       ?isFiniteVec3V@aos@shdfnd@physx@@YA_NT__m128@@@Z 100f9510 f i GuSweepsMesh.obj
 0001:000f85f0       ?isFiniteVec4V@aos@shdfnd@physx@@YA_NT__m128@@@Z 100f95f0 f i GuSweepsMesh.obj
 0001:000f8700       ?isSane@PsTransformV@aos@shdfnd@physx@@QBE_NXZ 100f9700 f i GuSweepsMesh.obj
 0001:000f8740       ?isSaneQuatV@aos@shdfnd@physx@@YA_NT__m128@@@Z 100f9740 f i GuSweepsMesh.obj
 0001:000f8860       ?planeShift@ShrunkConvexHullV@Gu@physx@@QBE?AT__m128@@IABT4@PAT4@@Z 100f9860 f i GuSweepsMesh.obj
 0001:000f8c40       ?rotate@PsTransformV@aos@shdfnd@physx@@QBE?AT__m128@@ABT5@@Z 100f9c40 f i GuSweepsMesh.obj
 0001:000f8cf0       ?rotateInv@PsTransformV@aos@shdfnd@physx@@QBE?AT__m128@@ABT5@@Z 100f9cf0 f i GuSweepsMesh.obj
 0001:000f8da0       ?support@?$LocalConvex@VShrunkBoxV@Gu@physx@@@Gu@physx@@UBE?AT__m128@@ABT4@@Z 100f9da0 f i GuSweepsMesh.obj
 0001:000f8dd0       ?support@?$LocalConvex@VShrunkBoxV@Gu@physx@@@Gu@physx@@UBE?AT__m128@@ABT4@AAHPAT4@@Z 100f9dd0 f i GuSweepsMesh.obj
 0001:000f8e10       ?support@?$LocalConvex@VShrunkConvexHullV@Gu@physx@@@Gu@physx@@UBE?AT__m128@@ABT4@@Z 100f9e10 f i GuSweepsMesh.obj
 0001:000f8e40       ?support@?$LocalConvex@VShrunkConvexHullV@Gu@physx@@@Gu@physx@@UBE?AT__m128@@ABT4@AAHPAT4@@Z 100f9e40 f i GuSweepsMesh.obj
 0001:000f8e80       ?supportLocal@ShrunkBoxV@Gu@physx@@QBE?AT__m128@@ABT4@@Z 100f9e80 f i GuSweepsMesh.obj
 0001:000f8f80       ?supportLocal@ShrunkBoxV@Gu@physx@@QBE?AT__m128@@ABT4@AAHPAT4@@Z 100f9f80 f i GuSweepsMesh.obj
 0001:000f90a0       ?supportLocal@ShrunkConvexHullV@Gu@physx@@QBE?AT__m128@@ABT4@@Z 100fa0a0 f i GuSweepsMesh.obj
 0001:000f90f0       ?supportLocal@ShrunkConvexHullV@Gu@physx@@QBE?AT__m128@@ABT4@AAHPAT4@@Z 100fa0f0 f i GuSweepsMesh.obj
 0001:000f91a0       ?supportPoint@?$LocalConvex@VShrunkBoxV@Gu@physx@@@Gu@physx@@UBE?AT__m128@@HPAT4@@Z 100fa1a0 f i GuSweepsMesh.obj
 0001:000f91e0       ?supportPoint@?$LocalConvex@VShrunkConvexHullV@Gu@physx@@@Gu@physx@@UBE?AT__m128@@HPAT4@@Z 100fa1e0 f i GuSweepsMesh.obj
 0001:000f9220       ?supportPoint@ShrunkBoxV@Gu@physx@@QBE?AT__m128@@HPAT4@@Z 100fa220 f i GuSweepsMesh.obj
 0001:000f9300       ?supportPoint@ShrunkConvexHullV@Gu@physx@@QBE?AT__m128@@HPAT4@@Z 100fa300 f i GuSweepsMesh.obj
 0001:000f9360       ?sweepBoxVsMesh@Midphase@Gu@physx@@YA_NPBVTriangleMesh@23@ABVPxTriangleMeshGeometry@3@ABVPxTransform@3@ABVBox@23@ABVPxVec3@3@MAAUPxSweepHit@3@V?$PxFlags@W4Enum@PxHitFlag@physx@@G@3@M@Z 100fa360 f i GuSweepsMesh.obj
 0001:000f93e0       ?sweepCapsuleVsMesh@Midphase@Gu@physx@@YA_NPBVTriangleMesh@23@ABVPxTriangleMeshGeometry@3@ABVPxTransform@3@ABVCapsule@23@ABVPxVec3@3@MAAUPxSweepHit@3@V?$PxFlags@W4Enum@PxHitFlag@physx@@G@3@M@Z 100fa3e0 f i GuSweepsMesh.obj
 0001:000f9460       ?sweepConvexVsMesh@Midphase@Gu@physx@@YAXPBVTriangleMesh@23@ABVBox@23@ABVPxVec3@3@MAAUSweepConvexMeshHitCallback@23@_N@Z 100fa460 f i GuSweepsMesh.obj
 0001:000f94c0       ?transform@PsTransformV@aos@shdfnd@physx@@QBE?AT__m128@@ABT5@@Z 100fa4c0 f i GuSweepsMesh.obj
 0001:000f9580       ?transformInv@PsTransformV@aos@shdfnd@physx@@QBE?AV1234@ABV1234@@Z 100fa580 f i GuSweepsMesh.obj
 0001:000f9780       ?exportExtraData@TriangleMesh@Gu@physx@@UAEXAAVPxSerializationContext@3@@Z 100fa780 f   GuTriangleMesh.obj
 0001:000f9900       ?importExtraData@TriangleMesh@Gu@physx@@QAEXAAVPxDeserializationContext@3@@Z 100fa900 f   GuTriangleMesh.obj
 0001:000f9a40       ?release@TriangleMesh@Gu@physx@@UAEXXZ 100faa40 f   GuTriangleMesh.obj
 0001:000f9a60       ?onRefCountZero@TriangleMesh@Gu@physx@@UAEXXZ 100faa60 f   GuTriangleMesh.obj
 0001:000f9af0       ??0TriangleMesh@Gu@physx@@QAE@AAVGuMeshFactory@2@AAVTriangleMeshData@12@@Z 100faaf0 f   GuTriangleMesh.obj
 0001:000f9cc0       ??1TriangleMesh@Gu@physx@@UAE@XZ 100facc0 f   GuTriangleMesh.obj
 0001:000f9f00       ?getVerticesForModification@TriangleMesh@Gu@physx@@UAEPAVPxVec3@3@XZ 100faf00 f   GuTriangleMesh.obj
 0001:000f9f30       ?refitBVH@TriangleMesh@Gu@physx@@UAE?AVPxBounds3@3@XZ 100faf30 f   GuTriangleMesh.obj
 0001:000fa1b0       ??$deletePxBase@VTriangleMesh@Gu@physx@@@Cm@physx@@YAXPAVTriangleMesh@Gu@1@@Z 100fb1b0 f i GuTriangleMesh.obj
 0001:000fa240       ??$readExtraData@G$0BA@@PxDeserializationContext@physx@@QAEPAGI@Z 100fb240 f i GuTriangleMesh.obj
 0001:000fa270       ??$readExtraData@G@PxDeserializationContext@physx@@QAEPAGI@Z 100fb270 f i GuTriangleMesh.obj
 0001:000fa2b0       ??$readExtraData@I$0BA@@PxDeserializationContext@physx@@QAEPAII@Z 100fb2b0 f i GuTriangleMesh.obj
 0001:000fa2e0       ??$readExtraData@I@PxDeserializationContext@physx@@QAEPAII@Z 100fb2e0 f i GuTriangleMesh.obj
 0001:000fa320       ??$readExtraData@VPxVec3@physx@@$0BA@@PxDeserializationContext@physx@@QAEPAVPxVec3@1@I@Z 100fb320 f i GuTriangleMesh.obj
 0001:000fa350       ??$readExtraData@VPxVec3@physx@@@PxDeserializationContext@physx@@QAEPAVPxVec3@1@I@Z 100fb350 f i GuTriangleMesh.obj
 0001:000fa390       ??0?$PxFlags@W4Enum@PxTriangleMeshFlag@physx@@E@physx@@QAE@E@Z 100fb390 f i GuTriangleMesh.obj
 0001:000fa3b0       ??0PxTriangleMesh@physx@@IAE@GV?$PxFlags@W4Enum@PxBaseFlag@physx@@G@1@@Z 100fb3b0 f i GuTriangleMesh.obj
 0001:000fa3f0       ??1PxTriangleMesh@physx@@MAE@XZ 100fb3f0 f i GuTriangleMesh.obj
 0001:000fa413       ??_ETriangleMesh@Gu@physx@@W7AEPAXI@Z 100fb413 f i GuTriangleMesh.obj
 0001:000fa420       ??_GBV32Tree@Gu@physx@@QAEPAXI@Z 100fb420 f i GuTriangleMesh.obj
 0001:000fa480       ??_EPxTriangleMesh@physx@@MAEPAXI@Z 100fb480 f i GuTriangleMesh.obj
 0001:000fa480       ??_GPxTriangleMesh@physx@@MAEPAXI@Z 100fb480 f i GuTriangleMesh.obj
 0001:000fa4c0       ??_ETriangleMesh@Gu@physx@@UAEPAXI@Z 100fb4c0 f i GuTriangleMesh.obj
 0001:000fa4c0       ??_GTriangleMesh@Gu@physx@@UAEPAXI@Z 100fb4c0 f i GuTriangleMesh.obj
 0001:000fa520       ?acquireReference@TriangleMesh@Gu@physx@@UAEXXZ 100fb520 f i GuTriangleMesh.obj
 0001:000fa540       ?getLocalBounds@TriangleMesh@Gu@physx@@UBE?AVPxBounds3@3@XZ 100fb540 f i GuTriangleMesh.obj
 0001:000fa5d0       ?getMaterials@TriangleMesh@Gu@physx@@QBEPBGXZ 100fb5d0 f i GuTriangleMesh.obj
 0001:000fa5f0       ?getMax@CenterExtents@Gu@physx@@QBE?AVPxVec3@3@XZ 100fb5f0 f i GuTriangleMesh.obj
 0001:000fa620       ?getMin@CenterExtents@Gu@physx@@QBE?AVPxVec3@3@XZ 100fb620 f i GuTriangleMesh.obj
 0001:000fa650       ?getNbTriangles@TriangleMesh@Gu@physx@@UBEIXZ 100fb650 f i GuTriangleMesh.obj
 0001:000fa670       ?getNbVertices@TriangleMesh@Gu@physx@@UBEIXZ 100fb670 f i GuTriangleMesh.obj
 0001:000fa690       ?getReferenceCount@TriangleMesh@Gu@physx@@UBEIXZ 100fb690 f i GuTriangleMesh.obj
 0001:000fa6b0       ?getTriangleMaterialIndex@TriangleMesh@Gu@physx@@UBEGI@Z 100fb6b0 f i GuTriangleMesh.obj
 0001:000fa700       ?getTriangleMeshFlags@TriangleMesh@Gu@physx@@UBE?AV?$PxFlags@W4Enum@PxTriangleMeshFlag@physx@@E@3@XZ 100fb700 f i GuTriangleMesh.obj
 0001:000fa730       ?getTriangles@TriangleMesh@Gu@physx@@UBEPBXXZ 100fb730 f i GuTriangleMesh.obj
 0001:000fa750       ?getTrianglesRemap@TriangleMesh@Gu@physx@@UBEPBIXZ 100fb750 f i GuTriangleMesh.obj
 0001:000fa770       ?getVertices@TriangleMesh@Gu@physx@@UBEPBVPxVec3@3@XZ 100fb770 f i GuTriangleMesh.obj
 0001:000fa790       ?hasPerTriangleMaterials@TriangleMesh@Gu@physx@@QBE_NXZ 100fb790 f i GuTriangleMesh.obj
 0001:000fa7d0       ?isKindOf@PxTriangleMesh@physx@@MBE_NPBD@Z 100fb7d0 f i GuTriangleMesh.obj
 0001:000fa830       ?requires@TriangleMesh@Gu@physx@@UAEXAAVPxProcessPxBaseCallback@3@@Z 100fb830 f i GuTriangleMesh.obj
 0001:000fa8d0       ?exportExtraData@BV4TriangleMesh@Gu@physx@@UAEXAAVPxSerializationContext@3@@Z 100fb8d0 f   GuTriangleMeshBV4.obj
 0001:000fa900       ?importExtraData@BV4TriangleMesh@Gu@physx@@QAEXAAVPxDeserializationContext@3@@Z 100fb900 f   GuTriangleMeshBV4.obj
 0001:000fa990       ?createObject@BV4TriangleMesh@Gu@physx@@SAPAVTriangleMesh@23@AAPAEAAVPxDeserializationContext@3@@Z 100fb990 f   GuTriangleMeshBV4.obj
 0001:000faa10       ??0BV4TriangleMesh@Gu@physx@@QAE@AAVGuMeshFactory@2@AAVTriangleMeshData@12@@Z 100fba10 f   GuTriangleMeshBV4.obj
 0001:000fab80       ??0BV4TriangleMesh@Gu@physx@@QAE@V?$PxFlags@W4Enum@PxBaseFlag@physx@@G@2@@Z 100fbb80 f i GuTriangleMeshBV4.obj
 0001:000fabf0       ??0PxTriangleMesh@physx@@IAE@V?$PxFlags@W4Enum@PxBaseFlag@physx@@G@1@@Z 100fbbf0 f i GuTriangleMeshBV4.obj
 0001:000fac30       ??0SourceMesh@Gu@physx@@QAE@W4PxEMPTY@2@@Z 100fbc30 f i GuTriangleMeshBV4.obj
 0001:000fac50       ??0TriangleMesh@Gu@physx@@QAE@V?$PxFlags@W4Enum@PxBaseFlag@physx@@G@2@@Z 100fbc50 f i GuTriangleMeshBV4.obj
 0001:000facc0       ??1BV4TriangleMesh@Gu@physx@@UAE@XZ 100fbcc0 f i GuTriangleMeshBV4.obj
 0001:000fad0e       ??_EBV4TriangleMesh@Gu@physx@@W7AEPAXI@Z 100fbd0e f i GuTriangleMeshBV4.obj
 0001:000fad20       ??_GBV4TriangleMesh@Gu@physx@@UAEPAXI@Z 100fbd20 f i GuTriangleMeshBV4.obj
 0001:000fad20       ??_EBV4TriangleMesh@Gu@physx@@UAEPAXI@Z 100fbd20 f i GuTriangleMeshBV4.obj
 0001:000fad80       ?getConcreteTypeName@BV4TriangleMesh@Gu@physx@@UBEPBDXZ 100fbd80 f i GuTriangleMeshBV4.obj
 0001:000fada0       ?getMidphaseID@BV4TriangleMesh@Gu@physx@@UBE?AW4Enum@PxMeshMidPhase@3@XZ 100fbda0 f i GuTriangleMeshBV4.obj
 0001:000fadc0       ?resolveReferences@TriangleMesh@Gu@physx@@QAEXAAVPxDeserializationContext@3@@Z 100fbdc0 f i GuTriangleMeshBV4.obj
 0001:000fadd0       ?setPointers@SourceMesh@Gu@physx@@QAEXPAVIndTri32@23@PAVIndTri16@23@PBVPxVec3@3@@Z 100fbdd0 f i GuTriangleMeshBV4.obj
 0001:000faea0       ?exportExtraData@RTreeTriangleMesh@Gu@physx@@UAEXAAVPxSerializationContext@3@@Z 100fbea0 f   GuTriangleMeshRTree.obj
 0001:000faed0       ?importExtraData@RTreeTriangleMesh@Gu@physx@@QAEXAAVPxDeserializationContext@3@@Z 100fbed0 f   GuTriangleMeshRTree.obj
 0001:000faf00       ?createObject@RTreeTriangleMesh@Gu@physx@@SAPAVTriangleMesh@23@AAPAEAAVPxDeserializationContext@3@@Z 100fbf00 f   GuTriangleMeshRTree.obj
 0001:000faf80       ??0RTreeTriangleMesh@Gu@physx@@QAE@AAVGuMeshFactory@2@AAVTriangleMeshData@12@@Z 100fbf80 f   GuTriangleMeshRTree.obj
 0001:000fb030       ?getVerticesForModification@RTreeTriangleMesh@Gu@physx@@UAEPAVPxVec3@3@XZ 100fc030 f   GuTriangleMeshRTree.obj
 0001:000fb050       ?refitBVH@RTreeTriangleMesh@Gu@physx@@UAE?AVPxBounds3@3@XZ 100fc050 f   GuTriangleMeshRTree.obj
 0001:000fb260       ??0?$RefitCallback@G@physx@@QAE@PBVPxVec3@1@PBG@Z 100fc260 f i GuTriangleMeshRTree.obj
 0001:000fb2a0       ??0?$RefitCallback@I@physx@@QAE@PBVPxVec3@1@PBI@Z 100fc2a0 f i GuTriangleMeshRTree.obj
 0001:000fb2e0       ??0CallbackRefit@RTree@Gu@physx@@QAE@XZ 100fc2e0 f i GuTriangleMeshRTree.obj
 0001:000fb300       ??0PxBounds3@physx@@QAE@$$QAV01@@Z 100fc300 f i GuTriangleMeshRTree.obj
 0001:000fb340       ??0RTree@Gu@physx@@QAE@XZ  100fc340 f i GuTriangleMeshRTree.obj
 0001:000fb3d0       ??0RTreeTriangleMesh@Gu@physx@@QAE@V?$PxFlags@W4Enum@PxBaseFlag@physx@@G@2@@Z 100fc3d0 f i GuTriangleMeshRTree.obj
 0001:000fb430       ??1?$RefitCallback@G@physx@@UAE@XZ 100fc430 f i GuTriangleMeshRTree.obj
 0001:000fb460       ??1?$RefitCallback@I@physx@@UAE@XZ 100fc460 f i GuTriangleMeshRTree.obj
 0001:000fb490       ??1CallbackRefit@RTree@Gu@physx@@UAE@XZ 100fc490 f i GuTriangleMeshRTree.obj
 0001:000fb4b0       ??1RTree@Gu@physx@@QAE@XZ  100fc4b0 f i GuTriangleMeshRTree.obj
 0001:000fb4d0       ??1RTreeTriangleMesh@Gu@physx@@UAE@XZ 100fc4d0 f i GuTriangleMeshRTree.obj
 0001:000fb520       ??4RTree@Gu@physx@@QAEAAU012@ABU012@@Z 100fc520 f i GuTriangleMeshRTree.obj
 0001:000fb5ef       ??_ERTreeTriangleMesh@Gu@physx@@W7AEPAXI@Z 100fc5ef f i GuTriangleMeshRTree.obj
 0001:000fb600       ??_G?$RefitCallback@G@physx@@UAEPAXI@Z 100fc600 f i GuTriangleMeshRTree.obj
 0001:000fb600       ??_E?$RefitCallback@G@physx@@UAEPAXI@Z 100fc600 f i GuTriangleMeshRTree.obj
 0001:000fb640       ??_G?$RefitCallback@I@physx@@UAEPAXI@Z 100fc640 f i GuTriangleMeshRTree.obj
 0001:000fb640       ??_E?$RefitCallback@I@physx@@UAEPAXI@Z 100fc640 f i GuTriangleMeshRTree.obj
 0001:000fb680       ??_GCallbackRefit@RTree@Gu@physx@@UAEPAXI@Z 100fc680 f i GuTriangleMeshRTree.obj
 0001:000fb680       ??_ECallbackRefit@RTree@Gu@physx@@UAEPAXI@Z 100fc680 f i GuTriangleMeshRTree.obj
 0001:000fb6c0       ??_ERTreeTriangleMesh@Gu@physx@@UAEPAXI@Z 100fc6c0 f i GuTriangleMeshRTree.obj
 0001:000fb6c0       ??_GRTreeTriangleMesh@Gu@physx@@UAEPAXI@Z 100fc6c0 f i GuTriangleMeshRTree.obj
 0001:000fb720       ?getConcreteTypeName@RTreeTriangleMesh@Gu@physx@@UBEPBDXZ 100fc720 f i GuTriangleMeshRTree.obj
 0001:000fb740       ?getMidphaseID@RTreeTriangleMesh@Gu@physx@@UBE?AW4Enum@PxMeshMidPhase@3@XZ 100fc740 f i GuTriangleMeshRTree.obj
 0001:000fb750       ?recomputeBounds@?$RefitCallback@G@physx@@UAEXIAAT__m128@@0@Z 100fc750 f i GuTriangleMeshRTree.obj
 0001:000fbb70       ?recomputeBounds@?$RefitCallback@I@physx@@UAEXIAAT__m128@@0@Z 100fcb70 f i GuTriangleMeshRTree.obj
 0001:000fbf70       ?exportExtraData@HeightField@Gu@physx@@UAEXAAVPxSerializationContext@3@@Z 100fcf70 f   GuHeightField.obj
 0001:000fbfc0       ?importExtraData@HeightField@Gu@physx@@QAEXAAVPxDeserializationContext@3@@Z 100fcfc0 f   GuHeightField.obj
 0001:000fbff0       ?createObject@HeightField@Gu@physx@@SAPAV123@AAPAEAAVPxDeserializationContext@3@@Z 100fcff0 f   GuHeightField.obj
 0001:000fc060       ??0HeightField@Gu@physx@@QAE@PAVGuMeshFactory@2@@Z 100fd060 f   GuHeightField.obj
 0001:000fc150       ??0HeightField@Gu@physx@@QAE@AAVGuMeshFactory@2@AAUHeightFieldData@12@@Z 100fd150 f   GuHeightField.obj
 0001:000fc200       ?release@HeightField@Gu@physx@@UAEXXZ 100fd200 f   GuHeightField.obj
 0001:000fc220       ?saveCells@HeightField@Gu@physx@@UBEIPAXI@Z 100fd220 f   GuHeightField.obj
 0001:000fc270       ?modifySamples@HeightField@Gu@physx@@UAE_NHHABVPxHeightFieldDesc@3@_N@Z 100fd270 f   GuHeightField.obj
 0001:000fc570       ?acquireReference@HeightField@Gu@physx@@UAEXXZ 100fd570 f   GuHeightField.obj
 0001:000fc590       ?getReferenceCount@HeightField@Gu@physx@@UBEIXZ 100fd590 f   GuHeightField.obj
 0001:000fc5b0       ?onRefCountZero@HeightField@Gu@physx@@UAEXXZ 100fd5b0 f   GuHeightField.obj
 0001:000fc660       ?loadFromDesc@HeightField@Gu@physx@@QAE_NABVPxHeightFieldDesc@3@@Z 100fd660 f   GuHeightField.obj
 0001:000fca60       ?load@HeightField@Gu@physx@@QAE_NAAVPxInputStream@3@@Z 100fda60 f   GuHeightField.obj
 0001:000fcd70       ?computeCellCoordinates@HeightField@Gu@physx@@QBEIMMAAM0@Z 100fdd70 f   GuHeightField.obj
 0001:000fd020       ?isSolidVertex@HeightField@Gu@physx@@QBE_NIIIGAA_N@Z 100fe020 f   GuHeightField.obj
 0001:000fd1b0       ?isCollisionVertexPreca@HeightField@Gu@physx@@QBE_NIIIG@Z 100fe1b0 f   GuHeightField.obj
 0001:000fd300       ?parseTrianglesForCollisionVertices@HeightField@Gu@physx@@QAEXG@Z 100fe300 f   GuHeightField.obj
 0001:000fd5d0       ?computeExtreme@HeightField@Gu@physx@@QBEMIIII@Z 100fe5d0 f   GuHeightField.obj
 0001:000fd700       ?releaseMemory@HeightField@Gu@physx@@QAEXXZ 100fe700 f   GuHeightField.obj
 0001:000fd760       ??1HeightField@Gu@physx@@UAE@XZ 100fe760 f   GuHeightField.obj
 0001:000fd7b0       ?getVertexEdgeIndices@physx@@YAIABVHeightField@Gu@1@IIIQAUEdgeData@1@@Z 100fe7b0 f   GuHeightField.obj
 0001:000fdbb0       ?getEdgeTriangleIndices@physx@@YAIABVHeightField@Gu@1@ABUEdgeData@1@PIAI@Z 100febb0 f   GuHeightField.obj
 0001:000fe5f0       ??$PxMax@H@physx@@YAHHH@Z  100ff5f0 f i GuHeightField.obj
 0001:000fe620       ??$deletePxBase@VHeightField@Gu@physx@@@Cm@physx@@YAXPAVHeightField@Gu@1@@Z 100ff620 f i GuHeightField.obj
 0001:000fe6b0       ??$readExtraData@UPxHeightFieldSample@physx@@$0BA@@PxDeserializationContext@physx@@QAEPAUPxHeightFieldSample@1@I@Z 100ff6b0 f i GuHeightField.obj
 0001:000fe6e0       ??$readExtraData@UPxHeightFieldSample@physx@@@PxDeserializationContext@physx@@QAEPAUPxHeightFieldSample@1@I@Z 100ff6e0 f i GuHeightField.obj
 0001:000fe720       ??0?$BitMapBase@VNonTrackingAllocator@shdfnd@physx@@@Cm@physx@@QAE@XZ 100ff720 f i GuHeightField.obj
 0001:000fe760       ??0?$PxFlags@W4Enum@PxHeightFieldFlag@physx@@G@physx@@QAE@G@Z 100ff760 f i GuHeightField.obj
 0001:000fe780       ??0HeightField@Gu@physx@@QAE@V?$PxFlags@W4Enum@PxBaseFlag@physx@@G@2@@Z 100ff780 f i GuHeightField.obj
 0001:000fe800       ??0PxHeightField@physx@@IAE@GV?$PxFlags@W4Enum@PxBaseFlag@physx@@G@1@@Z 100ff800 f i GuHeightField.obj
 0001:000fe840       ??0PxHeightField@physx@@IAE@V?$PxFlags@W4Enum@PxBaseFlag@physx@@G@1@@Z 100ff840 f i GuHeightField.obj
 0001:000fe880       ??1?$BitMapBase@VNonTrackingAllocator@shdfnd@physx@@@Cm@physx@@QAE@XZ 100ff880 f i GuHeightField.obj
 0001:000fe8d0       ??9?$PxFlags@W4Enum@PxHeightFieldFlag@physx@@G@physx@@QBE_NABV01@@Z 100ff8d0 f i GuHeightField.obj
 0001:000fe910       ??_EHeightField@Gu@physx@@UAEPAXI@Z 100ff910 f i GuHeightField.obj
 0001:000fe9e4       ??_EHeightField@Gu@physx@@W7AEPAXI@Z 100ff9e4 f i GuHeightField.obj
 0001:000fe9f0       ?PxMemSet@physx@@YAPAXPAXHI@Z 100ff9f0 f i GuHeightField.obj
 0001:000fea10       ?anyHole@@YAIIG@Z          100ffa10 f i GuHeightField.obj
 0001:000fea80       ?clear@?$BitMapBase@VNonTrackingAllocator@shdfnd@physx@@@Cm@physx@@QAEXXZ 100ffa80 f i GuHeightField.obj
 0001:000feab0       ?clearBit@?$PxBitAndDataT@E$0IA@@physx@@QAEXXZ 100ffab0 f i GuHeightField.obj
 0001:000feae0       ?extendUninitialized@?$BitMapBase@VNonTrackingAllocator@shdfnd@physx@@@Cm@physx@@IAEXI@Z 100ffae0 f i GuHeightField.obj
 0001:000feb80       ?flip@physx@@YAXAAF@Z      100ffb80 f i GuHeightField.obj
 0001:000febf0       ?getMaterialIndex01@HeightField@Gu@physx@@QBEII@Z 100ffbf0 f i GuHeightField.obj
 0001:000fec50       ?getMaxHeight@HeightField@Gu@physx@@QBEMXZ 100ffc50 f i GuHeightField.obj
 0001:000fec70       ?getMinHeight@HeightField@Gu@physx@@QBEMXZ 100ffc70 f i GuHeightField.obj
 0001:000fec90       ?getWordCount@?$BitMapBase@VNonTrackingAllocator@shdfnd@physx@@@Cm@physx@@QBEIXZ 100ffc90 f i GuHeightField.obj
 0001:000fecb0       ?isConvexVertex@HeightField@Gu@physx@@QBE_NIII@Z 100ffcb0 f i GuHeightField.obj
 0001:000fef20       ?isInUserMemory@?$BitMapBase@VNonTrackingAllocator@shdfnd@physx@@@Cm@physx@@QBEIXZ 100fff20 f i GuHeightField.obj
 0001:000fef40       ?isValid@PxHeightFieldDesc@physx@@QBE_NXZ 100fff40 f i GuHeightField.obj
 0001:000ff010       ?requires@HeightField@Gu@physx@@UAEXAAVPxProcessPxBaseCallback@3@@Z 10100010 f i GuHeightField.obj
 0001:000ff020       ?resizeAndClear@?$BitMapBase@VNonTrackingAllocator@shdfnd@physx@@@Cm@physx@@QAEXI@Z 10100020 f i GuHeightField.obj
 0001:000ff070       ?resolveReferences@HeightField@Gu@physx@@QAEXAAVPxDeserializationContext@3@@Z 10100070 f i GuHeightField.obj
 0001:000ff080       ?set@?$BitMapBase@VNonTrackingAllocator@shdfnd@physx@@@Cm@physx@@QAEXI@Z 10100080 f i GuHeightField.obj
 0001:000ff120       ?setBit@?$PxBitAndDataT@E$0IA@@physx@@QAEXXZ 10100120 f i GuHeightField.obj
 0001:000ff150       ?test@?$BitMapBase@VNonTrackingAllocator@shdfnd@physx@@@Cm@physx@@QBEHI@Z 10100150 f i GuHeightField.obj
 0001:000ff230       ?computeLocalBounds@HeightFieldUtil@Gu@physx@@QBEXAAVPxBounds3@3@@Z 10100230 f   GuHeightFieldUtil.obj
 0001:000ff360       ?isCollisionEdge@HeightFieldUtil@Gu@physx@@QBE_NI@Z 10100360 f   GuHeightFieldUtil.obj
 0001:000ff480       ?isCollisionEdge@HeightFieldUtil@Gu@physx@@QBE_NIIPIBIIII@Z 10100480 f   GuHeightFieldUtil.obj
 0001:000ff5a0       ?isBoundaryEdge@HeightFieldUtil@Gu@physx@@QBE_NI@Z 101005a0 f   GuHeightFieldUtil.obj
 0001:000ff6a0       ?getFaceIndexAtShapePoint@HeightFieldUtil@Gu@physx@@QBEIMM@Z 101006a0 f   GuHeightFieldUtil.obj
 0001:000ff740       ?getFaceIndexAtShapePointNoTest@HeightFieldUtil@Gu@physx@@QBEIMM@Z 10100740 f   GuHeightFieldUtil.obj
 0001:000ff810       ?getFaceIndexAtShapePointNoTest2@HeightFieldUtil@Gu@physx@@QBEIIMM@Z 10100810 f   GuHeightFieldUtil.obj
 0001:000ff870       ?getFaceIndexAtTriangleIndex@HeightFieldUtil@Gu@physx@@QBEII@Z 10100870 f   GuHeightFieldUtil.obj
 0001:000ff8b0       ?getSmoothNormalAtShapePoint@HeightFieldUtil@Gu@physx@@QBE?AVPxVec3@3@MM@Z 101008b0 f   GuHeightFieldUtil.obj
 0001:000ffca0       ?getVertexNormal@HeightFieldUtil@Gu@physx@@QBE?AVPxVec3@3@III@Z 10100ca0 f   GuHeightFieldUtil.obj
 0001:000ffe60       ?getVertexFaceIndex@HeightFieldUtil@Gu@physx@@QBEIIII@Z 10100e60 f   GuHeightFieldUtil.obj
 0001:000fffa0       ?getEdge@HeightFieldUtil@Gu@physx@@QBEXIIIIAAVPxVec3@3@0@Z 10100fa0 f   GuHeightFieldUtil.obj
 0001:001005b0       ?getEdgeFaceIndex@HeightFieldUtil@Gu@physx@@QBEII@Z 101015b0 f   GuHeightFieldUtil.obj
 0001:00100670       ?getEdgeFaceIndex@HeightFieldUtil@Gu@physx@@QBEIIIII@Z 10101670 f   GuHeightFieldUtil.obj
 0001:00100740       ?getEdgeFaceIndex@HeightFieldUtil@Gu@physx@@QBEIIIPIBI@Z 10101740 f   GuHeightFieldUtil.obj
 0001:00100800       ?findClosestPointsOnCell@HeightFieldUtil@Gu@physx@@QBEIIIVPxVec3@3@PIAV43@PIAI_N33@Z 10101800 f   GuHeightFieldUtil.obj
 0001:001011d0       ?findProjectionOnTriangle@HeightFieldUtil@Gu@physx@@QBE_NIIIABVPxVec3@3@AAV43@@Z 101021d0 f   GuHeightFieldUtil.obj
 0001:00101880       ?findClosestPointOnEdge@HeightFieldUtil@Gu@physx@@QBEMIIIIABVPxVec3@3@AAV43@@Z 10102880 f   GuHeightFieldUtil.obj
 0001:001020f0       ?getTriangle@HeightFieldUtil@Gu@physx@@QBEIABVPxTransform@3@AAVPxTriangle@3@PAI2I_N3@Z 101030f0 f   GuHeightFieldUtil.obj
 0001:001024d0       ?overlapAABBTriangles@HeightFieldUtil@Gu@physx@@QBE_NABVPxTransform@3@ABVPxBounds3@3@IPAV?$EntityReport@I@23@@Z 101034d0 f   GuHeightFieldUtil.obj
 0001:00103800       ??B?$PxFlags@W4Enum@PxHeightFieldFlag@physx@@G@physx@@QBEIXZ 10104800 f i GuHeightFieldUtil.obj
 0001:00103820       ?getEdgeTriangleIndices@HeightField@Gu@physx@@QBEIIQAIIII@Z 10104820 f i GuHeightFieldUtil.obj
 0001:001039e0       ?getFlagsFast@HeightField@Gu@physx@@QBEIXZ 101049e0 f i GuHeightFieldUtil.obj
 0001:00103a00       ?getTriangleAdjacencyIndices@HeightField@Gu@physx@@QBEXIIIIAAI00@Z 10104a00 f i GuHeightFieldUtil.obj
 0001:00103c80       ?getTriangleIndex2@HeightField@Gu@physx@@QBEIIMM@Z 10104c80 f i GuHeightFieldUtil.obj
 0001:00103d10       ?getTriangleIndex@HeightField@Gu@physx@@QBEIMM@Z 10104d10 f i GuHeightFieldUtil.obj
 0001:00103d80       ?getVertex@HeightField@Gu@physx@@QBE?AVPxVec3@3@I@Z 10104d80 f i GuHeightFieldUtil.obj
 0001:00103e40       ?isConvexEdge@HeightField@Gu@physx@@QBE_NI@Z 10104e40 f i GuHeightFieldUtil.obj
 0001:00103eb0       ?isConvexEdge@HeightField@Gu@physx@@QBE_NIIII@Z 10104eb0 f i GuHeightFieldUtil.obj
 0001:00104380       ?isEmpty@PxBounds3@physx@@QBE_NXZ 10105380 f i GuHeightFieldUtil.obj
 0001:00104410       ?isValidTriangle@HeightField@Gu@physx@@QBE_NI@Z 10105410 f i GuHeightFieldUtil.obj
 0001:00104480       ?checkOverlapAABB_heightFieldGeom@Gu@physx@@YA_NABVPxGeometry@2@ABVPxTransform@2@ABVPxBounds3@2@@Z 10105480 f   GuOverlapTestsHF.obj
 0001:00106160       ?GeomOverlapCallback_SphereHeightfield@@YA_NABVPxGeometry@physx@@ABVPxTransform@2@01PAUTriggerCache@Gu@2@@Z 10107160 f   GuOverlapTestsHF.obj
 0001:00106260       ?GeomOverlapCallback_CapsuleHeightfield@@YA_NABVPxGeometry@physx@@ABVPxTransform@2@01PAUTriggerCache@Gu@2@@Z 10107260 f   GuOverlapTestsHF.obj
 0001:00106340       ?GeomOverlapCallback_BoxHeightfield@@YA_NABVPxGeometry@physx@@ABVPxTransform@2@01PAUTriggerCache@Gu@2@@Z 10107340 f   GuOverlapTestsHF.obj
 0001:00106450       ?GeomOverlapCallback_ConvexHeightfield@@YA_NABVPxGeometry@physx@@ABVPxTransform@2@01PAUTriggerCache@Gu@2@@Z 10107450 f   GuOverlapTestsHF.obj
 0001:00106d60       ??$traceSegment@UTriggerTraceSegmentCallback@Gu@physx@@$0A@$0A@@HeightFieldUtil@Gu@physx@@QBEXABVPxVec3@2@0MPAUTriggerTraceSegmentCallback@12@ABVPxBounds3@2@_NPBV32@@Z 10107d60 f i GuOverlapTestsHF.obj
 0001:00109070       ??0?$OverlapTraceSegment@UTriggerTraceSegmentCallback@Gu@physx@@@HeightFieldUtil@Gu@physx@@QAE@ABV123@ABVHeightField@23@@Z 1010a070 f i GuOverlapTestsHF.obj
 0001:001090c0       ??0Matrix34@Cm@physx@@QAE@ABVPxMat33@2@@Z 1010a0c0 f i GuOverlapTestsHF.obj
 0001:00109100       ??0OverlapHeightfieldTraceSegmentHelper@Gu@physx@@QAE@ABVHeightFieldUtil@12@@Z 1010a100 f i GuOverlapTestsHF.obj
 0001:00109150       ??0TriggerTraceSegmentCallback@Gu@physx@@QAE@XZ 1010a150 f i GuOverlapTestsHF.obj
 0001:00109170       ?V4AllGrtr@aos@shdfnd@physx@@YAIT__m128@@0@Z 1010a170 f i GuOverlapTestsHF.obj
 0001:001091d0       ?addIndex@?$OverlapTraceSegment@UTriggerTraceSegmentCallback@Gu@physx@@@HeightFieldUtil@Gu@physx@@QAE_NI@Z 1010a1d0 f i GuOverlapTestsHF.obj
 0001:00109240       ?computeRectangleDifference@?$OverlapTraceSegment@UTriggerTraceSegmentCallback@Gu@physx@@@HeightFieldUtil@Gu@physx@@QAEXABUOverlapRectangle@1234@0AAUOverlapLine@1234@@Z 1010a240 f i GuOverlapTestsHF.obj
 0001:00109330       ?faceHit@TriggerTraceSegmentCallback@Gu@physx@@QAE_NABVHeightFieldUtil@23@ABVPxVec3@3@IMM@Z 1010a330 f i GuOverlapTestsHF.obj
 0001:00109350       ?getInverse@PsTransformV@aos@shdfnd@physx@@QBE?AV1234@XZ 1010a350 f i GuOverlapTestsHF.obj
 0001:00109430       ?init@?$OverlapTraceSegment@UTriggerTraceSegmentCallback@Gu@physx@@@HeightFieldUtil@Gu@physx@@QAE_NHHHHHPAUTriggerTraceSegmentCallback@34@@Z 1010a430 f i GuOverlapTestsHF.obj
 0001:00109550       ?initialized@?$OverlapTraceSegment@UTriggerTraceSegmentCallback@Gu@physx@@@HeightFieldUtil@Gu@physx@@QBE_NXZ 1010a550 f i GuOverlapTestsHF.obj
 0001:00109570       ?invalidate@OverlapRectangle@?$OverlapTraceSegment@UTriggerTraceSegmentCallback@Gu@physx@@@HeightFieldUtil@Gu@physx@@QAEXXZ 1010a570 f i GuOverlapTestsHF.obj
 0001:001095b0       ?onEvent@TriggerTraceSegmentCallback@Gu@physx@@QAE_NIPAI@Z 1010a5b0 f i GuOverlapTestsHF.obj
 0001:001095d0       ?prepare@?$OverlapTraceSegment@UTriggerTraceSegmentCallback@Gu@physx@@@HeightFieldUtil@Gu@physx@@QAEXABVPxVec3@4@00AAM1@Z 1010a5d0 f i GuOverlapTestsHF.obj
 0001:00109960       ?reportOverlaps@?$OverlapTraceSegment@UTriggerTraceSegmentCallback@Gu@physx@@@HeightFieldUtil@Gu@physx@@QAE_NXZ 1010a960 f i GuOverlapTestsHF.obj
 0001:001099c0       ?step@?$OverlapTraceSegment@UTriggerTraceSegmentCallback@Gu@physx@@@HeightFieldUtil@Gu@physx@@QAE_NHH@Z 1010a9c0 f i GuOverlapTestsHF.obj
 0001:00109aa0       ?testVertexIndex@?$OverlapTraceSegment@UTriggerTraceSegmentCallback@Gu@physx@@@HeightFieldUtil@Gu@physx@@QAE_NI@Z 1010aaa0 f i GuOverlapTestsHF.obj
 0001:00109c40       ?traceSegment@OverlapHeightfieldTraceSegmentHelper@Gu@physx@@QBEXABVPxVec3@3@0PAUTriggerTraceSegmentCallback@23@@Z 1010ac40 f i GuOverlapTestsHF.obj
 0001:00109ca0       ?underFaceHit@TriggerTraceSegmentCallback@Gu@physx@@QAE_NABVHeightFieldUtil@23@ABVPxVec3@3@1MMMI@Z 1010aca0 f i GuOverlapTestsHF.obj
 0001:00109cc0       ?visitCells@?$OverlapTraceSegment@UTriggerTraceSegmentCallback@Gu@physx@@@HeightFieldUtil@Gu@physx@@QAE_NABUOverlapLine@1234@@Z 1010acc0 f i GuOverlapTestsHF.obj
 0001:00109e90       ?visitCells@?$OverlapTraceSegment@UTriggerTraceSegmentCallback@Gu@physx@@@HeightFieldUtil@Gu@physx@@QAE_NABUOverlapRectangle@1234@@Z 1010ae90 f i GuOverlapTestsHF.obj
 0001:0010a440       ?sweepCapsule_HeightFieldGeom@@YA_NABVPxGeometry@physx@@ABVPxTransform@2@ABVPxCapsuleGeometry@2@1ABVCapsule@Gu@2@ABVPxVec3@2@MAAUPxSweepHit@2@V?$PxFlags@W4Enum@PxHitFlag@physx@@G@2@M@Z 1010b440 f   GuSweepsHF.obj
 0001:0010a650       ?sweepConvex_HeightFieldGeom@@YA_NABVPxGeometry@physx@@ABVPxTransform@2@ABVPxConvexMeshGeometry@2@1ABVPxVec3@2@MAAUPxSweepHit@2@V?$PxFlags@W4Enum@PxHitFlag@physx@@G@2@M@Z 1010b650 f   GuSweepsHF.obj
 0001:0010a930       ?sweepBox_HeightFieldGeom@@YA_NABVPxGeometry@physx@@ABVPxTransform@2@ABVPxBoxGeometry@2@1ABVBox@Gu@2@ABVPxVec3@2@MAAUPxSweepHit@2@V?$PxFlags@W4Enum@PxHitFlag@physx@@G@2@M@Z 1010b930 f   GuSweepsHF.obj
 0001:0010af50       ??$PX_UNUSED@V?$PxFlags@W4Enum@PxHitFlag@physx@@G@physx@@@@YAXABV?$PxFlags@W4Enum@PxHitFlag@physx@@G@physx@@@Z 1010bf50 f i GuSweepsHF.obj
 0001:0010af60       ??$traceSegment@VBoxTraceSegmentReport@@$0A@$00@HeightFieldUtil@Gu@physx@@QBEXABVPxVec3@2@0MPAVBoxTraceSegmentReport@@ABVPxBounds3@2@_NPBV32@@Z 1010bf60 f i GuSweepsHF.obj
 0001:0010d280       ??$traceSegment@VBoxTraceSegmentReport@@@HeightFieldTraceSegmentSweepHelper@@QBEXABVPxVec3@physx@@0MPAVBoxTraceSegmentReport@@@Z 1010e280 f i GuSweepsHF.obj
 0001:0010d2d0       ??$traceSegment@VCapsuleTraceSegmentReport@@$0A@$00@HeightFieldUtil@Gu@physx@@QBEXABVPxVec3@2@0MPAVCapsuleTraceSegmentReport@@ABVPxBounds3@2@_NPBV32@@Z 1010e2d0 f i GuSweepsHF.obj
 0001:0010f5f0       ??$traceSegment@VCapsuleTraceSegmentReport@@@HeightFieldTraceSegmentSweepHelper@@QBEXABVPxVec3@physx@@0MPAVCapsuleTraceSegmentReport@@@Z 101105f0 f i GuSweepsHF.obj
 0001:0010f640       ??$traceSegment@VConvexTraceSegmentReport@@$0A@$00@HeightFieldUtil@Gu@physx@@QBEXABVPxVec3@2@0MPAVConvexTraceSegmentReport@@ABVPxBounds3@2@_NPBV32@@Z 10110640 f i GuSweepsHF.obj
 0001:00111960       ??$traceSegment@VConvexTraceSegmentReport@@@HeightFieldTraceSegmentSweepHelper@@QBEXABVPxVec3@physx@@0MPAVConvexTraceSegmentReport@@@Z 10112960 f i GuSweepsHF.obj
 0001:001119b0       ??0?$OverlapTraceSegment@VBoxTraceSegmentReport@@@HeightFieldUtil@Gu@physx@@QAE@ABV123@ABVHeightField@23@@Z 101129b0 f i GuSweepsHF.obj
 0001:00111a00       ??0?$OverlapTraceSegment@VCapsuleTraceSegmentReport@@@HeightFieldUtil@Gu@physx@@QAE@ABV123@ABVHeightField@23@@Z 10112a00 f i GuSweepsHF.obj
 0001:00111a50       ??0?$OverlapTraceSegment@VConvexTraceSegmentReport@@@HeightFieldUtil@Gu@physx@@QAE@ABV123@ABVHeightField@23@@Z 10112a50 f i GuSweepsHF.obj
 0001:00111aa0       ??0BoxTraceSegmentReport@@QAE@ABVHeightFieldUtil@Gu@physx@@V?$PxFlags@W4Enum@PxHitFlag@physx@@G@3@ABVPsTransformV@aos@shdfnd@3@ABVPxTransform@3@ABVBoxV@23@ABVPxVec3@3@AAUPxSweepHit@3@M@Z 10112aa0 f i GuSweepsHF.obj
 0001:00111b70       ??0CapsuleTraceSegmentReport@@QAE@ABVHeightFieldUtil@Gu@physx@@V?$PxFlags@W4Enum@PxHitFlag@physx@@G@3@ABVCapsule@23@ABVPxVec3@3@AAUPxSweepHit@3@ABVPxTransform@3@M@Z 10112b70 f i GuSweepsHF.obj
 0001:00111bf0       ??0ConvexTraceSegmentReport@@QAE@ABVHeightFieldUtil@Gu@physx@@ABUConvexHullData@23@ABVPxMeshScale@3@ABVPxTransform@3@3ABVPxVec3@3@MV?$PxFlags@W4Enum@PxHitFlag@physx@@G@3@M@Z 10112bf0 f i GuSweepsHF.obj
 0001:00111fe0       ??0HeightFieldTraceSegmentReport@@QAE@ABVHeightFieldUtil@Gu@physx@@V?$PxFlags@W4Enum@PxHitFlag@physx@@G@3@@Z 10112fe0 f i GuSweepsHF.obj
 0001:001120d0       ??0HeightFieldTraceSegmentSweepHelper@@QAE@ABVHeightFieldUtil@Gu@physx@@ABVPxVec3@3@@Z 101130d0 f i GuSweepsHF.obj
 0001:00112170       ??0PxTransform@physx@@QAE@XZ 10113170 f i GuSweepsHF.obj
 0001:001121a0       ??1BoxTraceSegmentReport@@UAE@XZ 101131a0 f i GuSweepsHF.obj
 0001:001121c0       ??1CapsuleTraceSegmentReport@@UAE@XZ 101131c0 f i GuSweepsHF.obj
 0001:001121e0       ??1ConvexTraceSegmentReport@@UAE@XZ 101131e0 f i GuSweepsHF.obj
 0001:00112210       ??1HeightFieldTraceSegmentReport@@UAE@XZ 10113210 f i GuSweepsHF.obj
 0001:00112230       ??_GBoxTraceSegmentReport@@UAEPAXI@Z 10113230 f i GuSweepsHF.obj
 0001:00112230       ??_EBoxTraceSegmentReport@@UAEPAXI@Z 10113230 f i GuSweepsHF.obj
 0001:00112270       ??_GCapsuleTraceSegmentReport@@UAEPAXI@Z 10113270 f i GuSweepsHF.obj
 0001:00112270       ??_ECapsuleTraceSegmentReport@@UAEPAXI@Z 10113270 f i GuSweepsHF.obj
 0001:001122b0       ??_EConvexTraceSegmentReport@@UAEPAXI@Z 101132b0 f i GuSweepsHF.obj
 0001:001122b0       ??_GConvexTraceSegmentReport@@UAEPAXI@Z 101132b0 f i GuSweepsHF.obj
 0001:001122f0       ??_EHeightFieldTraceSegmentReport@@UAEPAXI@Z 101132f0 f i GuSweepsHF.obj
 0001:001122f0       ??_GHeightFieldTraceSegmentReport@@UAEPAXI@Z 101132f0 f i GuSweepsHF.obj
 0001:00112330       ?QuatVLoadA@aos@shdfnd@physx@@YA?AT__m128@@PBM@Z 10113330 f i GuSweepsHF.obj
 0001:00112380       ?V3LoadA@aos@shdfnd@physx@@YA?AT__m128@@PBM@Z 10113380 f i GuSweepsHF.obj
 0001:00112430       ?addIndex@?$OverlapTraceSegment@VBoxTraceSegmentReport@@@HeightFieldUtil@Gu@physx@@QAE_NI@Z 10113430 f i GuSweepsHF.obj
 0001:001124a0       ?addIndex@?$OverlapTraceSegment@VCapsuleTraceSegmentReport@@@HeightFieldUtil@Gu@physx@@QAE_NI@Z 101134a0 f i GuSweepsHF.obj
 0001:00112510       ?addIndex@?$OverlapTraceSegment@VConvexTraceSegmentReport@@@HeightFieldUtil@Gu@physx@@QAE_NI@Z 10113510 f i GuSweepsHF.obj
 0001:00112580       ?computeRectangleDifference@?$OverlapTraceSegment@VBoxTraceSegmentReport@@@HeightFieldUtil@Gu@physx@@QAEXABUOverlapRectangle@1234@0AAUOverlapLine@1234@@Z 10113580 f i GuSweepsHF.obj
 0001:00112670       ?computeRectangleDifference@?$OverlapTraceSegment@VCapsuleTraceSegmentReport@@@HeightFieldUtil@Gu@physx@@QAEXABUOverlapRectangle@1234@0AAUOverlapLine@1234@@Z 10113670 f i GuSweepsHF.obj
 0001:00112760       ?computeRectangleDifference@?$OverlapTraceSegment@VConvexTraceSegmentReport@@@HeightFieldUtil@Gu@physx@@QAEXABUOverlapRectangle@1234@0AAUOverlapLine@1234@@Z 10113760 f i GuSweepsHF.obj
 0001:00112850       ?faceHit@HeightFieldTraceSegmentReport@@QAE_NABVHeightFieldUtil@Gu@physx@@ABVPxVec3@4@IMM@Z 10113850 f i GuSweepsHF.obj
 0001:00112870       ?finalizeHit@BoxTraceSegmentReport@@QAE_NAAUPxSweepHit@physx@@ABVPxHeightFieldGeometry@3@ABVPxTransform@3@2ABVBox@Gu@3@ABVPxVec3@3@MM@Z 10113870 f i GuSweepsHF.obj
 0001:00112ad0       ?finalizeHit@CapsuleTraceSegmentReport@@QAE_NAAUPxSweepHit@physx@@ABVPxHeightFieldGeometry@3@ABVPxTransform@3@ABVCapsule@Gu@3@3ABVPxVec3@3@@Z 10113ad0 f i GuSweepsHF.obj
 0001:00112d50       ?finalizeHit@ConvexTraceSegmentReport@@QAE_NAAUPxSweepHit@physx@@ABVPxHeightFieldGeometry@3@ABVPxTransform@3@ABVPxConvexMeshGeometry@3@2ABVPxVec3@3@M@Z 10113d50 f i GuSweepsHF.obj
 0001:00112ef0       ?init@?$OverlapTraceSegment@VBoxTraceSegmentReport@@@HeightFieldUtil@Gu@physx@@QAE_NHHHHHPAVBoxTraceSegmentReport@@@Z 10113ef0 f i GuSweepsHF.obj
 0001:00113010       ?init@?$OverlapTraceSegment@VCapsuleTraceSegmentReport@@@HeightFieldUtil@Gu@physx@@QAE_NHHHHHPAVCapsuleTraceSegmentReport@@@Z 10114010 f i GuSweepsHF.obj
 0001:00113130       ?init@?$OverlapTraceSegment@VConvexTraceSegmentReport@@@HeightFieldUtil@Gu@physx@@QAE_NHHHHHPAVConvexTraceSegmentReport@@@Z 10114130 f i GuSweepsHF.obj
 0001:00113250       ?initialized@?$OverlapTraceSegment@VBoxTraceSegmentReport@@@HeightFieldUtil@Gu@physx@@QBE_NXZ 10114250 f i GuSweepsHF.obj
 0001:00113270       ?initialized@?$OverlapTraceSegment@VCapsuleTraceSegmentReport@@@HeightFieldUtil@Gu@physx@@QBE_NXZ 10114270 f i GuSweepsHF.obj
 0001:00113290       ?initialized@?$OverlapTraceSegment@VConvexTraceSegmentReport@@@HeightFieldUtil@Gu@physx@@QBE_NXZ 10114290 f i GuSweepsHF.obj
 0001:001132b0       ?invalidate@OverlapRectangle@?$OverlapTraceSegment@VBoxTraceSegmentReport@@@HeightFieldUtil@Gu@physx@@QAEXXZ 101142b0 f i GuSweepsHF.obj
 0001:001132f0       ?invalidate@OverlapRectangle@?$OverlapTraceSegment@VCapsuleTraceSegmentReport@@@HeightFieldUtil@Gu@physx@@QAEXXZ 101142f0 f i GuSweepsHF.obj
 0001:00113330       ?invalidate@OverlapRectangle@?$OverlapTraceSegment@VConvexTraceSegmentReport@@@HeightFieldUtil@Gu@physx@@QAEXXZ 10114330 f i GuSweepsHF.obj
 0001:00113370       ?onEvent@BoxTraceSegmentReport@@UAE_NIPAI@Z 10114370 f i GuSweepsHF.obj
 0001:001138f0       ?onEvent@CapsuleTraceSegmentReport@@UAE_NIPAI@Z 101148f0 f i GuSweepsHF.obj
 0001:00113b20       ?onEvent@ConvexTraceSegmentReport@@UAE_NIPAI@Z 10114b20 f i GuSweepsHF.obj
 0001:00113ce0       ?prepare@?$OverlapTraceSegment@VBoxTraceSegmentReport@@@HeightFieldUtil@Gu@physx@@QAEXABVPxVec3@4@00AAM1@Z 10114ce0 f i GuSweepsHF.obj
 0001:00114070       ?prepare@?$OverlapTraceSegment@VCapsuleTraceSegmentReport@@@HeightFieldUtil@Gu@physx@@QAEXABVPxVec3@4@00AAM1@Z 10115070 f i GuSweepsHF.obj
 0001:00114400       ?prepare@?$OverlapTraceSegment@VConvexTraceSegmentReport@@@HeightFieldUtil@Gu@physx@@QAEXABVPxVec3@4@00AAM1@Z 10115400 f i GuSweepsHF.obj
 0001:00114790       ?reportOverlaps@?$OverlapTraceSegment@VBoxTraceSegmentReport@@@HeightFieldUtil@Gu@physx@@QAE_NXZ 10115790 f i GuSweepsHF.obj
 0001:00114800       ?reportOverlaps@?$OverlapTraceSegment@VCapsuleTraceSegmentReport@@@HeightFieldUtil@Gu@physx@@QAE_NXZ 10115800 f i GuSweepsHF.obj
 0001:00114870       ?reportOverlaps@?$OverlapTraceSegment@VConvexTraceSegmentReport@@@HeightFieldUtil@Gu@physx@@QAE_NXZ 10115870 f i GuSweepsHF.obj
 0001:001148e0       ?step@?$OverlapTraceSegment@VBoxTraceSegmentReport@@@HeightFieldUtil@Gu@physx@@QAE_NHH@Z 101158e0 f i GuSweepsHF.obj
 0001:001149c0       ?step@?$OverlapTraceSegment@VCapsuleTraceSegmentReport@@@HeightFieldUtil@Gu@physx@@QAE_NHH@Z 101159c0 f i GuSweepsHF.obj
 0001:00114aa0       ?step@?$OverlapTraceSegment@VConvexTraceSegmentReport@@@HeightFieldUtil@Gu@physx@@QAE_NHH@Z 10115aa0 f i GuSweepsHF.obj
 0001:00114b80       ?testVertexIndex@?$OverlapTraceSegment@VBoxTraceSegmentReport@@@HeightFieldUtil@Gu@physx@@QAE_NI@Z 10115b80 f i GuSweepsHF.obj
 0001:00114d20       ?testVertexIndex@?$OverlapTraceSegment@VCapsuleTraceSegmentReport@@@HeightFieldUtil@Gu@physx@@QAE_NI@Z 10115d20 f i GuSweepsHF.obj
 0001:00114ec0       ?testVertexIndex@?$OverlapTraceSegment@VConvexTraceSegmentReport@@@HeightFieldUtil@Gu@physx@@QAE_NI@Z 10115ec0 f i GuSweepsHF.obj
 0001:00115060       ?underFaceHit@HeightFieldTraceSegmentReport@@QAE_NABVHeightFieldUtil@Gu@physx@@ABVPxVec3@4@1MMMI@Z 10116060 f i GuSweepsHF.obj
 0001:00115080       ?visitCells@?$OverlapTraceSegment@VBoxTraceSegmentReport@@@HeightFieldUtil@Gu@physx@@QAE_NABUOverlapLine@1234@@Z 10116080 f i GuSweepsHF.obj
 0001:00115250       ?visitCells@?$OverlapTraceSegment@VBoxTraceSegmentReport@@@HeightFieldUtil@Gu@physx@@QAE_NABUOverlapRectangle@1234@@Z 10116250 f i GuSweepsHF.obj
 0001:00115350       ?visitCells@?$OverlapTraceSegment@VCapsuleTraceSegmentReport@@@HeightFieldUtil@Gu@physx@@QAE_NABUOverlapLine@1234@@Z 10116350 f i GuSweepsHF.obj
 0001:00115520       ?visitCells@?$OverlapTraceSegment@VCapsuleTraceSegmentReport@@@HeightFieldUtil@Gu@physx@@QAE_NABUOverlapRectangle@1234@@Z 10116520 f i GuSweepsHF.obj
 0001:00115620       ?visitCells@?$OverlapTraceSegment@VConvexTraceSegmentReport@@@HeightFieldUtil@Gu@physx@@QAE_NABUOverlapLine@1234@@Z 10116620 f i GuSweepsHF.obj
 0001:001157f0       ?visitCells@?$OverlapTraceSegment@VConvexTraceSegmentReport@@@HeightFieldUtil@Gu@physx@@QAE_NABUOverlapRectangle@1234@@Z 101167f0 f i GuSweepsHF.obj
 0001:001158f0       ?pcmContactBoxBox@Gu@physx@@YA_NABVGeometryUnion@12@0ABVPxTransform@2@1ABUNarrowPhaseParams@12@AAUCache@12@AAVContactBuffer@12@PAVRenderOutput@Cm@2@@Z 101168f0 f   GuPCMContactBoxBox.obj
 0001:0011b7c0       ??$PX_UNUSED@PAVMeshPersistentContact@Gu@physx@@@@YAXABQAVMeshPersistentContact@Gu@physx@@@Z 1011c7c0 f i GuPCMContactBoxBox.obj
 0001:0011b7d0       ??$gjkPenetration@U?$RelativeConvex@VShrunkBoxV@Gu@physx@@@Gu@physx@@U?$LocalConvex@VShrunkBoxV@Gu@physx@@@23@@Gu@physx@@YA?AW4GjkStatus@01@ABU?$RelativeConvex@VShrunkBoxV@Gu@physx@@@01@ABU?$LocalConvex@VShrunkBoxV@Gu@physx@@@01@ABT__m128@@2AAT5@333PIAE4AAE_N@Z 1011c7d0 f i GuPCMContactBoxBox.obj
 0001:0011c920       ??0?$RelativeConvex@VBoxV@Gu@physx@@@Gu@physx@@QAE@ABVBoxV@12@ABVPsMatTransformV@aos@shdfnd@2@@Z 1011d920 f i GuPCMContactBoxBox.obj
 0001:0011c9a0       ??0?$RelativeConvex@VShrunkBoxV@Gu@physx@@@Gu@physx@@QAE@ABVShrunkBoxV@12@ABVPsMatTransformV@aos@shdfnd@2@@Z 1011d9a0 f i GuPCMContactBoxBox.obj
 0001:0011ca20       ??0MeshPersistentContact@Gu@physx@@QAE@XZ 1011da20 f i GuPCMContactBoxBox.obj
 0001:0011ca40       ??0MultiplePersistentContactManifold@Gu@physx@@QAE@XZ 1011da40 f i GuPCMContactBoxBox.obj
 0001:0011cae0       ??0PersistentContact@Gu@physx@@QAE@XZ 1011dae0 f i GuPCMContactBoxBox.obj
 0001:0011cb00       ??0ShrunkBoxV@Gu@physx@@QAE@ABT__m128@@0@Z 1011db00 f i GuPCMContactBoxBox.obj
 0001:0011cb40       ??0SinglePersistentContactManifold@Gu@physx@@QAE@XZ 1011db40 f i GuPCMContactBoxBox.obj
 0001:0011cb80       ??1?$RelativeConvex@VBoxV@Gu@physx@@@Gu@physx@@UAE@XZ 1011db80 f i GuPCMContactBoxBox.obj
 0001:0011cba0       ??1?$RelativeConvex@VShrunkBoxV@Gu@physx@@@Gu@physx@@UAE@XZ 1011dba0 f i GuPCMContactBoxBox.obj
 0001:0011cbc0       ??1ShrunkBoxV@Gu@physx@@QAE@XZ 1011dbc0 f i GuPCMContactBoxBox.obj
 0001:0011cbe0       ??4MultiplePersistentContactManifold@Gu@physx@@QAEAAV012@$$QAV012@@Z 1011dbe0 f i GuPCMContactBoxBox.obj
 0001:0011ccf0       ??4MultiplePersistentContactManifold@Gu@physx@@QAEAAV012@ABV012@@Z 1011dcf0 f i GuPCMContactBoxBox.obj
 0001:0011cd20       ??_E?$RelativeConvex@VBoxV@Gu@physx@@@Gu@physx@@UAEPAXI@Z 1011dd20 f i GuPCMContactBoxBox.obj
 0001:0011cd20       ??_G?$RelativeConvex@VBoxV@Gu@physx@@@Gu@physx@@UAEPAXI@Z 1011dd20 f i GuPCMContactBoxBox.obj
 0001:0011cd60       ??_E?$RelativeConvex@VShrunkBoxV@Gu@physx@@@Gu@physx@@UAEPAXI@Z 1011dd60 f i GuPCMContactBoxBox.obj
 0001:0011cd60       ??_G?$RelativeConvex@VShrunkBoxV@Gu@physx@@@Gu@physx@@UAEPAXI@Z 1011dd60 f i GuPCMContactBoxBox.obj
 0001:0011cda0       ?BTTFT@aos@shdfnd@physx@@YA?AT__m128@@XZ 1011dda0 f i GuPCMContactBoxBox.obj
 0001:0011cdf0       ?CalculatePCMBoxMargin@Gu@physx@@YA?AT__m128@@ABT3@@Z 1011ddf0 f i GuPCMContactBoxBox.obj
 0001:0011ce70       ?Invalidate@PsTransformV@aos@shdfnd@physx@@QAEXXZ 1011de70 f i GuPCMContactBoxBox.obj
 0001:0011cee0       ?QuatDot@aos@shdfnd@physx@@YA?AT__m128@@T4@0@Z 1011dee0 f i GuPCMContactBoxBox.obj
 0001:0011cf30       ?V3ExtractMax@aos@shdfnd@physx@@YA?AT__m128@@T4@@Z 1011df30 f i GuPCMContactBoxBox.obj
 0001:0011d040       ?V3Merge@aos@shdfnd@physx@@YA?AT__m128@@ABT4@00@Z 1011e040 f i GuPCMContactBoxBox.obj
 0001:0011d1e0       ?V3RecipFast@aos@shdfnd@physx@@YA?AT__m128@@T4@@Z 1011e1e0 f i GuPCMContactBoxBox.obj
 0001:0011d2d0       ?V3SetZ@aos@shdfnd@physx@@YA?AT__m128@@T4@0@Z 1011e2d0 f i GuPCMContactBoxBox.obj
 0001:0011d3e0       ?V4ExtractMax@aos@shdfnd@physx@@YA?AT__m128@@T4@@Z 1011e3e0 f i GuPCMContactBoxBox.obj
 0001:0011d4a0       ?Vec3V_From_FloatV@aos@shdfnd@physx@@YA?AT__m128@@T4@@Z 1011e4a0 f i GuPCMContactBoxBox.obj
 0001:0011d500       ?clearManifold@MultiplePersistentContactManifold@Gu@physx@@QAEXXZ 1011e500 f i GuPCMContactBoxBox.obj
 0001:0011d570       ?clearManifold@SinglePersistentContactManifold@Gu@physx@@QAEXXZ 1011e570 f i GuPCMContactBoxBox.obj
 0001:0011d590       ?contains@Gu@physx@@YA_NPAT__m128@@IABT3@11@Z 1011e590 f i GuPCMContactBoxBox.obj
 0001:0011dbc0       ?getCol0@PsMatTransformV@aos@shdfnd@physx@@QBE?AT__m128@@XZ 1011ebc0 f i GuPCMContactBoxBox.obj
 0001:0011dbf0       ?getCol1@PsMatTransformV@aos@shdfnd@physx@@QBE?AT__m128@@XZ 1011ebf0 f i GuPCMContactBoxBox.obj
 0001:0011dc20       ?getCol2@PsMatTransformV@aos@shdfnd@physx@@QBE?AT__m128@@XZ 1011ec20 f i GuPCMContactBoxBox.obj
 0001:0011dc50       ?getEmptyManifold@MultiplePersistentContactManifold@Gu@physx@@QAEPAVSinglePersistentContactManifold@23@XZ 1011ec50 f i GuPCMContactBoxBox.obj
 0001:0011dca0       ?getManifold@Cache@Gu@physx@@QAEAAVPersistentContactManifold@23@XZ 1011eca0 f i GuPCMContactBoxBox.obj
 0001:0011dda0       ?getManifold@MultiplePersistentContactManifold@Gu@physx@@QAEPAVSinglePersistentContactManifold@23@I@Z 1011eda0 f i GuPCMContactBoxBox.obj
 0001:0011de20       ?getNumContacts@PersistentContactManifold@Gu@physx@@QBEIXZ 1011ee20 f i GuPCMContactBoxBox.obj
 0001:0011de40       ?getSweepMargin@?$RelativeConvex@VBoxV@Gu@physx@@@Gu@physx@@UBE?AT__m128@@XZ 1011ee40 f i GuPCMContactBoxBox.obj
 0001:0011de70       ?getSweepMargin@?$RelativeConvex@VShrunkBoxV@Gu@physx@@@Gu@physx@@UBE?AT__m128@@XZ 1011ee70 f i GuPCMContactBoxBox.obj
 0001:0011dea0       ?getWorldNormal@PersistentContactManifold@Gu@physx@@QAE?AT__m128@@ABVPsTransformV@aos@shdfnd@3@@Z 1011eea0 f i GuPCMContactBoxBox.obj
 0001:0011e050       ?initialiseMarginDif@ShrunkBoxV@Gu@physx@@AAEXXZ 1011f050 f i GuPCMContactBoxBox.obj
 0001:0011e100       ?initialize@MultiplePersistentContactManifold@Gu@physx@@QAEXXZ 1011f100 f i GuPCMContactBoxBox.obj
 0001:0011e180       ?initialize@SinglePersistentContactManifold@Gu@physx@@QAEXXZ 1011f180 f i GuPCMContactBoxBox.obj
 0001:0011e1a0       ?invalidate@MultiplePersistentContactManifold@Gu@physx@@QAEIABVPsTransformV@aos@shdfnd@3@ABT__m128@@1@Z 1011f1a0 f i GuPCMContactBoxBox.obj
 0001:0011e2d0       ?invalidate@MultiplePersistentContactManifold@Gu@physx@@QAEIABVPsTransformV@aos@shdfnd@3@ABT__m128@@@Z 1011f2d0 f i GuPCMContactBoxBox.obj
 0001:0011e340       ?invalidate_BoxConvex@PersistentContactManifold@Gu@physx@@QAEIABVPsTransformV@aos@shdfnd@3@ABT__m128@@@Z 1011f340 f i GuPCMContactBoxBox.obj
 0001:0011e510       ?isEmpty@SinglePersistentContactManifold@Gu@physx@@QAE_NXZ 1011f510 f i GuPCMContactBoxBox.obj
 0001:0011e550       ?isManifold@Cache@Gu@physx@@QBEEXZ 1011f550 f i GuPCMContactBoxBox.obj
 0001:0011e570       ?isMultiManifold@Cache@Gu@physx@@QBEEXZ 1011f570 f i GuPCMContactBoxBox.obj
 0001:0011e590       ?loadTransformA@aos@shdfnd@physx@@YA?AVPsTransformV@123@ABVPxTransform@3@@Z 1011f590 f i GuPCMContactBoxBox.obj
 0001:0011e610       ?maxTransformPositionDelta@MultiplePersistentContactManifold@Gu@physx@@QAE?AT__m128@@ABT4@@Z 1011f610 f i GuPCMContactBoxBox.obj
 0001:0011e6b0       ?maxTransformPositionDelta@PersistentContactManifold@Gu@physx@@QAE?AT__m128@@ABT4@@Z 1011f6b0 f i GuPCMContactBoxBox.obj
 0001:0011e750       ?maxTransformQuatDelta@MultiplePersistentContactManifold@Gu@physx@@QAE?AT__m128@@ABT4@@Z 1011f750 f i GuPCMContactBoxBox.obj
 0001:0011e7e0       ?reduceManifoldContactsInDifferentPatches@MultiplePersistentContactManifold@Gu@physx@@QAEIPAPAUPCMContactPatch@23@IPAVMeshPersistentContact@23@IABT__m128@@@Z 1011f7e0 f i GuPCMContactBoxBox.obj
 0001:0011e9c0       ?refineContactPatchConnective@MultiplePersistentContactManifold@Gu@physx@@QAEXPAPAUPCMContactPatch@23@IPAVMeshPersistentContact@23@ABT__m128@@@Z 1011f9c0 f i GuPCMContactBoxBox.obj
 0001:0011eb40       ?refreshContactPoints@PersistentContactManifold@Gu@physx@@QAEXABVPsMatTransformV@aos@shdfnd@3@ABT__m128@@1@Z 1011fb40 f i GuPCMContactBoxBox.obj
 0001:0011eda0       ?refreshManifold@MultiplePersistentContactManifold@Gu@physx@@QAEXABVPsMatTransformV@aos@shdfnd@3@ABT__m128@@1@Z 1011fda0 f i GuPCMContactBoxBox.obj
 0001:0011efe0       ?removeContactPoint@PersistentContactManifold@Gu@physx@@QAEXI@Z 1011ffe0 f i GuPCMContactBoxBox.obj
 0001:0011f040       ?rotateInv@PsMatTransformV@aos@shdfnd@physx@@QBE?AT__m128@@ABT5@@Z 10120040 f i GuPCMContactBoxBox.obj
 0001:0011f0a0       ?setRelativeTransform@MultiplePersistentContactManifold@Gu@physx@@QAEXABVPsTransformV@aos@shdfnd@3@@Z 101200a0 f i GuPCMContactBoxBox.obj
 0001:0011f0d0       ?setRelativeTransform@PersistentContactManifold@Gu@physx@@QAEXABVPsTransformV@aos@shdfnd@3@@Z 101200d0 f i GuPCMContactBoxBox.obj
 0001:0011f100       ?support@?$RelativeConvex@VBoxV@Gu@physx@@@Gu@physx@@UBE?AT__m128@@ABT4@@Z 10120100 f i GuPCMContactBoxBox.obj
 0001:0011f150       ?support@?$RelativeConvex@VBoxV@Gu@physx@@@Gu@physx@@UBE?AT__m128@@ABT4@AAHPAT4@@Z 10120150 f i GuPCMContactBoxBox.obj
 0001:0011f1a0       ?support@?$RelativeConvex@VShrunkBoxV@Gu@physx@@@Gu@physx@@UBE?AT__m128@@ABT4@@Z 101201a0 f i GuPCMContactBoxBox.obj
 0001:0011f1f0       ?support@?$RelativeConvex@VShrunkBoxV@Gu@physx@@@Gu@physx@@UBE?AT__m128@@ABT4@AAHPAT4@@Z 101201f0 f i GuPCMContactBoxBox.obj
 0001:0011f240       ?supportPoint@?$RelativeConvex@VBoxV@Gu@physx@@@Gu@physx@@UBE?AT__m128@@HPAT4@@Z 10120240 f i GuPCMContactBoxBox.obj
 0001:0011f2b0       ?supportPoint@?$RelativeConvex@VShrunkBoxV@Gu@physx@@@Gu@physx@@UBE?AT__m128@@HPAT4@@Z 101202b0 f i GuPCMContactBoxBox.obj
 0001:0011f320       ?supportRelative@BoxV@Gu@physx@@QBE?AT__m128@@ABT4@ABVPsMatTransformV@aos@shdfnd@3@1@Z 10120320 f i GuPCMContactBoxBox.obj
 0001:0011f390       ?supportRelative@BoxV@Gu@physx@@QBE?AT__m128@@ABT4@ABVPsMatTransformV@aos@shdfnd@3@1AAHPAT4@@Z 10120390 f i GuPCMContactBoxBox.obj
 0001:0011f410       ?supportRelative@ShrunkBoxV@Gu@physx@@QBE?AT__m128@@ABT4@ABVPsMatTransformV@aos@shdfnd@3@1@Z 10120410 f i GuPCMContactBoxBox.obj
 0001:0011f480       ?supportRelative@ShrunkBoxV@Gu@physx@@QBE?AT__m128@@ABT4@ABVPsMatTransformV@aos@shdfnd@3@1AAHPAT4@@Z 10120480 f i GuPCMContactBoxBox.obj
 0001:0011f500       ?toBuffer@MultiplePersistentContactManifold@Gu@physx@@QAEXPIAE@Z 10120500 f i GuPCMContactBoxBox.obj
 0001:0011f7d0       ?transformInv@PsMatTransformV@aos@shdfnd@physx@@QBE?AT__m128@@ABT5@@Z 101207d0 f i GuPCMContactBoxBox.obj
 0001:0011f850       ?transformInv@PsMatTransformV@aos@shdfnd@physx@@QBE?AV1234@ABV1234@@Z 10120850 f i GuPCMContactBoxBox.obj
 0001:0011f910       ?pcmContactBoxConvex@Gu@physx@@YA_NABVGeometryUnion@12@0ABVPxTransform@2@1ABUNarrowPhaseParams@12@AAUCache@12@AAVContactBuffer@12@PAVRenderOutput@Cm@2@@Z 10120910 f   GuPCMContactBoxConvex.obj
 0001:00120890       ??$getConvex@VShrunkConvexHullNoScaleV@Gu@physx@@@GjkConvexBase@Gu@physx@@QBEABVShrunkConvexHullNoScaleV@12@XZ 10121890 f i GuPCMContactBoxConvex.obj
 0001:001208b0       ??$gjkPenetration@U?$RelativeConvex@VShrunkBoxV@Gu@physx@@@Gu@physx@@U?$LocalConvex@VShrunkConvexHullNoScaleV@Gu@physx@@@23@@Gu@physx@@YA?AW4GjkStatus@01@ABU?$RelativeConvex@VShrunkBoxV@Gu@physx@@@01@ABU?$LocalConvex@VShrunkConvexHullNoScaleV@Gu@physx@@@01@ABT__m128@@2AAT5@333PIAE4AAE_N@Z 101218b0 f i GuPCMContactBoxConvex.obj
 0001:00121a00       ??$gjkPenetration@U?$RelativeConvex@VShrunkBoxV@Gu@physx@@@Gu@physx@@U?$LocalConvex@VShrunkConvexHullV@Gu@physx@@@23@@Gu@physx@@YA?AW4GjkStatus@01@ABU?$RelativeConvex@VShrunkBoxV@Gu@physx@@@01@ABU?$LocalConvex@VShrunkConvexHullV@Gu@physx@@@01@ABT__m128@@2AAT5@333PIAE4AAE_N@Z 10122a00 f i GuPCMContactBoxConvex.obj
 0001:00122b50       ??0?$LocalConvex@VShrunkConvexHullNoScaleV@Gu@physx@@@Gu@physx@@QAE@ABVShrunkConvexHullNoScaleV@12@@Z 10123b50 f i GuPCMContactBoxConvex.obj
 0001:00122b80       ??0?$SupportLocalImpl@VBoxV@Gu@physx@@@Gu@physx@@QAE@ABVBoxV@12@ABVPsTransformV@aos@shdfnd@2@ABUMat33V@562@2_N@Z 10123b80 f i GuPCMContactBoxConvex.obj
 0001:00122bd0       ??0?$SupportLocalImpl@VConvexHullNoScaleV@Gu@physx@@@Gu@physx@@QAE@ABVConvexHullNoScaleV@12@ABVPsTransformV@aos@shdfnd@2@ABUMat33V@562@2_N@Z 10123bd0 f i GuPCMContactBoxConvex.obj
 0001:00122c20       ??0?$SupportLocalImpl@VConvexHullV@Gu@physx@@@Gu@physx@@QAE@ABVConvexHullV@12@ABVPsTransformV@aos@shdfnd@2@ABUMat33V@562@2_N@Z 10123c20 f i GuPCMContactBoxConvex.obj
 0001:00122c70       ??0ShrunkConvexHullV@Gu@physx@@QAE@PBUConvexHullData@12@ABT__m128@@11_N@Z 10123c70 f i GuPCMContactBoxConvex.obj
 0001:00122cb0       ??0SupportLocal@Gu@physx@@QAE@ABVPsTransformV@aos@shdfnd@2@ABUMat33V@452@1_N@Z 10123cb0 f i GuPCMContactBoxConvex.obj
 0001:00122d00       ??1?$LocalConvex@VShrunkConvexHullNoScaleV@Gu@physx@@@Gu@physx@@UAE@XZ 10123d00 f i GuPCMContactBoxConvex.obj
 0001:00122d20       ??1?$SupportLocalImpl@VBoxV@Gu@physx@@@Gu@physx@@UAE@XZ 10123d20 f i GuPCMContactBoxConvex.obj
 0001:00122d40       ??1?$SupportLocalImpl@VConvexHullNoScaleV@Gu@physx@@@Gu@physx@@UAE@XZ 10123d40 f i GuPCMContactBoxConvex.obj
 0001:00122d60       ??1?$SupportLocalImpl@VConvexHullV@Gu@physx@@@Gu@physx@@UAE@XZ 10123d60 f i GuPCMContactBoxConvex.obj
 0001:00122d80       ??1ShrunkConvexHullV@Gu@physx@@QAE@XZ 10123d80 f i GuPCMContactBoxConvex.obj
 0001:00122da0       ??1SupportLocal@Gu@physx@@UAE@XZ 10123da0 f i GuPCMContactBoxConvex.obj
 0001:00122dc0       ??_E?$LocalConvex@VShrunkConvexHullNoScaleV@Gu@physx@@@Gu@physx@@UAEPAXI@Z 10123dc0 f i GuPCMContactBoxConvex.obj
 0001:00122dc0       ??_G?$LocalConvex@VShrunkConvexHullNoScaleV@Gu@physx@@@Gu@physx@@UAEPAXI@Z 10123dc0 f i GuPCMContactBoxConvex.obj
 0001:00122e00       ??_G?$SupportLocalImpl@VBoxV@Gu@physx@@@Gu@physx@@UAEPAXI@Z 10123e00 f i GuPCMContactBoxConvex.obj
 0001:00122e00       ??_E?$SupportLocalImpl@VBoxV@Gu@physx@@@Gu@physx@@UAEPAXI@Z 10123e00 f i GuPCMContactBoxConvex.obj
 0001:00122e40       ??_E?$SupportLocalImpl@VConvexHullNoScaleV@Gu@physx@@@Gu@physx@@UAEPAXI@Z 10123e40 f i GuPCMContactBoxConvex.obj
 0001:00122e40       ??_G?$SupportLocalImpl@VConvexHullNoScaleV@Gu@physx@@@Gu@physx@@UAEPAXI@Z 10123e40 f i GuPCMContactBoxConvex.obj
 0001:00122e80       ??_E?$SupportLocalImpl@VConvexHullV@Gu@physx@@@Gu@physx@@UAEPAXI@Z 10123e80 f i GuPCMContactBoxConvex.obj
 0001:00122e80       ??_G?$SupportLocalImpl@VConvexHullV@Gu@physx@@@Gu@physx@@UAEPAXI@Z 10123e80 f i GuPCMContactBoxConvex.obj
 0001:00122ec0       ??_ESupportLocal@Gu@physx@@UAEPAXI@Z 10123ec0 f i GuPCMContactBoxConvex.obj
 0001:00122ec0       ??_GSupportLocal@Gu@physx@@UAEPAXI@Z 10123ec0 f i GuPCMContactBoxConvex.obj
 0001:00122f00       ?CalculatePCMConvexMargin@Gu@physx@@YA?AT__m128@@PBUConvexHullData@12@ABT3@@Z 10123f00 f i GuPCMContactBoxConvex.obj
 0001:00122fc0       ?bruteForceSearchMinMax@ConvexHullNoScaleV@Gu@physx@@QBEXABT__m128@@AAT4@1@Z 10123fc0 f i GuPCMContactBoxConvex.obj
 0001:00123160       ?bruteForceSearchMinMax@ConvexHullV@Gu@physx@@QBEXABT__m128@@AAT4@1@Z 10124160 f i GuPCMContactBoxConvex.obj
 0001:001232c0       ?doSupport@?$SupportLocalImpl@VBoxV@Gu@physx@@@Gu@physx@@UBE?AT__m128@@ABT4@@Z 101242c0 f i GuPCMContactBoxConvex.obj
 0001:001232f0       ?doSupport@?$SupportLocalImpl@VBoxV@Gu@physx@@@Gu@physx@@UBEXABT__m128@@AAT4@1@Z 101242f0 f i GuPCMContactBoxConvex.obj
 0001:00123320       ?doSupport@?$SupportLocalImpl@VConvexHullNoScaleV@Gu@physx@@@Gu@physx@@UBE?AT__m128@@ABT4@@Z 10124320 f i GuPCMContactBoxConvex.obj
 0001:00123350       ?doSupport@?$SupportLocalImpl@VConvexHullNoScaleV@Gu@physx@@@Gu@physx@@UBEXABT__m128@@AAT4@1@Z 10124350 f i GuPCMContactBoxConvex.obj
 0001:00123380       ?doSupport@?$SupportLocalImpl@VConvexHullV@Gu@physx@@@Gu@physx@@UBE?AT__m128@@ABT4@@Z 10124380 f i GuPCMContactBoxConvex.obj
 0001:001233b0       ?doSupport@?$SupportLocalImpl@VConvexHullV@Gu@physx@@@Gu@physx@@UBEXABT__m128@@AAT4@1@Z 101243b0 f i GuPCMContactBoxConvex.obj
 0001:001233e0       ?getSweepMargin@?$LocalConvex@VShrunkConvexHullNoScaleV@Gu@physx@@@Gu@physx@@UBE?AT__m128@@XZ 101243e0 f i GuPCMContactBoxConvex.obj
 0001:00123410       ?planeShift@ShrunkConvexHullNoScaleV@Gu@physx@@QBE?AT__m128@@IABT4@PAT4@@Z 10124410 f i GuPCMContactBoxConvex.obj
 0001:00123700       ?populateVerts@?$SupportLocalImpl@VBoxV@Gu@physx@@@Gu@physx@@UBEXPBEIPBVPxVec3@3@PAT__m128@@@Z 10124700 f i GuPCMContactBoxConvex.obj
 0001:00123740       ?populateVerts@?$SupportLocalImpl@VConvexHullNoScaleV@Gu@physx@@@Gu@physx@@UBEXPBEIPBVPxVec3@3@PAT__m128@@@Z 10124740 f i GuPCMContactBoxConvex.obj
 0001:00123780       ?populateVerts@?$SupportLocalImpl@VConvexHullV@Gu@physx@@@Gu@physx@@UBEXPBEIPBVPxVec3@3@PAT__m128@@@Z 10124780 f i GuPCMContactBoxConvex.obj
 0001:001237c0       ?populateVerts@BoxV@Gu@physx@@QBEXPBEIPBVPxVec3@3@PAT__m128@@@Z 101247c0 f i GuPCMContactBoxConvex.obj
 0001:00123850       ?populateVerts@ConvexHullNoScaleV@Gu@physx@@QBEXPBEIPBVPxVec3@3@PAT__m128@@@Z 10124850 f i GuPCMContactBoxConvex.obj
 0001:001238e0       ?populateVerts@ConvexHullV@Gu@physx@@QBEXPBEIPBVPxVec3@3@PAT__m128@@@Z 101248e0 f i GuPCMContactBoxConvex.obj
 0001:00123990       ?support@?$LocalConvex@VShrunkConvexHullNoScaleV@Gu@physx@@@Gu@physx@@UBE?AT__m128@@ABT4@@Z 10124990 f i GuPCMContactBoxConvex.obj
 0001:001239c0       ?support@?$LocalConvex@VShrunkConvexHullNoScaleV@Gu@physx@@@Gu@physx@@UBE?AT__m128@@ABT4@AAHPAT4@@Z 101249c0 f i GuPCMContactBoxConvex.obj
 0001:00123a00       ?supportLocal@BoxV@Gu@physx@@QBEXABT__m128@@AAT4@1@Z 10124a00 f i GuPCMContactBoxConvex.obj
 0001:00123ae0       ?supportLocal@ConvexHullNoScaleV@Gu@physx@@QBE?AT__m128@@ABT4@@Z 10124ae0 f i GuPCMContactBoxConvex.obj
 0001:00123b60       ?supportLocal@ConvexHullNoScaleV@Gu@physx@@QBEXABT__m128@@AAT4@1@Z 10124b60 f i GuPCMContactBoxConvex.obj
 0001:00123b90       ?supportLocal@ConvexHullV@Gu@physx@@QBEXABT__m128@@AAT4@1@Z 10124b90 f i GuPCMContactBoxConvex.obj
 0001:00123bc0       ?supportLocal@ShrunkConvexHullNoScaleV@Gu@physx@@QBE?AT__m128@@ABT4@@Z 10124bc0 f i GuPCMContactBoxConvex.obj
 0001:00123c10       ?supportLocal@ShrunkConvexHullNoScaleV@Gu@physx@@QBE?AT__m128@@ABT4@AAHPAT4@@Z 10124c10 f i GuPCMContactBoxConvex.obj
 0001:00123c90       ?supportPoint@?$LocalConvex@VShrunkConvexHullNoScaleV@Gu@physx@@@Gu@physx@@UBE?AT__m128@@HPAT4@@Z 10124c90 f i GuPCMContactBoxConvex.obj
 0001:00123cd0       ?supportPoint@ShrunkConvexHullNoScaleV@Gu@physx@@QBE?AT__m128@@HPAT4@@Z 10124cd0 f i GuPCMContactBoxConvex.obj
 0001:00123d30       ?supportVertexMinMax@ConvexHullNoScaleV@Gu@physx@@QBEXABT__m128@@AAT4@1@Z 10124d30 f i GuPCMContactBoxConvex.obj
 0001:00123e70       ?supportVertexMinMax@ConvexHullV@Gu@physx@@QBEXABT__m128@@AAT4@1@Z 10124e70 f i GuPCMContactBoxConvex.obj
 0001:00124030       ?pcmContactCapsuleBox@Gu@physx@@YA_NABVGeometryUnion@12@0ABVPxTransform@2@1ABUNarrowPhaseParams@12@AAUCache@12@AAVContactBuffer@12@PAVRenderOutput@Cm@2@@Z 10125030 f   GuPCMContactCapsuleBox.obj
 0001:00124ec0       ??$gjkPenetration@U?$LocalConvex@VCapsuleV@Gu@physx@@@Gu@physx@@U?$LocalConvex@VBoxV@Gu@physx@@@23@@Gu@physx@@YA?AW4GjkStatus@01@ABU?$LocalConvex@VCapsuleV@Gu@physx@@@01@ABU?$LocalConvex@VBoxV@Gu@physx@@@01@ABT__m128@@2AAT5@333PIAE4AAE_N@Z 10125ec0 f i GuPCMContactCapsuleBox.obj
 0001:00126010       ?invalidate_SphereCapsule@PersistentContactManifold@Gu@physx@@QAEIABVPsTransformV@aos@shdfnd@3@ABT__m128@@@Z 10127010 f i GuPCMContactCapsuleBox.obj
 0001:001261e0       ?setMargin@ConvexV@Gu@physx@@QAEXABT__m128@@@Z 101271e0 f i GuPCMContactCapsuleBox.obj
 0001:00126210       ?transformInv@PsTransformV@aos@shdfnd@physx@@QBE?AT__m128@@ABT5@@Z 10127210 f i GuPCMContactCapsuleBox.obj
 0001:001262e0       ?pcmContactCapsuleCapsule@Gu@physx@@YA_NABVGeometryUnion@12@0ABVPxTransform@2@1ABUNarrowPhaseParams@12@AAUCache@12@AAVContactBuffer@12@PAVRenderOutput@Cm@2@@Z 101272e0 f   GuPCMContactCapsuleCapsule.obj
 0001:00128030       ?BFTTT@aos@shdfnd@physx@@YA?AT__m128@@XZ 10129030 f i GuPCMContactCapsuleCapsule.obj
 0001:00128080       ?FSqrt@aos@shdfnd@physx@@YA?AT__m128@@T4@@Z 10129080 f i GuPCMContactCapsuleCapsule.obj
 0001:00128120       ?QuatGetBasisVector0@aos@shdfnd@physx@@YA?AT__m128@@T4@@Z 10129120 f i GuPCMContactCapsuleCapsule.obj
 0001:00128370       ?V3SetX@aos@shdfnd@physx@@YA?AT__m128@@T4@0@Z 10129370 f i GuPCMContactCapsuleCapsule.obj
 0001:00128480       ?V3StoreA@aos@shdfnd@physx@@YAXT__m128@@AAVPxVec3@3@@Z 10129480 f i GuPCMContactCapsuleCapsule.obj
 0001:00128570       ?pcmContactCapsuleConvex@Gu@physx@@YA_NABVGeometryUnion@12@0ABVPxTransform@2@1ABUNarrowPhaseParams@12@AAUCache@12@AAVContactBuffer@12@PAVRenderOutput@Cm@2@@Z 10129570 f   GuPCMContactCapsuleConvex.obj
 0001:001295d0       ??$getConvex@VConvexHullNoScaleV@Gu@physx@@@GjkConvexBase@Gu@physx@@QBEABVConvexHullNoScaleV@12@XZ 1012a5d0 f i GuPCMContactCapsuleConvex.obj
 0001:001295f0       ??$gjkPenetration@U?$LocalConvex@VCapsuleV@Gu@physx@@@Gu@physx@@U?$LocalConvex@VConvexHullNoScaleV@Gu@physx@@@23@@Gu@physx@@YA?AW4GjkStatus@01@ABU?$LocalConvex@VCapsuleV@Gu@physx@@@01@ABU?$LocalConvex@VConvexHullNoScaleV@Gu@physx@@@01@ABT__m128@@2AAT5@333PIAE4AAE_N@Z 1012a5f0 f i GuPCMContactCapsuleConvex.obj
 0001:0012a740       ??$gjkPenetration@U?$LocalConvex@VCapsuleV@Gu@physx@@@Gu@physx@@U?$LocalConvex@VConvexHullV@Gu@physx@@@23@@Gu@physx@@YA?AW4GjkStatus@01@ABU?$LocalConvex@VCapsuleV@Gu@physx@@@01@ABU?$LocalConvex@VConvexHullV@Gu@physx@@@01@ABT__m128@@2AAT5@333PIAE4AAE_N@Z 1012b740 f i GuPCMContactCapsuleConvex.obj
 0001:0012b890       ??0?$LocalConvex@VConvexHullNoScaleV@Gu@physx@@@Gu@physx@@QAE@ABVConvexHullNoScaleV@12@@Z 1012c890 f i GuPCMContactCapsuleConvex.obj
 0001:0012b8c0       ??1?$LocalConvex@VConvexHullNoScaleV@Gu@physx@@@Gu@physx@@UAE@XZ 1012c8c0 f i GuPCMContactCapsuleConvex.obj
 0001:0012b8e0       ??_E?$LocalConvex@VConvexHullNoScaleV@Gu@physx@@@Gu@physx@@UAEPAXI@Z 1012c8e0 f i GuPCMContactCapsuleConvex.obj
 0001:0012b8e0       ??_G?$LocalConvex@VConvexHullNoScaleV@Gu@physx@@@Gu@physx@@UAEPAXI@Z 1012c8e0 f i GuPCMContactCapsuleConvex.obj
 0001:0012b920       ?CalculateCapsuleMinMargin@Gu@physx@@YA?AT__m128@@ABT3@@Z 1012c920 f i GuPCMContactCapsuleConvex.obj
 0001:0012b990       ?getSweepMargin@?$LocalConvex@VConvexHullNoScaleV@Gu@physx@@@Gu@physx@@UBE?AT__m128@@XZ 1012c990 f i GuPCMContactCapsuleConvex.obj
 0001:0012b9c0       ?support@?$LocalConvex@VConvexHullNoScaleV@Gu@physx@@@Gu@physx@@UBE?AT__m128@@ABT4@@Z 1012c9c0 f i GuPCMContactCapsuleConvex.obj
 0001:0012b9f0       ?support@?$LocalConvex@VConvexHullNoScaleV@Gu@physx@@@Gu@physx@@UBE?AT__m128@@ABT4@AAHPAT4@@Z 1012c9f0 f i GuPCMContactCapsuleConvex.obj
 0001:0012ba30       ?supportLocal@ConvexHullNoScaleV@Gu@physx@@QBE?AT__m128@@ABT4@AAHPAT4@@Z 1012ca30 f i GuPCMContactCapsuleConvex.obj
 0001:0012bab0       ?supportPoint@?$LocalConvex@VConvexHullNoScaleV@Gu@physx@@@Gu@physx@@UBE?AT__m128@@HPAT4@@Z 1012cab0 f i GuPCMContactCapsuleConvex.obj
 0001:0012baf0       ?supportPoint@ConvexHullNoScaleV@Gu@physx@@QBE?AT__m128@@HPAT4@@Z 1012caf0 f i GuPCMContactCapsuleConvex.obj
 0001:0012bb50       ?pcmContactCapsuleHeightField@Gu@physx@@YA_NABVGeometryUnion@12@0ABVPxTransform@2@1ABUNarrowPhaseParams@12@AAUCache@12@AAVContactBuffer@12@PAVRenderOutput@Cm@2@@Z 1012cb50 f   GuPCMContactCapsuleHeightField.obj
 0001:0012c0e0       ??$processTriangleCache@$0BA@@PCMCapsuleVsHeightfieldContactGenerationCallback@physx@@QAEXAAU?$TriangleCache@$0BA@@Gu@1@@Z 1012d0e0 f i GuPCMContactCapsuleHeightField.obj
 0001:0012c110       ??$processTriangleCache@$0BA@VPCMCapsuleVsMeshContactGeneration@Gu@physx@@@PCMMeshContactGeneration@Gu@physx@@QAE_NAAU?$TriangleCache@$0BA@@12@@Z 1012d110 f i GuPCMContactCapsuleHeightField.obj
 0001:0012c1e0       ??0?$PCMHeightfieldContactGenerationCallback@UPCMCapsuleVsHeightfieldContactGenerationCallback@physx@@@Gu@physx@@QAE@ABVHeightFieldUtil@12@ABVPxTransform@2@@Z 1012d1e0 f i GuPCMContactCapsuleHeightField.obj
 0001:0012c220       ??0?$TriangleCache@$0BA@@Gu@physx@@QAE@XZ 1012d220 f i GuPCMContactCapsuleHeightField.obj
 0001:0012c260       ??0PCMCapsuleVsHeightfieldContactGenerationCallback@physx@@QAE@ABVCapsuleV@Gu@1@ABT__m128@@1ABVPsTransformV@aos@shdfnd@1@2ABVPxTransform@1@AAVMultiplePersistentContactManifold@31@AAVContactBuffer@31@AAVHeightFieldUtil@31@@Z 1012d260 f i GuPCMContactCapsuleHeightField.obj
 0001:0012c2d0       ??0PCMCapsuleVsMeshContactGeneration@Gu@physx@@QAE@ABVCapsuleV@12@ABT__m128@@1ABVPsTransformV@aos@shdfnd@2@2AAVMultiplePersistentContactManifold@12@AAVContactBuffer@12@PAVRenderOutput@Cm@2@@Z 1012d2d0 f i GuPCMContactCapsuleHeightField.obj
 0001:0012c3a0       ??0PCMContactPatch@Gu@physx@@QAE@XZ 1012d3a0 f i GuPCMContactCapsuleHeightField.obj
 0001:0012c410       ??0PCMMeshContactGeneration@Gu@physx@@QAE@ABT__m128@@0ABVPsTransformV@aos@shdfnd@2@1AAVMultiplePersistentContactManifold@12@AAVContactBuffer@12@PAVRenderOutput@Cm@2@@Z 1012d410 f i GuPCMContactCapsuleHeightField.obj
 0001:0012c610       ??1?$PCMHeightfieldContactGenerationCallback@UPCMCapsuleVsHeightfieldContactGenerationCallback@physx@@@Gu@physx@@UAE@XZ 1012d610 f i GuPCMContactCapsuleHeightField.obj
 0001:0012c630       ??1PCMCapsuleVsHeightfieldContactGenerationCallback@physx@@UAE@XZ 1012d630 f i GuPCMContactCapsuleHeightField.obj
 0001:0012c650       ??_G?$PCMHeightfieldContactGenerationCallback@UPCMCapsuleVsHeightfieldContactGenerationCallback@physx@@@Gu@physx@@UAEPAXI@Z 1012d650 f i GuPCMContactCapsuleHeightField.obj
 0001:0012c650       ??_E?$PCMHeightfieldContactGenerationCallback@UPCMCapsuleVsHeightfieldContactGenerationCallback@physx@@@Gu@physx@@UAEPAXI@Z 1012d650 f i GuPCMContactCapsuleHeightField.obj
 0001:0012c690       ??_EPCMCapsuleVsHeightfieldContactGenerationCallback@physx@@UAEPAXI@Z 1012d690 f i GuPCMContactCapsuleHeightField.obj
 0001:0012c690       ??_GPCMCapsuleVsHeightfieldContactGenerationCallback@physx@@UAEPAXI@Z 1012d690 f i GuPCMContactCapsuleHeightField.obj
 0001:0012c6d0       ?addTriangle@?$TriangleCache@$0BA@@Gu@physx@@QAEXPBVPxVec3@3@PBIIE@Z 1012d6d0 f i GuPCMContactCapsuleHeightField.obj
 0001:0012c860       ?getMultipleManifold@Cache@Gu@physx@@QAEAAVMultiplePersistentContactManifold@23@XZ 1012d860 f i GuPCMContactCapsuleHeightField.obj
 0001:0012c960       ?onEvent@?$PCMHeightfieldContactGenerationCallback@UPCMCapsuleVsHeightfieldContactGenerationCallback@physx@@@Gu@physx@@UAE_NIPAI@Z 1012d960 f i GuPCMContactCapsuleHeightField.obj
 0001:0012ce10       ?prioritizeContactPatches@PCMMeshContactGeneration@Gu@physx@@QAEXXZ 1012de10 f i GuPCMContactCapsuleHeightField.obj
 0001:0012cfa0       ?processContacts@PCMMeshContactGeneration@Gu@physx@@QAEXE_N@Z 1012dfa0 f i GuPCMContactCapsuleHeightField.obj
 0001:0012d130       ?pcmContactCapsuleMesh@Gu@physx@@YA_NABVGeometryUnion@12@0ABVPxTransform@2@1ABUNarrowPhaseParams@12@AAUCache@12@AAVContactBuffer@12@PAVRenderOutput@Cm@2@@Z 1012e130 f   GuPCMContactCapsuleMesh.obj
 0001:0012d7a0       ??$processTriangleCache@$0BA@@PCMCapsuleVsMeshContactGenerationCallback@physx@@QAEXAAU?$TriangleCache@$0BA@@Gu@1@@Z 1012e7a0 f i GuPCMContactCapsuleMesh.obj
 0001:0012d7d0       ??0?$PCMMeshContactGenerationCallback@UPCMCapsuleVsMeshContactGenerationCallback@physx@@@Gu@physx@@QAE@ABVFastVertex2ShapeScaling@Cm@2@PBE_N@Z 1012e7d0 f i GuPCMContactCapsuleMesh.obj
 0001:0012d830       ??0PCMCapsuleVsMeshContactGenerationCallback@physx@@QAE@ABVCapsuleV@Gu@1@ABT__m128@@1ABVPsTransformV@aos@shdfnd@1@2AAVMultiplePersistentContactManifold@31@AAVContactBuffer@31@PBEABVFastVertex2ShapeScaling@Cm@1@_NPAVRenderOutput@Cm@1@@Z 1012e830 f i GuPCMContactCapsuleMesh.obj
 0001:0012d8b0       ??1?$PCMMeshContactGenerationCallback@UPCMCapsuleVsMeshContactGenerationCallback@physx@@@Gu@physx@@UAE@XZ 1012e8b0 f i GuPCMContactCapsuleMesh.obj
 0001:0012d8d0       ??1PCMCapsuleVsMeshContactGenerationCallback@physx@@UAE@XZ 1012e8d0 f i GuPCMContactCapsuleMesh.obj
 0001:0012d8f0       ??_E?$PCMMeshContactGenerationCallback@UPCMCapsuleVsMeshContactGenerationCallback@physx@@@Gu@physx@@UAEPAXI@Z 1012e8f0 f i GuPCMContactCapsuleMesh.obj
 0001:0012d8f0       ??_G?$PCMMeshContactGenerationCallback@UPCMCapsuleVsMeshContactGenerationCallback@physx@@@Gu@physx@@UAEPAXI@Z 1012e8f0 f i GuPCMContactCapsuleMesh.obj
 0001:0012d930       ??_EPCMCapsuleVsMeshContactGenerationCallback@physx@@UAEPAXI@Z 1012e930 f i GuPCMContactCapsuleMesh.obj
 0001:0012d930       ??_GPCMCapsuleVsMeshContactGenerationCallback@physx@@UAEPAXI@Z 1012e930 f i GuPCMContactCapsuleMesh.obj
 0001:0012d970       ?doTest@PCMCapsuleVsMeshContactGenerationCallback@physx@@QAE_NABVPxVec3@2@00@Z 1012e970 f i GuPCMContactCapsuleMesh.obj
 0001:0012d990       ?flushCache@?$PCMMeshContactGenerationCallback@UPCMCapsuleVsMeshContactGenerationCallback@physx@@@Gu@physx@@QAEXXZ 1012e990 f i GuPCMContactCapsuleMesh.obj
 0001:0012d9e0       ?isEmpty@?$TriangleCache@$0BA@@Gu@physx@@QBE_NXZ 1012e9e0 f i GuPCMContactCapsuleMesh.obj
 0001:0012da20       ?isFull@?$TriangleCache@$0BA@@Gu@physx@@QBE_NXZ 1012ea20 f i GuPCMContactCapsuleMesh.obj
 0001:0012da60       ?processHit@?$PCMMeshContactGenerationCallback@UPCMCapsuleVsMeshContactGenerationCallback@physx@@@Gu@physx@@UAE_NABUPxRaycastHit@3@ABVPxVec3@3@11AAMPBI@Z 1012ea60 f i GuPCMContactCapsuleMesh.obj
 0001:0012dc60       ?reset@?$TriangleCache@$0BA@@Gu@physx@@QAEXXZ 1012ec60 f i GuPCMContactCapsuleMesh.obj
 0001:0012dc80       ?generateLastContacts@PCMConvexVsMeshContactGeneration@Gu@physx@@QAEXXZ 1012ec80 f   GuPCMContactConvexCommon.obj
 0001:0012e0e0       ?addContactsToPatch@PCMConvexVsMeshContactGeneration@Gu@physx@@QAEXABT__m128@@I@Z 1012f0e0 f   GuPCMContactConvexCommon.obj
 0001:0012e420       ?processTriangle@PCMConvexVsMeshContactGeneration@Gu@physx@@QAE_NPBVPxVec3@3@IEPBI@Z 1012f420 f   GuPCMContactConvexCommon.obj
 0001:0012e8b0       ?processTriangle@PCMConvexVsMeshContactGeneration@Gu@physx@@SA_NABUPolygonalData@23@PAVSupportLocal@23@PBVPxVec3@3@IEABT__m128@@_NABVPsTransformV@aos@shdfnd@3@ABVPsMatTransformV@9shdfnd@3@PAVMeshPersistentContact@23@AAI@Z 1012f8b0 f   GuPCMContactConvexCommon.obj
 0001:0012eb50       ?processTriangle@PCMSphereVsMeshContactGeneration@Gu@physx@@QAE_NPBVPxVec3@3@IEPBI@Z 1012fb50 f   GuPCMContactConvexCommon.obj
 0001:0012f220       ?generateEEContacts@PCMCapsuleVsMeshContactGeneration@Gu@physx@@QAEXABT__m128@@000I000PAVMeshPersistentContact@23@AAI@Z 10130220 f   GuPCMContactConvexCommon.obj
 0001:0012f2c0       ?generateEE@PCMCapsuleVsMeshContactGeneration@Gu@physx@@QAEXABT__m128@@000I00PAVMeshPersistentContact@23@AAI@Z 101302c0 f   GuPCMContactConvexCommon.obj
 0001:0012f780       ?generateContacts@PCMCapsuleVsMeshContactGeneration@Gu@physx@@SA_NABT__m128@@0000I000PAVMeshPersistentContact@23@AAI@Z 10130780 f   GuPCMContactConvexCommon.obj
 0001:00130010       ?generateEEContactsMTD@PCMCapsuleVsMeshContactGeneration@Gu@physx@@SAXABT__m128@@000I000PAVMeshPersistentContact@23@AAI@Z 10131010 f   GuPCMContactConvexCommon.obj
 0001:001300a0       ?generateEEMTD@PCMCapsuleVsMeshContactGeneration@Gu@physx@@SAXABT__m128@@000I00PAVMeshPersistentContact@23@AAI@Z 101310a0 f   GuPCMContactConvexCommon.obj
 0001:001304d0       ?processTriangle@PCMCapsuleVsMeshContactGeneration@Gu@physx@@QAE_NPBVPxVec3@3@IEPBI@Z 101314d0 f   GuPCMContactConvexCommon.obj
 0001:00130cb0       ?processTriangle@PCMCapsuleVsMeshContactGeneration@Gu@physx@@SA_NABVTriangleV@23@IABVCapsuleV@23@ABT__m128@@EPAVMeshPersistentContact@23@AAI@Z 10131cb0 f   GuPCMContactConvexCommon.obj
 0001:00131c30       ?pcmDistanceSegmentTriangleSquared@Gu@physx@@YA?AT__m128@@ABT3@0000AAT3@11@Z 10132c30 f   GuPCMContactConvexCommon.obj
 0001:00134120       ??$PX_UNUSED@PBI@@YAXABQBI@Z 10135120 f i GuPCMContactConvexCommon.obj
 0001:00134130       ??0?$SupportLocalImpl@VTriangleV@Gu@physx@@@Gu@physx@@QAE@ABVTriangleV@12@ABVPsTransformV@aos@shdfnd@2@ABUMat33V@562@2_N@Z 10135130 f i GuPCMContactConvexCommon.obj
 0001:00134180       ??0TriangleV@Gu@physx@@QAE@PBVPxVec3@2@@Z 10135180 f i GuPCMContactConvexCommon.obj
 0001:00134350       ??1?$SupportLocalImpl@VTriangleV@Gu@physx@@@Gu@physx@@UAE@XZ 10135350 f i GuPCMContactConvexCommon.obj
 0001:00134370       ??_E?$SupportLocalImpl@VTriangleV@Gu@physx@@@Gu@physx@@UAEPAXI@Z 10135370 f i GuPCMContactConvexCommon.obj
 0001:00134370       ??_G?$SupportLocalImpl@VTriangleV@Gu@physx@@@Gu@physx@@UAEPAXI@Z 10135370 f i GuPCMContactConvexCommon.obj
 0001:001343b0       ?V4PermXZXZ@aos@shdfnd@physx@@YA?AT__m128@@T4@@Z 101353b0 f i GuPCMContactConvexCommon.obj
 0001:00134400       ?V4PermYWYW@aos@shdfnd@physx@@YA?AT__m128@@T4@@Z 10135400 f i GuPCMContactConvexCommon.obj
 0001:00134450       ?V4PermYXWZ@aos@shdfnd@physx@@YA?AT__m128@@T4@@Z 10135450 f i GuPCMContactConvexCommon.obj
 0001:001344a0       ?addManifoldPointToPatch@PCMMeshContactGeneration@Gu@physx@@QAEXABT__m128@@0I@Z 101354a0 f i GuPCMContactConvexCommon.obj
 0001:00134830       ?doSupport@?$SupportLocalImpl@VTriangleV@Gu@physx@@@Gu@physx@@UBE?AT__m128@@ABT4@@Z 10135830 f i GuPCMContactConvexCommon.obj
 0001:00134860       ?doSupport@?$SupportLocalImpl@VTriangleV@Gu@physx@@@Gu@physx@@UBEXABT__m128@@AAT4@1@Z 10135860 f i GuPCMContactConvexCommon.obj
 0001:00134890       ?get@?$CacheMap@UCachedEdge@Gu@physx@@$0IA@@Gu@physx@@QBEPBUCachedEdge@23@ABU423@@Z 10135890 f i GuPCMContactConvexCommon.obj
 0001:00134930       ?isValidTriangleBarycentricCoord2@Gu@physx@@YA?AT__m128@@ABT3@@Z 10135930 f i GuPCMContactConvexCommon.obj
 0001:00134b80       ?normal@TriangleV@Gu@physx@@QBE?AT__m128@@XZ 10135b80 f i GuPCMContactConvexCommon.obj
 0001:00134c70       ?pcmDistanceSegmentSegmentSquared4@Gu@physx@@YA?AT__m128@@ABT3@000000000AAT3@1@Z 10135c70 f i GuPCMContactConvexCommon.obj
 0001:00135c10       ?populateVerts@?$SupportLocalImpl@VTriangleV@Gu@physx@@@Gu@physx@@UBEXPBEIPBVPxVec3@3@PAT__m128@@@Z 10136c10 f i GuPCMContactConvexCommon.obj
 0001:00135c50       ?populateVerts@TriangleV@Gu@physx@@QBEXPBEIPBVPxVec3@3@PAT__m128@@@Z 10136c50 f i GuPCMContactConvexCommon.obj
 0001:00135ce0       ?supportLocal@TriangleV@Gu@physx@@QBEXABT__m128@@AAT4@1@Z 10136ce0 f i GuPCMContactConvexCommon.obj
 0001:00135e60       ?pcmContactConvexConvex@Gu@physx@@YA_NABVGeometryUnion@12@0ABVPxTransform@2@1ABUNarrowPhaseParams@12@AAUCache@12@AAVContactBuffer@12@PAVRenderOutput@Cm@2@@Z 10136e60 f   GuPCMContactConvexConvex.obj
 0001:00137070       ??$gjkPenetration@U?$RelativeConvex@VShrunkConvexHullNoScaleV@Gu@physx@@@Gu@physx@@U?$LocalConvex@VShrunkConvexHullNoScaleV@Gu@physx@@@23@@Gu@physx@@YA?AW4GjkStatus@01@ABU?$RelativeConvex@VShrunkConvexHullNoScaleV@Gu@physx@@@01@ABU?$LocalConvex@VShrunkConvexHullNoScaleV@Gu@physx@@@01@ABT__m128@@2AAT5@333PIAE4AAE_N@Z 10138070 f i GuPCMContactConvexConvex.obj
 0001:001381c0       ??$gjkPenetration@U?$RelativeConvex@VShrunkConvexHullNoScaleV@Gu@physx@@@Gu@physx@@U?$LocalConvex@VShrunkConvexHullV@Gu@physx@@@23@@Gu@physx@@YA?AW4GjkStatus@01@ABU?$RelativeConvex@VShrunkConvexHullNoScaleV@Gu@physx@@@01@ABU?$LocalConvex@VShrunkConvexHullV@Gu@physx@@@01@ABT__m128@@2AAT5@333PIAE4AAE_N@Z 101391c0 f i GuPCMContactConvexConvex.obj
 0001:00139310       ??$gjkPenetration@U?$RelativeConvex@VShrunkConvexHullV@Gu@physx@@@Gu@physx@@U?$LocalConvex@VShrunkConvexHullNoScaleV@Gu@physx@@@23@@Gu@physx@@YA?AW4GjkStatus@01@ABU?$RelativeConvex@VShrunkConvexHullV@Gu@physx@@@01@ABU?$LocalConvex@VShrunkConvexHullNoScaleV@Gu@physx@@@01@ABT__m128@@2AAT5@333PIAE4AAE_N@Z 1013a310 f i GuPCMContactConvexConvex.obj
 0001:0013a460       ??$gjkPenetration@U?$RelativeConvex@VShrunkConvexHullV@Gu@physx@@@Gu@physx@@U?$LocalConvex@VShrunkConvexHullV@Gu@physx@@@23@@Gu@physx@@YA?AW4GjkStatus@01@ABU?$RelativeConvex@VShrunkConvexHullV@Gu@physx@@@01@ABU?$LocalConvex@VShrunkConvexHullV@Gu@physx@@@01@ABT__m128@@2AAT5@333PIAE4AAE_N@Z 1013b460 f i GuPCMContactConvexConvex.obj
 0001:0013b5b0       ??0?$RelativeConvex@VConvexHullV@Gu@physx@@@Gu@physx@@QAE@ABVConvexHullV@12@ABVPsMatTransformV@aos@shdfnd@2@@Z 1013c5b0 f i GuPCMContactConvexConvex.obj
 0001:0013b630       ??0?$RelativeConvex@VShrunkConvexHullNoScaleV@Gu@physx@@@Gu@physx@@QAE@ABVShrunkConvexHullNoScaleV@12@ABVPsMatTransformV@aos@shdfnd@2@@Z 1013c630 f i GuPCMContactConvexConvex.obj
 0001:0013b6b0       ??0?$RelativeConvex@VShrunkConvexHullV@Gu@physx@@@Gu@physx@@QAE@ABVShrunkConvexHullV@12@ABVPsMatTransformV@aos@shdfnd@2@@Z 1013c6b0 f i GuPCMContactConvexConvex.obj
 0001:0013b730       ??1?$RelativeConvex@VConvexHullV@Gu@physx@@@Gu@physx@@UAE@XZ 1013c730 f i GuPCMContactConvexConvex.obj
 0001:0013b750       ??1?$RelativeConvex@VShrunkConvexHullNoScaleV@Gu@physx@@@Gu@physx@@UAE@XZ 1013c750 f i GuPCMContactConvexConvex.obj
 0001:0013b770       ??1?$RelativeConvex@VShrunkConvexHullV@Gu@physx@@@Gu@physx@@UAE@XZ 1013c770 f i GuPCMContactConvexConvex.obj
 0001:0013b790       ??_E?$RelativeConvex@VConvexHullV@Gu@physx@@@Gu@physx@@UAEPAXI@Z 1013c790 f i GuPCMContactConvexConvex.obj
 0001:0013b790       ??_G?$RelativeConvex@VConvexHullV@Gu@physx@@@Gu@physx@@UAEPAXI@Z 1013c790 f i GuPCMContactConvexConvex.obj
 0001:0013b7d0       ??_E?$RelativeConvex@VShrunkConvexHullNoScaleV@Gu@physx@@@Gu@physx@@UAEPAXI@Z 1013c7d0 f i GuPCMContactConvexConvex.obj
 0001:0013b7d0       ??_G?$RelativeConvex@VShrunkConvexHullNoScaleV@Gu@physx@@@Gu@physx@@UAEPAXI@Z 1013c7d0 f i GuPCMContactConvexConvex.obj
 0001:0013b810       ??_E?$RelativeConvex@VShrunkConvexHullV@Gu@physx@@@Gu@physx@@UAEPAXI@Z 1013c810 f i GuPCMContactConvexConvex.obj
 0001:0013b810       ??_G?$RelativeConvex@VShrunkConvexHullV@Gu@physx@@@Gu@physx@@UAEPAXI@Z 1013c810 f i GuPCMContactConvexConvex.obj
 0001:0013b850       ?getSweepMargin@?$RelativeConvex@VConvexHullV@Gu@physx@@@Gu@physx@@UBE?AT__m128@@XZ 1013c850 f i GuPCMContactConvexConvex.obj
 0001:0013b880       ?getSweepMargin@?$RelativeConvex@VShrunkConvexHullNoScaleV@Gu@physx@@@Gu@physx@@UBE?AT__m128@@XZ 1013c880 f i GuPCMContactConvexConvex.obj
 0001:0013b8b0       ?getSweepMargin@?$RelativeConvex@VShrunkConvexHullV@Gu@physx@@@Gu@physx@@UBE?AT__m128@@XZ 1013c8b0 f i GuPCMContactConvexConvex.obj
 0001:0013b8e0       ?support@?$RelativeConvex@VConvexHullV@Gu@physx@@@Gu@physx@@UBE?AT__m128@@ABT4@@Z 1013c8e0 f i GuPCMContactConvexConvex.obj
 0001:0013b930       ?support@?$RelativeConvex@VConvexHullV@Gu@physx@@@Gu@physx@@UBE?AT__m128@@ABT4@AAHPAT4@@Z 1013c930 f i GuPCMContactConvexConvex.obj
 0001:0013b980       ?support@?$RelativeConvex@VShrunkConvexHullNoScaleV@Gu@physx@@@Gu@physx@@UBE?AT__m128@@ABT4@@Z 1013c980 f i GuPCMContactConvexConvex.obj
 0001:0013b9d0       ?support@?$RelativeConvex@VShrunkConvexHullNoScaleV@Gu@physx@@@Gu@physx@@UBE?AT__m128@@ABT4@AAHPAT4@@Z 1013c9d0 f i GuPCMContactConvexConvex.obj
 0001:0013ba20       ?support@?$RelativeConvex@VShrunkConvexHullV@Gu@physx@@@Gu@physx@@UBE?AT__m128@@ABT4@@Z 1013ca20 f i GuPCMContactConvexConvex.obj
 0001:0013ba70       ?support@?$RelativeConvex@VShrunkConvexHullV@Gu@physx@@@Gu@physx@@UBE?AT__m128@@ABT4@AAHPAT4@@Z 1013ca70 f i GuPCMContactConvexConvex.obj
 0001:0013bac0       ?supportPoint@?$RelativeConvex@VConvexHullV@Gu@physx@@@Gu@physx@@UBE?AT__m128@@HPAT4@@Z 1013cac0 f i GuPCMContactConvexConvex.obj
 0001:0013bb30       ?supportPoint@?$RelativeConvex@VShrunkConvexHullNoScaleV@Gu@physx@@@Gu@physx@@UBE?AT__m128@@HPAT4@@Z 1013cb30 f i GuPCMContactConvexConvex.obj
 0001:0013bba0       ?supportPoint@?$RelativeConvex@VShrunkConvexHullV@Gu@physx@@@Gu@physx@@UBE?AT__m128@@HPAT4@@Z 1013cba0 f i GuPCMContactConvexConvex.obj
 0001:0013bc10       ?supportRelative@ConvexHullV@Gu@physx@@QBE?AT__m128@@ABT4@ABVPsMatTransformV@aos@shdfnd@3@1@Z 1013cc10 f i GuPCMContactConvexConvex.obj
 0001:0013bc80       ?supportRelative@ConvexHullV@Gu@physx@@QBE?AT__m128@@ABT4@ABVPsMatTransformV@aos@shdfnd@3@1AAHPAT4@@Z 1013cc80 f i GuPCMContactConvexConvex.obj
 0001:0013bd00       ?supportRelative@ShrunkConvexHullNoScaleV@Gu@physx@@QBE?AT__m128@@ABT4@ABVPsMatTransformV@aos@shdfnd@3@1@Z 1013cd00 f i GuPCMContactConvexConvex.obj
 0001:0013bd60       ?supportRelative@ShrunkConvexHullNoScaleV@Gu@physx@@QBE?AT__m128@@ABT4@ABVPsMatTransformV@aos@shdfnd@3@1AAHPAT4@@Z 1013cd60 f i GuPCMContactConvexConvex.obj
 0001:0013bde0       ?supportRelative@ShrunkConvexHullV@Gu@physx@@QBE?AT__m128@@ABT4@ABVPsMatTransformV@aos@shdfnd@3@1@Z 1013cde0 f i GuPCMContactConvexConvex.obj
 0001:0013be40       ?supportRelative@ShrunkConvexHullV@Gu@physx@@QBE?AT__m128@@ABT4@ABVPsMatTransformV@aos@shdfnd@3@1AAHPAT4@@Z 1013ce40 f i GuPCMContactConvexConvex.obj
 0001:0013bec0       ?pcmContactBoxHeightField@Gu@physx@@YA_NABVGeometryUnion@12@0ABVPxTransform@2@1ABUNarrowPhaseParams@12@AAUCache@12@AAVContactBuffer@12@PAVRenderOutput@Cm@2@@Z 1013cec0 f   GuPCMContactConvexHeightField.obj
 0001:0013c180       ?pcmContactConvexHeightField@Gu@physx@@YA_NABVGeometryUnion@12@0ABVPxTransform@2@1ABUNarrowPhaseParams@12@AAUCache@12@AAVContactBuffer@12@PAVRenderOutput@Cm@2@@Z 1013d180 f   GuPCMContactConvexHeightField.obj
 0001:0013c500       ?PCMContactConvexHeightfield@Gu@physx@@YA_NABUPolygonalData@12@PAVSupportLocal@12@ABT__m128@@ABVPxBounds3@2@ABVPxHeightFieldGeometry@2@ABVPxTransform@2@5MAAVContactBuffer@12@ABVFastVertex2ShapeScaling@Cm@2@_NAAVMultiplePersistentContactManifold@12@PAVRenderOutput@Cm@2@@Z 1013d500 f   GuPCMContactConvexHeightField.obj
 0001:0013cb50       ??$processTriangleCache@$0BA@@PCMConvexVsHeightfieldContactGenerationCallback@physx@@QAEXAAU?$TriangleCache@$0BA@@Gu@1@@Z 1013db50 f i GuPCMContactConvexHeightField.obj
 0001:0013cb80       ??$processTriangleCache@$0BA@VPCMConvexVsMeshContactGeneration@Gu@physx@@@PCMMeshContactGeneration@Gu@physx@@QAE_NAAU?$TriangleCache@$0BA@@12@@Z 1013db80 f i GuPCMContactConvexHeightField.obj
 0001:0013cc50       ??0?$PCMHeightfieldContactGenerationCallback@UPCMConvexVsHeightfieldContactGenerationCallback@physx@@@Gu@physx@@QAE@ABVHeightFieldUtil@12@ABVPxTransform@2@@Z 1013dc50 f i GuPCMContactConvexHeightField.obj
 0001:0013cc90       ??0?$SupportLocalShrunkImpl@VBoxV@Gu@physx@@VShrunkBoxV@23@@Gu@physx@@QAE@ABVBoxV@12@ABVPsTransformV@aos@shdfnd@2@ABUMat33V@562@2_N@Z 1013dc90 f i GuPCMContactConvexHeightField.obj
 0001:0013ccf0       ??0?$SupportLocalShrunkImpl@VConvexHullNoScaleV@Gu@physx@@VShrunkConvexHullNoScaleV@23@@Gu@physx@@QAE@ABVConvexHullNoScaleV@12@ABVPsTransformV@aos@shdfnd@2@ABUMat33V@562@2_N@Z 1013dcf0 f i GuPCMContactConvexHeightField.obj
 0001:0013cd50       ??0?$SupportLocalShrunkImpl@VConvexHullV@Gu@physx@@VShrunkConvexHullV@23@@Gu@physx@@QAE@ABVConvexHullV@12@ABVPsTransformV@aos@shdfnd@2@ABUMat33V@562@2_N@Z 1013dd50 f i GuPCMContactConvexHeightField.obj
 0001:0013cdb0       ??0PCMConvexVsHeightfieldContactGenerationCallback@physx@@QAE@ABT__m128@@0ABUPolygonalData@Gu@1@PAVSupportLocal@41@ABVFastVertex2ShapeScaling@Cm@1@_NABVPsTransformV@aos@shdfnd@1@5ABVPxTransform@1@AAVMultiplePersistentContactManifold@41@AAVContactBuffer@41@AAVHeightFieldUtil@41@AAV?$InlineArray@I$0EEA@VNamedAllocator@shdfnd@physx@@@shdfnd@1@PAVRenderOutput@71@@Z 1013ddb0 f i GuPCMContactConvexHeightField.obj
 0001:0013ce30       ??0PCMConvexVsMeshContactGeneration@Gu@physx@@QAE@ABT__m128@@0ABVPsTransformV@aos@shdfnd@2@1AAVMultiplePersistentContactManifold@12@AAVContactBuffer@12@ABUPolygonalData@12@PAVSupportLocal@12@AAV?$InlineArray@I$0EEA@VNamedAllocator@shdfnd@physx@@@62@ABVFastVertex2ShapeScaling@Cm@2@_NPAVRenderOutput@Cm@2@@Z 1013de30 f i GuPCMContactConvexHeightField.obj
 0001:0013cf60       ??1?$PCMHeightfieldContactGenerationCallback@UPCMConvexVsHeightfieldContactGenerationCallback@physx@@@Gu@physx@@UAE@XZ 1013df60 f i GuPCMContactConvexHeightField.obj
 0001:0013cf80       ??1?$SupportLocalShrunkImpl@VBoxV@Gu@physx@@VShrunkBoxV@23@@Gu@physx@@UAE@XZ 1013df80 f i GuPCMContactConvexHeightField.obj
 0001:0013cfa0       ??1?$SupportLocalShrunkImpl@VConvexHullNoScaleV@Gu@physx@@VShrunkConvexHullNoScaleV@23@@Gu@physx@@UAE@XZ 1013dfa0 f i GuPCMContactConvexHeightField.obj
 0001:0013cfc0       ??1?$SupportLocalShrunkImpl@VConvexHullV@Gu@physx@@VShrunkConvexHullV@23@@Gu@physx@@UAE@XZ 1013dfc0 f i GuPCMContactConvexHeightField.obj
 0001:0013cfe0       ??1PCMConvexVsHeightfieldContactGenerationCallback@physx@@UAE@XZ 1013dfe0 f i GuPCMContactConvexHeightField.obj
 0001:0013d000       ??_G?$PCMHeightfieldContactGenerationCallback@UPCMConvexVsHeightfieldContactGenerationCallback@physx@@@Gu@physx@@UAEPAXI@Z 1013e000 f i GuPCMContactConvexHeightField.obj
 0001:0013d000       ??_E?$PCMHeightfieldContactGenerationCallback@UPCMConvexVsHeightfieldContactGenerationCallback@physx@@@Gu@physx@@UAEPAXI@Z 1013e000 f i GuPCMContactConvexHeightField.obj
 0001:0013d040       ??_G?$SupportLocalShrunkImpl@VBoxV@Gu@physx@@VShrunkBoxV@23@@Gu@physx@@UAEPAXI@Z 1013e040 f i GuPCMContactConvexHeightField.obj
 0001:0013d040       ??_E?$SupportLocalShrunkImpl@VBoxV@Gu@physx@@VShrunkBoxV@23@@Gu@physx@@UAEPAXI@Z 1013e040 f i GuPCMContactConvexHeightField.obj
 0001:0013d080       ??_E?$SupportLocalShrunkImpl@VConvexHullNoScaleV@Gu@physx@@VShrunkConvexHullNoScaleV@23@@Gu@physx@@UAEPAXI@Z 1013e080 f i GuPCMContactConvexHeightField.obj
 0001:0013d080       ??_G?$SupportLocalShrunkImpl@VConvexHullNoScaleV@Gu@physx@@VShrunkConvexHullNoScaleV@23@@Gu@physx@@UAEPAXI@Z 1013e080 f i GuPCMContactConvexHeightField.obj
 0001:0013d0c0       ??_E?$SupportLocalShrunkImpl@VConvexHullV@Gu@physx@@VShrunkConvexHullV@23@@Gu@physx@@UAEPAXI@Z 1013e0c0 f i GuPCMContactConvexHeightField.obj
 0001:0013d0c0       ??_G?$SupportLocalShrunkImpl@VConvexHullV@Gu@physx@@VShrunkConvexHullV@23@@Gu@physx@@UAEPAXI@Z 1013e0c0 f i GuPCMContactConvexHeightField.obj
 0001:0013d100       ??_EPCMConvexVsHeightfieldContactGenerationCallback@physx@@UAEPAXI@Z 1013e100 f i GuPCMContactConvexHeightField.obj
 0001:0013d100       ??_GPCMConvexVsHeightfieldContactGenerationCallback@physx@@UAEPAXI@Z 1013e100 f i GuPCMContactConvexHeightField.obj
 0001:0013d140       ?doSupport@?$SupportLocalShrunkImpl@VBoxV@Gu@physx@@VShrunkBoxV@23@@Gu@physx@@UBE?AT__m128@@ABT4@@Z 1013e140 f i GuPCMContactConvexHeightField.obj
 0001:0013d170       ?doSupport@?$SupportLocalShrunkImpl@VBoxV@Gu@physx@@VShrunkBoxV@23@@Gu@physx@@UBEXABT__m128@@AAT4@1@Z 1013e170 f i GuPCMContactConvexHeightField.obj
 0001:0013d1a0       ?doSupport@?$SupportLocalShrunkImpl@VConvexHullNoScaleV@Gu@physx@@VShrunkConvexHullNoScaleV@23@@Gu@physx@@UBE?AT__m128@@ABT4@@Z 1013e1a0 f i GuPCMContactConvexHeightField.obj
 0001:0013d1d0       ?doSupport@?$SupportLocalShrunkImpl@VConvexHullNoScaleV@Gu@physx@@VShrunkConvexHullNoScaleV@23@@Gu@physx@@UBEXABT__m128@@AAT4@1@Z 1013e1d0 f i GuPCMContactConvexHeightField.obj
 0001:0013d200       ?doSupport@?$SupportLocalShrunkImpl@VConvexHullV@Gu@physx@@VShrunkConvexHullV@23@@Gu@physx@@UBE?AT__m128@@ABT4@@Z 1013e200 f i GuPCMContactConvexHeightField.obj
 0001:0013d230       ?doSupport@?$SupportLocalShrunkImpl@VConvexHullV@Gu@physx@@VShrunkConvexHullV@23@@Gu@physx@@UBEXABT__m128@@AAT4@1@Z 1013e230 f i GuPCMContactConvexHeightField.obj
 0001:0013d260       ?onEvent@?$PCMHeightfieldContactGenerationCallback@UPCMConvexVsHeightfieldContactGenerationCallback@physx@@@Gu@physx@@UAE_NIPAI@Z 1013e260 f i GuPCMContactConvexHeightField.obj
 0001:0013d710       ?populateVerts@?$SupportLocalShrunkImpl@VBoxV@Gu@physx@@VShrunkBoxV@23@@Gu@physx@@UBEXPBEIPBVPxVec3@3@PAT__m128@@@Z 1013e710 f i GuPCMContactConvexHeightField.obj
 0001:0013d750       ?populateVerts@?$SupportLocalShrunkImpl@VConvexHullNoScaleV@Gu@physx@@VShrunkConvexHullNoScaleV@23@@Gu@physx@@UBEXPBEIPBVPxVec3@3@PAT__m128@@@Z 1013e750 f i GuPCMContactConvexHeightField.obj
 0001:0013d790       ?populateVerts@?$SupportLocalShrunkImpl@VConvexHullV@Gu@physx@@VShrunkConvexHullV@23@@Gu@physx@@UBEXPBEIPBVPxVec3@3@PAT__m128@@@Z 1013e790 f i GuPCMContactConvexHeightField.obj
 0001:0013d7d0       ?pcmContactBoxMesh@Gu@physx@@YA_NABVGeometryUnion@12@0ABVPxTransform@2@1ABUNarrowPhaseParams@12@AAUCache@12@AAVContactBuffer@12@PAVRenderOutput@Cm@2@@Z 1013e7d0 f   GuPCMContactConvexMesh.obj
 0001:0013da60       ?pcmContactConvexMesh@Gu@physx@@YA_NABVGeometryUnion@12@0ABVPxTransform@2@1ABUNarrowPhaseParams@12@AAUCache@12@AAVContactBuffer@12@PAVRenderOutput@Cm@2@@Z 1013ea60 f   GuPCMContactConvexMesh.obj
 0001:0013dde0       ?PCMContactConvexMesh@Gu@physx@@YA_NABUPolygonalData@12@PAVSupportLocal@12@ABT__m128@@ABVPxBounds3@2@ABUPxTriangleMeshGeometryLL@2@ABVPxTransform@2@5MAAVContactBuffer@12@ABVFastVertex2ShapeScaling@Cm@2@7_N8AAVMultiplePersistentContactManifold@12@PAVRenderOutput@Cm@2@@Z 1013ede0 f   GuPCMContactConvexMesh.obj
 0001:0013e480       ??$processTriangleCache@$0BA@@PCMConvexVsMeshContactGenerationCallback@physx@@QAEXAAU?$TriangleCache@$0BA@@Gu@1@@Z 1013f480 f i GuPCMContactConvexMesh.obj
 0001:0013e4b0       ??0?$PCMMeshContactGenerationCallback@UPCMConvexVsMeshContactGenerationCallback@physx@@@Gu@physx@@QAE@ABVFastVertex2ShapeScaling@Cm@2@PBE_N@Z 1013f4b0 f i GuPCMContactConvexMesh.obj
 0001:0013e510       ??0PCMConvexVsMeshContactGenerationCallback@physx@@QAE@ABT__m128@@0ABVPsTransformV@aos@shdfnd@1@1AAVMultiplePersistentContactManifold@Gu@1@AAVContactBuffer@71@ABUPolygonalData@71@PAVSupportLocal@71@AAV?$InlineArray@I$0EEA@VNamedAllocator@shdfnd@physx@@@51@ABVFastVertex2ShapeScaling@Cm@1@_N7PBE8ABVBoxPadded@71@PAVRenderOutput@Cm@1@@Z 1013f510 f i GuPCMContactConvexMesh.obj
 0001:0013e5b0       ??1?$PCMMeshContactGenerationCallback@UPCMConvexVsMeshContactGenerationCallback@physx@@@Gu@physx@@UAE@XZ 1013f5b0 f i GuPCMContactConvexMesh.obj
 0001:0013e5d0       ??1PCMConvexVsMeshContactGenerationCallback@physx@@UAE@XZ 1013f5d0 f i GuPCMContactConvexMesh.obj
 0001:0013e5f0       ??_E?$PCMMeshContactGenerationCallback@UPCMConvexVsMeshContactGenerationCallback@physx@@@Gu@physx@@UAEPAXI@Z 1013f5f0 f i GuPCMContactConvexMesh.obj
 0001:0013e5f0       ??_G?$PCMMeshContactGenerationCallback@UPCMConvexVsMeshContactGenerationCallback@physx@@@Gu@physx@@UAEPAXI@Z 1013f5f0 f i GuPCMContactConvexMesh.obj
 0001:0013e630       ??_EPCMConvexVsMeshContactGenerationCallback@physx@@UAEPAXI@Z 1013f630 f i GuPCMContactConvexMesh.obj
 0001:0013e630       ??_GPCMConvexVsMeshContactGenerationCallback@physx@@UAEPAXI@Z 1013f630 f i GuPCMContactConvexMesh.obj
 0001:0013e670       ?doTest@PCMConvexVsMeshContactGenerationCallback@physx@@QAEHABVPxVec3@2@00@Z 1013f670 f i GuPCMContactConvexMesh.obj
 0001:0013e6b0       ?flushCache@?$PCMMeshContactGenerationCallback@UPCMConvexVsMeshContactGenerationCallback@physx@@@Gu@physx@@QAEXXZ 1013f6b0 f i GuPCMContactConvexMesh.obj
 0001:0013e700       ?processHit@?$PCMMeshContactGenerationCallback@UPCMConvexVsMeshContactGenerationCallback@physx@@@Gu@physx@@UAE_NABUPxRaycastHit@3@ABVPxVec3@3@11AAMPBI@Z 1013f700 f i GuPCMContactConvexMesh.obj
 0001:0013e900       ?generateFullContactManifold@Gu@physx@@YA_NAAUPolygonalData@12@0PAVSupportLocal@12@1PAVPersistentContact@12@AAIABT__m128@@44444_NPAVRenderOutput@Cm@2@4@Z 1013f900 f   GuPCMContactGenBoxConvex.obj
 0001:0013eef0       ?computeMTD@Gu@physx@@YA_NAAUPolygonalData@12@0PAVSupportLocal@12@1AAT__m128@@2@Z 1013fef0 f   GuPCMContactGenBoxConvex.obj
 0001:0013f120       ?buildPartialHull@Gu@physx@@YAXABUPolygonalData@12@PAVSupportLocal@12@AAVSeparatingAxes@12@ABT__m128@@3@Z 10140120 f   GuPCMContactGenBoxConvex.obj
 0001:001403f0       ?generatedContacts@Gu@physx@@YAXAAUPolygonalData@12@0ABUHullPolygonData@12@1PAVSupportLocal@12@2ABVPsMatTransformV@aos@shdfnd@2@PAVPersistentContact@12@AAIABT__m128@@PAVRenderOutput@Cm@2@@Z 101413f0 f   GuPCMContactGenBoxConvex.obj
 0001:00141e10       ??$PX_UNUSED@UPolygonalData@Gu@physx@@@@YAXABUPolygonalData@Gu@physx@@@Z 10142e10 f i GuPCMContactGenBoxConvex.obj
 0001:00141e20       ?getPolygonIndex@Gu@physx@@YAHABUPolygonalData@12@PAVSupportLocal@12@ABT__m128@@@Z 10142e20 f i GuPCMContactGenBoxConvex.obj
 0001:001423e0       ?getWitnessPolygonIndex@Gu@physx@@YAIABUPolygonalData@12@PAVSupportLocal@12@ABT__m128@@22@Z 101433e0 f i GuPCMContactGenBoxConvex.obj
 0001:00142790       ?signed2DTriArea@Gu@physx@@YA?AT__m128@@ABT3@00@Z 10143790 f i GuPCMContactGenBoxConvex.obj
 0001:001428d0       ?generateFullContactManifold@Gu@physx@@YA_NABVCapsuleV@12@AAUPolygonalData@12@PAVSupportLocal@12@ABVPsMatTransformV@aos@shdfnd@2@PAVPersistentContact@12@AAIABT__m128@@AAT__m128@@66_N6@Z 101438d0 f   GuPCMContactGenSphereCapsule.obj
 0001:00142b30       ?generateCapsuleBoxFullContactManifold@Gu@physx@@YA_NABVCapsuleV@12@AAUPolygonalData@12@PAVSupportLocal@12@ABVPsMatTransformV@aos@shdfnd@2@PAVPersistentContact@12@AAIABT__m128@@AAT__m128@@66_N6@Z 10143b30 f   GuPCMContactGenSphereCapsule.obj
 0001:00142d10       ?computeMTD@Gu@physx@@YA_NABVCapsuleV@12@AAUPolygonalData@12@PAVSupportLocal@12@AAT__m128@@3@Z 10143d10 f   GuPCMContactGenSphereCapsule.obj
 0001:00142da0       ?generateSphereFullContactManifold@Gu@physx@@YA_NABVCapsuleV@12@AAUPolygonalData@12@PAVSupportLocal@12@PAVPersistentContact@12@AAIABT__m128@@AAT7@_N@Z 10143da0 f   GuPCMContactGenSphereCapsule.obj
 0001:001434a0       ?generatedCapsuleBoxFaceContacts@Gu@physx@@YAXABVCapsuleV@12@AAUPolygonalData@12@ABUHullPolygonData@12@PAVSupportLocal@12@ABVPsMatTransformV@aos@shdfnd@2@PAVPersistentContact@12@AAIABT__m128@@7@Z 101444a0 f   GuPCMContactGenSphereCapsule.obj
 0001:00144260       ?generatedContactsEEContacts@Gu@physx@@YAXABVCapsuleV@12@AAUPolygonalData@12@ABUHullPolygonData@12@PAVSupportLocal@12@ABVPsMatTransformV@aos@shdfnd@2@PAVPersistentContact@12@AAIABT__m128@@7@Z 10145260 f   GuPCMContactGenSphereCapsule.obj
 0001:00144a10       ?BAndNot@aos@shdfnd@physx@@YA?AT__m128@@T4@0@Z 10145a10 f i GuPCMContactGenSphereCapsule.obj
 0001:00144a60       ?intersectSegmentPolyhedron@Gu@physx@@YA_NABT__m128@@0ABUPolygonalData@12@AAT3@2@Z 10145a60 f i GuPCMContactGenSphereCapsule.obj
 0001:00144e10       ?testPolyDataAxis@Gu@physx@@YA_NABVCapsuleV@12@ABUPolygonalData@12@PAVSupportLocal@12@ABT__m128@@AAT6@4@Z 10145e10 f i GuPCMContactGenSphereCapsule.obj
 0001:001452c0       ?pcmContactPlaneBox@Gu@physx@@YA_NABVGeometryUnion@12@0ABVPxTransform@2@1ABUNarrowPhaseParams@12@AAUCache@12@AAVContactBuffer@12@PAVRenderOutput@Cm@2@@Z 101462c0 f   GuPCMContactPlaneBox.obj
 0001:001465e0       ?invalidate_PrimitivesPlane@PersistentContactManifold@Gu@physx@@QAEIABVPsTransformV@aos@shdfnd@3@ABT__m128@@1@Z 101475e0 f i GuPCMContactPlaneBox.obj
 0001:00146710       ?pcmContactPlaneCapsule@Gu@physx@@YA_NABVGeometryUnion@12@0ABVPxTransform@2@1ABUNarrowPhaseParams@12@AAUCache@12@AAVContactBuffer@12@PAVRenderOutput@Cm@2@@Z 10147710 f   GuPCMContactPlaneCapsule.obj
 0001:00146e30       ?pcmContactPlaneConvex@Gu@physx@@YA_NABVGeometryUnion@12@0ABVPxTransform@2@1ABUNarrowPhaseParams@12@AAUCache@12@AAVContactBuffer@12@PAVRenderOutput@Cm@2@@Z 10147e30 f   GuPCMContactPlaneConvex.obj
 0001:001474e0       ?ConstructVertex2ShapeMatrix@Gu@physx@@YA?AUMat33V@aos@shdfnd@2@ABT__m128@@0@Z 101484e0 f i GuPCMContactPlaneConvex.obj
 0001:00147620       ?pcmContactSphereBox@Gu@physx@@YA_NABVGeometryUnion@12@0ABVPxTransform@2@1ABUNarrowPhaseParams@12@AAUCache@12@AAVContactBuffer@12@PAVRenderOutput@Cm@2@@Z 10148620 f   GuPCMContactSphereBox.obj
 0001:00148040       ?BAllTrue3@aos@shdfnd@physx@@YA?AT__m128@@T4@@Z 10149040 f i GuPCMContactSphereBox.obj
 0001:001480e0       ?V3Clamp@aos@shdfnd@physx@@YA?AT__m128@@T4@00@Z 101490e0 f i GuPCMContactSphereBox.obj
 0001:00148250       ?pcmContactSphereCapsule@Gu@physx@@YA_NABVGeometryUnion@12@0ABVPxTransform@2@1ABUNarrowPhaseParams@12@AAUCache@12@AAVContactBuffer@12@PAVRenderOutput@Cm@2@@Z 10149250 f   GuPCMContactSphereCapsule.obj
 0001:001487e0       ?PxcDistancePointSegmentSquared@Gu@physx@@YA?AT__m128@@ABT3@00AAT3@@Z 101497e0 f i GuPCMContactSphereCapsule.obj
 0001:00148a00       ?pcmContactSphereConvex@Gu@physx@@YA_NABVGeometryUnion@12@0ABVPxTransform@2@1ABUNarrowPhaseParams@12@AAUCache@12@AAVContactBuffer@12@PAVRenderOutput@Cm@2@@Z 10149a00 f   GuPCMContactSphereConvex.obj
 0001:00149bb0       ??0CapsuleV@Gu@physx@@QAE@ABT__m128@@0@Z 1014abb0 f i GuPCMContactSphereConvex.obj
 0001:00149c70       ?getContactPoint@PersistentContactManifold@Gu@physx@@QAEAAVPersistentContact@23@I@Z 1014ac70 f i GuPCMContactSphereConvex.obj
 0001:00149ce0       ?pcmContactSphereHeightField@Gu@physx@@YA_NABVGeometryUnion@12@0ABVPxTransform@2@1ABUNarrowPhaseParams@12@AAUCache@12@AAVContactBuffer@12@PAVRenderOutput@Cm@2@@Z 1014ace0 f   GuPCMContactSphereHeightField.obj
 0001:0014a260       ??$processTriangleCache@$0BA@@PCMSphereVsHeightfieldContactGenerationCallback@physx@@QAEXAAU?$TriangleCache@$0BA@@Gu@1@@Z 1014b260 f i GuPCMContactSphereHeightField.obj
 0001:0014a290       ??$processTriangleCache@$0BA@VPCMSphereVsMeshContactGeneration@Gu@physx@@@PCMMeshContactGeneration@Gu@physx@@QAE_NAAU?$TriangleCache@$0BA@@12@@Z 1014b290 f i GuPCMContactSphereHeightField.obj
 0001:0014a360       ??0?$PCMHeightfieldContactGenerationCallback@UPCMSphereVsHeightfieldContactGenerationCallback@physx@@@Gu@physx@@QAE@ABVHeightFieldUtil@12@ABVPxTransform@2@@Z 1014b360 f i GuPCMContactSphereHeightField.obj
 0001:0014a3a0       ??0PCMSphereVsHeightfieldContactGenerationCallback@physx@@QAE@ABT__m128@@000ABVPsTransformV@aos@shdfnd@1@1ABVPxTransform@1@AAVMultiplePersistentContactManifold@Gu@1@AAVContactBuffer@81@AAVHeightFieldUtil@81@@Z 1014b3a0 f i GuPCMContactSphereHeightField.obj
 0001:0014a410       ??0PCMSphereVsMeshContactGeneration@Gu@physx@@QAE@ABT__m128@@000ABVPsTransformV@aos@shdfnd@2@1AAVMultiplePersistentContactManifold@12@AAVContactBuffer@12@PAVRenderOutput@Cm@2@@Z 1014b410 f i GuPCMContactSphereHeightField.obj
 0001:0014a4f0       ??1?$PCMHeightfieldContactGenerationCallback@UPCMSphereVsHeightfieldContactGenerationCallback@physx@@@Gu@physx@@UAE@XZ 1014b4f0 f i GuPCMContactSphereHeightField.obj
 0001:0014a510       ??1PCMSphereVsHeightfieldContactGenerationCallback@physx@@UAE@XZ 1014b510 f i GuPCMContactSphereHeightField.obj
 0001:0014a530       ??_E?$PCMHeightfieldContactGenerationCallback@UPCMSphereVsHeightfieldContactGenerationCallback@physx@@@Gu@physx@@UAEPAXI@Z 1014b530 f i GuPCMContactSphereHeightField.obj
 0001:0014a530       ??_G?$PCMHeightfieldContactGenerationCallback@UPCMSphereVsHeightfieldContactGenerationCallback@physx@@@Gu@physx@@UAEPAXI@Z 1014b530 f i GuPCMContactSphereHeightField.obj
 0001:0014a570       ??_EPCMSphereVsHeightfieldContactGenerationCallback@physx@@UAEPAXI@Z 1014b570 f i GuPCMContactSphereHeightField.obj
 0001:0014a570       ??_GPCMSphereVsHeightfieldContactGenerationCallback@physx@@UAEPAXI@Z 1014b570 f i GuPCMContactSphereHeightField.obj
 0001:0014a5b0       ?onEvent@?$PCMHeightfieldContactGenerationCallback@UPCMSphereVsHeightfieldContactGenerationCallback@physx@@@Gu@physx@@UAE_NIPAI@Z 1014b5b0 f i GuPCMContactSphereHeightField.obj
 0001:0014aa60       ?pcmContactSphereMesh@Gu@physx@@YA_NABVGeometryUnion@12@0ABVPxTransform@2@1ABUNarrowPhaseParams@12@AAUCache@12@AAVContactBuffer@12@PAVRenderOutput@Cm@2@@Z 1014ba60 f   GuPCMContactSphereMesh.obj
 0001:0014b070       ??$processTriangleCache@$0BA@@PCMSphereVsMeshContactGenerationCallback@physx@@QAEXAAU?$TriangleCache@$0BA@@Gu@1@@Z 1014c070 f i GuPCMContactSphereMesh.obj
 0001:0014b0a0       ??0?$PCMMeshContactGenerationCallback@UPCMSphereVsMeshContactGenerationCallback@physx@@@Gu@physx@@QAE@ABVFastVertex2ShapeScaling@Cm@2@PBE_N@Z 1014c0a0 f i GuPCMContactSphereMesh.obj
 0001:0014b100       ??0PCMSphereVsMeshContactGenerationCallback@physx@@QAE@ABT__m128@@000ABVPsTransformV@aos@shdfnd@1@1AAVMultiplePersistentContactManifold@Gu@1@AAVContactBuffer@71@PBEABVFastVertex2ShapeScaling@Cm@1@_NPAVRenderOutput@Cm@1@@Z 1014c100 f i GuPCMContactSphereMesh.obj
 0001:0014b180       ??1?$PCMMeshContactGenerationCallback@UPCMSphereVsMeshContactGenerationCallback@physx@@@Gu@physx@@UAE@XZ 1014c180 f i GuPCMContactSphereMesh.obj
 0001:0014b1a0       ??1PCMSphereVsMeshContactGenerationCallback@physx@@UAE@XZ 1014c1a0 f i GuPCMContactSphereMesh.obj
 0001:0014b1c0       ??_E?$PCMMeshContactGenerationCallback@UPCMSphereVsMeshContactGenerationCallback@physx@@@Gu@physx@@UAEPAXI@Z 1014c1c0 f i GuPCMContactSphereMesh.obj
 0001:0014b1c0       ??_G?$PCMMeshContactGenerationCallback@UPCMSphereVsMeshContactGenerationCallback@physx@@@Gu@physx@@UAEPAXI@Z 1014c1c0 f i GuPCMContactSphereMesh.obj
 0001:0014b200       ??_GPCMSphereVsMeshContactGenerationCallback@physx@@UAEPAXI@Z 1014c200 f i GuPCMContactSphereMesh.obj
 0001:0014b200       ??_EPCMSphereVsMeshContactGenerationCallback@physx@@UAEPAXI@Z 1014c200 f i GuPCMContactSphereMesh.obj
 0001:0014b240       ?doTest@PCMSphereVsMeshContactGenerationCallback@physx@@QAE_NABVPxVec3@2@00@Z 1014c240 f i GuPCMContactSphereMesh.obj
 0001:0014b260       ?flushCache@?$PCMMeshContactGenerationCallback@UPCMSphereVsMeshContactGenerationCallback@physx@@@Gu@physx@@QAEXXZ 1014c260 f i GuPCMContactSphereMesh.obj
 0001:0014b2b0       ?processHit@?$PCMMeshContactGenerationCallback@UPCMSphereVsMeshContactGenerationCallback@physx@@@Gu@physx@@UAE_NABUPxRaycastHit@3@ABVPxVec3@3@11AAMPBI@Z 1014c2b0 f i GuPCMContactSphereMesh.obj
 0001:0014b4b0       ?pcmContactSpherePlane@Gu@physx@@YA_NABVGeometryUnion@12@0ABVPxTransform@2@1ABUNarrowPhaseParams@12@AAUCache@12@AAVContactBuffer@12@PAVRenderOutput@Cm@2@@Z 1014c4b0 f   GuPCMContactSpherePlane.obj
 0001:0014b790       ?pcmContactSphereSphere@Gu@physx@@YA_NABVGeometryUnion@12@0ABVPxTransform@2@1ABUNarrowPhaseParams@12@AAUCache@12@AAVContactBuffer@12@PAVRenderOutput@Cm@2@@Z 1014c790 f   GuPCMContactSphereSphere.obj
 0001:0014bcc0       ??0PCMPolygonalBox@Gu@physx@@QAE@ABVPxVec3@2@@Z 1014ccc0 f   GuPCMShapeConvex.obj
 0001:0014c4a0       ?getPolygonalData@PCMPolygonalBox@Gu@physx@@QBEXPIAUPolygonalData@23@@Z 1014d4a0 f   GuPCMShapeConvex.obj
 0001:0014c580       ?getPCMConvexData@Gu@physx@@YAXABVConvexHullV@12@_NAAUPolygonalData@12@@Z 1014d580 f   GuPCMShapeConvex.obj
 0001:0014c610       ?getPCMConvexData@Gu@physx@@YA_NABVGeometryUnion@12@AAVFastVertex2ShapeScaling@Cm@2@AAVPxBounds3@2@AAUPolygonalData@12@@Z 1014d610 f   GuPCMShapeConvex.obj
 0001:0014cc60       ?getVerticesByEdges16@ConvexHullData@Gu@physx@@QBEPBGXZ 1014dc60 f i GuPCMShapeConvex.obj
 0001:0014cd00       ?generateTriangleFullContactManifold@PCMConvexVsMeshContactGeneration@Gu@physx@@QAE_NAAVTriangleV@23@IPBIEABUPolygonalData@23@PAV?$SupportLocalImpl@VTriangleV@Gu@physx@@@23@PAVSupportLocal@23@PAVMeshPersistentContact@23@AAIABT__m128@@AAT9@@Z 1014dd00 f   GuPCMTriangleContactGen.obj
 0001:0014d1e0       ?generatePolyDataContactManifold@PCMConvexVsMeshContactGeneration@Gu@physx@@QAE_NAAVTriangleV@23@IIEPAVMeshPersistentContact@23@AAIABT__m128@@AAT6@@Z 1014e1e0 f   GuPCMTriangleContactGen.obj
 0001:0014d2d0       ?generateTriangleFullContactManifold@PCMConvexVsMeshContactGeneration@Gu@physx@@SA_NAAVTriangleV@23@IEABUPolygonalData@23@PAV?$SupportLocalImpl@VTriangleV@Gu@physx@@@23@PAVSupportLocal@23@PAVMeshPersistentContact@23@AAIABT__m128@@AAT9@PAVRenderOutput@Cm@3@@Z 1014e2d0 f   GuPCMTriangleContactGen.obj
 0001:00150e50       ??$PX_UNUSED@E@@YAXABE@Z   10151e50 f i GuPCMTriangleContactGen.obj
 0001:00150e60       ??$PX_UNUSED@PAV?$SupportLocalImpl@VTriangleV@Gu@physx@@@Gu@physx@@@@YAXABQAV?$SupportLocalImpl@VTriangleV@Gu@physx@@@Gu@physx@@@Z 10151e60 f i GuPCMTriangleContactGen.obj
 0001:00150e70       ??$PX_UNUSED@VTriangleV@Gu@physx@@@@YAXABVTriangleV@Gu@physx@@@Z 10151e70 f i GuPCMTriangleContactGen.obj
 0001:00150e80       ?FRsqrtFast@aos@shdfnd@physx@@YA?AT__m128@@T4@@Z 10151e80 f i GuPCMTriangleContactGen.obj
 0001:00150f20       ?V3AllGrtr@aos@shdfnd@physx@@YAIT__m128@@0@Z 10151f20 f i GuPCMTriangleContactGen.obj
 0001:00151020       ?V3LengthSq@aos@shdfnd@physx@@YA?AT__m128@@T4@@Z 10152020 f i GuPCMTriangleContactGen.obj
 0001:001510c0       ?findRotationMatrixFromZAxis@Gu@physx@@YA?AUMat33V@aos@shdfnd@2@ABT__m128@@@Z 101520c0 f   GuPersistentContactManifold.obj
 0001:001518e0       ?replaceManifoldPoint@PersistentContactManifold@Gu@physx@@QAE_NABT__m128@@000@Z 101528e0 f   GuPersistentContactManifold.obj
 0001:00151a60       ?addManifoldPoint@PersistentContactManifold@Gu@physx@@QAEIABT__m128@@000@Z 10152a60 f   GuPersistentContactManifold.obj
 0001:00151b30       ?addManifoldPoint2@PersistentContactManifold@Gu@physx@@QAEIABT__m128@@000@Z 10152b30 f   GuPersistentContactManifold.obj
 0001:00151c40       ?addBatchManifoldContactsCluster@PersistentContactManifold@Gu@physx@@QAEXPBVPersistentContact@23@I@Z 10152c40 f   GuPersistentContactManifold.obj
 0001:00151cf0       ?addBatchManifoldContacts2@PersistentContactManifold@Gu@physx@@QAEXPBVPersistentContact@23@I@Z 10152cf0 f   GuPersistentContactManifold.obj
 0001:00151da0       ?addBatchManifoldContacts@PersistentContactManifold@Gu@physx@@QAEXPBVPersistentContact@23@I@Z 10152da0 f   GuPersistentContactManifold.obj
 0001:00151e50       ?reduceBatchContactsCluster@PersistentContactManifold@Gu@physx@@QAEXPBVPersistentContact@23@I@Z 10152e50 f   GuPersistentContactManifold.obj
 0001:001525c0       ?reduceBatchContacts2@PersistentContactManifold@Gu@physx@@QAEXPBVPersistentContact@23@I@Z 101535c0 f   GuPersistentContactManifold.obj
 0001:00152990       ?reduceBatchContacts@PersistentContactManifold@Gu@physx@@QAEXPBVPersistentContact@23@I@Z 10153990 f   GuPersistentContactManifold.obj
 0001:00152f60       ?reduceContactsForPCM@PersistentContactManifold@Gu@physx@@QAEIABT__m128@@00@Z 10153f60 f   GuPersistentContactManifold.obj
 0001:00153570       ?reduceContactSegment@PersistentContactManifold@Gu@physx@@QAEIABT__m128@@00@Z 10154570 f   GuPersistentContactManifold.obj
 0001:00153700       ?addManifoldContactsToContactBuffer@PersistentContactManifold@Gu@physx@@QAEXAAVContactBuffer@23@ABT__m128@@ABVPsMatTransformV@aos@shdfnd@3@@Z 10154700 f   GuPersistentContactManifold.obj
 0001:00153930       ?addManifoldContactsToContactBuffer@PersistentContactManifold@Gu@physx@@QAEXAAVContactBuffer@23@ABT__m128@@ABVPsTransformV@aos@shdfnd@3@1@Z 10154930 f   GuPersistentContactManifold.obj
 0001:00153b60       ?addManifoldContactsToContactBuffer@PersistentContactManifold@Gu@physx@@QAEXAAVContactBuffer@23@ABT__m128@@ABVPsTransformV@aos@shdfnd@3@11@Z 10154b60 f   GuPersistentContactManifold.obj
 0001:00153cf0       ?drawManifold@PersistentContactManifold@Gu@physx@@QAEXAAVRenderOutput@Cm@3@ABVPsTransformV@aos@shdfnd@3@1@Z 10154cf0 f   GuPersistentContactManifold.obj
 0001:00153d90       ?drawManifold@PersistentContactManifold@Gu@physx@@QAEXAAVRenderOutput@Cm@3@ABVPsTransformV@aos@shdfnd@3@1ABT__m128@@@Z 10154d90 f   GuPersistentContactManifold.obj
 0001:00153e30       ?drawManifold@PersistentContactManifold@Gu@physx@@QAEXABVPersistentContact@23@AAVRenderOutput@Cm@3@ABVPsTransformV@aos@shdfnd@3@2@Z 10154e30 f   GuPersistentContactManifold.obj
 0001:00153e70       ?drawPoint@PersistentContactManifold@Gu@physx@@SAXAAVRenderOutput@Cm@3@ABT__m128@@MI@Z 10154e70 f   GuPersistentContactManifold.obj
 0001:00154010       ?drawLine@PersistentContactManifold@Gu@physx@@SAXAAVRenderOutput@Cm@3@ABT__m128@@1I@Z 10155010 f   GuPersistentContactManifold.obj
 0001:001540b0       ?drawTriangle@PersistentContactManifold@Gu@physx@@SAXAAVRenderOutput@Cm@3@ABT__m128@@11I@Z 101550b0 f   GuPersistentContactManifold.obj
 0001:00154180       ?drawPolygon@PersistentContactManifold@Gu@physx@@SAXAAVRenderOutput@Cm@3@ABVPsTransformV@aos@shdfnd@3@PAT__m128@@II@Z 10155180 f   GuPersistentContactManifold.obj
 0001:00154230       ?drawPolygon@PersistentContactManifold@Gu@physx@@SAXAAVRenderOutput@Cm@3@ABVPsMatTransformV@aos@shdfnd@3@PAT__m128@@II@Z 10155230 f   GuPersistentContactManifold.obj
 0001:001542e0       ?reduceBatchContactsConvex@SinglePersistentContactManifold@Gu@physx@@QAE?AT__m128@@PBVMeshPersistentContact@23@IAAUPCMContactPatch@23@@Z 101552e0 f   GuPersistentContactManifold.obj
 0001:00154b60       ?reduceBatchContactsSphere@SinglePersistentContactManifold@Gu@physx@@QAE?AT__m128@@PBVMeshPersistentContact@23@IAAUPCMContactPatch@23@@Z 10155b60 f   GuPersistentContactManifold.obj
 0001:00154c90       ?reduceBatchContactsCapsule@SinglePersistentContactManifold@Gu@physx@@QAE?AT__m128@@PBVMeshPersistentContact@23@IAAUPCMContactPatch@23@@Z 10155c90 f   GuPersistentContactManifold.obj
 0001:00155080       ?addBatchManifoldContactsConvex@SinglePersistentContactManifold@Gu@physx@@QAE?AT__m128@@PBVMeshPersistentContact@23@IAAUPCMContactPatch@23@ABT4@@Z 10156080 f   GuPersistentContactManifold.obj
 0001:00155180       ?addBatchManifoldContactsSphere@SinglePersistentContactManifold@Gu@physx@@QAE?AT__m128@@PBVMeshPersistentContact@23@IAAUPCMContactPatch@23@ABT4@@Z 10156180 f   GuPersistentContactManifold.obj
 0001:001551f0       ?addBatchManifoldContactsCapsule@SinglePersistentContactManifold@Gu@physx@@QAE?AT__m128@@PBVMeshPersistentContact@23@IAAUPCMContactPatch@23@ABT4@@Z 101561f0 f   GuPersistentContactManifold.obj
 0001:001552f0       ?reduceContacts@SinglePersistentContactManifold@Gu@physx@@SAIPAVMeshPersistentContact@23@I@Z 101562f0 f   GuPersistentContactManifold.obj
 0001:00155910       ?refreshContactPoints@SinglePersistentContactManifold@Gu@physx@@QAE?AT__m128@@ABVPsMatTransformV@aos@shdfnd@3@ABT4@1@Z 10156910 f   GuPersistentContactManifold.obj
 0001:00155b40       ?drawManifold@SinglePersistentContactManifold@Gu@physx@@QAEXAAVRenderOutput@Cm@3@ABVPsTransformV@aos@shdfnd@3@1@Z 10156b40 f   GuPersistentContactManifold.obj
 0001:00155be0       ?addManifoldContactPoints@MultiplePersistentContactManifold@Gu@physx@@QAEXPAVMeshPersistentContact@23@IPAPAUPCMContactPatch@23@IABT__m128@@2E@Z 10156be0 f   GuPersistentContactManifold.obj
 0001:00156190       ?addManifoldContactsToContactBuffer@MultiplePersistentContactManifold@Gu@physx@@QAE_NAAVContactBuffer@23@ABVPsTransformV@aos@shdfnd@3@@Z 10157190 f   GuPersistentContactManifold.obj
 0001:001563f0       ?addManifoldContactsToContactBuffer@MultiplePersistentContactManifold@Gu@physx@@QAE_NAAVContactBuffer@23@ABVPsTransformV@aos@shdfnd@3@1ABT__m128@@@Z 101573f0 f   GuPersistentContactManifold.obj
 0001:00156690       ?drawManifold@MultiplePersistentContactManifold@Gu@physx@@QAEXAAVRenderOutput@Cm@3@ABVPsTransformV@aos@shdfnd@3@1@Z 10157690 f   GuPersistentContactManifold.obj
 0001:001566f0       ?fromBuffer@MultiplePersistentContactManifold@Gu@physx@@QAEXPIAE@Z 101576f0 f   GuPersistentContactManifold.obj
 0001:001569d0       ?drawLine@MultiplePersistentContactManifold@Gu@physx@@SAXAAVRenderOutput@Cm@3@ABT__m128@@1I@Z 101579d0 f   GuPersistentContactManifold.obj
 0001:00156a70       ?drawLine@MultiplePersistentContactManifold@Gu@physx@@SAXAAVRenderOutput@Cm@3@VPxVec3@3@1I@Z 10157a70 f   GuPersistentContactManifold.obj
 0001:00156ad0       ?drawPoint@MultiplePersistentContactManifold@Gu@physx@@SAXAAVRenderOutput@Cm@3@ABT__m128@@MI@Z 10157ad0 f   GuPersistentContactManifold.obj
 0001:00156c70       ?drawPolygon@MultiplePersistentContactManifold@Gu@physx@@SAXAAVRenderOutput@Cm@3@ABVPsTransformV@aos@shdfnd@3@PAT__m128@@II@Z 10157c70 f   GuPersistentContactManifold.obj
 0001:0015a260       ?BTFTT@aos@shdfnd@physx@@YA?AT__m128@@XZ 1015b260 f i GuPersistentContactManifold.obj
 0001:0015a2b0       ?V3SetY@aos@shdfnd@physx@@YA?AT__m128@@T4@0@Z 1015b2b0 f i GuPersistentContactManifold.obj
 0001:0015a3c0       ?getContactPoint@SinglePersistentContactManifold@Gu@physx@@QAEAAVMeshPersistentContact@23@I@Z 1015b3c0 f i GuPersistentContactManifold.obj
 0001:0015a430       ?getLocalNormal@SinglePersistentContactManifold@Gu@physx@@QAE?AT__m128@@XZ 1015b430 f i GuPersistentContactManifold.obj
 0001:0015a500       ?getNumContacts@SinglePersistentContactManifold@Gu@physx@@QBEIXZ 1015b500 f i GuPersistentContactManifold.obj
 0001:0015a520       ?getWorldNormal@SinglePersistentContactManifold@Gu@physx@@QAE?AT__m128@@ABVPsTransformV@aos@shdfnd@3@@Z 1015b520 f i GuPersistentContactManifold.obj
 0001:0015a610       ?removeContactPoint@SinglePersistentContactManifold@Gu@physx@@QAEXI@Z 1015b610 f i GuPersistentContactManifold.obj
 0001:0015a670       ?SweepEstimateAnyShapeHeightfield@Gu@physx@@YAMABUCCDShape@12@0ABVPxTransform@2@111MM@Z 1015b670 f   GuCCDSweepConvexMesh.obj
 0001:0015aa70       ?SweepEstimateAnyShapeMesh@Gu@physx@@YAMABUCCDShape@12@0ABVPxTransform@2@111MM@Z 1015ba70 f   GuCCDSweepConvexMesh.obj
 0001:0015b100       ?SweepAnyShapeHeightfield@Gu@physx@@YAMABUCCDShape@12@0ABVPxTransform@2@111MAAVPxVec3@2@2MAAIM@Z 1015c100 f   GuCCDSweepConvexMesh.obj
 0001:0015bbd0       ?SweepAnyShapeMesh@Gu@physx@@YAMABUCCDShape@12@0ABVPxTransform@2@111MAAVPxVec3@2@2MAAIM@Z 1015cbd0 f   GuCCDSweepConvexMesh.obj
 0001:0015cf40       ??0?$Array@IV?$InlineAllocator@$0BAA@VNamedAllocator@shdfnd@physx@@@shdfnd@physx@@@shdfnd@physx@@QAE@ABV?$InlineAllocator@$0BAA@VNamedAllocator@shdfnd@physx@@@12@@Z 1015df40 f i GuCCDSweepConvexMesh.obj
 0001:0015cfa0       ??0?$Array@IVNamedAllocator@shdfnd@physx@@@shdfnd@physx@@QAE@IABIABVNamedAllocator@12@@Z 1015dfa0 f i GuCCDSweepConvexMesh.obj
 0001:0015d000       ??0?$InlineAllocator@$0BAA@VNamedAllocator@shdfnd@physx@@@shdfnd@physx@@QAE@ABV012@@Z 1015e000 f i GuCCDSweepConvexMesh.obj
 0001:0015d030       ??0?$InlineAllocator@$0BAA@VNamedAllocator@shdfnd@physx@@@shdfnd@physx@@QAE@ABVNamedAllocator@12@@Z 1015e030 f i GuCCDSweepConvexMesh.obj
 0001:0015d060       ??0?$InlineArray@I$0EA@VNamedAllocator@shdfnd@physx@@@shdfnd@physx@@QAE@ABVNamedAllocator@12@@Z 1015e060 f i GuCCDSweepConvexMesh.obj
 0001:0015d220       ??1?$Array@IV?$InlineAllocator@$0BAA@VNamedAllocator@shdfnd@physx@@@shdfnd@physx@@@shdfnd@physx@@QAE@XZ 1015e220 f i GuCCDSweepConvexMesh.obj
 0001:0015d2a0       ??1?$Array@IVNamedAllocator@shdfnd@physx@@@shdfnd@physx@@QAE@XZ 1015e2a0 f i GuCCDSweepConvexMesh.obj
 0001:0015d310       ??1?$InlineAllocator@$0BAA@VNamedAllocator@shdfnd@physx@@@shdfnd@physx@@QAE@XZ 1015e310 f i GuCCDSweepConvexMesh.obj
 0001:0015d330       ??1?$InlineArray@I$0EA@VNamedAllocator@shdfnd@physx@@@shdfnd@physx@@QAE@XZ 1015e330 f i GuCCDSweepConvexMesh.obj
 0001:0015d3c0       ??_EAccumCallback@?A0x2401f0fe@Gu@physx@@UAEPAXI@Z 1015e3c0 f i GuCCDSweepConvexMesh.obj
 0001:0015d3c0       ??_GAccumCallback@?A0x2401f0fe@Gu@physx@@UAEPAXI@Z 1015e3c0 f i GuCCDSweepConvexMesh.obj
 0001:0015d400       ??_GCB@?1??SweepEstimateAnyShapeMesh@Gu@physx@@YAMABUCCDShape@23@0ABVPxTransform@3@111MM@Z@UAEPAXI@Z 1015e400 f i GuCCDSweepConvexMesh.obj
 0001:0015d400       ??_ECB@?1??SweepEstimateAnyShapeMesh@Gu@physx@@YAMABUCCDShape@23@0ABVPxTransform@3@111MM@Z@UAEPAXI@Z 1015e400 f i GuCCDSweepConvexMesh.obj
 0001:0015d440       ??_EEntityReportContainerCallback@?A0x2401f0fe@Gu@physx@@UAEPAXI@Z 1015e440 f i GuCCDSweepConvexMesh.obj
 0001:0015d440       ??_GEntityReportContainerCallback@?A0x2401f0fe@Gu@physx@@UAEPAXI@Z 1015e440 f i GuCCDSweepConvexMesh.obj
 0001:0015d480       ?allocate@?$Array@IV?$InlineAllocator@$0BAA@VNamedAllocator@shdfnd@physx@@@shdfnd@physx@@@shdfnd@physx@@IAEPAII@Z 1015e480 f i GuCCDSweepConvexMesh.obj
 0001:0015d500       ?allocate@?$InlineAllocator@$0BAA@VNamedAllocator@shdfnd@physx@@@shdfnd@physx@@QAEPAXIPBDH@Z 1015e500 f i GuCCDSweepConvexMesh.obj
 0001:0015d560       ?begin@?$Array@IV?$InlineAllocator@$0BAA@VNamedAllocator@shdfnd@physx@@@shdfnd@physx@@@shdfnd@physx@@QAEPAIXZ 1015e560 f i GuCCDSweepConvexMesh.obj
 0001:0015d580       ?begin@?$Array@IVNamedAllocator@shdfnd@physx@@@shdfnd@physx@@QAEPAIXZ 1015e580 f i GuCCDSweepConvexMesh.obj
 0001:0015d5a0       ?capacity@?$Array@IV?$InlineAllocator@$0BAA@VNamedAllocator@shdfnd@physx@@@shdfnd@physx@@@shdfnd@physx@@QBEIXZ 1015e5a0 f i GuCCDSweepConvexMesh.obj
 0001:0015d5c0       ?capacityIncrement@?$Array@IV?$InlineAllocator@$0BAA@VNamedAllocator@shdfnd@physx@@@shdfnd@physx@@@shdfnd@physx@@IBEIXZ 1015e5c0 f i GuCCDSweepConvexMesh.obj
 0001:0015d600       ?copy@?$Array@IV?$InlineAllocator@$0BAA@VNamedAllocator@shdfnd@physx@@@shdfnd@physx@@@shdfnd@physx@@KAXPAI0PBI@Z 1015e600 f i GuCCDSweepConvexMesh.obj
 0001:0015d6b0       ?create@?$Array@IV?$InlineAllocator@$0BAA@VNamedAllocator@shdfnd@physx@@@shdfnd@physx@@@shdfnd@physx@@KAXPAI0ABI@Z 1015e6b0 f i GuCCDSweepConvexMesh.obj
 0001:0015d760       ?create@?$Array@IVNamedAllocator@shdfnd@physx@@@shdfnd@physx@@KAXPAI0ABI@Z 1015e760 f i GuCCDSweepConvexMesh.obj
 0001:0015d810       ?deallocate@?$Array@IV?$InlineAllocator@$0BAA@VNamedAllocator@shdfnd@physx@@@shdfnd@physx@@@shdfnd@physx@@IAEXPAX@Z 1015e810 f i GuCCDSweepConvexMesh.obj
 0001:0015d830       ?deallocate@?$InlineAllocator@$0BAA@VNamedAllocator@shdfnd@physx@@@shdfnd@physx@@QAEXPAX@Z 1015e830 f i GuCCDSweepConvexMesh.obj
 0001:0015d870       ?destroy@?$Array@IV?$InlineAllocator@$0BAA@VNamedAllocator@shdfnd@physx@@@shdfnd@physx@@@shdfnd@physx@@KAXPAI0@Z 1015e870 f i GuCCDSweepConvexMesh.obj
 0001:0015d8a0       ?empty@PxBounds3@physx@@SA?AV12@XZ 1015e8a0 f i GuCCDSweepConvexMesh.obj
 0001:0015d900       ?forceSize_Unsafe@?$Array@IV?$InlineAllocator@$0BAA@VNamedAllocator@shdfnd@physx@@@shdfnd@physx@@@shdfnd@physx@@QAEXI@Z 1015e900 f i GuCCDSweepConvexMesh.obj
 0001:0015d9a0       ?getTriangleVerts@TriangleVertexPointers@Gu@physx@@SAXPBVTriangleMesh@23@IAAVPxVec3@3@11@Z 1015e9a0 f i GuCCDSweepConvexMesh.obj
 0001:0015dae0       ?grow@?$Array@IV?$InlineAllocator@$0BAA@VNamedAllocator@shdfnd@physx@@@shdfnd@physx@@@shdfnd@physx@@IAEXI@Z 1015eae0 f i GuCCDSweepConvexMesh.obj
 0001:0015db60       ?grow@?$Array@IVNamedAllocator@shdfnd@physx@@@shdfnd@physx@@IAEXI@Z 1015eb60 f i GuCCDSweepConvexMesh.obj
 0001:0015dbe0       ?growAndPushBack@?$Array@IV?$InlineAllocator@$0BAA@VNamedAllocator@shdfnd@physx@@@shdfnd@physx@@@shdfnd@physx@@IAEAAIABI@Z 1015ebe0 f i GuCCDSweepConvexMesh.obj
 0001:0015dda0       ?include@PxBounds3@physx@@QAEXABVPxVec3@2@@Z 1015eda0 f i GuCCDSweepConvexMesh.obj
 0001:0015de50       ?isArrayOfPOD@?$Array@IV?$InlineAllocator@$0BAA@VNamedAllocator@shdfnd@physx@@@shdfnd@physx@@@shdfnd@physx@@SA_NXZ 1015ee50 f i GuCCDSweepConvexMesh.obj
 0001:0015de60       ?isInUserMemory@?$Array@IV?$InlineAllocator@$0BAA@VNamedAllocator@shdfnd@physx@@@shdfnd@physx@@@shdfnd@physx@@QBEIXZ 1015ee60 f i GuCCDSweepConvexMesh.obj
 0001:0015de80       ?isZeroInit@?$Array@IV?$InlineAllocator@$0BAA@VNamedAllocator@shdfnd@physx@@@shdfnd@physx@@@shdfnd@physx@@KA_NABI@Z 1015ee80 f i GuCCDSweepConvexMesh.obj
 0001:0015dee0       ?isZeroInit@?$Array@IVNamedAllocator@shdfnd@physx@@@shdfnd@physx@@KA_NABI@Z 1015eee0 f i GuCCDSweepConvexMesh.obj
 0001:0015e310       ?pushBack@?$Array@IV?$InlineAllocator@$0BAA@VNamedAllocator@shdfnd@physx@@@shdfnd@physx@@@shdfnd@physx@@QAEAAIABI@Z 1015f310 f i GuCCDSweepConvexMesh.obj
 0001:0015e3e0       ?recreate@?$Array@IV?$InlineAllocator@$0BAA@VNamedAllocator@shdfnd@physx@@@shdfnd@physx@@@shdfnd@physx@@IAEXI@Z 1015f3e0 f i GuCCDSweepConvexMesh.obj
 0001:0015e510       ?recreate@?$Array@IVNamedAllocator@shdfnd@physx@@@shdfnd@physx@@IAEXI@Z 1015f510 f i GuCCDSweepConvexMesh.obj
 0001:0015e620       ?reserve@?$Array@IV?$InlineAllocator@$0BAA@VNamedAllocator@shdfnd@physx@@@shdfnd@physx@@@shdfnd@physx@@QAEXI@Z 1015f620 f i GuCCDSweepConvexMesh.obj
 0001:0015e650       ?reserve@?$Array@IVNamedAllocator@shdfnd@physx@@@shdfnd@physx@@QAEXI@Z 1015f650 f i GuCCDSweepConvexMesh.obj
 0001:0015e680       ?resize@?$Array@IV?$InlineAllocator@$0BAA@VNamedAllocator@shdfnd@physx@@@shdfnd@physx@@@shdfnd@physx@@QAEXIABI@Z 1015f680 f i GuCCDSweepConvexMesh.obj
 0001:0015e730       ?resize@?$Array@IVNamedAllocator@shdfnd@physx@@@shdfnd@physx@@QAEXIABI@Z 1015f730 f i GuCCDSweepConvexMesh.obj
 0001:0015e7c0       ?setEmpty@PxBounds3@physx@@QAEXXZ 1015f7c0 f i GuCCDSweepConvexMesh.obj
 0001:0015e830       ?size@?$Array@IV?$InlineAllocator@$0BAA@VNamedAllocator@shdfnd@physx@@@shdfnd@physx@@@shdfnd@physx@@QBEIXZ 1015f830 f i GuCCDSweepConvexMesh.obj
 0001:0015e850       ?sweepAABBAABB@Gu@physx@@YAMABVPxVec3@2@00000@Z 1015f850 f i GuCCDSweepConvexMesh.obj
 0001:0015ed70       ?SweepShapeShape@Gu@physx@@YAMABUCCDShape@12@0ABVPxTransform@2@111MAAVPxVec3@2@2MAAIM@Z 1015fd70 f   GuCCDSweepPrimitives.obj
 0001:0015edf0       ?UnimplementedSweep@Gu@physx@@YAMABUCCDShape@12@0ABVPxTransform@2@111MAAVPxVec3@2@2MAAIM@Z 1015fdf0 f   GuCCDSweepPrimitives.obj
 0001:0015ee00       ?UnimplementedTriangleSweep@Gu@physx@@YAMABVGeometryUnion@12@0ABVPxTransform@2@111MAAVPxVec3@2@2ABVFastVertex2ShapeScaling@Cm@2@AAVTriangleV@12@M@Z 1015fe00 f   GuCCDSweepPrimitives.obj
 0001:0015eea0       ?SweepShapeTriangle@Gu@physx@@YAMABVGeometryUnion@12@0ABVPxTransform@2@111MAAVPxVec3@2@2ABVFastVertex2ShapeScaling@Cm@2@AAVTriangleV@12@M@Z 1015fea0 f   GuCCDSweepPrimitives.obj
 0001:00161570       ??$SweepGeomGeom@VCapsuleV@Gu@physx@@V123@@Gu@physx@@YAMABUCCDShape@01@0ABVPxTransform@1@111MAAVPxVec3@1@2MAAIM@Z 10162570 f i GuCCDSweepPrimitives.obj
 0001:001616d0       ??$SweepGeomGeom@VCapsuleV@Gu@physx@@VBoxV@23@@Gu@physx@@YAMABUCCDShape@01@0ABVPxTransform@1@111MAAVPxVec3@1@2MAAIM@Z 101626d0 f i GuCCDSweepPrimitives.obj
 0001:00161820       ??$SweepGeomGeom@VCapsuleV@Gu@physx@@VConvexHullV@23@@Gu@physx@@YAMABUCCDShape@01@0ABVPxTransform@1@111MAAVPxVec3@1@2MAAIM@Z 10162820 f i GuCCDSweepPrimitives.obj
 0001:00161980       ??$SweepGeomGeom@VBoxV@Gu@physx@@V123@@Gu@physx@@YAMABUCCDShape@01@0ABVPxTransform@1@111MAAVPxVec3@1@2MAAIM@Z 10162980 f i GuCCDSweepPrimitives.obj
 0001:00161ad0       ??$SweepGeomGeom@VBoxV@Gu@physx@@VConvexHullV@23@@Gu@physx@@YAMABUCCDShape@01@0ABVPxTransform@1@111MAAVPxVec3@1@2MAAIM@Z 10162ad0 f i GuCCDSweepPrimitives.obj
 0001:00161c20       ??$SweepGeomGeom@VConvexHullV@Gu@physx@@V123@@Gu@physx@@YAMABUCCDShape@01@0ABVPxTransform@1@111MAAVPxVec3@1@2MAAIM@Z 10162c20 f i GuCCDSweepPrimitives.obj
 0001:00161d80       ??$SweepGeomTriangles@VCapsuleV@Gu@physx@@@Gu@physx@@YAMABVGeometryUnion@01@0ABVPxTransform@1@111MAAVPxVec3@1@2ABVFastVertex2ShapeScaling@Cm@1@AAVTriangleV@01@M@Z 10162d80 f i GuCCDSweepPrimitives.obj
 0001:00161e80       ??$SweepGeomTriangles@VBoxV@Gu@physx@@@Gu@physx@@YAMABVGeometryUnion@01@0ABVPxTransform@1@111MAAVPxVec3@1@2ABVFastVertex2ShapeScaling@Cm@1@AAVTriangleV@01@M@Z 10162e80 f i GuCCDSweepPrimitives.obj
 0001:00161f70       ??$SweepGeomTriangles@VConvexHullV@Gu@physx@@@Gu@physx@@YAMABVGeometryUnion@01@0ABVPxTransform@1@111MAAVPxVec3@1@2ABVFastVertex2ShapeScaling@Cm@1@AAVTriangleV@01@M@Z 10162f70 f i GuCCDSweepPrimitives.obj
 0001:00162070       ??$getRadius@VBoxV@Gu@physx@@@Gu@physx@@YAMABVPxGeometry@1@@Z 10163070 f i GuCCDSweepPrimitives.obj
 0001:00162080       ??$getRadius@VCapsuleV@Gu@physx@@@Gu@physx@@YAMABVPxGeometry@1@@Z 10163080 f i GuCCDSweepPrimitives.obj
 0001:001620f0       ??$getRadius@VConvexHullV@Gu@physx@@@Gu@physx@@YAMABVPxGeometry@1@@Z 101630f0 f i GuCCDSweepPrimitives.obj
 0001:00162100       ??$gjkPenetration@U?$RelativeConvex@VCapsuleV@Gu@physx@@@Gu@physx@@U?$LocalConvex@VCapsuleV@Gu@physx@@@23@@Gu@physx@@YA?AW4GjkStatus@01@ABU?$RelativeConvex@VCapsuleV@Gu@physx@@@01@ABU?$LocalConvex@VCapsuleV@Gu@physx@@@01@ABT__m128@@2AAT5@333PIAE4AAE_N@Z 10163100 f i GuCCDSweepPrimitives.obj
 0001:00163250       ??$gjkPenetration@U?$RelativeConvex@VCapsuleV@Gu@physx@@@Gu@physx@@U?$LocalConvex@VShrunkBoxV@Gu@physx@@@23@@Gu@physx@@YA?AW4GjkStatus@01@ABU?$RelativeConvex@VCapsuleV@Gu@physx@@@01@ABU?$LocalConvex@VShrunkBoxV@Gu@physx@@@01@ABT__m128@@2AAT5@333PIAE4AAE_N@Z 10164250 f i GuCCDSweepPrimitives.obj
 0001:001643a0       ??$gjkPenetration@U?$RelativeConvex@VCapsuleV@Gu@physx@@@Gu@physx@@U?$LocalConvex@VShrunkConvexHullV@Gu@physx@@@23@@Gu@physx@@YA?AW4GjkStatus@01@ABU?$RelativeConvex@VCapsuleV@Gu@physx@@@01@ABU?$LocalConvex@VShrunkConvexHullV@Gu@physx@@@01@ABT__m128@@2AAT5@333PIAE4AAE_N@Z 101653a0 f i GuCCDSweepPrimitives.obj
 0001:001654f0       ??$gjkPenetration@U?$RelativeConvex@VTriangleV@Gu@physx@@@Gu@physx@@U?$LocalConvex@VCapsuleV@Gu@physx@@@23@@Gu@physx@@YA?AW4GjkStatus@01@ABU?$RelativeConvex@VTriangleV@Gu@physx@@@01@ABU?$LocalConvex@VCapsuleV@Gu@physx@@@01@ABT__m128@@2AAT5@333PIAE4AAE_N@Z 101664f0 f i GuCCDSweepPrimitives.obj
 0001:00166640       ??$gjkPenetration@U?$RelativeConvex@VTriangleV@Gu@physx@@@Gu@physx@@U?$LocalConvex@VShrunkBoxV@Gu@physx@@@23@@Gu@physx@@YA?AW4GjkStatus@01@ABU?$RelativeConvex@VTriangleV@Gu@physx@@@01@ABU?$LocalConvex@VShrunkBoxV@Gu@physx@@@01@ABT__m128@@2AAT5@333PIAE4AAE_N@Z 10167640 f i GuCCDSweepPrimitives.obj
 0001:00167790       ??$gjkPenetration@U?$RelativeConvex@VTriangleV@Gu@physx@@@Gu@physx@@U?$LocalConvex@VShrunkConvexHullV@Gu@physx@@@23@@Gu@physx@@YA?AW4GjkStatus@01@ABU?$RelativeConvex@VTriangleV@Gu@physx@@@01@ABU?$LocalConvex@VShrunkConvexHullV@Gu@physx@@@01@ABT__m128@@2AAT5@333PIAE4AAE_N@Z 10168790 f i GuCCDSweepPrimitives.obj
 0001:001688e0       ??$gjkRaycast@U?$RelativeConvex@VCapsuleV@Gu@physx@@@Gu@physx@@U?$LocalConvex@VCapsuleV@Gu@physx@@@23@@Gu@physx@@YA_NABU?$RelativeConvex@VCapsuleV@Gu@physx@@@01@ABU?$LocalConvex@VCapsuleV@Gu@physx@@@01@ABT__m128@@222AAT4@33M@Z 101698e0 f i GuCCDSweepPrimitives.obj
 0001:001697e0       ??$gjkRaycast@U?$RelativeConvex@VCapsuleV@Gu@physx@@@Gu@physx@@U?$LocalConvex@VShrunkBoxV@Gu@physx@@@23@@Gu@physx@@YA_NABU?$RelativeConvex@VCapsuleV@Gu@physx@@@01@ABU?$LocalConvex@VShrunkBoxV@Gu@physx@@@01@ABT__m128@@222AAT4@33M@Z 1016a7e0 f i GuCCDSweepPrimitives.obj
 0001:0016a6e0       ??$gjkRaycast@U?$RelativeConvex@VCapsuleV@Gu@physx@@@Gu@physx@@U?$LocalConvex@VShrunkConvexHullV@Gu@physx@@@23@@Gu@physx@@YA_NABU?$RelativeConvex@VCapsuleV@Gu@physx@@@01@ABU?$LocalConvex@VShrunkConvexHullV@Gu@physx@@@01@ABT__m128@@222AAT4@33M@Z 1016b6e0 f i GuCCDSweepPrimitives.obj
 0001:0016b5e0       ??$gjkRaycast@U?$RelativeConvex@VShrunkBoxV@Gu@physx@@@Gu@physx@@U?$LocalConvex@VShrunkBoxV@Gu@physx@@@23@@Gu@physx@@YA_NABU?$RelativeConvex@VShrunkBoxV@Gu@physx@@@01@ABU?$LocalConvex@VShrunkBoxV@Gu@physx@@@01@ABT__m128@@222AAT4@33M@Z 1016c5e0 f i GuCCDSweepPrimitives.obj
 0001:0016c4e0       ??$gjkRaycast@U?$RelativeConvex@VShrunkBoxV@Gu@physx@@@Gu@physx@@U?$LocalConvex@VShrunkConvexHullV@Gu@physx@@@23@@Gu@physx@@YA_NABU?$RelativeConvex@VShrunkBoxV@Gu@physx@@@01@ABU?$LocalConvex@VShrunkConvexHullV@Gu@physx@@@01@ABT__m128@@222AAT4@33M@Z 1016d4e0 f i GuCCDSweepPrimitives.obj
 0001:0016d3e0       ??$gjkRaycast@U?$RelativeConvex@VShrunkConvexHullV@Gu@physx@@@Gu@physx@@U?$LocalConvex@VShrunkConvexHullV@Gu@physx@@@23@@Gu@physx@@YA_NABU?$RelativeConvex@VShrunkConvexHullV@Gu@physx@@@01@ABU?$LocalConvex@VShrunkConvexHullV@Gu@physx@@@01@ABT__m128@@222AAT4@33M@Z 1016e3e0 f i GuCCDSweepPrimitives.obj
 0001:0016e2e0       ??$gjkRaycast@U?$RelativeConvex@VTriangleV@Gu@physx@@@Gu@physx@@U?$LocalConvex@VBoxV@Gu@physx@@@23@@Gu@physx@@YA_NABU?$RelativeConvex@VTriangleV@Gu@physx@@@01@ABU?$LocalConvex@VBoxV@Gu@physx@@@01@ABT__m128@@222AAT4@33M@Z 1016f2e0 f i GuCCDSweepPrimitives.obj
 0001:0016f1e0       ??$gjkRaycast@U?$RelativeConvex@VTriangleV@Gu@physx@@@Gu@physx@@U?$LocalConvex@VCapsuleV@Gu@physx@@@23@@Gu@physx@@YA_NABU?$RelativeConvex@VTriangleV@Gu@physx@@@01@ABU?$LocalConvex@VCapsuleV@Gu@physx@@@01@ABT__m128@@222AAT4@33M@Z 101701e0 f i GuCCDSweepPrimitives.obj
 0001:001700e0       ??$gjkRaycast@U?$RelativeConvex@VTriangleV@Gu@physx@@@Gu@physx@@U?$LocalConvex@VConvexHullV@Gu@physx@@@23@@Gu@physx@@YA_NABU?$RelativeConvex@VTriangleV@Gu@physx@@@01@ABU?$LocalConvex@VConvexHullV@Gu@physx@@@01@ABT__m128@@222AAT4@33M@Z 101710e0 f i GuCCDSweepPrimitives.obj
 0001:00170fe0       ??$gjkRaycastPenetration@U?$RelativeConvex@VCapsuleV@Gu@physx@@@Gu@physx@@U?$LocalConvex@VCapsuleV@Gu@physx@@@23@@Gu@physx@@YA_NABU?$RelativeConvex@VCapsuleV@Gu@physx@@@01@ABU?$LocalConvex@VCapsuleV@Gu@physx@@@01@ABT__m128@@222AAT4@33M_N@Z 10171fe0 f i GuCCDSweepPrimitives.obj
 0001:001712d0       ??$gjkRaycastPenetration@U?$RelativeConvex@VCapsuleV@Gu@physx@@@Gu@physx@@U?$LocalConvex@VShrunkBoxV@Gu@physx@@@23@@Gu@physx@@YA_NABU?$RelativeConvex@VCapsuleV@Gu@physx@@@01@ABU?$LocalConvex@VShrunkBoxV@Gu@physx@@@01@ABT__m128@@222AAT4@33M_N@Z 101722d0 f i GuCCDSweepPrimitives.obj
 0001:001715c0       ??$gjkRaycastPenetration@U?$RelativeConvex@VCapsuleV@Gu@physx@@@Gu@physx@@U?$LocalConvex@VShrunkConvexHullV@Gu@physx@@@23@@Gu@physx@@YA_NABU?$RelativeConvex@VCapsuleV@Gu@physx@@@01@ABU?$LocalConvex@VShrunkConvexHullV@Gu@physx@@@01@ABT__m128@@222AAT4@33M_N@Z 101725c0 f i GuCCDSweepPrimitives.obj
 0001:001718b0       ??$gjkRaycastPenetration@U?$RelativeConvex@VShrunkBoxV@Gu@physx@@@Gu@physx@@U?$LocalConvex@VShrunkBoxV@Gu@physx@@@23@@Gu@physx@@YA_NABU?$RelativeConvex@VShrunkBoxV@Gu@physx@@@01@ABU?$LocalConvex@VShrunkBoxV@Gu@physx@@@01@ABT__m128@@222AAT4@33M_N@Z 101728b0 f i GuCCDSweepPrimitives.obj
 0001:00171ba0       ??$gjkRaycastPenetration@U?$RelativeConvex@VShrunkBoxV@Gu@physx@@@Gu@physx@@U?$LocalConvex@VShrunkConvexHullV@Gu@physx@@@23@@Gu@physx@@YA_NABU?$RelativeConvex@VShrunkBoxV@Gu@physx@@@01@ABU?$LocalConvex@VShrunkConvexHullV@Gu@physx@@@01@ABT__m128@@222AAT4@33M_N@Z 10172ba0 f i GuCCDSweepPrimitives.obj
 0001:00171e90       ??$gjkRaycastPenetration@U?$RelativeConvex@VShrunkConvexHullV@Gu@physx@@@Gu@physx@@U?$LocalConvex@VShrunkConvexHullV@Gu@physx@@@23@@Gu@physx@@YA_NABU?$RelativeConvex@VShrunkConvexHullV@Gu@physx@@@01@ABU?$LocalConvex@VShrunkConvexHullV@Gu@physx@@@01@ABT__m128@@222AAT4@33M_N@Z 10172e90 f i GuCCDSweepPrimitives.obj
 0001:00172180       ??$gjkRaycastPenetration@U?$RelativeConvex@VTriangleV@Gu@physx@@@Gu@physx@@U?$LocalConvex@VBoxV@Gu@physx@@@23@@Gu@physx@@YA_NABU?$RelativeConvex@VTriangleV@Gu@physx@@@01@ABU?$LocalConvex@VBoxV@Gu@physx@@@01@ABT__m128@@222AAT4@33M_N@Z 10173180 f i GuCCDSweepPrimitives.obj
 0001:00172470       ??$gjkRaycastPenetration@U?$RelativeConvex@VTriangleV@Gu@physx@@@Gu@physx@@U?$LocalConvex@VCapsuleV@Gu@physx@@@23@@Gu@physx@@YA_NABU?$RelativeConvex@VTriangleV@Gu@physx@@@01@ABU?$LocalConvex@VCapsuleV@Gu@physx@@@01@ABT__m128@@222AAT4@33M_N@Z 10173470 f i GuCCDSweepPrimitives.obj
 0001:00172760       ??$gjkRaycastPenetration@U?$RelativeConvex@VTriangleV@Gu@physx@@@Gu@physx@@U?$LocalConvex@VConvexHullV@Gu@physx@@@23@@Gu@physx@@YA_NABU?$RelativeConvex@VTriangleV@Gu@physx@@@01@ABU?$LocalConvex@VConvexHullV@Gu@physx@@@01@ABT__m128@@222AAT4@33M_N@Z 10173760 f i GuCCDSweepPrimitives.obj
 0001:00172a50       ??0?$RelativeConvex@VCapsuleV@Gu@physx@@@Gu@physx@@QAE@ABVCapsuleV@12@ABVPsMatTransformV@aos@shdfnd@2@@Z 10173a50 f i GuCCDSweepPrimitives.obj
 0001:00172ad0       ??0BoxV@Gu@physx@@QAE@ABVPxGeometry@2@@Z 10173ad0 f i GuCCDSweepPrimitives.obj
 0001:00172bc0       ??0CapsuleV@Gu@physx@@QAE@ABVPxGeometry@2@@Z 10173bc0 f i GuCCDSweepPrimitives.obj
 0001:00172d30       ??0ConvexHullV@Gu@physx@@QAE@ABVPxGeometry@2@@Z 10173d30 f i GuCCDSweepPrimitives.obj
 0001:00172eb0       ??0ShrunkBoxV@Gu@physx@@QAE@ABVPxGeometry@2@@Z 10173eb0 f i GuCCDSweepPrimitives.obj
 0001:00172ee0       ??0ShrunkConvexHullV@Gu@physx@@QAE@ABVPxGeometry@2@@Z 10173ee0 f i GuCCDSweepPrimitives.obj
 0001:00172f10       ??1?$RelativeConvex@VCapsuleV@Gu@physx@@@Gu@physx@@UAE@XZ 10173f10 f i GuCCDSweepPrimitives.obj
 0001:00172f30       ??_G?$RelativeConvex@VCapsuleV@Gu@physx@@@Gu@physx@@UAEPAXI@Z 10173f30 f i GuCCDSweepPrimitives.obj
 0001:00172f30       ??_E?$RelativeConvex@VCapsuleV@Gu@physx@@@Gu@physx@@UAEPAXI@Z 10173f30 f i GuCCDSweepPrimitives.obj
 0001:00172f70       ?getShrunkConvex@?$LocalConvex@VCapsuleV@Gu@physx@@@Gu@physx@@QBE?AU123@XZ 10173f70 f i GuCCDSweepPrimitives.obj
 0001:00172fa0       ?getShrunkConvex@?$LocalConvex@VShrunkBoxV@Gu@physx@@@Gu@physx@@QBE?AU123@XZ 10173fa0 f i GuCCDSweepPrimitives.obj
 0001:00172fd0       ?getShrunkConvex@?$LocalConvex@VShrunkConvexHullV@Gu@physx@@@Gu@physx@@QBE?AU123@XZ 10173fd0 f i GuCCDSweepPrimitives.obj
 0001:00173000       ?getShrunkConvex@?$RelativeConvex@VCapsuleV@Gu@physx@@@Gu@physx@@QBE?AU123@XZ 10174000 f i GuCCDSweepPrimitives.obj
 0001:00173030       ?getShrunkConvex@?$RelativeConvex@VShrunkBoxV@Gu@physx@@@Gu@physx@@QBE?AU123@XZ 10174030 f i GuCCDSweepPrimitives.obj
 0001:00173060       ?getShrunkConvex@?$RelativeConvex@VShrunkConvexHullV@Gu@physx@@@Gu@physx@@QBE?AU123@XZ 10174060 f i GuCCDSweepPrimitives.obj
 0001:00173090       ?getShrunkConvex@?$RelativeConvex@VTriangleV@Gu@physx@@@Gu@physx@@QBE?AU123@XZ 10174090 f i GuCCDSweepPrimitives.obj
 0001:001730c0       ?getSweepMargin@?$RelativeConvex@VCapsuleV@Gu@physx@@@Gu@physx@@UBE?AT__m128@@XZ 101740c0 f i GuCCDSweepPrimitives.obj
 0001:001730f0       ?support@?$RelativeConvex@VCapsuleV@Gu@physx@@@Gu@physx@@UBE?AT__m128@@ABT4@@Z 101740f0 f i GuCCDSweepPrimitives.obj
 0001:00173140       ?support@?$RelativeConvex@VCapsuleV@Gu@physx@@@Gu@physx@@UBE?AT__m128@@ABT4@AAHPAT4@@Z 10174140 f i GuCCDSweepPrimitives.obj
 0001:00173190       ?supportPoint@?$RelativeConvex@VCapsuleV@Gu@physx@@@Gu@physx@@UBE?AT__m128@@HPAT4@@Z 10174190 f i GuCCDSweepPrimitives.obj
 0001:00173200       ?supportRelative@CapsuleV@Gu@physx@@QBE?AT__m128@@ABT4@ABVPsMatTransformV@aos@shdfnd@3@1@Z 10174200 f i GuCCDSweepPrimitives.obj
 0001:00173270       ?supportRelative@CapsuleV@Gu@physx@@QBE?AT__m128@@ABT4@ABVPsMatTransformV@aos@shdfnd@3@1AAHPAT4@@Z 10174270 f i GuCCDSweepPrimitives.obj
 0001:001732f0       ?computeBounds@Gu@physx@@YAXAAVPxBounds3@2@ABVPxGeometry@2@ABVPxTransform@2@MPIBVCenterExtentsPadded@12@M_N@Z 101742f0 f   GuBounds.obj
 0001:00173f20       ?computeBoundsWithCCDThreshold@Gu@physx@@YAMAAVVec3p@12@0ABVPxGeometry@2@ABVPxTransform@2@PIBVCenterExtentsPadded@12@@Z 10174f20 f   GuBounds.obj
 0001:00174570       ??0ShapeData@Gu@physx@@QAE@ABVPxGeometry@2@ABVPxTransform@2@M@Z 10175570 f   GuBounds.obj
 0001:00176270       ??0?$PxFlags@W4Enum@PxConvexMeshGeometryFlag@physx@@E@physx@@QAE@ABV01@@Z 10177270 f i GuBounds.obj
 0001:00176290       ??0CenterExtentsPadded@Gu@physx@@QAE@XZ 10177290 f i GuBounds.obj
 0001:001762b0       ??0PxPlane@physx@@QAE@ABVPxVec3@1@0@Z 101772b0 f i GuBounds.obj
 0001:00176310       ??1CenterExtentsPadded@Gu@physx@@QAE@XZ 10177310 f i GuBounds.obj
 0001:00176330       ??4CenterExtentsPadded@Gu@physx@@QAEAAV012@ABV012@@Z 10177330 f i GuBounds.obj
 0001:00176370       ??4PxMat33Padded@Gu@physx@@QAEXABVPxMat33@2@@Z 10177370 f i GuBounds.obj
 0001:001763c0       ??B?$PxFlags@W4Enum@PxConvexMeshGeometryFlag@physx@@E@physx@@QBE_NXZ 101773c0 f i GuBounds.obj
 0001:001763f0       ??I?$PxFlags@W4Enum@PxConvexMeshGeometryFlag@physx@@E@physx@@QBE?AV01@W4Enum@PxConvexMeshGeometryFlag@1@@Z 101773f0 f i GuBounds.obj
 0001:00176440       ?getPaddedBounds@ConvexHullData@Gu@physx@@QBEABVCenterExtentsPadded@23@XZ 10177440 f i GuBounds.obj
 0001:00176460       ?getPaddedBounds@TriangleMesh@Gu@physx@@QBEABVCenterExtentsPadded@23@XZ 10177460 f i GuBounds.obj
 0001:00176480       ?setMinMax@CenterExtents@Gu@physx@@QAEXABVPxVec3@3@0@Z 10177480 f i GuBounds.obj
 0001:00176520       ?computeOBBPoints@Gu@physx@@YAXPIAVPxVec3@2@ABV32@1111@Z 10177520 f   GuBox.obj
 0001:00176720       ?create@Box@Gu@physx@@QAEXABVCapsule@23@@Z 10177720 f   GuBox.obj
 0001:00176800       ?getBoxEdges@Gu@physx@@YAPBEXZ 10177800 f   GuBox.obj
 0001:001768d0       ?computeBoxAroundCapsule@Gu@physx@@YAXABVCapsule@12@AAVBox@12@@Z 101778d0 f   GuCapsule.obj
 0001:00176a40       ?sweepBoxTriangles_Precise@Gu@physx@@YA_NIPBVPxTriangle@2@_NABVPxBoxGeometry@2@ABVPxTransform@2@ABVPxVec3@2@MAAUPxSweepHit@2@PBIMV?$PxFlags@W4Enum@PxHitFlag@physx@@G@2@@Z 10177a40 f   GuCCTSweepTests.obj
 0001:00176ad0       ?sweepCapsule_BoxGeom_Precise@@YA_NABVPxGeometry@physx@@ABVPxTransform@2@ABVPxCapsuleGeometry@2@1ABVCapsule@Gu@2@ABVPxVec3@2@MAAUPxSweepHit@2@V?$PxFlags@W4Enum@PxHitFlag@physx@@G@2@M@Z 10177ad0 f   GuCCTSweepTests.obj
 0001:00176ee0       ?sweepBox_SphereGeom_Precise@@YA_NABVPxGeometry@physx@@ABVPxTransform@2@ABVPxBoxGeometry@2@1ABVBox@Gu@2@ABVPxVec3@2@MAAUPxSweepHit@2@V?$PxFlags@W4Enum@PxHitFlag@physx@@G@2@M@Z 10177ee0 f   GuCCTSweepTests.obj
 0001:00177120       ?sweepBox_CapsuleGeom_Precise@@YA_NABVPxGeometry@physx@@ABVPxTransform@2@ABVPxBoxGeometry@2@1ABVBox@Gu@2@ABVPxVec3@2@MAAUPxSweepHit@2@V?$PxFlags@W4Enum@PxHitFlag@physx@@G@2@M@Z 10178120 f   GuCCTSweepTests.obj
 0001:001773c0       ?sweepBox_BoxGeom_Precise@@YA_NABVPxGeometry@physx@@ABVPxTransform@2@ABVPxBoxGeometry@2@1ABVBox@Gu@2@ABVPxVec3@2@MAAUPxSweepHit@2@V?$PxFlags@W4Enum@PxHitFlag@physx@@G@2@M@Z 101783c0 f   GuCCTSweepTests.obj
 0001:00177c80       ?sweepBox_HeightFieldGeom_Precise@@YA_NABVPxGeometry@physx@@ABVPxTransform@2@ABVPxBoxGeometry@2@1ABVBox@Gu@2@ABVPxVec3@2@MAAUPxSweepHit@2@V?$PxFlags@W4Enum@PxHitFlag@physx@@G@2@M@Z 10178c80 f   GuCCTSweepTests.obj
 0001:00178390       ??0Capsule@Gu@physx@@QAE@ABV012@@Z 10179390 f i GuCCTSweepTests.obj
 0001:00178450       ??4?$PxFlags@W4Enum@PxHitFlag@physx@@G@physx@@QAEAAV01@W4Enum@PxHitFlag@1@@Z 10179450 f i GuCCTSweepTests.obj
 0001:00178470       ??_ELocalReport@?1??sweepBox_HeightFieldGeom_Precise@@YA_NABVPxGeometry@physx@@ABVPxTransform@3@ABVPxBoxGeometry@3@1ABVBox@Gu@3@ABVPxVec3@3@MAAUPxSweepHit@3@V?$PxFlags@W4Enum@PxHitFlag@physx@@G@3@M@Z@UAEPAXI@Z 10179470 f i GuCCTSweepTests.obj
 0001:00178470       ??_GLocalReport@?1??sweepBox_HeightFieldGeom_Precise@@YA_NABVPxGeometry@physx@@ABVPxTransform@3@ABVPxBoxGeometry@3@1ABVBox@Gu@3@ABVPxVec3@3@MAAUPxSweepHit@3@V?$PxFlags@W4Enum@PxHitFlag@physx@@G@3@M@Z@UAEPAXI@Z 10179470 f i GuCCTSweepTests.obj
 0001:001784b0       ?distanceSegmentBoxSquared@Gu@physx@@YAMABVSegment@12@ABVBox@12@PAMPAVPxVec3@2@@Z 101794b0 f i GuCCTSweepTests.obj
 0001:00178680       ?sweep@PxGeometryQuery@physx@@SA_NABVPxVec3@2@MABVPxGeometry@2@ABVPxTransform@2@12AAUPxSweepHit@2@V?$PxFlags@W4Enum@PxHitFlag@physx@@G@2@M@Z 10179680 f   GuGeometryQuery.obj
 0001:00178cb0       ?overlap@PxGeometryQuery@physx@@SA_NABVPxGeometry@2@ABVPxTransform@2@01@Z 10179cb0 f   GuGeometryQuery.obj
 0001:00178cf0       ?raycast@PxGeometryQuery@physx@@SAIABVPxVec3@2@0ABVPxGeometry@2@ABVPxTransform@2@MV?$PxFlags@W4Enum@PxHitFlag@physx@@G@2@IPIAUPxRaycastHit@2@@Z 10179cf0 f   GuGeometryQuery.obj
 0001:00178fb0       ?computePenetration@PxGeometryQuery@physx@@SA_NAAVPxVec3@2@AAMABVPxGeometry@2@ABVPxTransform@2@23@Z 10179fb0 f   GuGeometryQuery.obj
 0001:001791d0       ?pointDistance@PxGeometryQuery@physx@@SAMABVPxVec3@2@ABVPxGeometry@2@ABVPxTransform@2@PAV32@@Z 1017a1d0 f   GuGeometryQuery.obj
 0001:00179610       ?getWorldBounds@PxGeometryQuery@physx@@SA?AVPxBounds3@2@ABVPxGeometry@2@ABVPxTransform@2@M@Z 1017a610 f   GuGeometryQuery.obj
 0001:00179710       ?isValid@PxGeometryQuery@physx@@SA_NABVPxGeometry@2@@Z 1017a710 f   GuGeometryQuery.obj
 0001:00179cd0       ?distancePointBoxSquared@Gu@physx@@YAMABVPxVec3@2@ABVBox@12@PAV32@@Z 1017acd0 f i GuGeometryQuery.obj
 0001:00179d00       ?isValid@PxBoxGeometry@physx@@QBE_NXZ 1017ad00 f i GuGeometryQuery.obj
 0001:00179d70       ?isValid@PxCapsuleGeometry@physx@@QBE_NXZ 1017ad70 f i GuGeometryQuery.obj
 0001:00179e00       ?isValid@PxConvexMeshGeometry@physx@@QBE_NXZ 1017ae00 f i GuGeometryQuery.obj
 0001:00179e80       ?isValid@PxSphereGeometry@physx@@QBE_NXZ 1017ae80 f i GuGeometryQuery.obj
 0001:00179ee0       ?isValidForConvexMesh@PxMeshScale@physx@@QBE_NXZ 1017aee0 f i GuGeometryQuery.obj
 0001:00179f50       ?maxElement@PxVec3@physx@@QBEMXZ 1017af50 f i GuGeometryQuery.obj
 0001:00179fb0       ?minElement@PxVec3@physx@@QBEMXZ 1017afb0 f i GuGeometryQuery.obj
 0001:0017a010       ?overlap@Gu@physx@@YA_NABVPxGeometry@2@ABVPxTransform@2@01PIAY06Q6A_N0101PAUTriggerCache@12@@Z@Z 1017b010 f i GuGeometryQuery.obj
 0001:0017a1f0       ?set@GeometryUnion@Gu@physx@@QAEXABVPxGeometry@3@@Z 1017b1f0 f   GuGeometryUnion.obj
 0001:0017a560       ??$checkType@UPxConvexMeshGeometryLL@physx@@@physx@@YAXABVGeometryUnion@Gu@0@@Z 1017b560 f i GuGeometryUnion.obj
 0001:0017a5d0       ??$checkType@UPxHeightFieldGeometryLL@physx@@@physx@@YAXABVGeometryUnion@Gu@0@@Z 1017b5d0 f i GuGeometryUnion.obj
 0001:0017a640       ??$checkType@UPxTriangleMeshGeometryLL@physx@@@physx@@YAXABVGeometryUnion@Gu@0@@Z 1017b640 f i GuGeometryUnion.obj
 0001:0017a6b0       ??$get@UPxConvexMeshGeometryLL@physx@@@GeometryUnion@Gu@physx@@QAEAAUPxConvexMeshGeometryLL@2@XZ 1017b6b0 f i GuGeometryUnion.obj
 0001:0017a6d0       ??$get@UPxHeightFieldGeometryLL@physx@@@GeometryUnion@Gu@physx@@QAEAAUPxHeightFieldGeometryLL@2@XZ 1017b6d0 f i GuGeometryUnion.obj
 0001:0017a6f0       ??$get@UPxTriangleMeshGeometryLL@physx@@@GeometryUnion@Gu@physx@@QAEAAUPxTriangleMeshGeometryLL@2@XZ 1017b6f0 f i GuGeometryUnion.obj
 0001:0017a710       ??4?$PxFlags@W4Enum@PxConvexMeshGeometryFlag@physx@@E@physx@@QAEAAV01@ABV01@@Z 1017b710 f i GuGeometryUnion.obj
 0001:0017a730       ??4?$PxFlags@W4Enum@PxMeshGeometryFlag@physx@@E@physx@@QAEAAV01@ABV01@@Z 1017b730 f i GuGeometryUnion.obj
 0001:0017a750       ??4PxConvexMeshGeometry@physx@@QAEAAV01@ABV01@@Z 1017b750 f i GuGeometryUnion.obj
 0001:0017a7d0       ??4PxHeightFieldGeometry@physx@@QAEAAV01@ABV01@@Z 1017b7d0 f i GuGeometryUnion.obj
 0001:0017a870       ??4PxMeshScale@physx@@QAEAAV01@ABV01@@Z 1017b870 f i GuGeometryUnion.obj
 0001:0017a8b0       ??4PxTriangleMeshGeometry@physx@@QAEAAV01@ABV01@@Z 1017b8b0 f i GuGeometryUnion.obj
 0001:0017a980       ?computeBoxPoints@Gu@physx@@YAXABVPxBounds3@2@PIAVPxVec3@2@@Z 1017b980 f   GuInternal.obj
 0001:0017abe0       ?computeBoundsAroundVertices@Gu@physx@@YAXAAVPxBounds3@2@IPIBVPxVec3@2@@Z 1017bbe0 f   GuInternal.obj
 0001:0017ad40       ?getPlane@Gu@physx@@YA?AVPxPlane@2@ABVPxTransform@2@@Z 1017bd40 f   GuInternal.obj
 0001:0017ad90       ?computeSweptBox@Gu@physx@@YAXAAVBox@12@ABVPxVec3@2@1ABVPxMat33@2@1M@Z 1017bd90 f   GuInternal.obj
 0001:0017b310       ??0GuMeshFactory@physx@@QAE@XZ 1017c310 f   GuMeshFactory.obj
 0001:0017b3c0       ??1GuMeshFactory@physx@@MAE@XZ 1017c3c0 f   GuMeshFactory.obj
 0001:0017b410       ?release@GuMeshFactory@physx@@QAEXXZ 1017c410 f   GuMeshFactory.obj
 0001:0017b5f0       ?addTriangleMesh@GuMeshFactory@physx@@QAEXPAVTriangleMesh@Gu@2@_N@Z 1017c5f0 f   GuMeshFactory.obj
 0001:0017b630       ?createTriangleMesh@GuMeshFactory@physx@@QAEPAVPxTriangleMesh@2@AAVPxInputStream@2@@Z 1017c630 f   GuMeshFactory.obj
 0001:0017b6a0       ?createTriangleMesh@GuMeshFactory@physx@@QAEPAVPxTriangleMesh@2@PAX@Z 1017c6a0 f   GuMeshFactory.obj
 0001:0017b6c0       ?removeTriangleMesh@GuMeshFactory@physx@@QAE_NAAVPxTriangleMesh@2@@Z 1017c6c0 f   GuMeshFactory.obj
 0001:0017b720       ?getNbTriangleMeshes@GuMeshFactory@physx@@QBEIXZ 1017c720 f   GuMeshFactory.obj
 0001:0017b760       ?getTriangleMeshes@GuMeshFactory@physx@@QBEIPAPAVPxTriangleMesh@2@II@Z 1017c760 f   GuMeshFactory.obj
 0001:0017b7c0       ?addConvexMesh@GuMeshFactory@physx@@QAEXPAVConvexMesh@Gu@2@_N@Z 1017c7c0 f   GuMeshFactory.obj
 0001:0017b800       ?createConvexMesh@GuMeshFactory@physx@@QAEPAVPxConvexMesh@2@AAVPxInputStream@2@@Z 1017c800 f   GuMeshFactory.obj
 0001:0017b8c0       ?createConvexMesh@GuMeshFactory@physx@@QAEPAVPxConvexMesh@2@PAX@Z 1017c8c0 f   GuMeshFactory.obj
 0001:0017b8e0       ?removeConvexMesh@GuMeshFactory@physx@@QAE_NAAVPxConvexMesh@2@@Z 1017c8e0 f   GuMeshFactory.obj
 0001:0017b940       ?getNbConvexMeshes@GuMeshFactory@physx@@QBEIXZ 1017c940 f   GuMeshFactory.obj
 0001:0017b980       ?getConvexMeshes@GuMeshFactory@physx@@QBEIPAPAVPxConvexMesh@2@II@Z 1017c980 f   GuMeshFactory.obj
 0001:0017b9e0       ?addHeightField@GuMeshFactory@physx@@QAEXPAVHeightField@Gu@2@_N@Z 1017c9e0 f   GuMeshFactory.obj
 0001:0017ba20       ?createHeightField@GuMeshFactory@physx@@QAEPAVPxHeightField@2@PAX@Z 1017ca20 f   GuMeshFactory.obj
 0001:0017bab0       ?createHeightField@GuMeshFactory@physx@@QAEPAVPxHeightField@2@AAVPxInputStream@2@@Z 1017cab0 f   GuMeshFactory.obj
 0001:0017bb60       ?removeHeightField@GuMeshFactory@physx@@QAE_NAAVPxHeightField@2@@Z 1017cb60 f   GuMeshFactory.obj
 0001:0017bbc0       ?getNbHeightFields@GuMeshFactory@physx@@QBEIXZ 1017cbc0 f   GuMeshFactory.obj
 0001:0017bc00       ?getHeightFields@GuMeshFactory@physx@@QBEIPAPAVPxHeightField@2@II@Z 1017cc00 f   GuMeshFactory.obj
 0001:0017bc60       ?addFactoryListener@GuMeshFactory@physx@@QAEXAAVGuMeshFactoryListener@2@@Z 1017cc60 f   GuMeshFactory.obj
 0001:0017bca0       ?removeFactoryListener@GuMeshFactory@physx@@QAEXAAVGuMeshFactoryListener@2@@Z 1017cca0 f   GuMeshFactory.obj
 0001:0017bd30       ?notifyFactoryListener@GuMeshFactory@physx@@QAEXPBVPxBase@2@G@Z 1017cd30 f   GuMeshFactory.obj
 0001:0017bd60       ?createTriangleMesh@GuMeshFactory@physx@@IAEPAVPxTriangleMesh@2@AAVTriangleMeshData@Gu@2@@Z 1017cd60 f   GuMeshFactory.obj
 0001:0017be80       ?createConvexMesh@GuMeshFactory@physx@@IAEPAVPxConvexMesh@2@AAUConvexHullData@Gu@2@@Z 1017ce80 f   GuMeshFactory.obj
 0001:0017d7e0       ??$?2V?$ReflectionAllocator@VBV32Tree@Gu@physx@@@shdfnd@physx@@@UserAllocated@shdfnd@physx@@SAPAXIV?$ReflectionAllocator@VBV32Tree@Gu@physx@@@12@PBDH@Z 1017e7e0 f i GuMeshFactory.obj
 0001:0017d800       ??$?2V?$ReflectionAllocator@VBV4TriangleData@Gu@physx@@@shdfnd@physx@@@UserAllocated@shdfnd@physx@@SAPAXIV?$ReflectionAllocator@VBV4TriangleData@Gu@physx@@@12@PBDH@Z 1017e800 f i GuMeshFactory.obj
 0001:0017d820       ??$?2V?$ReflectionAllocator@VRTreeTriangleData@Gu@physx@@@shdfnd@physx@@@UserAllocated@shdfnd@physx@@SAPAXIV?$ReflectionAllocator@VRTreeTriangleData@Gu@physx@@@12@PBDH@Z 1017e820 f i GuMeshFactory.obj
 0001:0017d840       ??$?_UE@@YAPAXIV?$ReflectionAllocator@E@shdfnd@physx@@PBDH@Z 1017e840 f i GuMeshFactory.obj
 0001:0017d860       ??$?_UG@@YAPAXIV?$ReflectionAllocator@G@shdfnd@physx@@PBDH@Z 1017e860 f i GuMeshFactory.obj
 0001:0017d880       ??$?_UI@@YAPAXIV?$ReflectionAllocator@I@shdfnd@physx@@PBDH@Z 1017e880 f i GuMeshFactory.obj
 0001:0017d990       ??$getArrayOfPointers@VPxConvexMesh@physx@@VConvexMesh@Gu@2@@Cm@physx@@YAIPIAPAVPxConvexMesh@1@IIPIBQAVConvexMesh@Gu@1@I@Z 1017e990 f i GuMeshFactory.obj
 0001:0017da20       ??$getArrayOfPointers@VPxHeightField@physx@@VHeightField@Gu@2@@Cm@physx@@YAIPIAPAVPxHeightField@1@IIPIBQAVHeightField@Gu@1@I@Z 1017ea20 f i GuMeshFactory.obj
 0001:0017dab0       ??$getArrayOfPointers@VPxTriangleMesh@physx@@VTriangleMesh@Gu@2@@Cm@physx@@YAIPIAPAVPxTriangleMesh@1@IIPIBQAVTriangleMesh@Gu@1@I@Z 1017eab0 f i GuMeshFactory.obj
 0001:0017dbb0       ??0?$Array@PAVGuMeshFactoryListener@physx@@VNamedAllocator@shdfnd@2@@shdfnd@physx@@QAE@ABVNamedAllocator@12@@Z 1017ebb0 f i GuMeshFactory.obj
 0001:0017dc00       ??0?$CoalescedHashSet@PAVConvexMesh@Gu@physx@@U?$Hash@PAVConvexMesh@Gu@physx@@@shdfnd@3@VNonTrackingAllocator@53@@shdfnd@physx@@QAE@ABVNonTrackingAllocator@12@@Z 1017ec00 f i GuMeshFactory.obj
 0001:0017dc40       ??0?$CoalescedHashSet@PAVHeightField@Gu@physx@@U?$Hash@PAVHeightField@Gu@physx@@@shdfnd@3@VNonTrackingAllocator@53@@shdfnd@physx@@QAE@ABVNonTrackingAllocator@12@@Z 1017ec40 f i GuMeshFactory.obj
 0001:0017dc80       ??0?$CoalescedHashSet@PAVTriangleMesh@Gu@physx@@U?$Hash@PAVTriangleMesh@Gu@physx@@@shdfnd@3@VNonTrackingAllocator@53@@shdfnd@physx@@QAE@ABVNonTrackingAllocator@12@@Z 1017ec80 f i GuMeshFactory.obj
 0001:0017dcc0       ??0?$HashBase@PAVConvexMesh@Gu@physx@@PAV123@U?$Hash@PAVConvexMesh@Gu@physx@@@shdfnd@3@UGetKey@?$HashSetBase@PAVConvexMesh@Gu@physx@@U?$Hash@PAVConvexMesh@Gu@physx@@@shdfnd@3@VNonTrackingAllocator@53@$00@internal@53@VNonTrackingAllocator@53@$00@internal@shdfnd@physx@@QAE@IMABVNonTrackingAllocator@23@@Z 1017ecc0 f i GuMeshFactory.obj
 0001:0017dcf0       ??0?$HashBase@PAVHeightField@Gu@physx@@PAV123@U?$Hash@PAVHeightField@Gu@physx@@@shdfnd@3@UGetKey@?$HashSetBase@PAVHeightField@Gu@physx@@U?$Hash@PAVHeightField@Gu@physx@@@shdfnd@3@VNonTrackingAllocator@53@$00@internal@53@VNonTrackingAllocator@53@$00@internal@shdfnd@physx@@QAE@IMABVNonTrackingAllocator@23@@Z 1017ecf0 f i GuMeshFactory.obj
 0001:0017dd20       ??0?$HashBase@PAVTriangleMesh@Gu@physx@@PAV123@U?$Hash@PAVTriangleMesh@Gu@physx@@@shdfnd@3@UGetKey@?$HashSetBase@PAVTriangleMesh@Gu@physx@@U?$Hash@PAVTriangleMesh@Gu@physx@@@shdfnd@3@VNonTrackingAllocator@53@$00@internal@53@VNonTrackingAllocator@53@$00@internal@shdfnd@physx@@QAE@IMABVNonTrackingAllocator@23@@Z 1017ed20 f i GuMeshFactory.obj
 0001:0017dd50       ??0?$HashSetBase@PAVConvexMesh@Gu@physx@@U?$Hash@PAVConvexMesh@Gu@physx@@@shdfnd@3@VNonTrackingAllocator@53@$00@internal@shdfnd@physx@@QAE@IMABVNonTrackingAllocator@23@@Z 1017ed50 f i GuMeshFactory.obj
 0001:0017dd90       ??0?$HashSetBase@PAVHeightField@Gu@physx@@U?$Hash@PAVHeightField@Gu@physx@@@shdfnd@3@VNonTrackingAllocator@53@$00@internal@shdfnd@physx@@QAE@IMABVNonTrackingAllocator@23@@Z 1017ed90 f i GuMeshFactory.obj
 0001:0017ddd0       ??0?$HashSetBase@PAVTriangleMesh@Gu@physx@@U?$Hash@PAVTriangleMesh@Gu@physx@@@shdfnd@3@VNonTrackingAllocator@53@$00@internal@shdfnd@physx@@QAE@IMABVNonTrackingAllocator@23@@Z 1017edd0 f i GuMeshFactory.obj
 0001:0017de10       ??0?$MutexT@V?$ReflectionAllocator@VMutexImpl@shdfnd@physx@@@shdfnd@physx@@@shdfnd@physx@@QAE@ABV?$ReflectionAllocator@VMutexImpl@shdfnd@physx@@@12@@Z 1017ee10 f i GuMeshFactory.obj
 0001:0017de90       ??0?$ReflectionAllocator@E@shdfnd@physx@@QAE@PBD@Z 1017ee90 f i GuMeshFactory.obj
 0001:0017deb0       ??0?$ReflectionAllocator@G@shdfnd@physx@@QAE@PBD@Z 1017eeb0 f i GuMeshFactory.obj
 0001:0017ded0       ??0?$ReflectionAllocator@I@shdfnd@physx@@QAE@PBD@Z 1017eed0 f i GuMeshFactory.obj
 0001:0017def0       ??0?$ReflectionAllocator@VBV32Tree@Gu@physx@@@shdfnd@physx@@QAE@PBD@Z 1017eef0 f i GuMeshFactory.obj
 0001:0017df10       ??0?$ReflectionAllocator@VBV4TriangleData@Gu@physx@@@shdfnd@physx@@QAE@PBD@Z 1017ef10 f i GuMeshFactory.obj
 0001:0017df30       ??0?$ReflectionAllocator@VBV4TriangleMesh@Gu@physx@@@shdfnd@physx@@QAE@PBD@Z 1017ef30 f i GuMeshFactory.obj
 0001:0017df50       ??0?$ReflectionAllocator@VConvexMesh@Gu@physx@@@shdfnd@physx@@QAE@PBD@Z 1017ef50 f i GuMeshFactory.obj
 0001:0017df70       ??0?$ReflectionAllocator@VHeightField@Gu@physx@@@shdfnd@physx@@QAE@PBD@Z 1017ef70 f i GuMeshFactory.obj
 0001:0017df90       ??0?$ReflectionAllocator@VMutexImpl@shdfnd@physx@@@shdfnd@physx@@QAE@ABV012@@Z 1017ef90 f i GuMeshFactory.obj
 0001:0017dfb0       ??0?$ReflectionAllocator@VMutexImpl@shdfnd@physx@@@shdfnd@physx@@QAE@PBD@Z 1017efb0 f i GuMeshFactory.obj
 0001:0017dfd0       ??0?$ReflectionAllocator@VRTreeTriangleData@Gu@physx@@@shdfnd@physx@@QAE@PBD@Z 1017efd0 f i GuMeshFactory.obj
 0001:0017dff0       ??0?$ReflectionAllocator@VRTreeTriangleMesh@Gu@physx@@@shdfnd@physx@@QAE@PBD@Z 1017eff0 f i GuMeshFactory.obj
 0001:0017e010       ??0BV4TriangleData@Gu@physx@@QAE@XZ 1017f010 f i GuMeshFactory.obj
 0001:0017e070       ??0RTreeTriangleData@Gu@physx@@QAE@XZ 1017f070 f i GuMeshFactory.obj
 0001:0017e0c0       ??0ScopedLock@?$MutexT@V?$ReflectionAllocator@VMutexImpl@shdfnd@physx@@@shdfnd@physx@@@shdfnd@physx@@QAE@AAV123@@Z 1017f0c0 f i GuMeshFactory.obj
 0001:0017e0f0       ??0TriangleMeshData@Gu@physx@@QAE@XZ 1017f0f0 f i GuMeshFactory.obj
 0001:0017e200       ??1?$Array@PAVGuMeshFactoryListener@physx@@VNamedAllocator@shdfnd@2@@shdfnd@physx@@QAE@XZ 1017f200 f i GuMeshFactory.obj
 0001:0017e270       ??1?$CoalescedHashSet@PAVConvexMesh@Gu@physx@@U?$Hash@PAVConvexMesh@Gu@physx@@@shdfnd@3@VNonTrackingAllocator@53@@shdfnd@physx@@QAE@XZ 1017f270 f i GuMeshFactory.obj
 0001:0017e290       ??1?$CoalescedHashSet@PAVHeightField@Gu@physx@@U?$Hash@PAVHeightField@Gu@physx@@@shdfnd@3@VNonTrackingAllocator@53@@shdfnd@physx@@QAE@XZ 1017f290 f i GuMeshFactory.obj
 0001:0017e2b0       ??1?$CoalescedHashSet@PAVTriangleMesh@Gu@physx@@U?$Hash@PAVTriangleMesh@Gu@physx@@@shdfnd@3@VNonTrackingAllocator@53@@shdfnd@physx@@QAE@XZ 1017f2b0 f i GuMeshFactory.obj
 0001:0017e2d0       ??1?$HashBase@PAVConvexMesh@Gu@physx@@PAV123@U?$Hash@PAVConvexMesh@Gu@physx@@@shdfnd@3@UGetKey@?$HashSetBase@PAVConvexMesh@Gu@physx@@U?$Hash@PAVConvexMesh@Gu@physx@@@shdfnd@3@VNonTrackingAllocator@53@$00@internal@53@VNonTrackingAllocator@53@$00@internal@shdfnd@physx@@QAE@XZ 1017f2d0 f i GuMeshFactory.obj
 0001:0017e310       ??1?$HashBase@PAVHeightField@Gu@physx@@PAV123@U?$Hash@PAVHeightField@Gu@physx@@@shdfnd@3@UGetKey@?$HashSetBase@PAVHeightField@Gu@physx@@U?$Hash@PAVHeightField@Gu@physx@@@shdfnd@3@VNonTrackingAllocator@53@$00@internal@53@VNonTrackingAllocator@53@$00@internal@shdfnd@physx@@QAE@XZ 1017f310 f i GuMeshFactory.obj
 0001:0017e350       ??1?$HashBase@PAVTriangleMesh@Gu@physx@@PAV123@U?$Hash@PAVTriangleMesh@Gu@physx@@@shdfnd@3@UGetKey@?$HashSetBase@PAVTriangleMesh@Gu@physx@@U?$Hash@PAVTriangleMesh@Gu@physx@@@shdfnd@3@VNonTrackingAllocator@53@$00@internal@53@VNonTrackingAllocator@53@$00@internal@shdfnd@physx@@QAE@XZ 1017f350 f i GuMeshFactory.obj
 0001:0017e390       ??1?$HashSetBase@PAVConvexMesh@Gu@physx@@U?$Hash@PAVConvexMesh@Gu@physx@@@shdfnd@3@VNonTrackingAllocator@53@$00@internal@shdfnd@physx@@QAE@XZ 1017f390 f i GuMeshFactory.obj
 0001:0017e3b0       ??1?$HashSetBase@PAVHeightField@Gu@physx@@U?$Hash@PAVHeightField@Gu@physx@@@shdfnd@3@VNonTrackingAllocator@53@$00@internal@shdfnd@physx@@QAE@XZ 1017f3b0 f i GuMeshFactory.obj
 0001:0017e3d0       ??1?$HashSetBase@PAVTriangleMesh@Gu@physx@@U?$Hash@PAVTriangleMesh@Gu@physx@@@shdfnd@3@VNonTrackingAllocator@53@$00@internal@shdfnd@physx@@QAE@XZ 1017f3d0 f i GuMeshFactory.obj
 0001:0017e3f0       ??1?$MutexT@V?$ReflectionAllocator@VMutexImpl@shdfnd@physx@@@shdfnd@physx@@@shdfnd@physx@@QAE@XZ 1017f3f0 f i GuMeshFactory.obj
 0001:0017e420       ??1BV4TriangleData@Gu@physx@@UAE@XZ 1017f420 f i GuMeshFactory.obj
 0001:0017e470       ??1RTreeTriangleData@Gu@physx@@UAE@XZ 1017f470 f i GuMeshFactory.obj
 0001:0017e4a0       ??1ScopedLock@?$MutexT@V?$ReflectionAllocator@VMutexImpl@shdfnd@physx@@@shdfnd@physx@@@shdfnd@physx@@QAE@XZ 1017f4a0 f i GuMeshFactory.obj
 0001:0017e4c0       ??1TriangleMeshData@Gu@physx@@UAE@XZ 1017f4c0 f i GuMeshFactory.obj
 0001:0017e790       ??A?$Array@PAVGuMeshFactoryListener@physx@@VNamedAllocator@shdfnd@2@@shdfnd@physx@@QAEAAPAVGuMeshFactoryListener@2@I@Z 1017f790 f i GuMeshFactory.obj
 0001:0017e800       ??R?$Hash@PAVConvexMesh@Gu@physx@@@shdfnd@physx@@QBEIABQAVConvexMesh@Gu@2@@Z 1017f800 f i GuMeshFactory.obj
 0001:0017e830       ??R?$Hash@PAVHeightField@Gu@physx@@@shdfnd@physx@@QBEIABQAVHeightField@Gu@2@@Z 1017f830 f i GuMeshFactory.obj
 0001:0017e860       ??R?$Hash@PAVTriangleMesh@Gu@physx@@@shdfnd@physx@@QBEIABQAVTriangleMesh@Gu@2@@Z 1017f860 f i GuMeshFactory.obj
 0001:0017e890       ??RGetKey@?$HashSetBase@PAVConvexMesh@Gu@physx@@U?$Hash@PAVConvexMesh@Gu@physx@@@shdfnd@3@VNonTrackingAllocator@53@$00@internal@shdfnd@physx@@QAEABQAVConvexMesh@Gu@4@ABQAV564@@Z 1017f890 f i GuMeshFactory.obj
 0001:0017e8b0       ??RGetKey@?$HashSetBase@PAVHeightField@Gu@physx@@U?$Hash@PAVHeightField@Gu@physx@@@shdfnd@3@VNonTrackingAllocator@53@$00@internal@shdfnd@physx@@QAEABQAVHeightField@Gu@4@ABQAV564@@Z 1017f8b0 f i GuMeshFactory.obj
 0001:0017e8d0       ??RGetKey@?$HashSetBase@PAVTriangleMesh@Gu@physx@@U?$Hash@PAVTriangleMesh@Gu@physx@@@shdfnd@3@VNonTrackingAllocator@53@$00@internal@shdfnd@physx@@QAEABQAVTriangleMesh@Gu@4@ABQAV564@@Z 1017f8d0 f i GuMeshFactory.obj
 0001:0017e8f0       ??_EGuMeshFactory@physx@@MAEPAXI@Z 1017f8f0 f i GuMeshFactory.obj
 0001:0017e9d0       ??_EBV4TriangleData@Gu@physx@@UAEPAXI@Z 1017f9d0 f i GuMeshFactory.obj
 0001:0017e9d0       ??_GBV4TriangleData@Gu@physx@@UAEPAXI@Z 1017f9d0 f i GuMeshFactory.obj
 0001:0017ea30       ??_GGuMeshFactory@physx@@MAEPAXI@Z 1017fa30 f i GuMeshFactory.obj
 0001:0017ea90       ??_GMutexImpl@shdfnd@physx@@QAEPAXI@Z 1017fa90 f i GuMeshFactory.obj
 0001:0017ead0       ??_ERTreeTriangleData@Gu@physx@@UAEPAXI@Z 1017fad0 f i GuMeshFactory.obj
 0001:0017ead0       ??_GRTreeTriangleData@Gu@physx@@UAEPAXI@Z 1017fad0 f i GuMeshFactory.obj
 0001:0017eb30       ??_ETriangleMeshData@Gu@physx@@UAEPAXI@Z 1017fb30 f i GuMeshFactory.obj
 0001:0017eb30       ??_GTriangleMeshData@Gu@physx@@UAEPAXI@Z 1017fb30 f i GuMeshFactory.obj
 0001:0017eb90       ?allocate@?$Array@PAVGuMeshFactoryListener@physx@@VNamedAllocator@shdfnd@2@@shdfnd@physx@@IAEPAPAVGuMeshFactoryListener@3@I@Z 1017fb90 f i GuMeshFactory.obj
 0001:0017ec10       ?allocate@?$ReflectionAllocator@E@shdfnd@physx@@QAEPAXIPBDH@Z 1017fc10 f i GuMeshFactory.obj
 0001:0017ec70       ?allocate@?$ReflectionAllocator@G@shdfnd@physx@@QAEPAXIPBDH@Z 1017fc70 f i GuMeshFactory.obj
 0001:0017ecd0       ?allocate@?$ReflectionAllocator@I@shdfnd@physx@@QAEPAXIPBDH@Z 1017fcd0 f i GuMeshFactory.obj
 0001:0017ed30       ?allocate@?$ReflectionAllocator@VBV32Tree@Gu@physx@@@shdfnd@physx@@QAEPAXIPBDH@Z 1017fd30 f i GuMeshFactory.obj
 0001:0017ed90       ?allocate@?$ReflectionAllocator@VBV4TriangleData@Gu@physx@@@shdfnd@physx@@QAEPAXIPBDH@Z 1017fd90 f i GuMeshFactory.obj
 0001:0017edf0       ?allocate@?$ReflectionAllocator@VBV4TriangleMesh@Gu@physx@@@shdfnd@physx@@QAEPAXIPBDH@Z 1017fdf0 f i GuMeshFactory.obj
 0001:0017ee50       ?allocate@?$ReflectionAllocator@VConvexMesh@Gu@physx@@@shdfnd@physx@@QAEPAXIPBDH@Z 1017fe50 f i GuMeshFactory.obj
 0001:0017eeb0       ?allocate@?$ReflectionAllocator@VHeightField@Gu@physx@@@shdfnd@physx@@QAEPAXIPBDH@Z 1017feb0 f i GuMeshFactory.obj
 0001:0017ef10       ?allocate@?$ReflectionAllocator@VMutexImpl@shdfnd@physx@@@shdfnd@physx@@QAEPAXIPBDH@Z 1017ff10 f i GuMeshFactory.obj
 0001:0017ef70       ?allocate@?$ReflectionAllocator@VRTreeTriangleData@Gu@physx@@@shdfnd@physx@@QAEPAXIPBDH@Z 1017ff70 f i GuMeshFactory.obj
 0001:0017efd0       ?allocate@?$ReflectionAllocator@VRTreeTriangleMesh@Gu@physx@@@shdfnd@physx@@QAEPAXIPBDH@Z 1017ffd0 f i GuMeshFactory.obj
 0001:0017f030       ?allocateAdjacencies@TriangleMeshData@Gu@physx@@QAEPAIXZ 10180030 f i GuMeshFactory.obj
 0001:0017f150       ?allocateExtraTrigData@TriangleMeshData@Gu@physx@@QAEPAEXZ 10180150 f i GuMeshFactory.obj
 0001:0017f250       ?allocateFaceRemap@TriangleMeshData@Gu@physx@@QAEPAIXZ 10180250 f i GuMeshFactory.obj
 0001:0017f360       ?allocateMaterials@TriangleMeshData@Gu@physx@@QAEPAGXZ 10180360 f i GuMeshFactory.obj
 0001:0017f470       ?allocateTriangles@TriangleMeshData@Gu@physx@@QAEPAXI_NI@Z 10180470 f i GuMeshFactory.obj
 0001:0017f650       ?allocateVertices@TriangleMeshData@Gu@physx@@QAEPAVPxVec3@3@I@Z 10180650 f i GuMeshFactory.obj
 0001:0017f710       ?capacity@?$Array@PAVGuMeshFactoryListener@physx@@VNamedAllocator@shdfnd@2@@shdfnd@physx@@QBEIXZ 10180710 f i GuMeshFactory.obj
 0001:0017f730       ?capacityIncrement@?$Array@PAVGuMeshFactoryListener@physx@@VNamedAllocator@shdfnd@2@@shdfnd@physx@@IBEIXZ 10180730 f i GuMeshFactory.obj
 0001:0017f770       ?copy@?$Array@PAVGuMeshFactoryListener@physx@@VNamedAllocator@shdfnd@2@@shdfnd@physx@@KAXPAPAVGuMeshFactoryListener@3@0PBQAV43@@Z 10180770 f i GuMeshFactory.obj
 0001:0017f820       ?create@?$HashBase@PAVConvexMesh@Gu@physx@@PAV123@U?$Hash@PAVConvexMesh@Gu@physx@@@shdfnd@3@UGetKey@?$HashSetBase@PAVConvexMesh@Gu@physx@@U?$Hash@PAVConvexMesh@Gu@physx@@@shdfnd@3@VNonTrackingAllocator@53@$00@internal@53@VNonTrackingAllocator@53@$00@internal@shdfnd@physx@@QAEPAPAVConvexMesh@Gu@4@ABQAV564@AA_N@Z 10180820 f i GuMeshFactory.obj
 0001:0017f9c0       ?create@?$HashBase@PAVHeightField@Gu@physx@@PAV123@U?$Hash@PAVHeightField@Gu@physx@@@shdfnd@3@UGetKey@?$HashSetBase@PAVHeightField@Gu@physx@@U?$Hash@PAVHeightField@Gu@physx@@@shdfnd@3@VNonTrackingAllocator@53@$00@internal@53@VNonTrackingAllocator@53@$00@internal@shdfnd@physx@@QAEPAPAVHeightField@Gu@4@ABQAV564@AA_N@Z 101809c0 f i GuMeshFactory.obj
 0001:0017fb60       ?create@?$HashBase@PAVTriangleMesh@Gu@physx@@PAV123@U?$Hash@PAVTriangleMesh@Gu@physx@@@shdfnd@3@UGetKey@?$HashSetBase@PAVTriangleMesh@Gu@physx@@U?$Hash@PAVTriangleMesh@Gu@physx@@@shdfnd@3@VNonTrackingAllocator@53@$00@internal@53@VNonTrackingAllocator@53@$00@internal@shdfnd@physx@@QAEPAPAVTriangleMesh@Gu@4@ABQAV564@AA_N@Z 10180b60 f i GuMeshFactory.obj
 0001:0017fd00       ?deallocate@?$Array@PAVGuMeshFactoryListener@physx@@VNamedAllocator@shdfnd@2@@shdfnd@physx@@IAEXPAX@Z 10180d00 f i GuMeshFactory.obj
 0001:0017fd20       ?deallocate@?$ReflectionAllocator@VMutexImpl@shdfnd@physx@@@shdfnd@physx@@QAEXPAX@Z 10180d20 f i GuMeshFactory.obj
 0001:0017fd60       ?destroy@?$Array@PAVGuMeshFactoryListener@physx@@VNamedAllocator@shdfnd@2@@shdfnd@physx@@KAXPAPAVGuMeshFactoryListener@3@0@Z 10180d60 f i GuMeshFactory.obj
 0001:0017fd90       ?destroy@?$HashBase@PAVConvexMesh@Gu@physx@@PAV123@U?$Hash@PAVConvexMesh@Gu@physx@@@shdfnd@3@UGetKey@?$HashSetBase@PAVConvexMesh@Gu@physx@@U?$Hash@PAVConvexMesh@Gu@physx@@@shdfnd@3@VNonTrackingAllocator@53@$00@internal@53@VNonTrackingAllocator@53@$00@internal@shdfnd@physx@@AAEXXZ 10180d90 f i GuMeshFactory.obj
 0001:0017fe00       ?destroy@?$HashBase@PAVHeightField@Gu@physx@@PAV123@U?$Hash@PAVHeightField@Gu@physx@@@shdfnd@3@UGetKey@?$HashSetBase@PAVHeightField@Gu@physx@@U?$Hash@PAVHeightField@Gu@physx@@@shdfnd@3@VNonTrackingAllocator@53@$00@internal@53@VNonTrackingAllocator@53@$00@internal@shdfnd@physx@@AAEXXZ 10180e00 f i GuMeshFactory.obj
 0001:0017fe70       ?destroy@?$HashBase@PAVTriangleMesh@Gu@physx@@PAV123@U?$Hash@PAVTriangleMesh@Gu@physx@@@shdfnd@3@UGetKey@?$HashSetBase@PAVTriangleMesh@Gu@physx@@U?$Hash@PAVTriangleMesh@Gu@physx@@@shdfnd@3@VNonTrackingAllocator@53@$00@internal@53@VNonTrackingAllocator@53@$00@internal@shdfnd@physx@@AAEXXZ 10180e70 f i GuMeshFactory.obj
 0001:0017fee0       ?equal@?$Hash@PAVConvexMesh@Gu@physx@@@shdfnd@physx@@QBE_NABQAVConvexMesh@Gu@3@0@Z 10180ee0 f i GuMeshFactory.obj
 0001:0017ff20       ?equal@?$Hash@PAVHeightField@Gu@physx@@@shdfnd@physx@@QBE_NABQAVHeightField@Gu@3@0@Z 10180f20 f i GuMeshFactory.obj
 0001:0017ff60       ?equal@?$Hash@PAVTriangleMesh@Gu@physx@@@shdfnd@physx@@QBE_NABQAVTriangleMesh@Gu@3@0@Z 10180f60 f i GuMeshFactory.obj
 0001:0017ffa0       ?erase@?$HashBase@PAVConvexMesh@Gu@physx@@PAV123@U?$Hash@PAVConvexMesh@Gu@physx@@@shdfnd@3@UGetKey@?$HashSetBase@PAVConvexMesh@Gu@physx@@U?$Hash@PAVConvexMesh@Gu@physx@@@shdfnd@3@VNonTrackingAllocator@53@$00@internal@53@VNonTrackingAllocator@53@$00@internal@shdfnd@physx@@QAE_NABQAVConvexMesh@Gu@4@@Z 10180fa0 f i GuMeshFactory.obj
 0001:00180060       ?erase@?$HashBase@PAVHeightField@Gu@physx@@PAV123@U?$Hash@PAVHeightField@Gu@physx@@@shdfnd@3@UGetKey@?$HashSetBase@PAVHeightField@Gu@physx@@U?$Hash@PAVHeightField@Gu@physx@@@shdfnd@3@VNonTrackingAllocator@53@$00@internal@53@VNonTrackingAllocator@53@$00@internal@shdfnd@physx@@QAE_NABQAVHeightField@Gu@4@@Z 10181060 f i GuMeshFactory.obj
 0001:00180120       ?erase@?$HashBase@PAVTriangleMesh@Gu@physx@@PAV123@U?$Hash@PAVTriangleMesh@Gu@physx@@@shdfnd@3@UGetKey@?$HashSetBase@PAVTriangleMesh@Gu@physx@@U?$Hash@PAVTriangleMesh@Gu@physx@@@shdfnd@3@VNonTrackingAllocator@53@$00@internal@53@VNonTrackingAllocator@53@$00@internal@shdfnd@physx@@QAE_NABQAVTriangleMesh@Gu@4@@Z 10181120 f i GuMeshFactory.obj
 0001:001801e0       ?erase@?$HashSetBase@PAVConvexMesh@Gu@physx@@U?$Hash@PAVConvexMesh@Gu@physx@@@shdfnd@3@VNonTrackingAllocator@53@$00@internal@shdfnd@physx@@QAE_NABQAVConvexMesh@Gu@4@@Z 101811e0 f i GuMeshFactory.obj
 0001:00180200       ?erase@?$HashSetBase@PAVHeightField@Gu@physx@@U?$Hash@PAVHeightField@Gu@physx@@@shdfnd@3@VNonTrackingAllocator@53@$00@internal@shdfnd@physx@@QAE_NABQAVHeightField@Gu@4@@Z 10181200 f i GuMeshFactory.obj
 0001:00180220       ?erase@?$HashSetBase@PAVTriangleMesh@Gu@physx@@U?$Hash@PAVTriangleMesh@Gu@physx@@@shdfnd@3@VNonTrackingAllocator@53@$00@internal@shdfnd@physx@@QAE_NABQAVTriangleMesh@Gu@4@@Z 10181220 f i GuMeshFactory.obj
 0001:00180240       ?eraseInternal@?$HashBase@PAVConvexMesh@Gu@physx@@PAV123@U?$Hash@PAVConvexMesh@Gu@physx@@@shdfnd@3@UGetKey@?$HashSetBase@PAVConvexMesh@Gu@physx@@U?$Hash@PAVConvexMesh@Gu@physx@@@shdfnd@3@VNonTrackingAllocator@53@$00@internal@53@VNonTrackingAllocator@53@$00@internal@shdfnd@physx@@AAE_NPAI@Z 10181240 f i GuMeshFactory.obj
 0001:001802e0       ?eraseInternal@?$HashBase@PAVHeightField@Gu@physx@@PAV123@U?$Hash@PAVHeightField@Gu@physx@@@shdfnd@3@UGetKey@?$HashSetBase@PAVHeightField@Gu@physx@@U?$Hash@PAVHeightField@Gu@physx@@@shdfnd@3@VNonTrackingAllocator@53@$00@internal@53@VNonTrackingAllocator@53@$00@internal@shdfnd@physx@@AAE_NPAI@Z 101812e0 f i GuMeshFactory.obj
 0001:00180380       ?eraseInternal@?$HashBase@PAVTriangleMesh@Gu@physx@@PAV123@U?$Hash@PAVTriangleMesh@Gu@physx@@@shdfnd@3@UGetKey@?$HashSetBase@PAVTriangleMesh@Gu@physx@@U?$Hash@PAVTriangleMesh@Gu@physx@@@shdfnd@3@VNonTrackingAllocator@53@$00@internal@53@VNonTrackingAllocator@53@$00@internal@shdfnd@physx@@AAE_NPAI@Z 10181380 f i GuMeshFactory.obj
 0001:00180420       ?flip@physx@@YAXAAI@Z      10181420 f i GuMeshFactory.obj
 0001:001804d0       ?freeListAdd@?$HashBase@PAVConvexMesh@Gu@physx@@PAV123@U?$Hash@PAVConvexMesh@Gu@physx@@@shdfnd@3@UGetKey@?$HashSetBase@PAVConvexMesh@Gu@physx@@U?$Hash@PAVConvexMesh@Gu@physx@@@shdfnd@3@VNonTrackingAllocator@53@$00@internal@53@VNonTrackingAllocator@53@$00@internal@shdfnd@physx@@AAEXI@Z 101814d0 f i GuMeshFactory.obj
 0001:00180580       ?freeListAdd@?$HashBase@PAVConvexMesh@Gu@physx@@PAV123@U?$Hash@PAVConvexMesh@Gu@physx@@@shdfnd@3@UGetKey@?$HashSetBase@PAVConvexMesh@Gu@physx@@U?$Hash@PAVConvexMesh@Gu@physx@@@shdfnd@3@VNonTrackingAllocator@53@$00@internal@53@VNonTrackingAllocator@53@$00@internal@shdfnd@physx@@AAEXII@Z 10181580 f i GuMeshFactory.obj
 0001:00180670       ?freeListAdd@?$HashBase@PAVHeightField@Gu@physx@@PAV123@U?$Hash@PAVHeightField@Gu@physx@@@shdfnd@3@UGetKey@?$HashSetBase@PAVHeightField@Gu@physx@@U?$Hash@PAVHeightField@Gu@physx@@@shdfnd@3@VNonTrackingAllocator@53@$00@internal@53@VNonTrackingAllocator@53@$00@internal@shdfnd@physx@@AAEXI@Z 10181670 f i GuMeshFactory.obj
 0001:00180720       ?freeListAdd@?$HashBase@PAVHeightField@Gu@physx@@PAV123@U?$Hash@PAVHeightField@Gu@physx@@@shdfnd@3@UGetKey@?$HashSetBase@PAVHeightField@Gu@physx@@U?$Hash@PAVHeightField@Gu@physx@@@shdfnd@3@VNonTrackingAllocator@53@$00@internal@53@VNonTrackingAllocator@53@$00@internal@shdfnd@physx@@AAEXII@Z 10181720 f i GuMeshFactory.obj
 0001:00180810       ?freeListAdd@?$HashBase@PAVTriangleMesh@Gu@physx@@PAV123@U?$Hash@PAVTriangleMesh@Gu@physx@@@shdfnd@3@UGetKey@?$HashSetBase@PAVTriangleMesh@Gu@physx@@U?$Hash@PAVTriangleMesh@Gu@physx@@@shdfnd@3@VNonTrackingAllocator@53@$00@internal@53@VNonTrackingAllocator@53@$00@internal@shdfnd@physx@@AAEXI@Z 10181810 f i GuMeshFactory.obj
 0001:001808c0       ?freeListAdd@?$HashBase@PAVTriangleMesh@Gu@physx@@PAV123@U?$Hash@PAVTriangleMesh@Gu@physx@@@shdfnd@3@UGetKey@?$HashSetBase@PAVTriangleMesh@Gu@physx@@U?$Hash@PAVTriangleMesh@Gu@physx@@@shdfnd@3@VNonTrackingAllocator@53@$00@internal@53@VNonTrackingAllocator@53@$00@internal@shdfnd@physx@@AAEXII@Z 101818c0 f i GuMeshFactory.obj
 0001:001809b0       ?freeListEmpty@?$HashBase@PAVConvexMesh@Gu@physx@@PAV123@U?$Hash@PAVConvexMesh@Gu@physx@@@shdfnd@3@UGetKey@?$HashSetBase@PAVConvexMesh@Gu@physx@@U?$Hash@PAVConvexMesh@Gu@physx@@@shdfnd@3@VNonTrackingAllocator@53@$00@internal@53@VNonTrackingAllocator@53@$00@internal@shdfnd@physx@@ABE_NXZ 101819b0 f i GuMeshFactory.obj
 0001:00180a20       ?freeListEmpty@?$HashBase@PAVHeightField@Gu@physx@@PAV123@U?$Hash@PAVHeightField@Gu@physx@@@shdfnd@3@UGetKey@?$HashSetBase@PAVHeightField@Gu@physx@@U?$Hash@PAVHeightField@Gu@physx@@@shdfnd@3@VNonTrackingAllocator@53@$00@internal@53@VNonTrackingAllocator@53@$00@internal@shdfnd@physx@@ABE_NXZ 10181a20 f i GuMeshFactory.obj
 0001:00180a90       ?freeListEmpty@?$HashBase@PAVTriangleMesh@Gu@physx@@PAV123@U?$Hash@PAVTriangleMesh@Gu@physx@@@shdfnd@3@UGetKey@?$HashSetBase@PAVTriangleMesh@Gu@physx@@U?$Hash@PAVTriangleMesh@Gu@physx@@@shdfnd@3@VNonTrackingAllocator@53@$00@internal@53@VNonTrackingAllocator@53@$00@internal@shdfnd@physx@@ABE_NXZ 10181a90 f i GuMeshFactory.obj
 0001:00180b00       ?freeListGetNext@?$HashBase@PAVConvexMesh@Gu@physx@@PAV123@U?$Hash@PAVConvexMesh@Gu@physx@@@shdfnd@3@UGetKey@?$HashSetBase@PAVConvexMesh@Gu@physx@@U?$Hash@PAVConvexMesh@Gu@physx@@@shdfnd@3@VNonTrackingAllocator@53@$00@internal@53@VNonTrackingAllocator@53@$00@internal@shdfnd@physx@@AAEIXZ 10181b00 f i GuMeshFactory.obj
 0001:00180c20       ?freeListGetNext@?$HashBase@PAVHeightField@Gu@physx@@PAV123@U?$Hash@PAVHeightField@Gu@physx@@@shdfnd@3@UGetKey@?$HashSetBase@PAVHeightField@Gu@physx@@U?$Hash@PAVHeightField@Gu@physx@@@shdfnd@3@VNonTrackingAllocator@53@$00@internal@53@VNonTrackingAllocator@53@$00@internal@shdfnd@physx@@AAEIXZ 10181c20 f i GuMeshFactory.obj
 0001:00180d40       ?freeListGetNext@?$HashBase@PAVTriangleMesh@Gu@physx@@PAV123@U?$Hash@PAVTriangleMesh@Gu@physx@@@shdfnd@3@UGetKey@?$HashSetBase@PAVTriangleMesh@Gu@physx@@U?$Hash@PAVTriangleMesh@Gu@physx@@@shdfnd@3@VNonTrackingAllocator@53@$00@internal@53@VNonTrackingAllocator@53@$00@internal@shdfnd@physx@@AAEIXZ 10181d40 f i GuMeshFactory.obj
 0001:00180e60       ?getEntries@?$CoalescedHashSet@PAVConvexMesh@Gu@physx@@U?$Hash@PAVConvexMesh@Gu@physx@@@shdfnd@3@VNonTrackingAllocator@53@@shdfnd@physx@@QBEPBQAVConvexMesh@Gu@3@XZ 10181e60 f i GuMeshFactory.obj
 0001:00180e80       ?getEntries@?$CoalescedHashSet@PAVHeightField@Gu@physx@@U?$Hash@PAVHeightField@Gu@physx@@@shdfnd@3@VNonTrackingAllocator@53@@shdfnd@physx@@QBEPBQAVHeightField@Gu@3@XZ 10181e80 f i GuMeshFactory.obj
 0001:00180ea0       ?getEntries@?$CoalescedHashSet@PAVTriangleMesh@Gu@physx@@U?$Hash@PAVTriangleMesh@Gu@physx@@@shdfnd@3@VNonTrackingAllocator@53@@shdfnd@physx@@QBEPBQAVTriangleMesh@Gu@3@XZ 10181ea0 f i GuMeshFactory.obj
 0001:00180ec0       ?getEntries@?$HashBase@PAVConvexMesh@Gu@physx@@PAV123@U?$Hash@PAVConvexMesh@Gu@physx@@@shdfnd@3@UGetKey@?$HashSetBase@PAVConvexMesh@Gu@physx@@U?$Hash@PAVConvexMesh@Gu@physx@@@shdfnd@3@VNonTrackingAllocator@53@$00@internal@53@VNonTrackingAllocator@53@$00@internal@shdfnd@physx@@QBEPBQAVConvexMesh@Gu@4@XZ 10181ec0 f i GuMeshFactory.obj
 0001:00180ee0       ?getEntries@?$HashBase@PAVHeightField@Gu@physx@@PAV123@U?$Hash@PAVHeightField@Gu@physx@@@shdfnd@3@UGetKey@?$HashSetBase@PAVHeightField@Gu@physx@@U?$Hash@PAVHeightField@Gu@physx@@@shdfnd@3@VNonTrackingAllocator@53@$00@internal@53@VNonTrackingAllocator@53@$00@internal@shdfnd@physx@@QBEPBQAVHeightField@Gu@4@XZ 10181ee0 f i GuMeshFactory.obj
 0001:00180f00       ?getEntries@?$HashBase@PAVTriangleMesh@Gu@physx@@PAV123@U?$Hash@PAVTriangleMesh@Gu@physx@@@shdfnd@3@UGetKey@?$HashSetBase@PAVTriangleMesh@Gu@physx@@U?$Hash@PAVTriangleMesh@Gu@physx@@@shdfnd@3@VNonTrackingAllocator@53@$00@internal@53@VNonTrackingAllocator@53@$00@internal@shdfnd@physx@@QBEPBQAVTriangleMesh@Gu@4@XZ 10181f00 f i GuMeshFactory.obj
 0001:00180f20       ?getName@?$ReflectionAllocator@E@shdfnd@physx@@CAPBDXZ 10181f20 f i GuMeshFactory.obj
 0001:00180f70       ?getName@?$ReflectionAllocator@G@shdfnd@physx@@CAPBDXZ 10181f70 f i GuMeshFactory.obj
 0001:00180fc0       ?getName@?$ReflectionAllocator@I@shdfnd@physx@@CAPBDXZ 10181fc0 f i GuMeshFactory.obj
 0001:00181010       ?getName@?$ReflectionAllocator@VBV32Tree@Gu@physx@@@shdfnd@physx@@CAPBDXZ 10182010 f i GuMeshFactory.obj
 0001:00181060       ?getName@?$ReflectionAllocator@VBV4TriangleData@Gu@physx@@@shdfnd@physx@@CAPBDXZ 10182060 f i GuMeshFactory.obj
 0001:001810b0       ?getName@?$ReflectionAllocator@VBV4TriangleMesh@Gu@physx@@@shdfnd@physx@@CAPBDXZ 101820b0 f i GuMeshFactory.obj
 0001:00181100       ?getName@?$ReflectionAllocator@VConvexMesh@Gu@physx@@@shdfnd@physx@@CAPBDXZ 10182100 f i GuMeshFactory.obj
 0001:00181150       ?getName@?$ReflectionAllocator@VHeightField@Gu@physx@@@shdfnd@physx@@CAPBDXZ 10182150 f i GuMeshFactory.obj
 0001:001811a0       ?getName@?$ReflectionAllocator@VMutexImpl@shdfnd@physx@@@shdfnd@physx@@CAPBDXZ 101821a0 f i GuMeshFactory.obj
 0001:001811f0       ?getName@?$ReflectionAllocator@VRTreeTriangleData@Gu@physx@@@shdfnd@physx@@CAPBDXZ 101821f0 f i GuMeshFactory.obj
 0001:00181240       ?getName@?$ReflectionAllocator@VRTreeTriangleMesh@Gu@physx@@@shdfnd@physx@@CAPBDXZ 10182240 f i GuMeshFactory.obj
 0001:00181290       ?grow@?$HashBase@PAVConvexMesh@Gu@physx@@PAV123@U?$Hash@PAVConvexMesh@Gu@physx@@@shdfnd@3@UGetKey@?$HashSetBase@PAVConvexMesh@Gu@physx@@U?$Hash@PAVConvexMesh@Gu@physx@@@shdfnd@3@VNonTrackingAllocator@53@$00@internal@53@VNonTrackingAllocator@53@$00@internal@shdfnd@physx@@AAEXXZ 10182290 f i GuMeshFactory.obj
 0001:00181350       ?grow@?$HashBase@PAVHeightField@Gu@physx@@PAV123@U?$Hash@PAVHeightField@Gu@physx@@@shdfnd@3@UGetKey@?$HashSetBase@PAVHeightField@Gu@physx@@U?$Hash@PAVHeightField@Gu@physx@@@shdfnd@3@VNonTrackingAllocator@53@$00@internal@53@VNonTrackingAllocator@53@$00@internal@shdfnd@physx@@AAEXXZ 10182350 f i GuMeshFactory.obj
 0001:00181410       ?grow@?$HashBase@PAVTriangleMesh@Gu@physx@@PAV123@U?$Hash@PAVTriangleMesh@Gu@physx@@@shdfnd@3@UGetKey@?$HashSetBase@PAVTriangleMesh@Gu@physx@@U?$Hash@PAVTriangleMesh@Gu@physx@@@shdfnd@3@VNonTrackingAllocator@53@$00@internal@53@VNonTrackingAllocator@53@$00@internal@shdfnd@physx@@AAEXXZ 10182410 f i GuMeshFactory.obj
 0001:001814d0       ?growAndPushBack@?$Array@PAVGuMeshFactoryListener@physx@@VNamedAllocator@shdfnd@2@@shdfnd@physx@@IAEAAPAVGuMeshFactoryListener@3@ABQAV43@@Z 101824d0 f i GuMeshFactory.obj
 0001:00181660       ?has16BitIndices@TriangleMeshData@Gu@physx@@QBE_NXZ 10182660 f i GuMeshFactory.obj
 0001:00181690       ?hash@?$HashBase@PAVConvexMesh@Gu@physx@@PAV123@U?$Hash@PAVConvexMesh@Gu@physx@@@shdfnd@3@UGetKey@?$HashSetBase@PAVConvexMesh@Gu@physx@@U?$Hash@PAVConvexMesh@Gu@physx@@@shdfnd@3@VNonTrackingAllocator@53@$00@internal@53@VNonTrackingAllocator@53@$00@internal@shdfnd@physx@@ABEIABQAVConvexMesh@Gu@4@@Z 10182690 f i GuMeshFactory.obj
 0001:001816c0       ?hash@?$HashBase@PAVConvexMesh@Gu@physx@@PAV123@U?$Hash@PAVConvexMesh@Gu@physx@@@shdfnd@3@UGetKey@?$HashSetBase@PAVConvexMesh@Gu@physx@@U?$Hash@PAVConvexMesh@Gu@physx@@@shdfnd@3@VNonTrackingAllocator@53@$00@internal@53@VNonTrackingAllocator@53@$00@internal@shdfnd@physx@@ABEIABQAVConvexMesh@Gu@4@I@Z 101826c0 f i GuMeshFactory.obj
 0001:001816f0       ?hash@?$HashBase@PAVHeightField@Gu@physx@@PAV123@U?$Hash@PAVHeightField@Gu@physx@@@shdfnd@3@UGetKey@?$HashSetBase@PAVHeightField@Gu@physx@@U?$Hash@PAVHeightField@Gu@physx@@@shdfnd@3@VNonTrackingAllocator@53@$00@internal@53@VNonTrackingAllocator@53@$00@internal@shdfnd@physx@@ABEIABQAVHeightField@Gu@4@@Z 101826f0 f i GuMeshFactory.obj
 0001:00181720       ?hash@?$HashBase@PAVHeightField@Gu@physx@@PAV123@U?$Hash@PAVHeightField@Gu@physx@@@shdfnd@3@UGetKey@?$HashSetBase@PAVHeightField@Gu@physx@@U?$Hash@PAVHeightField@Gu@physx@@@shdfnd@3@VNonTrackingAllocator@53@$00@internal@53@VNonTrackingAllocator@53@$00@internal@shdfnd@physx@@ABEIABQAVHeightField@Gu@4@I@Z 10182720 f i GuMeshFactory.obj
 0001:00181750       ?hash@?$HashBase@PAVTriangleMesh@Gu@physx@@PAV123@U?$Hash@PAVTriangleMesh@Gu@physx@@@shdfnd@3@UGetKey@?$HashSetBase@PAVTriangleMesh@Gu@physx@@U?$Hash@PAVTriangleMesh@Gu@physx@@@shdfnd@3@VNonTrackingAllocator@53@$00@internal@53@VNonTrackingAllocator@53@$00@internal@shdfnd@physx@@ABEIABQAVTriangleMesh@Gu@4@@Z 10182750 f i GuMeshFactory.obj
 0001:00181780       ?hash@?$HashBase@PAVTriangleMesh@Gu@physx@@PAV123@U?$Hash@PAVTriangleMesh@Gu@physx@@@shdfnd@3@UGetKey@?$HashSetBase@PAVTriangleMesh@Gu@physx@@U?$Hash@PAVTriangleMesh@Gu@physx@@@shdfnd@3@VNonTrackingAllocator@53@$00@internal@53@VNonTrackingAllocator@53@$00@internal@shdfnd@physx@@ABEIABQAVTriangleMesh@Gu@4@I@Z 10182780 f i GuMeshFactory.obj
 0001:001817b0       ?init@?$HashBase@PAVConvexMesh@Gu@physx@@PAV123@U?$Hash@PAVConvexMesh@Gu@physx@@@shdfnd@3@UGetKey@?$HashSetBase@PAVConvexMesh@Gu@physx@@U?$Hash@PAVConvexMesh@Gu@physx@@@shdfnd@3@VNonTrackingAllocator@53@$00@internal@53@VNonTrackingAllocator@53@$00@internal@shdfnd@physx@@AAEXIM@Z 101827b0 f i GuMeshFactory.obj
 0001:00181860       ?init@?$HashBase@PAVHeightField@Gu@physx@@PAV123@U?$Hash@PAVHeightField@Gu@physx@@@shdfnd@3@UGetKey@?$HashSetBase@PAVHeightField@Gu@physx@@U?$Hash@PAVHeightField@Gu@physx@@@shdfnd@3@VNonTrackingAllocator@53@$00@internal@53@VNonTrackingAllocator@53@$00@internal@shdfnd@physx@@AAEXIM@Z 10182860 f i GuMeshFactory.obj
 0001:00181910       ?init@?$HashBase@PAVTriangleMesh@Gu@physx@@PAV123@U?$Hash@PAVTriangleMesh@Gu@physx@@@shdfnd@3@UGetKey@?$HashSetBase@PAVTriangleMesh@Gu@physx@@U?$Hash@PAVTriangleMesh@Gu@physx@@@shdfnd@3@VNonTrackingAllocator@53@$00@internal@53@VNonTrackingAllocator@53@$00@internal@shdfnd@physx@@AAEXIM@Z 10182910 f i GuMeshFactory.obj
 0001:001819c0       ?insert@?$HashSetBase@PAVConvexMesh@Gu@physx@@U?$Hash@PAVConvexMesh@Gu@physx@@@shdfnd@3@VNonTrackingAllocator@53@$00@internal@shdfnd@physx@@QAE_NABQAVConvexMesh@Gu@4@@Z 101829c0 f i GuMeshFactory.obj
 0001:00181a60       ?insert@?$HashSetBase@PAVHeightField@Gu@physx@@U?$Hash@PAVHeightField@Gu@physx@@@shdfnd@3@VNonTrackingAllocator@53@$00@internal@shdfnd@physx@@QAE_NABQAVHeightField@Gu@4@@Z 10182a60 f i GuMeshFactory.obj
 0001:00181b00       ?insert@?$HashSetBase@PAVTriangleMesh@Gu@physx@@U?$Hash@PAVTriangleMesh@Gu@physx@@@shdfnd@3@VNonTrackingAllocator@53@$00@internal@shdfnd@physx@@QAE_NABQAVTriangleMesh@Gu@4@@Z 10182b00 f i GuMeshFactory.obj
 0001:00181ba0       ?isArrayOfPOD@?$Array@PAVGuMeshFactoryListener@physx@@VNamedAllocator@shdfnd@2@@shdfnd@physx@@SA_NXZ 10182ba0 f i GuMeshFactory.obj
 0001:00181bb0       ?isInUserMemory@?$Array@PAVGuMeshFactoryListener@physx@@VNamedAllocator@shdfnd@2@@shdfnd@physx@@QBEIXZ 10182bb0 f i GuMeshFactory.obj
 0001:00181bd0       ?lock@?$MutexT@V?$ReflectionAllocator@VMutexImpl@shdfnd@physx@@@shdfnd@physx@@@shdfnd@physx@@QBEXXZ 10182bd0 f i GuMeshFactory.obj
 0001:00181bf0       ?pushBack@?$Array@PAVGuMeshFactoryListener@physx@@VNamedAllocator@shdfnd@2@@shdfnd@physx@@QAEAAPAVGuMeshFactoryListener@3@ABQAV43@@Z 10182bf0 f i GuMeshFactory.obj
 0001:00181ca0       ?replaceWithLast@?$Array@PAVGuMeshFactoryListener@physx@@VNamedAllocator@shdfnd@2@@shdfnd@physx@@QAEXI@Z 10182ca0 f i GuMeshFactory.obj
 0001:00181d40       ?replaceWithLast@?$HashBase@PAVConvexMesh@Gu@physx@@PAV123@U?$Hash@PAVConvexMesh@Gu@physx@@@shdfnd@3@UGetKey@?$HashSetBase@PAVConvexMesh@Gu@physx@@U?$Hash@PAVConvexMesh@Gu@physx@@@shdfnd@3@VNonTrackingAllocator@53@$00@internal@53@VNonTrackingAllocator@53@$00@internal@shdfnd@physx@@AAEXI@Z 10182d40 f i GuMeshFactory.obj
 0001:00181e90       ?replaceWithLast@?$HashBase@PAVHeightField@Gu@physx@@PAV123@U?$Hash@PAVHeightField@Gu@physx@@@shdfnd@3@UGetKey@?$HashSetBase@PAVHeightField@Gu@physx@@U?$Hash@PAVHeightField@Gu@physx@@@shdfnd@3@VNonTrackingAllocator@53@$00@internal@53@VNonTrackingAllocator@53@$00@internal@shdfnd@physx@@AAEXI@Z 10182e90 f i GuMeshFactory.obj
 0001:00181fe0       ?replaceWithLast@?$HashBase@PAVTriangleMesh@Gu@physx@@PAV123@U?$Hash@PAVTriangleMesh@Gu@physx@@@shdfnd@3@UGetKey@?$HashSetBase@PAVTriangleMesh@Gu@physx@@U?$Hash@PAVTriangleMesh@Gu@physx@@@shdfnd@3@VNonTrackingAllocator@53@$00@internal@53@VNonTrackingAllocator@53@$00@internal@shdfnd@physx@@AAEXI@Z 10182fe0 f i GuMeshFactory.obj
 0001:00182130       ?reserve@?$HashBase@PAVConvexMesh@Gu@physx@@PAV123@U?$Hash@PAVConvexMesh@Gu@physx@@@shdfnd@3@UGetKey@?$HashSetBase@PAVConvexMesh@Gu@physx@@U?$Hash@PAVConvexMesh@Gu@physx@@@shdfnd@3@VNonTrackingAllocator@53@$00@internal@53@VNonTrackingAllocator@53@$00@internal@shdfnd@physx@@QAEXI@Z 10183130 f i GuMeshFactory.obj
 0001:00182160       ?reserve@?$HashBase@PAVHeightField@Gu@physx@@PAV123@U?$Hash@PAVHeightField@Gu@physx@@@shdfnd@3@UGetKey@?$HashSetBase@PAVHeightField@Gu@physx@@U?$Hash@PAVHeightField@Gu@physx@@@shdfnd@3@VNonTrackingAllocator@53@$00@internal@53@VNonTrackingAllocator@53@$00@internal@shdfnd@physx@@QAEXI@Z 10183160 f i GuMeshFactory.obj
 0001:00182190       ?reserve@?$HashBase@PAVTriangleMesh@Gu@physx@@PAV123@U?$Hash@PAVTriangleMesh@Gu@physx@@@shdfnd@3@UGetKey@?$HashSetBase@PAVTriangleMesh@Gu@physx@@U?$Hash@PAVTriangleMesh@Gu@physx@@@shdfnd@3@VNonTrackingAllocator@53@$00@internal@53@VNonTrackingAllocator@53@$00@internal@shdfnd@physx@@QAEXI@Z 10183190 f i GuMeshFactory.obj
 0001:001821c0       ?reserveInternal@?$HashBase@PAVConvexMesh@Gu@physx@@PAV123@U?$Hash@PAVConvexMesh@Gu@physx@@@shdfnd@3@UGetKey@?$HashSetBase@PAVConvexMesh@Gu@physx@@U?$Hash@PAVConvexMesh@Gu@physx@@@shdfnd@3@VNonTrackingAllocator@53@$00@internal@53@VNonTrackingAllocator@53@$00@internal@shdfnd@physx@@AAEXI@Z 101831c0 f i GuMeshFactory.obj
 0001:00182670       ?reserveInternal@?$HashBase@PAVHeightField@Gu@physx@@PAV123@U?$Hash@PAVHeightField@Gu@physx@@@shdfnd@3@UGetKey@?$HashSetBase@PAVHeightField@Gu@physx@@U?$Hash@PAVHeightField@Gu@physx@@@shdfnd@3@VNonTrackingAllocator@53@$00@internal@53@VNonTrackingAllocator@53@$00@internal@shdfnd@physx@@AAEXI@Z 10183670 f i GuMeshFactory.obj
 0001:00182b20       ?reserveInternal@?$HashBase@PAVTriangleMesh@Gu@physx@@PAV123@U?$Hash@PAVTriangleMesh@Gu@physx@@@shdfnd@3@UGetKey@?$HashSetBase@PAVTriangleMesh@Gu@physx@@U?$Hash@PAVTriangleMesh@Gu@physx@@@shdfnd@3@VNonTrackingAllocator@53@$00@internal@53@VNonTrackingAllocator@53@$00@internal@shdfnd@physx@@AAEXI@Z 10183b20 f i GuMeshFactory.obj
 0001:00182fd0       ?setMeshFactory@ConvexMesh@Gu@physx@@QAEXPAVGuMeshFactory@3@@Z 10183fd0 f i GuMeshFactory.obj
 0001:00182ff0       ?setNbTriangles@SourceMesh@Gu@physx@@QAEXI@Z 10183ff0 f i GuMeshFactory.obj
 0001:00183010       ?setNbVertices@SourceMesh@Gu@physx@@QAEXI@Z 10184010 f i GuMeshFactory.obj
 0001:00183030       ?size@?$Array@PAVGuMeshFactoryListener@physx@@VNamedAllocator@shdfnd@2@@shdfnd@physx@@QBEIXZ 10184030 f i GuMeshFactory.obj
 0001:00183050       ?size@?$HashBase@PAVConvexMesh@Gu@physx@@PAV123@U?$Hash@PAVConvexMesh@Gu@physx@@@shdfnd@3@UGetKey@?$HashSetBase@PAVConvexMesh@Gu@physx@@U?$Hash@PAVConvexMesh@Gu@physx@@@shdfnd@3@VNonTrackingAllocator@53@$00@internal@53@VNonTrackingAllocator@53@$00@internal@shdfnd@physx@@QBEIXZ 10184050 f i GuMeshFactory.obj
 0001:00183070       ?size@?$HashBase@PAVHeightField@Gu@physx@@PAV123@U?$Hash@PAVHeightField@Gu@physx@@@shdfnd@3@UGetKey@?$HashSetBase@PAVHeightField@Gu@physx@@U?$Hash@PAVHeightField@Gu@physx@@@shdfnd@3@VNonTrackingAllocator@53@$00@internal@53@VNonTrackingAllocator@53@$00@internal@shdfnd@physx@@QBEIXZ 10184070 f i GuMeshFactory.obj
 0001:00183090       ?size@?$HashBase@PAVTriangleMesh@Gu@physx@@PAV123@U?$Hash@PAVTriangleMesh@Gu@physx@@@shdfnd@3@UGetKey@?$HashSetBase@PAVTriangleMesh@Gu@physx@@U?$Hash@PAVTriangleMesh@Gu@physx@@@shdfnd@3@VNonTrackingAllocator@53@$00@internal@53@VNonTrackingAllocator@53@$00@internal@shdfnd@physx@@QBEIXZ 10184090 f i GuMeshFactory.obj
 0001:001830b0       ?size@?$HashSetBase@PAVConvexMesh@Gu@physx@@U?$Hash@PAVConvexMesh@Gu@physx@@@shdfnd@3@VNonTrackingAllocator@53@$00@internal@shdfnd@physx@@QBEIXZ 101840b0 f i GuMeshFactory.obj
 0001:001830d0       ?size@?$HashSetBase@PAVHeightField@Gu@physx@@U?$Hash@PAVHeightField@Gu@physx@@@shdfnd@3@VNonTrackingAllocator@53@$00@internal@shdfnd@physx@@QBEIXZ 101840d0 f i GuMeshFactory.obj
 0001:001830f0       ?size@?$HashSetBase@PAVTriangleMesh@Gu@physx@@U?$Hash@PAVTriangleMesh@Gu@physx@@@shdfnd@3@VNonTrackingAllocator@53@$00@internal@shdfnd@physx@@QBEIXZ 101840f0 f i GuMeshFactory.obj
 0001:00183110       ?unlock@?$MutexT@V?$ReflectionAllocator@VMutexImpl@shdfnd@physx@@@shdfnd@physx@@@shdfnd@physx@@QBEXXZ 10184110 f i GuMeshFactory.obj
 0001:00183130       ?getBinaryMetaData@HeightField@Gu@physx@@SAXAAVPxOutputStream@3@@Z 10184130 f   GuMetaData.obj
 0001:00183600       ?getBinaryMetaData@BigConvexData@physx@@SAXAAVPxOutputStream@2@@Z 10184600 f   GuMetaData.obj
 0001:00183980       ?getBinaryMetaData@ConvexMesh@Gu@physx@@SAXAAVPxOutputStream@3@@Z 10184980 f   GuMetaData.obj
 0001:00184130       ?getBinaryMetaData@RTree@Gu@physx@@SAXAAVPxOutputStream@3@@Z 10185130 f   GuMetaData.obj
 0001:00184600       ?getBinaryMetaData@SourceMesh@Gu@physx@@SAXAAVPxOutputStream@3@@Z 10185600 f   GuMetaData.obj
 0001:00184870       ?getBinaryMetaData@BV4Tree@Gu@physx@@SAXAAVPxOutputStream@3@@Z 10185870 f   GuMetaData.obj
 0001:00184db0       ?getBinaryMetaData@TriangleMesh@Gu@physx@@SAXAAVPxOutputStream@3@@Z 10185db0 f   GuMetaData.obj
 0001:00185be0       ?getBinaryMetaData@BV4TriangleMesh@Gu@physx@@SAXAAVPxOutputStream@3@@Z 10186be0 f   GuMetaData.obj
 0001:00185d50       ?getBinaryMetaData@RTreeTriangleMesh@Gu@physx@@SAXAAVPxOutputStream@3@@Z 10186d50 f   GuMetaData.obj
 0001:00185e60       ?getBinaryMetaData@MaterialIndicesStruct@physx@@SAXAAVPxOutputStream@2@@Z 10186e60 f   GuMetaData.obj
 0001:00186000       ?getBinaryMetaData@GeometryUnion@Gu@physx@@SAXAAVPxOutputStream@3@@Z 10187000 f   GuMetaData.obj
 0001:0018b570       ?pointConvexDistance@@YA_NAAVPxVec3@physx@@0AAMABV12@PBVConvexMesh@Gu@2@ABVPxMeshScale@2@ABVPxTransform@2@@Z 1018c570 f   GuMTD.obj
 0001:0018fd10       ??$PX_UNUSED@VPxGeometry@physx@@@@YAXABVPxGeometry@physx@@@Z 10190d10 f i GuMTD.obj
 0001:0018fd20       ??0Cache@Gu@physx@@QAE@XZ  10190d20 f i GuMTD.obj
 0001:0018fd40       ??0ContactBuffer@Gu@physx@@QAE@XZ 10190d40 f i GuMTD.obj
 0001:0018fd70       ??0ContactPoint@Gu@physx@@QAE@XZ 10190d70 f i GuMTD.obj
 0001:0018fdb0       ??0NarrowPhaseParams@Gu@physx@@QAE@MMM@Z 10190db0 f i GuMTD.obj
 0001:0018fe00       ??0PxBoxGeometry@physx@@QAE@VPxVec3@1@@Z 10190e00 f i GuMTD.obj
 0001:0018fe40       ??0PxCache@physx@@QAE@XZ   10190e40 f i GuMTD.obj
 0001:0018fe80       ?getNbPolygonsFast@ConvexMesh@Gu@physx@@QBEIXZ 10190e80 f i GuMTD.obj
 0001:0018fea0       ?getNbVerts@ConvexMesh@Gu@physx@@QBEIXZ 10190ea0 f i GuMTD.obj
 0001:0018fec0       ?getPolygons@ConvexMesh@Gu@physx@@QBEPBUHullPolygonData@23@XZ 10190ec0 f i GuMTD.obj
 0001:0018fee0       ?getVerts@ConvexMesh@Gu@physx@@QBEPBVPxVec3@3@XZ 10190ee0 f i GuMTD.obj
 0001:0018ff00       ?length@Segment@Gu@physx@@QBEMXZ 10190f00 f i GuMTD.obj
 0001:0018ff80       ?getOverlapFuncTable@Gu@physx@@YAPAY06Q6A_NABVPxGeometry@2@ABVPxTransform@2@01PAUTriggerCache@12@@ZXZ 10190f80 f   GuOverlapTests.obj
 0001:0018ff90       ?registerHeightFields@Gu@physx@@YAXXZ 10190f90 f   GuOverlapTests.obj
 0001:001925e0       ??$gjk@U?$RelativeConvex@VBoxV@Gu@physx@@@Gu@physx@@U?$LocalConvex@VConvexHullV@Gu@physx@@@23@@Gu@physx@@YA?AW4GjkStatus@01@ABU?$RelativeConvex@VBoxV@Gu@physx@@@01@ABU?$LocalConvex@VConvexHullV@Gu@physx@@@01@ABT__m128@@2AAT5@333@Z 101935e0 f i GuOverlapTests.obj
 0001:001931d0       ??$gjk@U?$RelativeConvex@VConvexHullV@Gu@physx@@@Gu@physx@@U?$LocalConvex@VConvexHullV@Gu@physx@@@23@@Gu@physx@@YA?AW4GjkStatus@01@ABU?$RelativeConvex@VConvexHullV@Gu@physx@@@01@ABU?$LocalConvex@VConvexHullV@Gu@physx@@@01@ABT__m128@@2AAT5@333@Z 101941d0 f i GuOverlapTests.obj
 0001:00193dc0       ?isNormalized@PxVec3@physx@@QBE_NXZ 10194dc0 f i GuOverlapTests.obj
 0001:00193e50       ?transform@PxTransform@physx@@QBE?AV12@ABV12@@Z 10194e50 f i GuOverlapTests.obj
 0001:00193fb0       ?getRaycastFuncTable@Gu@physx@@YAAAY06Q6AIABVPxGeometry@2@ABVPxTransform@2@ABVPxVec3@2@2MV?$PxFlags@W4Enum@PxHitFlag@physx@@G@2@IPIAUPxRaycastHit@2@@ZXZ 10194fb0 f   GuRaycastTests.obj
 0001:00194050       ?raycast_box@@YAIABVPxGeometry@physx@@ABVPxTransform@2@ABVPxVec3@2@2MV?$PxFlags@W4Enum@PxHitFlag@physx@@G@2@IPIAUPxRaycastHit@2@@Z 10195050 f   GuRaycastTests.obj
 0001:00194340       ?raycast_sphere@@YAIABVPxGeometry@physx@@ABVPxTransform@2@ABVPxVec3@2@2MV?$PxFlags@W4Enum@PxHitFlag@physx@@G@2@IPIAUPxRaycastHit@2@@Z 10195340 f   GuRaycastTests.obj
 0001:00194510       ?raycast_capsule@@YAIABVPxGeometry@physx@@ABVPxTransform@2@ABVPxVec3@2@2MV?$PxFlags@W4Enum@PxHitFlag@physx@@G@2@IPIAUPxRaycastHit@2@@Z 10195510 f   GuRaycastTests.obj
 0001:001947a0       ?raycast_plane@@YAIABVPxGeometry@physx@@ABVPxTransform@2@ABVPxVec3@2@2MV?$PxFlags@W4Enum@PxHitFlag@physx@@G@2@IPIAUPxRaycastHit@2@@Z 101957a0 f   GuRaycastTests.obj
 0001:00194940       ?raycast_convexMesh@@YAIABVPxGeometry@physx@@ABVPxTransform@2@ABVPxVec3@2@2MV?$PxFlags@W4Enum@PxHitFlag@physx@@G@2@IPIAUPxRaycastHit@2@@Z 10195940 f   GuRaycastTests.obj
 0001:00194e10       ?raycast_triangleMesh@@YAIABVPxGeometry@physx@@ABVPxTransform@2@ABVPxVec3@2@2MV?$PxFlags@W4Enum@PxHitFlag@physx@@G@2@IPIAUPxRaycastHit@2@@Z 10195e10 f   GuRaycastTests.obj
 0001:00194f10       ?raycast_heightField@@YAIABVPxGeometry@physx@@ABVPxTransform@2@ABVPxVec3@2@2MV?$PxFlags@W4Enum@PxHitFlag@physx@@G@2@IPIAUPxRaycastHit@2@@Z 10195f10 f   GuRaycastTests.obj
 0001:001952e0       ?registerHeightFields_Raycasts@@YAXXZ 101962e0 f   GuRaycastTests.obj
 0001:001957e0       ??$PX_UNUSED@PIAUPxRaycastHit@physx@@@@YAXABQIAUPxRaycastHit@physx@@@Z 101967e0 f i GuRaycastTests.obj
 0001:001957f0       ??$traceSegment@UHFTraceSegmentCallback@?A0x1835c13d@@$0A@$0A@@HeightFieldUtil@Gu@physx@@QBEXABVPxVec3@2@0MPAUHFTraceSegmentCallback@?A0x1835c13d@@ABVPxBounds3@2@_NPBV32@@Z 101967f0 f i GuRaycastTests.obj
 0001:00197b00       ??0?$OverlapTraceSegment@UHFTraceSegmentCallback@?A0x1835c13d@@@HeightFieldUtil@Gu@physx@@QAE@ABV123@ABVHeightField@23@@Z 10198b00 f i GuRaycastTests.obj
 0001:00197c30       ?addIndex@?$OverlapTraceSegment@UHFTraceSegmentCallback@?A0x1835c13d@@@HeightFieldUtil@Gu@physx@@QAE_NI@Z 10198c30 f i GuRaycastTests.obj
 0001:00197ca0       ?computeRectangleDifference@?$OverlapTraceSegment@UHFTraceSegmentCallback@?A0x1835c13d@@@HeightFieldUtil@Gu@physx@@QAEXABUOverlapRectangle@1234@0AAUOverlapLine@1234@@Z 10198ca0 f i GuRaycastTests.obj
 0001:00198040       ?init@?$OverlapTraceSegment@UHFTraceSegmentCallback@?A0x1835c13d@@@HeightFieldUtil@Gu@physx@@QAE_NHHHHHPAUHFTraceSegmentCallback@?A0x1835c13d@@@Z 10199040 f i GuRaycastTests.obj
 0001:00198160       ?initialized@?$OverlapTraceSegment@UHFTraceSegmentCallback@?A0x1835c13d@@@HeightFieldUtil@Gu@physx@@QBE_NXZ 10199160 f i GuRaycastTests.obj
 0001:00198180       ?intersectRayPlane@Gu@physx@@YA_NABVPxVec3@2@0ABVPxPlane@2@AAMPAV32@@Z 10199180 f i GuRaycastTests.obj
 0001:00198250       ?invalidate@OverlapRectangle@?$OverlapTraceSegment@UHFTraceSegmentCallback@?A0x1835c13d@@@HeightFieldUtil@Gu@physx@@QAEXXZ 10199250 f i GuRaycastTests.obj
 0001:00198290       ?isSet@?$PxFlags@W4Enum@PxHitFlag@physx@@G@physx@@QBE_NW4Enum@PxHitFlag@2@@Z 10199290 f i GuRaycastTests.obj
 0001:00198300       ?prepare@?$OverlapTraceSegment@UHFTraceSegmentCallback@?A0x1835c13d@@@HeightFieldUtil@Gu@physx@@QAEXABVPxVec3@4@00AAM1@Z 10199300 f i GuRaycastTests.obj
 0001:00198690       ?raycastTriangleMesh@Midphase@Gu@physx@@YAIPBVTriangleMesh@23@ABVPxTriangleMeshGeometry@3@ABVPxTransform@3@ABVPxVec3@3@3MV?$PxFlags@W4Enum@PxHitFlag@physx@@G@3@IPIAUPxRaycastHit@3@@Z 10199690 f i GuRaycastTests.obj
 0001:00198710       ?reportOverlaps@?$OverlapTraceSegment@UHFTraceSegmentCallback@?A0x1835c13d@@@HeightFieldUtil@Gu@physx@@QAE_NXZ 10199710 f i GuRaycastTests.obj
 0001:00198770       ?step@?$OverlapTraceSegment@UHFTraceSegmentCallback@?A0x1835c13d@@@HeightFieldUtil@Gu@physx@@QAE_NHH@Z 10199770 f i GuRaycastTests.obj
 0001:00198850       ?testVertexIndex@?$OverlapTraceSegment@UHFTraceSegmentCallback@?A0x1835c13d@@@HeightFieldUtil@Gu@physx@@QAE_NI@Z 10199850 f i GuRaycastTests.obj
 0001:00198a10       ?visitCells@?$OverlapTraceSegment@UHFTraceSegmentCallback@?A0x1835c13d@@@HeightFieldUtil@Gu@physx@@QAE_NABUOverlapLine@1234@@Z 10199a10 f i GuRaycastTests.obj
 0001:00198be0       ?visitCells@?$OverlapTraceSegment@UHFTraceSegmentCallback@?A0x1835c13d@@@HeightFieldUtil@Gu@physx@@QAE_NABUOverlapRectangle@1234@@Z 10199be0 f i GuRaycastTests.obj
 0001:00198ce0       ?readChunk@physx@@YAXAAC000AAVPxInputStream@1@@Z 10199ce0 f   GuSerialize.obj
 0001:00198d30       ?readWord@physx@@YAG_NAAVPxInputStream@1@@Z 10199d30 f   GuSerialize.obj
 0001:00198d70       ?readDword@physx@@YAI_NAAVPxInputStream@1@@Z 10199d70 f   GuSerialize.obj
 0001:00198db0       ?readFloat@physx@@YAM_NAAVPxInputStream@1@@Z 10199db0 f   GuSerialize.obj
 0001:00198df0       ?writeWord@physx@@YAXG_NAAVPxOutputStream@1@@Z 10199df0 f   GuSerialize.obj
 0001:00198e20       ?writeDword@physx@@YAXI_NAAVPxOutputStream@1@@Z 10199e20 f   GuSerialize.obj
 0001:00198e50       ?writeFloat@physx@@YAXM_NAAVPxOutputStream@1@@Z 10199e50 f   GuSerialize.obj
 0001:00198e80       ?readFloatBuffer@physx@@YA_NPAMI_NAAVPxInputStream@1@@Z 10199e80 f   GuSerialize.obj
 0001:00198ee0       ?writeFloatBuffer@physx@@YAXPBMI_NAAVPxOutputStream@1@@Z 10199ee0 f   GuSerialize.obj
 0001:00198f40       ?writeWordBuffer@physx@@YAXPBGI_NAAVPxOutputStream@1@@Z 10199f40 f   GuSerialize.obj
 0001:00198fa0       ?readWordBuffer@physx@@YAXPAGI_NAAVPxInputStream@1@@Z 10199fa0 f   GuSerialize.obj
 0001:00199000       ?writeHeader@physx@@YA_NCCCCI_NAAVPxOutputStream@1@@Z 1019a000 f   GuSerialize.obj
 0001:00199070       ?readHeader@physx@@YA_NCCCCAAIAA_NAAVPxInputStream@1@@Z 1019a070 f   GuSerialize.obj
 0001:00199160       ?computeMaxIndex@physx@@YAIPBII@Z 1019a160 f   GuSerialize.obj
 0001:001991b0       ?computeMaxIndex@physx@@YAGPBGI@Z 1019a1b0 f   GuSerialize.obj
 0001:00199210       ?storeIndices@physx@@YAXIIPBIAAVPxOutputStream@1@_N@Z 1019a210 f   GuSerialize.obj
 0001:001992d0       ?readIndices@physx@@YAXIIPAIAAVPxInputStream@1@_N@Z 1019a2d0 f   GuSerialize.obj
 0001:00199380       ?WriteHeader@Gu@physx@@YA_NEEEEI_NAAVPxOutputStream@2@@Z 1019a380 f   GuSerialize.obj
 0001:001993f0       ?ReadHeader@Gu@physx@@YA_NEEEEAAIAA_NAAVPxInputStream@2@@Z 1019a3f0 f   GuSerialize.obj
 0001:001994e0       ?StoreIndices@Gu@physx@@YAXIIPBIAAVPxOutputStream@2@_N@Z 1019a4e0 f   GuSerialize.obj
 0001:001995c0       ?ReadIndices@Gu@physx@@YAXIIPAIAAVPxInputStream@2@_N@Z 1019a5c0 f   GuSerialize.obj
 0001:001996b0       ?StoreIndices@Gu@physx@@YAXGIPBGAAVPxOutputStream@2@_N@Z 1019a6b0 f   GuSerialize.obj
 0001:00199740       ?ReadIndices@Gu@physx@@YAXGIPAGAAVPxInputStream@2@_N@Z 1019a740 f   GuSerialize.obj
 0001:00199ae0       ?readIntBuffer@physx@@YA_NPAII_NAAVPxInputStream@1@@Z 1019aae0 f i GuSerialize.obj
 0001:00199b10       ?writeIntBuffer@physx@@YAXPBII_NAAVPxOutputStream@1@@Z 1019ab10 f i GuSerialize.obj
 0001:00199c20       ?computeCapsule_TriangleMeshMTD@Gu@physx@@YA_NABVPxTriangleMeshGeometry@2@ABVPxTransform@2@AAVCapsuleV@12@M_NAAUPxSweepHit@2@@Z 1019ac20 f   GuSweepMTD.obj
 0001:0019a240       ?computeCapsule_HeightFieldMTD@Gu@physx@@YA_NABVPxHeightFieldGeometry@2@ABVPxTransform@2@AAVCapsuleV@12@M_NIAAUPxSweepHit@2@@Z 1019b240 f   GuSweepMTD.obj
 0001:0019a850       ?computeBox_TriangleMeshMTD@Gu@physx@@YA_NABVPxTriangleMeshGeometry@2@ABVPxTransform@2@ABVBox@12@1M_NAAUPxSweepHit@2@@Z 1019b850 f   GuSweepMTD.obj
 0001:0019b0c0       ?computeBox_HeightFieldMTD@Gu@physx@@YA_NABVPxHeightFieldGeometry@2@ABVPxTransform@2@ABVBox@12@1M_NIAAUPxSweepHit@2@@Z 1019c0c0 f   GuSweepMTD.obj
 0001:0019b940       ?computeConvex_TriangleMeshMTD@Gu@physx@@YA_NABVPxTriangleMeshGeometry@2@ABVPxTransform@2@ABVPxConvexMeshGeometry@2@1M_NAAUPxSweepHit@2@@Z 1019c940 f   GuSweepMTD.obj
 0001:0019c310       ?computeConvex_HeightFieldMTD@Gu@physx@@YA_NABVPxHeightFieldGeometry@2@ABVPxTransform@2@ABVPxConvexMeshGeometry@2@1M_NIAAUPxSweepHit@2@@Z 1019d310 f   GuSweepMTD.obj
 0001:0019cce0       ?computeSphere_SphereMTD@Gu@physx@@YA_NABVSphere@12@0AAUPxSweepHit@2@@Z 1019dce0 f   GuSweepMTD.obj
 0001:0019cda0       ?computeSphere_CapsuleMTD@Gu@physx@@YA_NABVSphere@12@ABVCapsule@12@AAUPxSweepHit@2@@Z 1019dda0 f   GuSweepMTD.obj
 0001:0019ce90       ?computeCapsule_CapsuleMTD@Gu@physx@@YA_NABVCapsule@12@0AAUPxSweepHit@2@@Z 1019de90 f   GuSweepMTD.obj
 0001:0019cfa0       ?computePlane_CapsuleMTD@Gu@physx@@YA_NABVPxPlane@2@ABVCapsule@12@AAUPxSweepHit@2@@Z 1019dfa0 f   GuSweepMTD.obj
 0001:0019d070       ?computePlane_BoxMTD@Gu@physx@@YA_NABVPxPlane@2@ABVBox@12@AAUPxSweepHit@2@@Z 1019e070 f   GuSweepMTD.obj
 0001:0019d170       ?computePlane_ConvexMTD@Gu@physx@@YA_NABVPxPlane@2@ABVPxConvexMeshGeometry@2@ABVPxTransform@2@AAUPxSweepHit@2@@Z 1019e170 f   GuSweepMTD.obj
 0001:0019e780       ??0?$Array@IVNamedAllocator@shdfnd@physx@@@shdfnd@physx@@QAE@ABVNamedAllocator@12@@Z 1019f780 f i GuSweepMTD.obj
 0001:0019e7d0       ??0MTDTriangle@@QAE@XZ     1019f7d0 f i GuSweepMTD.obj
 0001:0019e7f0       ??0MeshMTDGenerationCallback@@QAE@AAV?$Array@IVNamedAllocator@shdfnd@physx@@@shdfnd@physx@@@Z 1019f7f0 f i GuSweepMTD.obj
 0001:0019e830       ??0MidPhaseQueryLocalReport@@QAE@AAV?$Array@IVNamedAllocator@shdfnd@physx@@@shdfnd@physx@@@Z 1019f830 f i GuSweepMTD.obj
 0001:0019e870       ??0TriangleV@Gu@physx@@QAE@XZ 1019f870 f i GuSweepMTD.obj
 0001:0019e8d0       ??1MTDTriangle@@QAE@XZ     1019f8d0 f i GuSweepMTD.obj
 0001:0019e8f0       ??1MeshMTDGenerationCallback@@UAE@XZ 1019f8f0 f i GuSweepMTD.obj
 0001:0019e910       ??1MidPhaseQueryLocalReport@@UAE@XZ 1019f910 f i GuSweepMTD.obj
 0001:0019e930       ??A?$Array@IVNamedAllocator@shdfnd@physx@@@shdfnd@physx@@QAEAAII@Z 1019f930 f i GuSweepMTD.obj
 0001:0019e9a0       ??_GMeshMTDGenerationCallback@@UAEPAXI@Z 1019f9a0 f i GuSweepMTD.obj
 0001:0019e9a0       ??_EMeshMTDGenerationCallback@@UAEPAXI@Z 1019f9a0 f i GuSweepMTD.obj
 0001:0019e9e0       ??_EMidPhaseQueryLocalReport@@UAEPAXI@Z 1019f9e0 f i GuSweepMTD.obj
 0001:0019e9e0       ??_GMidPhaseQueryLocalReport@@UAEPAXI@Z 1019f9e0 f i GuSweepMTD.obj
 0001:0019ea20       ?empty@?$Array@IVNamedAllocator@shdfnd@physx@@@shdfnd@physx@@QBE_NXZ 1019fa20 f i GuSweepMTD.obj
 0001:0019ea60       ?forceSize_Unsafe@?$Array@IVNamedAllocator@shdfnd@physx@@@shdfnd@physx@@QAEXI@Z 1019fa60 f i GuSweepMTD.obj
 0001:0019ead0       ?getLocalTriangle@TriangleMesh@Gu@physx@@QBEXAAVPxTriangle@3@I_N@Z 1019fad0 f i GuSweepMTD.obj
 0001:0019ec30       ?onEvent@MidPhaseQueryLocalReport@@UAE_NIPAI@Z 1019fc30 f i GuSweepMTD.obj
 0001:0019ec90       ?processHit@MeshMTDGenerationCallback@@UAE_NABUPxRaycastHit@physx@@ABVPxVec3@3@11AAMPBI@Z 1019fc90 f i GuSweepMTD.obj
 0001:0019ecc0       ?setCenter@CapsuleV@Gu@physx@@QAEXABT__m128@@@Z 1019fcc0 f i GuSweepMTD.obj
 0001:0019ed70       ?setShapeSpaceCenterofMass@SupportLocal@Gu@physx@@QAEXABT__m128@@@Z 1019fd70 f i GuSweepMTD.obj
 0001:0019ed90       ?size@?$Array@IVNamedAllocator@shdfnd@physx@@@shdfnd@physx@@QBEIXZ 1019fd90 f i GuSweepMTD.obj
 0001:0019ee00       ?sweepCapsuleTriangles@Gu@physx@@YA_NIPBVPxTriangle@2@_NABVPxCapsuleGeometry@2@ABVPxTransform@2@ABVPxVec3@2@MAAUPxSweepHit@2@PBIMV?$PxFlags@W4Enum@PxHitFlag@physx@@G@2@@Z 1019fe00 f   GuSweepSharedTests.obj
 0001:0019f330       ?sweepCapsule_SphereGeom@@YA_NABVPxGeometry@physx@@ABVPxTransform@2@ABVPxCapsuleGeometry@2@1ABVCapsule@Gu@2@ABVPxVec3@2@MAAUPxSweepHit@2@V?$PxFlags@W4Enum@PxHitFlag@physx@@G@2@M@Z 101a0330 f   GuSweepSharedTests.obj
 0001:0019f580       ?sweepCapsule_PlaneGeom@@YA_NABVPxGeometry@physx@@ABVPxTransform@2@ABVPxCapsuleGeometry@2@1ABVCapsule@Gu@2@ABVPxVec3@2@MAAUPxSweepHit@2@V?$PxFlags@W4Enum@PxHitFlag@physx@@G@2@M@Z 101a0580 f   GuSweepSharedTests.obj
 0001:0019f860       ?sweepCapsule_CapsuleGeom@@YA_NABVPxGeometry@physx@@ABVPxTransform@2@ABVPxCapsuleGeometry@2@1ABVCapsule@Gu@2@ABVPxVec3@2@MAAUPxSweepHit@2@V?$PxFlags@W4Enum@PxHitFlag@physx@@G@2@M@Z 101a0860 f   GuSweepSharedTests.obj
 0001:0019f9f0       ?sweepCapsule_ConvexGeom@@YA_NABVPxGeometry@physx@@ABVPxTransform@2@ABVPxCapsuleGeometry@2@1ABVCapsule@Gu@2@ABVPxVec3@2@MAAUPxSweepHit@2@V?$PxFlags@W4Enum@PxHitFlag@physx@@G@2@M@Z 101a09f0 f   GuSweepSharedTests.obj
 0001:0019ff90       ?sweepBox_PlaneGeom@@YA_NABVPxGeometry@physx@@ABVPxTransform@2@ABVPxBoxGeometry@2@1ABVBox@Gu@2@ABVPxVec3@2@MAAUPxSweepHit@2@V?$PxFlags@W4Enum@PxHitFlag@physx@@G@2@M@Z 101a0f90 f   GuSweepSharedTests.obj
 0001:001a0230       ?sweepBox_ConvexGeom@@YA_NABVPxGeometry@physx@@ABVPxTransform@2@ABVPxBoxGeometry@2@1ABVBox@Gu@2@ABVPxVec3@2@MAAUPxSweepHit@2@V?$PxFlags@W4Enum@PxHitFlag@physx@@G@2@M@Z 101a1230 f   GuSweepSharedTests.obj
 0001:001a06e0       ?sweepConvex_SphereGeom@@YA_NABVPxGeometry@physx@@ABVPxTransform@2@ABVPxConvexMeshGeometry@2@1ABVPxVec3@2@MAAUPxSweepHit@2@V?$PxFlags@W4Enum@PxHitFlag@physx@@G@2@M@Z 101a16e0 f   GuSweepSharedTests.obj
 0001:001a0ba0       ?sweepConvex_PlaneGeom@@YA_NABVPxGeometry@physx@@ABVPxTransform@2@ABVPxConvexMeshGeometry@2@1ABVPxVec3@2@MAAUPxSweepHit@2@V?$PxFlags@W4Enum@PxHitFlag@physx@@G@2@M@Z 101a1ba0 f   GuSweepSharedTests.obj
 0001:001a0e50       ?sweepConvex_CapsuleGeom@@YA_NABVPxGeometry@physx@@ABVPxTransform@2@ABVPxConvexMeshGeometry@2@1ABVPxVec3@2@MAAUPxSweepHit@2@V?$PxFlags@W4Enum@PxHitFlag@physx@@G@2@M@Z 101a1e50 f   GuSweepSharedTests.obj
 0001:001a0fd0       ?sweepConvex_BoxGeom@@YA_NABVPxGeometry@physx@@ABVPxTransform@2@ABVPxConvexMeshGeometry@2@1ABVPxVec3@2@MAAUPxSweepHit@2@V?$PxFlags@W4Enum@PxHitFlag@physx@@G@2@M@Z 101a1fd0 f   GuSweepSharedTests.obj
 0001:001a1150       ?sweepConvex_ConvexGeom@@YA_NABVPxGeometry@physx@@ABVPxTransform@2@ABVPxConvexMeshGeometry@2@1ABVPxVec3@2@MAAUPxSweepHit@2@V?$PxFlags@W4Enum@PxHitFlag@physx@@G@2@M@Z 101a2150 f   GuSweepSharedTests.obj
 0001:001a2050       ??$gjkPenetration@U?$LocalConvex@VCapsuleV@Gu@physx@@@Gu@physx@@U?$LocalConvex@VShrunkConvexHullV@Gu@physx@@@23@@Gu@physx@@YA?AW4GjkStatus@01@ABU?$LocalConvex@VCapsuleV@Gu@physx@@@01@ABU?$LocalConvex@VShrunkConvexHullV@Gu@physx@@@01@ABT__m128@@2AAT5@333PIAE4AAE_N@Z 101a3050 f i GuSweepSharedTests.obj
 0001:001a31a0       ??$gjkRaycast@U?$LocalConvex@VCapsuleV@Gu@physx@@@Gu@physx@@U?$LocalConvex@VConvexHullV@Gu@physx@@@23@@Gu@physx@@YA_NABU?$LocalConvex@VCapsuleV@Gu@physx@@@01@ABU?$LocalConvex@VConvexHullV@Gu@physx@@@01@ABT__m128@@222AAT4@33M@Z 101a41a0 f i GuSweepSharedTests.obj
 0001:001a40a0       ??$gjkRaycast@U?$RelativeConvex@VBoxV@Gu@physx@@@Gu@physx@@U?$LocalConvex@VConvexHullV@Gu@physx@@@23@@Gu@physx@@YA_NABU?$RelativeConvex@VBoxV@Gu@physx@@@01@ABU?$LocalConvex@VConvexHullV@Gu@physx@@@01@ABT__m128@@222AAT4@33M@Z 101a50a0 f i GuSweepSharedTests.obj
 0001:001a4fa0       ??$gjkRaycast@U?$RelativeConvex@VConvexHullV@Gu@physx@@@Gu@physx@@U?$LocalConvex@VConvexHullV@Gu@physx@@@23@@Gu@physx@@YA_NABU?$RelativeConvex@VConvexHullV@Gu@physx@@@01@ABU?$LocalConvex@VConvexHullV@Gu@physx@@@01@ABT__m128@@222AAT4@33M@Z 101a5fa0 f i GuSweepSharedTests.obj
 0001:001a5ea0       ??$gjkRaycastPenetration@U?$LocalConvex@VCapsuleV@Gu@physx@@@Gu@physx@@U?$LocalConvex@VConvexHullV@Gu@physx@@@23@@Gu@physx@@YA_NABU?$LocalConvex@VCapsuleV@Gu@physx@@@01@ABU?$LocalConvex@VConvexHullV@Gu@physx@@@01@ABT__m128@@222AAT4@33M_N@Z 101a6ea0 f i GuSweepSharedTests.obj
 0001:001a6180       ??$gjkRaycastPenetration@U?$RelativeConvex@VBoxV@Gu@physx@@@Gu@physx@@U?$LocalConvex@VConvexHullV@Gu@physx@@@23@@Gu@physx@@YA_NABU?$RelativeConvex@VBoxV@Gu@physx@@@01@ABU?$LocalConvex@VConvexHullV@Gu@physx@@@01@ABT__m128@@222AAT4@33M_N@Z 101a7180 f i GuSweepSharedTests.obj
 0001:001a6470       ??$gjkRaycastPenetration@U?$RelativeConvex@VConvexHullV@Gu@physx@@@Gu@physx@@U?$LocalConvex@VConvexHullV@Gu@physx@@@23@@Gu@physx@@YA_NABU?$RelativeConvex@VConvexHullV@Gu@physx@@@01@ABU?$LocalConvex@VConvexHullV@Gu@physx@@@01@ABT__m128@@222AAT4@33M_N@Z 101a7470 f i GuSweepSharedTests.obj
 0001:001a6760       ??S?$PxFlags@W4Enum@PxHitFlag@physx@@G@physx@@QBE?AV01@XZ 101a7760 f i GuSweepSharedTests.obj
 0001:001a67a0       ??Sphysx@@YA?AV?$PxFlags@W4Enum@PxHitFlag@physx@@G@0@W4Enum@PxHitFlag@0@@Z 101a77a0 f i GuSweepSharedTests.obj
 0001:001a67d0       ??_4?$PxFlags@W4Enum@PxHitFlag@physx@@G@physx@@QAEAAV01@ABV01@@Z 101a77d0 f i GuSweepSharedTests.obj
 0001:001a6800       ?getShrunkConvex@?$RelativeConvex@VBoxV@Gu@physx@@@Gu@physx@@QBE?AU?$RelativeConvex@VShrunkBoxV@Gu@physx@@@23@XZ 101a7800 f i GuSweepSharedTests.obj
 0001:001a6830       ?getShrunkConvex@?$RelativeConvex@VConvexHullV@Gu@physx@@@Gu@physx@@QBE?AU?$RelativeConvex@VShrunkConvexHullV@Gu@physx@@@23@XZ 101a7830 f i GuSweepSharedTests.obj
 0001:001a6860       ?loadTransformU@aos@shdfnd@physx@@YA?AVPsTransformV@123@ABVPxTransform@3@@Z 101a7860 f i GuSweepSharedTests.obj
 0001:001a68e0       ?getSweepFuncTable@Gu@physx@@YAABUGeomSweepFuncs@12@XZ 101a78e0 f   GuSweepTests.obj
 0001:001a68f0       ?sweepBoxTriangles@Gu@physx@@YA_NIPBVPxTriangle@2@_NABVPxBoxGeometry@2@ABVPxTransform@2@ABVPxVec3@2@MAAUPxSweepHit@2@PBIMV?$PxFlags@W4Enum@PxHitFlag@physx@@G@2@@Z 101a78f0 f   GuSweepTests.obj
 0001:001a7390       ?sweepCapsule_BoxGeom@@YA_NABVPxGeometry@physx@@ABVPxTransform@2@ABVPxCapsuleGeometry@2@1ABVCapsule@Gu@2@ABVPxVec3@2@MAAUPxSweepHit@2@V?$PxFlags@W4Enum@PxHitFlag@physx@@G@2@M@Z 101a8390 f   GuSweepTests.obj
 0001:001a7930       ?sweepBox_SphereGeom@@YA_NABVPxGeometry@physx@@ABVPxTransform@2@ABVPxBoxGeometry@2@1ABVBox@Gu@2@ABVPxVec3@2@MAAUPxSweepHit@2@V?$PxFlags@W4Enum@PxHitFlag@physx@@G@2@M@Z 101a8930 f   GuSweepTests.obj
 0001:001a7e20       ?sweepBox_CapsuleGeom@@YA_NABVPxGeometry@physx@@ABVPxTransform@2@ABVPxBoxGeometry@2@1ABVBox@Gu@2@ABVPxVec3@2@MAAUPxSweepHit@2@V?$PxFlags@W4Enum@PxHitFlag@physx@@G@2@M@Z 101a8e20 f   GuSweepTests.obj
 0001:001a83a0       ?sweepBox_BoxGeom@@YA_NABVPxGeometry@physx@@ABVPxTransform@2@ABVPxBoxGeometry@2@1ABVBox@Gu@2@ABVPxVec3@2@MAAUPxSweepHit@2@V?$PxFlags@W4Enum@PxHitFlag@physx@@G@2@M@Z 101a93a0 f   GuSweepTests.obj
 0001:001a8a40       ?registerHeightFields_Sweeps@@YAXXZ 101a9a40 f   GuSweepTests.obj
 0001:001a9310       ??$PX_UNUSED@UPxSweepHit@physx@@@@YAXABUPxSweepHit@physx@@@Z 101aa310 f i GuSweepTests.obj
 0001:001a9320       ??$PX_UNUSED@VBox@Gu@physx@@@@YAXABVBox@Gu@physx@@@Z 101aa320 f i GuSweepTests.obj
 0001:001a9330       ??$PX_UNUSED@VCapsule@Gu@physx@@@@YAXABVCapsule@Gu@physx@@@Z 101aa330 f i GuSweepTests.obj
 0001:001a9340       ??$PX_UNUSED@VPxConvexMeshGeometry@physx@@@@YAXABVPxConvexMeshGeometry@physx@@@Z 101aa340 f i GuSweepTests.obj
 0001:001a9350       ??$gjkPenetration@U?$LocalConvex@VCapsuleV@Gu@physx@@@Gu@physx@@U?$LocalConvex@VShrunkBoxV@Gu@physx@@@23@@Gu@physx@@YA?AW4GjkStatus@01@ABU?$LocalConvex@VCapsuleV@Gu@physx@@@01@ABU?$LocalConvex@VShrunkBoxV@Gu@physx@@@01@ABT__m128@@2AAT5@333PIAE4AAE_N@Z 101aa350 f i GuSweepTests.obj
 0001:001aa4a0       ??$gjkRaycast@U?$LocalConvex@VCapsuleV@Gu@physx@@@Gu@physx@@U?$LocalConvex@VBoxV@Gu@physx@@@23@@Gu@physx@@YA_NABU?$LocalConvex@VCapsuleV@Gu@physx@@@01@ABU?$LocalConvex@VBoxV@Gu@physx@@@01@ABT__m128@@222AAT4@33M@Z 101ab4a0 f i GuSweepTests.obj
 0001:001ab3a0       ??$gjkRaycast@U?$RelativeConvex@VBoxV@Gu@physx@@@Gu@physx@@U?$LocalConvex@VBoxV@Gu@physx@@@23@@Gu@physx@@YA_NABU?$RelativeConvex@VBoxV@Gu@physx@@@01@ABU?$LocalConvex@VBoxV@Gu@physx@@@01@ABT__m128@@222AAT4@33M@Z 101ac3a0 f i GuSweepTests.obj
 0001:001ac2a0       ??$gjkRaycastPenetration@U?$LocalConvex@VCapsuleV@Gu@physx@@@Gu@physx@@U?$LocalConvex@VBoxV@Gu@physx@@@23@@Gu@physx@@YA_NABU?$LocalConvex@VCapsuleV@Gu@physx@@@01@ABU?$LocalConvex@VBoxV@Gu@physx@@@01@ABT__m128@@222AAT4@33M_N@Z 101ad2a0 f i GuSweepTests.obj
 0001:001ac580       ??$gjkRaycastPenetration@U?$RelativeConvex@VBoxV@Gu@physx@@@Gu@physx@@U?$LocalConvex@VBoxV@Gu@physx@@@23@@Gu@physx@@YA_NABU?$RelativeConvex@VBoxV@Gu@physx@@@01@ABU?$LocalConvex@VBoxV@Gu@physx@@@01@ABT__m128@@222AAT4@33M_N@Z 101ad580 f i GuSweepTests.obj
 0001:001ac86a       _LoadLibraryA@4            101ad86a f   kernel32:KERNEL32.dll
 0001:001ac870       _FreeLibrary@4             101ad870 f   kernel32:KERNEL32.dll
 0001:001ac876       _GetProcAddress@8          101ad876 f   kernel32:KERNEL32.dll
 0001:001ac87c       __imp_load_??0NamedAllocator@shdfnd@physx@@QAE@PBD@Z 101ad87c f   PxFoundationDEBUG_x86:PxFoundationDEBUG_x86.dll
 0001:001ac886       __tailMerge_PxFoundationDEBUG_x86_dll 101ad886 f i PxFoundationDEBUG_x86:PxFoundationDEBUG_x86.dll
 0001:001ac897       ??0NamedAllocator@shdfnd@physx@@QAE@PBD@Z 101ad897 f   PxFoundationDEBUG_x86:PxFoundationDEBUG_x86.dll
 0001:001ac89d       __imp_load_?PxGetAssertHandler@physx@@YAAAVPxAssertHandler@1@XZ 101ad89d f   PxFoundationDEBUG_x86:PxFoundationDEBUG_x86.dll
 0001:001ac8a7       ?PxGetAssertHandler@physx@@YAAAVPxAssertHandler@1@XZ 101ad8a7 f   PxFoundationDEBUG_x86:PxFoundationDEBUG_x86.dll
 0001:001ac8ad       __imp_load_?getAllocator@shdfnd@physx@@YAAAVPxAllocatorCallback@2@XZ 101ad8ad f   PxFoundationDEBUG_x86:PxFoundationDEBUG_x86.dll
 0001:001ac8b7       ?getAllocator@shdfnd@physx@@YAAAVPxAllocatorCallback@2@XZ 101ad8b7 f   PxFoundationDEBUG_x86:PxFoundationDEBUG_x86.dll
 0001:001ac8bd       __imp_load_??1NamedAllocator@shdfnd@physx@@QAE@XZ 101ad8bd f   PxFoundationDEBUG_x86:PxFoundationDEBUG_x86.dll
 0001:001ac8c7       ??1NamedAllocator@shdfnd@physx@@QAE@XZ 101ad8c7 f   PxFoundationDEBUG_x86:PxFoundationDEBUG_x86.dll
 0001:001ac8cd       __imp_load_?allocate@NamedAllocator@shdfnd@physx@@QAEPAXIPBDH@Z 101ad8cd f   PxFoundationDEBUG_x86:PxFoundationDEBUG_x86.dll
 0001:001ac8d7       ?allocate@NamedAllocator@shdfnd@physx@@QAEPAXIPBDH@Z 101ad8d7 f   PxFoundationDEBUG_x86:PxFoundationDEBUG_x86.dll
 0001:001ac8dd       __imp_load_?deallocate@NamedAllocator@shdfnd@physx@@QAEXPAX@Z 101ad8dd f   PxFoundationDEBUG_x86:PxFoundationDEBUG_x86.dll
 0001:001ac8e7       ?deallocate@NamedAllocator@shdfnd@physx@@QAEXPAX@Z 101ad8e7 f   PxFoundationDEBUG_x86:PxFoundationDEBUG_x86.dll
 0001:001ac8ed       __imp_load__PxGetFoundation 101ad8ed f   PxFoundationDEBUG_x86:PxFoundationDEBUG_x86.dll
 0001:001ac8f7       _PxGetFoundation           101ad8f7 f   PxFoundationDEBUG_x86:PxFoundationDEBUG_x86.dll
 0001:001ac8fd       __imp_load_?getInstance@Foundation@shdfnd@physx@@SAAAV123@XZ 101ad8fd f   PxFoundationDEBUG_x86:PxFoundationDEBUG_x86.dll
 0001:001ac907       ?getInstance@Foundation@shdfnd@physx@@SAAAV123@XZ 101ad907 f   PxFoundationDEBUG_x86:PxFoundationDEBUG_x86.dll
 0001:001ac90d       __imp_load_?error@Foundation@shdfnd@physx@@QAAXW4Enum@PxErrorCode@3@PBDH1ZZ 101ad90d f   PxFoundationDEBUG_x86:PxFoundationDEBUG_x86.dll
 0001:001ac917       ?error@Foundation@shdfnd@physx@@QAAXW4Enum@PxErrorCode@3@PBDH1ZZ 101ad917 f   PxFoundationDEBUG_x86:PxFoundationDEBUG_x86.dll
 0001:001ac91d       __imp_load_?PxShortestRotation@physx@@YA?AVPxQuat@1@ABVPxVec3@1@0@Z 101ad91d f   PxFoundationDEBUG_x86:PxFoundationDEBUG_x86.dll
 0001:001ac927       ?PxShortestRotation@physx@@YA?AVPxQuat@1@ABVPxVec3@1@0@Z 101ad927 f   PxFoundationDEBUG_x86:PxFoundationDEBUG_x86.dll
 0001:001ac92d       __imp_load_?vsnprintf@shdfnd@physx@@YAHPADIPBD0@Z 101ad92d f   PxFoundationDEBUG_x86:PxFoundationDEBUG_x86.dll
 0001:001ac937       ?vsnprintf@shdfnd@physx@@YAHPADIPBD0@Z 101ad937 f   PxFoundationDEBUG_x86:PxFoundationDEBUG_x86.dll
 0001:001ac93d       __imp_load_?optimizeBoundingBox@shdfnd@physx@@YA?AVPxVec3@2@AAVPxMat33@2@@Z 101ad93d f   PxFoundationDEBUG_x86:PxFoundationDEBUG_x86.dll
 0001:001ac947       ?optimizeBoundingBox@shdfnd@physx@@YA?AVPxVec3@2@AAVPxMat33@2@@Z 101ad947 f   PxFoundationDEBUG_x86:PxFoundationDEBUG_x86.dll
 0001:001ac94d       __imp_load_??0NamedAllocator@shdfnd@physx@@QAE@ABV012@@Z 101ad94d f   PxFoundationDEBUG_x86:PxFoundationDEBUG_x86.dll
 0001:001ac957       ??0NamedAllocator@shdfnd@physx@@QAE@ABV012@@Z 101ad957 f   PxFoundationDEBUG_x86:PxFoundationDEBUG_x86.dll
 0001:001ac95d       __imp_load_?allocate@TempAllocator@shdfnd@physx@@QAEPAXIPBDH@Z 101ad95d f   PxFoundationDEBUG_x86:PxFoundationDEBUG_x86.dll
 0001:001ac967       ?allocate@TempAllocator@shdfnd@physx@@QAEPAXIPBDH@Z 101ad967 f   PxFoundationDEBUG_x86:PxFoundationDEBUG_x86.dll
 0001:001ac96d       __imp_load_?deallocate@TempAllocator@shdfnd@physx@@QAEXPAX@Z 101ad96d f   PxFoundationDEBUG_x86:PxFoundationDEBUG_x86.dll
 0001:001ac977       ?deallocate@TempAllocator@shdfnd@physx@@QAEXPAX@Z 101ad977 f   PxFoundationDEBUG_x86:PxFoundationDEBUG_x86.dll
 0001:001ac97d       __imp_load_?atomicIncrement@shdfnd@physx@@YAHPCH@Z 101ad97d f   PxFoundationDEBUG_x86:PxFoundationDEBUG_x86.dll
 0001:001ac987       ?atomicIncrement@shdfnd@physx@@YAHPCH@Z 101ad987 f   PxFoundationDEBUG_x86:PxFoundationDEBUG_x86.dll
 0001:001ac98d       __imp_load_?atomicDecrement@shdfnd@physx@@YAHPCH@Z 101ad98d f   PxFoundationDEBUG_x86:PxFoundationDEBUG_x86.dll
 0001:001ac997       ?atomicDecrement@shdfnd@physx@@YAHPCH@Z 101ad997 f   PxFoundationDEBUG_x86:PxFoundationDEBUG_x86.dll
 0001:001ac99d       __imp_load__PxGetProfilerCallback 101ad99d f   PxFoundationDEBUG_x86:PxFoundationDEBUG_x86.dll
 0001:001ac9a7       _PxGetProfilerCallback     101ad9a7 f   PxFoundationDEBUG_x86:PxFoundationDEBUG_x86.dll
 0001:001ac9ad       __imp_load_??0MutexImpl@shdfnd@physx@@QAE@XZ 101ad9ad f   PxFoundationDEBUG_x86:PxFoundationDEBUG_x86.dll
 0001:001ac9b7       ??0MutexImpl@shdfnd@physx@@QAE@XZ 101ad9b7 f   PxFoundationDEBUG_x86:PxFoundationDEBUG_x86.dll
 0001:001ac9bd       __imp_load_??1MutexImpl@shdfnd@physx@@QAE@XZ 101ad9bd f   PxFoundationDEBUG_x86:PxFoundationDEBUG_x86.dll
 0001:001ac9c7       ??1MutexImpl@shdfnd@physx@@QAE@XZ 101ad9c7 f   PxFoundationDEBUG_x86:PxFoundationDEBUG_x86.dll
 0001:001ac9cd       __imp_load_?lock@MutexImpl@shdfnd@physx@@QAEXXZ 101ad9cd f   PxFoundationDEBUG_x86:PxFoundationDEBUG_x86.dll
 0001:001ac9d7       ?lock@MutexImpl@shdfnd@physx@@QAEXXZ 101ad9d7 f   PxFoundationDEBUG_x86:PxFoundationDEBUG_x86.dll
 0001:001ac9dd       __imp_load_?unlock@MutexImpl@shdfnd@physx@@QAEXXZ 101ad9dd f   PxFoundationDEBUG_x86:PxFoundationDEBUG_x86.dll
 0001:001ac9e7       ?unlock@MutexImpl@shdfnd@physx@@QAEXXZ 101ad9e7 f   PxFoundationDEBUG_x86:PxFoundationDEBUG_x86.dll
 0001:001ac9ed       __imp_load_?getSize@MutexImpl@shdfnd@physx@@SAABIXZ 101ad9ed f   PxFoundationDEBUG_x86:PxFoundationDEBUG_x86.dll
 0001:001ac9f7       ?getSize@MutexImpl@shdfnd@physx@@SAABIXZ 101ad9f7 f   PxFoundationDEBUG_x86:PxFoundationDEBUG_x86.dll
 0001:001ac9fd       ??$PFromRva@PAP6GHXZ@@YGPAP6GHXZK@Z 101ad9fd f i delayimp:delayhlp.obj
 0001:001aca13       ??$PFromRva@PAPAUHINSTANCE__@@@@YGPAPAUHINSTANCE__@@K@Z 101ada13 f i delayimp:delayhlp.obj
 0001:001aca29       ??$PFromRva@PAU_IMAGE_IMPORT_BY_NAME@@@@YGPAU_IMAGE_IMPORT_BY_NAME@@K@Z 101ada29 f i delayimp:delayhlp.obj
 0001:001aca3f       ??$PFromRva@PAU_IMAGE_THUNK_DATA32@@@@YGPAU_IMAGE_THUNK_DATA32@@K@Z 101ada3f f i delayimp:delayhlp.obj
 0001:001aca55       ??$PFromRva@PBD@@YGPBDK@Z  101ada55 f i delayimp:delayhlp.obj
 0001:001aca6b       ??$PFromRva@PBUImgDelayDescr@@@@YGPBUImgDelayDescr@@K@Z 101ada6b f i delayimp:delayhlp.obj
 0001:001aca81       ??$PFromRva@PBU_IMAGE_THUNK_DATA32@@@@YGPBU_IMAGE_THUNK_DATA32@@K@Z 101ada81 f i delayimp:delayhlp.obj
 0001:001aca97       ?CountOfImports@@YGIPBU_IMAGE_THUNK_DATA32@@@Z 101ada97 f i delayimp:delayhlp.obj
 0001:001acab8       ?DloadAcquireSectionWriteAccess@@YGXXZ 101adab8 f i delayimp:delayhlp.obj
 0001:001acaf7       ?DloadGetSRWLockFunctionPointers@@YGEXZ 101adaf7 f i delayimp:delayhlp.obj
 0001:001acb90       ?DloadLock@@YGXXZ          101adb90 f i delayimp:delayhlp.obj
 0001:001acc04       ?DloadMakePermanentImageCommit@@YGXPAXK@Z 101adc04 f i delayimp:delayhlp.obj
 0001:001acc92       ?DloadObtainSection@@YGPAXPAK0@Z 101adc92 f i delayimp:delayhlp.obj
 0001:001acd35       ?DloadProtectSection@@YGXKPAK@Z 101add35 f i delayimp:delayhlp.obj
 0001:001acdc1       ?DloadReleaseSectionWriteAccess@@YGXXZ 101addc1 f i delayimp:delayhlp.obj
 0001:001ace07       ?DloadUnlock@@YGXXZ        101ade07 f i delayimp:delayhlp.obj
 0001:001ace7d       ?IndexFromPImgThunkData@@YGIPBU_IMAGE_THUNK_DATA32@@0@Z 101ade7d f i delayimp:delayhlp.obj
 0001:001ad033       _HRESULT_FROM_WIN32@4      101ae033 f i delayimp:delayhlp.obj
 0001:001ad051       _ReadAcquire@4             101ae051 f i delayimp:delayhlp.obj
 0001:001ad062       _ReadPointerAcquire@4      101ae062 f i delayimp:delayhlp.obj
 0001:001ad073       _WritePointerRelease@8     101ae073 f i delayimp:delayhlp.obj
 0001:001ad088       _WriteRelease@8            101ae088 f i delayimp:delayhlp.obj
 0001:001ad09d       __InlineInterlockedCompareExchangePointer@12 101ae09d f i delayimp:delayhlp.obj
 0001:001ad0b8       ___FUnloadDelayLoadedDLL2@4 101ae0b8 f   delayimp:delayhlp.obj
 0001:001ad15f       ___HrLoadAllImportsForDll@4 101ae15f f   delayimp:delayhlp.obj
 0001:001ad1da       ___delayLoadHelper2@8      101ae1da f   delayimp:delayhlp.obj
 0001:001ad500       __CRT_RTC_INIT             101ae500 f   LIBCMTD:_init_.obj
 0001:001ad510       __CRT_RTC_INITW            101ae510 f   LIBCMTD:_init_.obj
 0001:001ad520       __RTC_InitBase             101ae520 f   LIBCMTD:_init_.obj
 0001:001ad560       __RTC_Shutdown             101ae560 f   LIBCMTD:_init_.obj
 0001:001ad580       ??3@YAXPAXI@Z              101ae580 f   LIBCMTD:delete_scalar_size.obj
 0001:001ad5a0       ??_V@YAXPAXI@Z             101ae5a0 f   LIBCMTD:delete_array_size.obj
 0001:001ad5c0       __allshl                   101ae5c0 f   LIBCMTD:llshl.obj
 0001:001ad5f0       __aullshr                  101ae5f0 f   LIBCMTD:ullshr.obj
 0001:001ad620       __ftoui3                   101ae620 f   LIBCMTD:_ftol3_.obj
 0001:001ad62f       __ftoul3                   101ae62f f   LIBCMTD:_ftol3_.obj
 0001:001ad63e       __ftol3                    101ae63e f   LIBCMTD:_ftol3_.obj
 0001:001ad64b       __ftol3_NaN                101ae64b f   LIBCMTD:_ftol3_.obj
 0001:001ad663       __ftol3_work               101ae663 f   LIBCMTD:_ftol3_.obj
 0001:001ad6e9       __ftol3_common             101ae6e9 f   LIBCMTD:_ftol3_.obj
 0001:001ad7ab       __ftol3_arg_error          101ae7ab f   LIBCMTD:_ftol3_.obj
 0001:001ad7bd       __ftol3_except             101ae7bd f   LIBCMTD:_ftol3_.obj
 0001:001ad801       __dtoui3                   101ae801 f   LIBCMTD:_ftol3_.obj
 0001:001ad810       __dtoul3                   101ae810 f   LIBCMTD:_ftol3_.obj
 0001:001ad81f       __dtol3                    101ae81f f   LIBCMTD:_ftol3_.obj
 0001:001ad82c       __dtol3_NaN                101ae82c f   LIBCMTD:_ftol3_.obj
 0001:001ad849       __dtol3_work               101ae849 f   LIBCMTD:_ftol3_.obj
 0001:001ad930       __ultod3                   101ae930 f   LIBCMTD:_ftol3_.obj
 0001:001ad970       __ltod3                    101ae970 f   LIBCMTD:_ftol3_.obj
 0001:001ada80       ?__scrt_initialize_type_info@@YAXXZ 101aea80 f   LIBCMTD:tncleanup.obj
 0001:001adaa0       ?__scrt_uninitialize_type_info@@YAXXZ 101aeaa0 f   LIBCMTD:tncleanup.obj
 0001:001adac0       ??1type_info@@UAE@XZ       101aeac0 f   LIBCMTD:std_type_info_static.obj
 0001:001adae0       ??_Etype_info@@UAEPAXI@Z   101aeae0 f i LIBCMTD:std_type_info_static.obj
 0001:001adae0       ??_Gtype_info@@UAEPAXI@Z   101aeae0 f i LIBCMTD:std_type_info_static.obj
 0001:001adb20       __alloca_probe             101aeb20 f   LIBCMTD:chkstk.obj
 0001:001adb20       __chkstk                   101aeb20 f   LIBCMTD:chkstk.obj
 0001:001adb60       __alloca_probe_16          101aeb60 f   LIBCMTD:alloca16.obj
 0001:001adb76       __alloca_probe_8           101aeb76     LIBCMTD:alloca16.obj
 0001:001adba0       __ftol2_sse                101aeba0 f   LIBCMTD:_ftol2_.obj
 0001:001adba9       __ftol2_pentium4           101aeba9 f   LIBCMTD:_ftol2_.obj
 0001:001adbbc       __ftol2_sse_excpt          101aebbc f   LIBCMTD:_ftol2_.obj
 0001:001adbe0       __ftol2                    101aebe0 f   LIBCMTD:_ftol2_.obj
 0001:001adc90       ??3@YAXPAX@Z               101aec90 f   LIBCMTD:delete_scalar.obj
 0001:001adcb0       ??_V@YAXPAX@Z              101aecb0 f   LIBCMTD:delete_array.obj
 0001:001ae290       __CRT_INIT@12              101af290 f   LIBCMTD:dll_dllmain.obj
 0001:001ae2b0       __DllMainCRTStartup@12     101af2b0 f   LIBCMTD:dll_dllmain.obj
 0001:001ae2e0       @__security_check_cookie@4 101af2e0 f   LIBCMTD:_secchk_.obj
 0001:001ae300       @_guard_check_icall_nop@4  101af300 f i LIBCMTD:guard_support.obj
 0001:001ae310       __guard_icall_checks_enforced 101af310 f i LIBCMTD:guard_support.obj
 0001:001ae340       ?_RTC_GetErrorFunc@@YAP6AHHPBDH00ZZPBX@Z 101af340 f   LIBCMTD:_userapi_.obj
 0001:001ae350       ?_RTC_GetErrorFuncW@@YAP6AHHPB_WH00ZZPBX@Z 101af350 f   LIBCMTD:_userapi_.obj
 0001:001ae360       __RTC_GetErrDesc           101af360 f   LIBCMTD:_userapi_.obj
 0001:001ae380       __RTC_NumErrors            101af380 f   LIBCMTD:_userapi_.obj
 0001:001ae390       __RTC_SetErrorFunc         101af390 f   LIBCMTD:_userapi_.obj
 0001:001ae3c0       __RTC_SetErrorFuncW        101af3c0 f   LIBCMTD:_userapi_.obj
 0001:001ae3f0       __RTC_SetErrorType         101af3f0 f   LIBCMTD:_userapi_.obj
 0001:001ae420       ___isa_available_init      101af420 f   LIBCMTD:_cpu_disp_.obj
 0001:001ae7b0       ??$__crt_fast_decode_pointer@PAP6AXXZ@@YAPAP6AXXZQAP6AXXZ@Z 101af7b0 f i LIBCMTD:utility.obj
 0001:001ae7e0       ??$__crt_fast_encode_pointer@PAP6AXXZ@@YAPAP6AXXZQAP6AXXZ@Z 101af7e0 f i LIBCMTD:utility.obj
 0001:001ae820       ?__crt_rotate_pointer_value@@YAIIH@Z 101af820 f i LIBCMTD:utility.obj
 0001:001ae830       ?configure_argv@__scrt_narrow_argv_policy@@SAHXZ 101af830 f i LIBCMTD:utility.obj
 0001:001ae990       _NtCurrentTeb              101af990 f i LIBCMTD:utility.obj
 0001:001ae9a0       ___scrt_acquire_startup_lock 101af9a0 f   LIBCMTD:utility.obj
 0001:001aea00       ___scrt_dllmain_after_initialize_c 101afa00 f   LIBCMTD:utility.obj
 0001:001aea40       ___scrt_dllmain_before_initialize_c 101afa40 f   LIBCMTD:utility.obj
 0001:001aea70       ___scrt_dllmain_crt_thread_attach 101afa70 f   LIBCMTD:utility.obj
 0001:001aeab0       ___scrt_dllmain_crt_thread_detach 101afab0 f   LIBCMTD:utility.obj
 0001:001aead0       ___scrt_dllmain_exception_filter 101afad0 f   LIBCMTD:utility.obj
 0001:001aeb30       ___scrt_dllmain_uninitialize_c 101afb30 f   LIBCMTD:utility.obj
 0001:001aeb70       ___scrt_dllmain_uninitialize_critical 101afb70 f   LIBCMTD:utility.obj
 0001:001aeb90       ___scrt_initialize_crt     101afb90 f   LIBCMTD:utility.obj
 0001:001aebf0       ___scrt_initialize_onexit_tables 101afbf0 f   LIBCMTD:utility.obj
 0001:001aecf0       ___scrt_is_nonwritable_in_current_image 101afcf0 f   LIBCMTD:utility.obj
 0001:001aee70       ___scrt_release_startup_lock 101afe70 f   LIBCMTD:utility.obj
 0001:001aeea0       ___scrt_uninitialize_crt   101afea0 f   LIBCMTD:utility.obj
 0001:001aeef0       __onexit                   101afef0 f   LIBCMTD:utility.obj
 0001:001aef80       _at_quick_exit             101aff80 f   LIBCMTD:utility.obj
 0001:001aefe0       _atexit                    101affe0 f   LIBCMTD:utility.obj
 0001:001af020       ___security_init_cookie    101b0020 f   LIBCMTD:gs_support.obj
 0001:001af140       _DllMain@12                101b0140 f   LIBCMTD:dll_dllmain_stub.obj
 0001:001af150       ___local_stdio_printf_options 101b0150 f i LIBCMTD:default_local_stdio_options.obj
 0001:001af160       ___local_stdio_scanf_options 101b0160 f i LIBCMTD:default_local_stdio_options.obj
 0001:001af170       ___scrt_initialize_default_local_stdio_options 101b0170 f   LIBCMTD:default_local_stdio_options.obj
 0001:001af1c0       ___scrt_get_dyn_tls_init_callback 101b01c0 f   LIBCMTD:dyn_tls_init.obj
 0001:001af1d0       ___scrt_fastfail           101b01d0 f   LIBCMTD:utility_desktop.obj
 0001:001af360       ___scrt_get_show_window_mode 101b0360 f   LIBCMTD:utility_desktop.obj
 0001:001af3b0       ___scrt_initialize_winrt   101b03b0 f   LIBCMTD:utility_desktop.obj
 0001:001af3c0       ___scrt_is_managed_app     101b03c0 f   LIBCMTD:utility_desktop.obj
 0001:001af470       ___scrt_set_unhandled_exception_filter 101b0470 f   LIBCMTD:utility_desktop.obj
 0001:001af490       ___scrt_unhandled_exception_filter@4 101b0490 f   LIBCMTD:utility_desktop.obj
 0001:001af510       __crt_debugger_hook        101b0510 f   LIBCMTD:utility_desktop.obj
 0001:001af530       __RTC_Initialize           101b0530 f   LIBCMTD:_initsect_.obj
 0001:001af570       __RTC_Terminate            101b0570 f   LIBCMTD:_initsect_.obj
 0001:001af5b0       @_guard_check_icall@4      101b05b0 f i LIBCMTD:checkcfg.obj
 0001:001af5d0       ___raise_securityfailure   101b05d0 f   LIBCMTD:gs_report.obj
 0001:001af610       ___report_gsfailure        101b0610 f   LIBCMTD:gs_report.obj
 0001:001af760       ___report_rangecheckfailure 101b0760 f   LIBCMTD:gs_report.obj
 0001:001af770       ___report_securityfailure  101b0770 f   LIBCMTD:gs_report.obj
 0001:001af880       ___report_securityfailureEx 101b0880 f   LIBCMTD:gs_report.obj
 0001:001af9f0       ??$__vcrt_va_start_verify_argument_type@QBD@@YAXXZ 101b09f0 f i LIBCMTD:_error_.obj
 0001:001afba0       ?_RTC_AllocaFailure@@YAXPAXPAU_RTC_ALLOCA_NODE@@H@Z 101b0ba0 f   LIBCMTD:_error_.obj
 0001:001afd10       ?_RTC_Failure@@YAXPAXH@Z   101b0d10 f   LIBCMTD:_error_.obj
 0001:001afd80       ?_RTC_StackFailure@@YAXPAXPBD@Z 101b0d80 f   LIBCMTD:_error_.obj
 0001:001b0200       __RTC_UninitUse            101b1200 f   LIBCMTD:_error_.obj
 0001:001b0330       __vsprintf_s_l             101b1330 f i LIBCMTD:_error_.obj
 0001:001b0370       _sprintf_s                 101b1370 f i LIBCMTD:_error_.obj
 0001:001b03a0       __get_startup_argv_mode    101b13a0 f   LIBCMTD:argv_mode.obj
 0001:001b03b0       ___scrt_is_ucrt_dll_in_use 101b13b0 f   LIBCMTD:ucrt_detection.obj
 0001:001b09a0       ?_RTC_GetSrcLine@@YAHPAEPA_WKPAH1K@Z 101b19a0 f   LIBCMTD:_pdblkup_.obj
 0001:001b0dd0       _strstr                    101b1dd0 f   libvcruntimed:strstr.obj
 0001:001b10d0       ??$__crt_fast_decode_pointer@P6AXXZ@@YAP6AXXZQ6AXXZ@Z 101b20d0 f i libvcruntimed:purevirt.obj
 0001:001b1100       ??$__crt_fast_encode_pointer@P6AXXZ@@YAP6AXXZQ6AXXZ@Z 101b2100 f i libvcruntimed:purevirt.obj
 0001:001b1140       ??$__crt_interlocked_compare_exchange_pointer@$$A6AXXZ$$T$$T@@YAP6AXXZPDS6AXXZ$$T1@Z 101b2140 f i libvcruntimed:purevirt.obj
 0001:001b1160       ??$__crt_interlocked_exchange_pointer@$$A6AXXZP6AXXZ@@YAP6AXXZPDS6AXXZQ6AXXZ@Z 101b2160 f i libvcruntimed:purevirt.obj
 0001:001b1170       ??$__crt_interlocked_read_pointer@$$A6AXXZ@@YAP6AXXZPDS6AXXZ@Z 101b2170 f i libvcruntimed:purevirt.obj
 0001:001b1190       __get_purecall_handler     101b2190 f   libvcruntimed:purevirt.obj
 0001:001b11c0       __purecall                 101b21c0 f   libvcruntimed:purevirt.obj
 0001:001b1200       __set_purecall_handler     101b2200 f   libvcruntimed:purevirt.obj
 0001:001b1240       _memcpy                    101b2240 f   libvcruntimed:memcpy.obj
 0001:001b1960       ??$?RD@__crt_internal_free_policy@@QBEXQBD@Z 101b2960 f i libvcruntimed:std_type_info.obj
 0001:001b1990       ??$?RX@__crt_internal_free_policy@@QBEXQBX@Z 101b2990 f i libvcruntimed:std_type_info.obj
 0001:001b19c0       ??$__crt_interlocked_compare_exchange_pointer@$$CBD$$T$$T@@YAPBDPDSBD$$T1@Z 101b29c0 f i libvcruntimed:std_type_info.obj
 0001:001b19e0       ??$__crt_interlocked_compare_exchange_pointer@$$CBDPAD$$T@@YAPBDPDSBDQAD$$T@Z 101b29e0 f i libvcruntimed:std_type_info.obj
 0001:001b1a00       ??$__crt_interlocked_read_pointer@$$CBD@@YAPBDPDSBD@Z 101b2a00 f i libvcruntimed:std_type_info.obj
 0001:001b1a20       ??0?$__crt_unique_heap_ptr@DU__crt_internal_free_policy@@@@QAE@QAD@Z 101b2a20 f i libvcruntimed:std_type_info.obj
 0001:001b1a40       ??0?$__crt_unique_heap_ptr@XU__crt_internal_free_policy@@@@QAE@QAX@Z 101b2a40 f i libvcruntimed:std_type_info.obj
 0001:001b1a60       ??1?$__crt_unique_heap_ptr@DU__crt_internal_free_policy@@@@QAE@XZ 101b2a60 f i libvcruntimed:std_type_info.obj
 0001:001b1a80       ??1?$__crt_unique_heap_ptr@XU__crt_internal_free_policy@@@@QAE@XZ 101b2a80 f i libvcruntimed:std_type_info.obj
 0001:001b1ae0       ??B?$__crt_unique_heap_ptr@DU__crt_internal_free_policy@@@@QBE_NXZ 101b2ae0 f i libvcruntimed:std_type_info.obj
 0001:001b1b00       ??B?$__crt_unique_heap_ptr@XU__crt_internal_free_policy@@@@QBE_NXZ 101b2b00 f i libvcruntimed:std_type_info.obj
 0001:001b1b80       ?detach@?$__crt_unique_heap_ptr@XU__crt_internal_free_policy@@@@QAEPAXXZ 101b2b80 f i libvcruntimed:std_type_info.obj
 0001:001b1bb0       ?get@?$__crt_unique_heap_ptr@DU__crt_internal_free_policy@@@@QBEPADXZ 101b2bb0 f i libvcruntimed:std_type_info.obj
 0001:001b1bd0       ?get@?$__crt_unique_heap_ptr@XU__crt_internal_free_policy@@@@QBEPAXXZ 101b2bd0 f i libvcruntimed:std_type_info.obj
 0001:001b1bf0       ?is_valid@?$__crt_unique_heap_ptr@DU__crt_internal_free_policy@@@@QBE_NXZ 101b2bf0 f i libvcruntimed:std_type_info.obj
 0001:001b1c30       ?is_valid@?$__crt_unique_heap_ptr@XU__crt_internal_free_policy@@@@QBE_NXZ 101b2c30 f i libvcruntimed:std_type_info.obj
 0001:001b1c70       ?release@?$__crt_unique_heap_ptr@DU__crt_internal_free_policy@@@@QAEXXZ 101b2c70 f i libvcruntimed:std_type_info.obj
 0001:001b1ca0       ?release@?$__crt_unique_heap_ptr@XU__crt_internal_free_policy@@@@QAEXXZ 101b2ca0 f i libvcruntimed:std_type_info.obj
 0001:001b1cd0       ___std_type_info_compare   101b2cd0 f   libvcruntimed:std_type_info.obj
 0001:001b1d00       ___std_type_info_destroy_list 101b2d00 f   libvcruntimed:std_type_info.obj
 0001:001b1d50       ___std_type_info_hash      101b2d50 f   libvcruntimed:std_type_info.obj
 0001:001b1dc0       ___std_type_info_name      101b2dc0 f   libvcruntimed:std_type_info.obj
 0001:001b2010       _memset                    101b3010 f   libvcruntimed:memset.obj
 0001:001b23d0       _memcmp                    101b33d0 f   libvcruntimed:_memcmp_.obj
 0001:001b2f50       __except_handler4          101b3f50 f   libvcruntimed:_chandler4_.obj
 0001:001b31a0       ___vcrt_initialize         101b41a0 f   libvcruntimed:initialization.obj
 0001:001b31f0       ___vcrt_thread_attach      101b41f0 f   libvcruntimed:initialization.obj
 0001:001b3210       ___vcrt_thread_detach      101b4210 f   libvcruntimed:initialization.obj
 0001:001b3230       ___vcrt_uninitialize       101b4230 f   libvcruntimed:initialization.obj
 0001:001b3260       ___vcrt_uninitialize_critical 101b4260 f   libvcruntimed:initialization.obj
 0001:001b3280       ___vcrt_GetModuleFileNameW 101b4280 f   libvcruntimed:winapi_thunks.obj
 0001:001b32a0       ___vcrt_GetModuleHandleW   101b42a0 f   libvcruntimed:winapi_thunks.obj
 0001:001b32c0       ___vcrt_LoadLibraryExW     101b42c0 f   libvcruntimed:winapi_thunks.obj
 0001:001b32e0       _strchr                    101b42e0 f   libvcruntimed:strchr.obj
 0001:001b334e       ___from_strstr_to_strchr   101b434e     libvcruntimed:strchr.obj
 0001:001b3460       ??$?B$$A6AXXZ@__crt_fast_encoded_nullptr_t@@QBEP6AXXZXZ 101b4460 f i libvcruntimed:purevirt_data.obj
 0001:001b3480       ?__crt_fast_encode_pointer@@YA?AU__crt_fast_encoded_nullptr_t@@$$T@Z 101b4480 f i libvcruntimed:purevirt_data.obj
 0001:001b3490       ___vcrt_initialize_pure_virtual_call_handler 101b4490 f   libvcruntimed:purevirt_data.obj
 0001:001b34c0       ??0Block@_HeapManager@@QAE@XZ 101b44c0 f i libvcruntimed:undname.obj
 0001:001b34e0       ??0DName@@QAE@AAPBDD@Z     101b44e0 f   libvcruntimed:undname.obj
 0001:001b3850       ??0DName@@QAE@ABV0@@Z      101b4850 f i libvcruntimed:undname.obj
 0001:001b3880       ??0DName@@QAE@D@Z          101b4880 f   libvcruntimed:undname.obj
 0001:001b3990       ??0DName@@QAE@PAV0@@Z      101b4990 f   libvcruntimed:undname.obj
 0001:001b3b10       ??0DName@@QAE@PBD@Z        101b4b10 f   libvcruntimed:undname.obj
 0001:001b3c40       ??0DName@@QAE@W4DNameStatus@@@Z 101b4c40 f   libvcruntimed:undname.obj
 0001:001b3da0       ??0DName@@QAE@XZ           101b4da0 f i libvcruntimed:undname.obj
 0001:001b3e90       ??0DName@@QAE@_J@Z         101b4e90 f   libvcruntimed:undname.obj
