 PhysX3CommonDEBUG_x64

 Timestamp is 59c37a3a (Thu Sep 21 16:37:14 2017)

 Preferred load address is 0000000180000000

 Start         Length     Name                   Class
 0001:00000000 00013c20H .text$di                CODE
 0001:00013c20 0025ad90H .text$mn                CODE
 0001:0026e9b0 00001100H .text$mn$00             CODE
 0001:0026fab0 0000115fH .text$x                 CODE
 0002:00000000 00000110H .CRT$XCA                DATA
 0002:00000110 00001d00H .CRT$XCU                DATA
 0002:00001e10 00000110H .CRT$XCZ                DATA
 0002:00001f20 00000110H .CRT$XIA                DATA
 0002:00002030 00000110H .CRT$XIZ                DATA
 0002:00002140 00000110H .CRT$XPA                DATA
 0002:00002250 00000110H .CRT$XPZ                DATA
 0002:00002360 00000110H .CRT$XTA                DATA
 0002:00002470 00000110H .CRT$XTZ                DATA
 0002:00002580 0000d1a8H .rdata                  DATA
 0002:0000f728 00000188H .rdata$r                DATA
 0002:0000f8b0 00000190H .rdata$zzzdbg           DATA
 0002:0000fa40 00000110H .rtc$IAA                DATA
 0002:0000fb50 00000aa0H .rtc$IMZ                DATA
 0002:000105f0 00000110H .rtc$IZZ                DATA
 0002:00010700 00000110H .rtc$TAA                DATA
 0002:00010810 00000aa0H .rtc$TMZ                DATA
 0002:000112b0 00000110H .rtc$TZZ                DATA
 0002:000113c0 00009990H .xdata                  DATA
 0002:0001ad50 0000cc04H .edata                  DATA
 0003:00000000 00000aa0H .data                   DATA
 0003:00000aa0 00000520H .data$r                 DATA
 0003:00000fc0 000043a9H .bss                    DATA
 0004:00000000 0000dbccH .pdata                  DATA
 0005:00000000 000003b8H .idata$5                DATA
 0005:000003b8 0000003cH .idata$2                DATA
 0005:000003f4 00000014H .idata$3                DATA
 0005:00000408 000003b8H .idata$4                DATA
 0005:000007c0 000006d1H .idata$6                DATA
 0006:00000000 00000020H .didat$2                DATA
 0006:00000020 00000020H .didat$3                DATA
 0006:00000040 00000130H .didat$4                DATA
 0006:00000170 00000130H .didat$5                DATA
 0006:000002a0 000005c8H .didat$6                DATA
 0006:00000868 000001d3H .didat$7                DATA
 0007:00000000 0000013fH .00cfg                  DATA
 0008:00000000 000001c0H .rsrc$01                DATA
 0008:000001c0 000006a9H .rsrc$02                DATA

  Address         Publics by Value              Rva+Base               Lib:Object

 0000:00000000       ___safe_se_handler_count   0000000000000000     <absolute>
 0000:00000000       __hybrid_code_map_count    0000000000000000     <absolute>
 0000:00000000       __guard_longjmp_table      0000000000000000     <absolute>
 0000:00000000       __guard_fids_table         0000000000000000     <absolute>
 0000:00000000       __hybrid_auxiliary_iat     0000000000000000     <absolute>
 0000:00000000       __guard_longjmp_count      0000000000000000     <absolute>
 0000:00000000       __enclave_config           0000000000000000     <absolute>
 0000:00000000       __guard_fids_count         0000000000000000     <absolute>
 0000:00000000       __hybrid_code_map          0000000000000000     <absolute>
 0000:00000000       __guard_iat_table          0000000000000000     <absolute>
 0000:00000000       __guard_iat_count          0000000000000000     <absolute>
 0000:00000000       ___safe_se_handler_table   0000000000000000     <absolute>
 0000:00000000       __dynamic_value_reloc_table 0000000000000000     <absolute>
 0000:00000100       __guard_flags              0000000000000100     <absolute>
 0000:00000000       __ImageBase                0000000180000000     <linker-defined>
 0001:00013c20       PxSetPhysXCommonDelayLoadHook 0000000180014c20 f   CmWindowsDelayLoadHook.obj
 0001:00013c40       ?delayHook@@YAP6A_JXZIPEAUDelayLoadInfo@@@Z 0000000180014c40 f   CmWindowsDelayLoadHook.obj
 0001:00013cf0       ?foundationDliNotePreLoadLibrary@shdfnd@physx@@YAP6A_JXZPEBDPEBVPxFoundationDelayLoadHook@2@@Z 0000000180014cf0 f i CmWindowsDelayLoadHook.obj
 0001:00013e30       ?loadLibrary@Cm@physx@@YAPEAUHINSTANCE__@@PEBD@Z 0000000180014e30 f i CmWindowsDelayLoadHook.obj
 0001:00013e50       ?physXCommonDliNotePreLoadLibrary@Cm@physx@@YAP6A_JXZPEBDPEBVPxDelayLoadHook@2@@Z 0000000180014e50 f i CmWindowsDelayLoadHook.obj
 0001:000140c0       ??0CmModuleUpdateLoader@Cm@physx@@QEAA@PEBD@Z 00000001800150c0 f   CmWindowsModuleUpdateLoader.obj
 0001:00014130       ??1CmModuleUpdateLoader@Cm@physx@@QEAA@XZ 0000000180015130 f   CmWindowsModuleUpdateLoader.obj
 0001:00014170       ?LoadModule@CmModuleUpdateLoader@Cm@physx@@QEAAPEAUHINSTANCE__@@PEBD0@Z 0000000180015170 f   CmWindowsModuleUpdateLoader.obj
 0001:00014220       ??0Allocator@shdfnd@physx@@QEAA@PEBD@Z 0000000180015220 f i CmWindowsModuleUpdateLoader.obj
 0001:00014240       ??0PxFoundation@physx@@QEAA@AEBV01@@Z 0000000180015240 f i CmWindowsModuleUpdateLoader.obj
 0001:00014270       ??0PxFoundation@physx@@QEAA@XZ 0000000180015270 f i CmWindowsModuleUpdateLoader.obj
 0001:00014290       ??1PxFoundation@physx@@MEAA@XZ 0000000180015290 f i CmWindowsModuleUpdateLoader.obj
 0001:000142b0       ??4Allocator@shdfnd@physx@@QEAAAEAV012@$$QEAV012@@Z 00000001800152b0 f i CmWindowsModuleUpdateLoader.obj
 0001:000142d0       ??4Allocator@shdfnd@physx@@QEAAAEAV012@AEBV012@@Z 00000001800152d0 f i CmWindowsModuleUpdateLoader.obj
 0001:000142f0       ??4CmModuleUpdateLoader@Cm@physx@@QEAAAEAV012@AEBV012@@Z 00000001800152f0 f i CmWindowsModuleUpdateLoader.obj
 0001:00014320       ??4MutexImpl@shdfnd@physx@@QEAAAEAV012@AEBV012@@Z 0000000180015320 f i CmWindowsModuleUpdateLoader.obj
 0001:00014340       ??4PxFoundation@physx@@QEAAAEAV01@AEBV01@@Z 0000000180015340 f i CmWindowsModuleUpdateLoader.obj
 0001:00014360       ??_EPxFoundation@physx@@MEAAPEAXI@Z 0000000180015360 f i CmWindowsModuleUpdateLoader.obj
 0001:00014430       ??_FAllocator@shdfnd@physx@@QEAAXXZ 0000000180015430 f i CmWindowsModuleUpdateLoader.obj
 0001:00014450       ??_FNamedAllocator@shdfnd@physx@@QEAAXXZ 0000000180015450 f i CmWindowsModuleUpdateLoader.obj
 0001:00014470       ??_GPxFoundation@physx@@MEAAPEAXI@Z 0000000180015470 f i CmWindowsModuleUpdateLoader.obj
 0001:000144c0       ??_I@YAXPEAX_K1P6AX0@Z@Z   00000001800154c0 f i CmWindowsModuleUpdateLoader.obj
 0001:00014580       ?__empty_global_delete@@YAXPEAX@Z 0000000180015580 f i CmWindowsModuleUpdateLoader.obj
 0001:00014590       ?__empty_global_delete@@YAXPEAX_K@Z 0000000180015590 f i CmWindowsModuleUpdateLoader.obj
 0001:000145a0       ?getAllocator@Foundation@shdfnd@physx@@QEAAAEAVPxAllocatorCallback@3@XZ 00000001800155a0 f i CmWindowsModuleUpdateLoader.obj
 0001:000145c0       ?getAllocatorCallback@Foundation@shdfnd@physx@@UEAAAEAVPxAllocatorCallback@3@XZ 00000001800155c0 f i CmWindowsModuleUpdateLoader.obj
 0001:000145e0       ?getErrorCallback@Foundation@shdfnd@physx@@UEAAAEAVPxErrorCallback@3@XZ 00000001800155e0 f i CmWindowsModuleUpdateLoader.obj
 0001:00014600       ?getErrorLevel@Foundation@shdfnd@physx@@UEBA?AW4Enum@PxErrorCode@3@XZ 0000000180015600 f i CmWindowsModuleUpdateLoader.obj
 0001:00014620       ?getInternalErrorCallback@Foundation@shdfnd@physx@@QEAAAEAVPxErrorCallback@3@XZ 0000000180015620 f i CmWindowsModuleUpdateLoader.obj
 0001:00014640       ?getNamedAllocMap@Foundation@shdfnd@physx@@QEAAAEAV?$HashMap@PEBVNamedAllocator@shdfnd@physx@@PEBDU?$Hash@PEBVNamedAllocator@shdfnd@physx@@@23@VNonTrackingAllocator@23@@23@XZ 0000000180015640 f i CmWindowsModuleUpdateLoader.obj
 0001:00014660       ?getNamedAllocMutex@Foundation@shdfnd@physx@@QEAAAEAV?$MutexT@VAllocator@shdfnd@physx@@@23@XZ 0000000180015660 f i CmWindowsModuleUpdateLoader.obj
 0001:00014680       ?getReportAllocationNames@Foundation@shdfnd@physx@@UEBA_NXZ 0000000180015680 f i CmWindowsModuleUpdateLoader.obj
 0001:000146a0       ?getTempAllocFreeTable@Foundation@shdfnd@physx@@QEAAAEAV?$Array@PEATTempAllocatorChunk@shdfnd@physx@@VAllocator@23@@23@XZ 00000001800156a0 f i CmWindowsModuleUpdateLoader.obj
 0001:000146c0       ?getTempAllocMutex@Foundation@shdfnd@physx@@QEAAAEAV?$MutexT@VAllocator@shdfnd@physx@@@23@XZ 00000001800156c0 f i CmWindowsModuleUpdateLoader.obj
 0001:000146e0       ?setErrorLevel@Foundation@shdfnd@physx@@UEAAXW4Enum@PxErrorCode@3@@Z 00000001800156e0 f i CmWindowsModuleUpdateLoader.obj
 0001:00014700       ?setReportAllocationNames@Foundation@shdfnd@physx@@UEAAX_N@Z 0000000180015700 f i CmWindowsModuleUpdateLoader.obj
 0001:00014720       ?CompleteBoxPruning@Cm@physx@@YA_NPEBVPxBounds3@2@IAEAV?$Array@IVNamedAllocator@shdfnd@physx@@@shdfnd@2@AEBVAxes@Gu@2@@Z 0000000180015720 f   CmBoxPruning.obj
 0001:00014a90       ?BipartiteBoxPruning@Cm@physx@@YA_NPEBVPxBounds3@2@I0IAEAV?$Array@IVNamedAllocator@shdfnd@physx@@@shdfnd@2@AEBVAxes@Gu@2@@Z 0000000180015a90 f   CmBoxPruning.obj
 0001:00015310       ??$PX_UNUSED@I@@YAXAEBI@Z  0000000180016310 f i CmBoxPruning.obj
 0001:00015320       ??0NonTrackingAllocator@shdfnd@physx@@QEAA@PEBD@Z 0000000180016320 f i CmBoxPruning.obj
 0001:00015340       ??2@YAPEAX_KPEAX@Z         0000000180016340 f i CmBoxPruning.obj
 0001:00015360       ??APxVec3@physx@@QEBAAEBMI@Z 0000000180016360 f i CmBoxPruning.obj
 0001:000153f0       ?GetNbHits@RadixSort@Cm@physx@@QEBAIXZ 00000001800163f0 f i CmBoxPruning.obj
 0001:00015410       ?GetNbTotalCalls@RadixSort@Cm@physx@@QEBAIXZ 0000000180016410 f i CmBoxPruning.obj
 0001:00015430       ?GetRanks@RadixSort@Cm@physx@@QEBAPEBIXZ 0000000180016430 f i CmBoxPruning.obj
 0001:00015450       ?GetRecyclable@RadixSort@Cm@physx@@QEBAPEAIXZ 0000000180016450 f i CmBoxPruning.obj
 0001:00015470       ?PxIsFinite@physx@@YA_NM@Z 0000000180016470 f i CmBoxPruning.obj
 0001:00015490       ?allocate@?$Array@IVNamedAllocator@shdfnd@physx@@@shdfnd@physx@@IEAAPEAII@Z 0000000180016490 f i CmBoxPruning.obj
 0001:00015540       ?capacity@?$Array@IVNamedAllocator@shdfnd@physx@@@shdfnd@physx@@QEBAIXZ 0000000180016540 f i CmBoxPruning.obj
 0001:00015560       ?capacityIncrement@?$Array@IVNamedAllocator@shdfnd@physx@@@shdfnd@physx@@IEBAIXZ 0000000180016560 f i CmBoxPruning.obj
 0001:000155b0       ?clear@?$Array@IVNamedAllocator@shdfnd@physx@@@shdfnd@physx@@QEAAXXZ 00000001800165b0 f i CmBoxPruning.obj
 0001:00015600       ?copy@?$Array@IVNamedAllocator@shdfnd@physx@@@shdfnd@physx@@KAXPEAI0PEBI@Z 0000000180016600 f i CmBoxPruning.obj
 0001:000156e0       ?deallocate@?$Array@IVNamedAllocator@shdfnd@physx@@@shdfnd@physx@@IEAAXPEAX@Z 00000001800166e0 f i CmBoxPruning.obj
 0001:00015710       ?deallocate@NonTrackingAllocator@shdfnd@physx@@QEAAXPEAX@Z 0000000180016710 f i CmBoxPruning.obj
 0001:00015760       ?destroy@?$Array@IVNamedAllocator@shdfnd@physx@@@shdfnd@physx@@KAXPEAI0@Z 0000000180016760 f i CmBoxPruning.obj
 0001:000157b0       ?growAndPushBack@?$Array@IVNamedAllocator@shdfnd@physx@@@shdfnd@physx@@IEAAAEAIAEBI@Z 00000001800167b0 f i CmBoxPruning.obj
 0001:00015990       ?intersects@PxBounds3@physx@@QEBA_NAEBV12@@Z 0000000180016990 f i CmBoxPruning.obj
 0001:00015af0       ?isArrayOfPOD@?$Array@IVNamedAllocator@shdfnd@physx@@@shdfnd@physx@@SA_NXZ 0000000180016af0 f i CmBoxPruning.obj
 0001:00015b00       ?isFinite@PxBounds3@physx@@QEBA_NXZ 0000000180016b00 f i CmBoxPruning.obj
 0001:00015b70       ?isFinite@PxVec3@physx@@QEBA_NXZ 0000000180016b70 f i CmBoxPruning.obj
 0001:00015bf0       ?isFinite@intrinsics@physx@@YA_NM@Z 0000000180016bf0 f i CmBoxPruning.obj
 0001:00015c40       ?isInUserMemory@?$Array@IVNamedAllocator@shdfnd@physx@@@shdfnd@physx@@QEBAIXZ 0000000180016c40 f i CmBoxPruning.obj
 0001:00015c60       ?isValid@PxBounds3@physx@@QEBA_NXZ 0000000180016c60 f i CmBoxPruning.obj
 0001:00015d90       ?memCopy@intrinsics@physx@@YAPEAXPEIAXPEIBXI@Z 0000000180016d90 f i CmBoxPruning.obj
 0001:00015dd0       ?pushBack@?$Array@IVNamedAllocator@shdfnd@physx@@@shdfnd@physx@@QEAAAEAIAEBI@Z 0000000180016dd0 f i CmBoxPruning.obj
 0001:00015ea0       ?PxCreateCollection@@YAPEAVPxCollection@physx@@XZ 0000000180016ea0 f   CmCollection.obj
 0001:00015f10       ?add@Collection@Cm@physx@@UEAAXAEAVPxBase@3@_K@Z 0000000180016f10 f   CmCollection.obj
 0001:00016010       ?remove@Collection@Cm@physx@@UEAAXAEAVPxBase@3@@Z 0000000180017010 f   CmCollection.obj
 0001:00016100       ?contains@Collection@Cm@physx@@UEBA_NAEAVPxBase@3@@Z 0000000180017100 f   CmCollection.obj
 0001:00016160       ?addId@Collection@Cm@physx@@UEAAXAEAVPxBase@3@_K@Z 0000000180017160 f   CmCollection.obj
 0001:00016330       ?removeId@Collection@Cm@physx@@UEAAX_K@Z 0000000180017330 f   CmCollection.obj
 0001:00016450       ?find@Collection@Cm@physx@@UEBAPEAVPxBase@3@_K@Z 0000000180017450 f   CmCollection.obj
 0001:000164f0       ?add@Collection@Cm@physx@@UEAAXAEAVPxCollection@3@@Z 00000001800174f0 f   CmCollection.obj
 0001:00016710       ?remove@Collection@Cm@physx@@UEAAXAEAVPxCollection@3@@Z 0000000180017710 f   CmCollection.obj
 0001:00016830       ?getNbObjects@Collection@Cm@physx@@UEBAIXZ 0000000180017830 f   CmCollection.obj
 0001:00016860       ?getObject@Collection@Cm@physx@@UEBAAEAVPxBase@3@I@Z 0000000180017860 f   CmCollection.obj
 0001:00016900       ?getObjects@Collection@Cm@physx@@UEBAIPEAPEAVPxBase@3@II@Z 0000000180017900 f   CmCollection.obj
 0001:00016a30       ?getNbIds@Collection@Cm@physx@@UEBAIXZ 0000000180017a30 f   CmCollection.obj
 0001:00016a60       ?getId@Collection@Cm@physx@@UEBA_KAEBVPxBase@3@@Z 0000000180017a60 f   CmCollection.obj
 0001:00016ad0       ?getIds@Collection@Cm@physx@@UEBAIPEA_KII@Z 0000000180017ad0 f   CmCollection.obj
 0001:00016f90       ??$?2V?$ReflectionAllocator@VCollection@Cm@physx@@@shdfnd@physx@@@UserAllocated@shdfnd@physx@@SAPEAX_KV?$ReflectionAllocator@VCollection@Cm@physx@@@12@PEBDH@Z 0000000180017f90 f i CmCollection.obj
 0001:00016fe0       ??0?$CoalescedHashMap@PEAVPxBase@physx@@_KU?$Hash@PEAVPxBase@physx@@@shdfnd@2@VNonTrackingAllocator@42@@shdfnd@physx@@QEAA@IM@Z 0000000180017fe0 f i CmCollection.obj
 0001:00017020       ??0?$CoalescedHashMap@_KPEAVPxBase@physx@@U?$Hash@_K@shdfnd@2@VNonTrackingAllocator@42@@shdfnd@physx@@QEAA@IM@Z 0000000180018020 f i CmCollection.obj
 0001:00017060       ??0?$CollectionHashMap@PEAVPxBase@physx@@_KU?$Hash@PEAVPxBase@physx@@@shdfnd@2@VNonTrackingAllocator@42@@Cm@physx@@QEAA@IM@Z 0000000180018060 f i CmCollection.obj
 0001:000170a0       ??0?$CollectionHashMap@_KPEAVPxBase@physx@@U?$Hash@_K@shdfnd@2@VNonTrackingAllocator@42@@Cm@physx@@QEAA@IM@Z 00000001800180a0 f i CmCollection.obj
 0001:000170e0       ??0?$HashBase@V?$Pair@$$CB_KPEAVPxBase@physx@@@shdfnd@physx@@_KU?$Hash@_K@23@UGetKey@?$HashMapBase@_KPEAVPxBase@physx@@U?$Hash@_K@shdfnd@2@VNonTrackingAllocator@42@@internal@23@VNonTrackingAllocator@23@$00@internal@shdfnd@physx@@QEAA@IM@Z 00000001800180e0 f i CmCollection.obj
 0001:00017140       ??0?$HashBase@V?$Pair@QEAVPxBase@physx@@_K@shdfnd@physx@@PEAVPxBase@3@U?$Hash@PEAVPxBase@physx@@@23@UGetKey@?$HashMapBase@PEAVPxBase@physx@@_KU?$Hash@PEAVPxBase@physx@@@shdfnd@2@VNonTrackingAllocator@42@@internal@23@VNonTrackingAllocator@23@$00@internal@shdfnd@physx@@QEAA@IM@Z 0000000180018140 f i CmCollection.obj
 0001:000171a0       ??0?$HashMapBase@PEAVPxBase@physx@@_KU?$Hash@PEAVPxBase@physx@@@shdfnd@2@VNonTrackingAllocator@42@@internal@shdfnd@physx@@QEAA@IM@Z 00000001800181a0 f i CmCollection.obj
 0001:000171f0       ??0?$HashMapBase@_KPEAVPxBase@physx@@U?$Hash@_K@shdfnd@2@VNonTrackingAllocator@42@@internal@shdfnd@physx@@QEAA@IM@Z 00000001800181f0 f i CmCollection.obj
 0001:00017240       ??0?$Pair@$$CB_KPEAVPxBase@physx@@@shdfnd@physx@@QEAA@AEBV012@@Z 0000000180018240 f i CmCollection.obj
 0001:00017280       ??0?$Pair@$$CB_KPEAVPxBase@physx@@@shdfnd@physx@@QEAA@AEB_KAEBQEAVPxBase@2@@Z 0000000180018280 f i CmCollection.obj
 0001:000172d0       ??0?$Pair@QEAVPxBase@physx@@_K@shdfnd@physx@@QEAA@AEBQEAVPxBase@2@AEB_K@Z 00000001800182d0 f i CmCollection.obj
 0001:00017320       ??0?$Pair@QEAVPxBase@physx@@_K@shdfnd@physx@@QEAA@AEBV012@@Z 0000000180018320 f i CmCollection.obj
 0001:00017360       ??0?$ReflectionAllocator@VCollection@Cm@physx@@@shdfnd@physx@@QEAA@PEBD@Z 0000000180018360 f i CmCollection.obj
 0001:00017380       ??0Collection@Cm@physx@@QEAA@XZ 0000000180018380 f i CmCollection.obj
 0001:00017410       ??0Iter@?$HashBase@V?$Pair@$$CB_KPEAVPxBase@physx@@@shdfnd@physx@@_KU?$Hash@_K@23@UGetKey@?$HashMapBase@_KPEAVPxBase@physx@@U?$Hash@_K@shdfnd@2@VNonTrackingAllocator@42@@internal@23@VNonTrackingAllocator@23@$00@internal@shdfnd@physx@@QEAA@AEAV1234@@Z 0000000180018410 f i CmCollection.obj
 0001:000174c0       ??0PxCollection@physx@@IEAA@XZ 00000001800184c0 f i CmCollection.obj
 0001:000174e0       ??1?$CoalescedHashMap@PEAVPxBase@physx@@_KU?$Hash@PEAVPxBase@physx@@@shdfnd@2@VNonTrackingAllocator@42@@shdfnd@physx@@QEAA@XZ 00000001800184e0 f i CmCollection.obj
 0001:00017500       ??1?$CoalescedHashMap@_KPEAVPxBase@physx@@U?$Hash@_K@shdfnd@2@VNonTrackingAllocator@42@@shdfnd@physx@@QEAA@XZ 0000000180018500 f i CmCollection.obj
 0001:00017520       ??1?$CollectionHashMap@PEAVPxBase@physx@@_KU?$Hash@PEAVPxBase@physx@@@shdfnd@2@VNonTrackingAllocator@42@@Cm@physx@@QEAA@XZ 0000000180018520 f i CmCollection.obj
 0001:00017540       ??1?$CollectionHashMap@_KPEAVPxBase@physx@@U?$Hash@_K@shdfnd@2@VNonTrackingAllocator@42@@Cm@physx@@QEAA@XZ 0000000180018540 f i CmCollection.obj
 0001:00017560       ??1?$HashBase@V?$Pair@$$CB_KPEAVPxBase@physx@@@shdfnd@physx@@_KU?$Hash@_K@23@UGetKey@?$HashMapBase@_KPEAVPxBase@physx@@U?$Hash@_K@shdfnd@2@VNonTrackingAllocator@42@@internal@23@VNonTrackingAllocator@23@$00@internal@shdfnd@physx@@QEAA@XZ 0000000180018560 f i CmCollection.obj
 0001:000175b0       ??1?$HashBase@V?$Pair@QEAVPxBase@physx@@_K@shdfnd@physx@@PEAVPxBase@3@U?$Hash@PEAVPxBase@physx@@@23@UGetKey@?$HashMapBase@PEAVPxBase@physx@@_KU?$Hash@PEAVPxBase@physx@@@shdfnd@2@VNonTrackingAllocator@42@@internal@23@VNonTrackingAllocator@23@$00@internal@shdfnd@physx@@QEAA@XZ 00000001800185b0 f i CmCollection.obj
 0001:00017600       ??1?$HashMapBase@PEAVPxBase@physx@@_KU?$Hash@PEAVPxBase@physx@@@shdfnd@2@VNonTrackingAllocator@42@@internal@shdfnd@physx@@QEAA@XZ 0000000180018600 f i CmCollection.obj
 0001:00017630       ??1?$HashMapBase@_KPEAVPxBase@physx@@U?$Hash@_K@shdfnd@2@VNonTrackingAllocator@42@@internal@shdfnd@physx@@QEAA@XZ 0000000180018630 f i CmCollection.obj
 0001:00017660       ??1Collection@Cm@physx@@UEAA@XZ 0000000180018660 f i CmCollection.obj
 0001:000176b0       ??1PxCollection@physx@@MEAA@XZ 00000001800186b0 f i CmCollection.obj
 0001:000176d0       ??3UserAllocated@shdfnd@physx@@SAXPEAX@Z 00000001800186d0 f i CmCollection.obj
 0001:00017700       ??A?$HashMapBase@PEAVPxBase@physx@@_KU?$Hash@PEAVPxBase@physx@@@shdfnd@2@VNonTrackingAllocator@42@@internal@shdfnd@physx@@QEAAAEA_KAEBQEAVPxBase@3@@Z 0000000180018700 f i CmCollection.obj
 0001:00017790       ??A?$HashMapBase@_KPEAVPxBase@physx@@U?$Hash@_K@shdfnd@2@VNonTrackingAllocator@42@@internal@shdfnd@physx@@QEAAAEAPEAVPxBase@3@AEB_K@Z 0000000180018790 f i CmCollection.obj
 0001:00017820       ??CIter@?$HashBase@V?$Pair@$$CB_KPEAVPxBase@physx@@@shdfnd@physx@@_KU?$Hash@_K@23@UGetKey@?$HashMapBase@_KPEAVPxBase@physx@@U?$Hash@_K@shdfnd@2@VNonTrackingAllocator@42@@internal@23@VNonTrackingAllocator@23@$00@internal@shdfnd@physx@@QEAAPEAV?$Pair@$$CB_KPEAVPxBase@physx@@@34@XZ 0000000180018820 f i CmCollection.obj
 0001:00017870       ??EIter@?$HashBase@V?$Pair@$$CB_KPEAVPxBase@physx@@@shdfnd@physx@@_KU?$Hash@_K@23@UGetKey@?$HashMapBase@_KPEAVPxBase@physx@@U?$Hash@_K@shdfnd@2@VNonTrackingAllocator@42@@internal@23@VNonTrackingAllocator@23@$00@internal@shdfnd@physx@@QEAA?AV01234@H@Z 0000000180018870 f i CmCollection.obj
 0001:000178f0       ??R?$Hash@PEAVPxBase@physx@@@shdfnd@physx@@QEBAIAEBQEAVPxBase@2@@Z 00000001800188f0 f i CmCollection.obj
 0001:00017920       ??R?$Hash@_K@shdfnd@physx@@QEBAIAEB_K@Z 0000000180018920 f i CmCollection.obj
 0001:00017950       ??RGetKey@?$HashMapBase@PEAVPxBase@physx@@_KU?$Hash@PEAVPxBase@physx@@@shdfnd@2@VNonTrackingAllocator@42@@internal@shdfnd@physx@@QEAAAEBQEAVPxBase@4@AEBV?$Pair@QEAVPxBase@physx@@_K@34@@Z 0000000180018950 f i CmCollection.obj
 0001:00017970       ??RGetKey@?$HashMapBase@_KPEAVPxBase@physx@@U?$Hash@_K@shdfnd@2@VNonTrackingAllocator@42@@internal@shdfnd@physx@@QEAAAEB_KAEBV?$Pair@$$CB_KPEAVPxBase@physx@@@34@@Z 0000000180018970 f i CmCollection.obj
 0001:00017990       ??_GCollection@Cm@physx@@UEAAPEAXI@Z 0000000180018990 f i CmCollection.obj
 0001:00017990       ??_ECollection@Cm@physx@@UEAAPEAXI@Z 0000000180018990 f i CmCollection.obj
 0001:00017a00       ??_EPxCollection@physx@@MEAAPEAXI@Z 0000000180018a00 f i CmCollection.obj
 0001:00017a00       ??_GPxCollection@physx@@MEAAPEAXI@Z 0000000180018a00 f i CmCollection.obj
 0001:00017a50       ?advance@Iter@?$HashBase@V?$Pair@$$CB_KPEAVPxBase@physx@@@shdfnd@physx@@_KU?$Hash@_K@23@UGetKey@?$HashMapBase@_KPEAVPxBase@physx@@U?$Hash@_K@shdfnd@2@VNonTrackingAllocator@42@@internal@23@VNonTrackingAllocator@23@$00@internal@shdfnd@physx@@AEAAXXZ 0000000180018a50 f i CmCollection.obj
 0001:00017aa0       ?allocate@?$ReflectionAllocator@VCollection@Cm@physx@@@shdfnd@physx@@QEAAPEAX_KPEBDH@Z 0000000180018aa0 f i CmCollection.obj
 0001:00017b40       ?allocate@NonTrackingAllocator@shdfnd@physx@@QEAAPEAX_KPEBDH@Z 0000000180018b40 f i CmCollection.obj
 0001:00017bd0       ?capacity@?$HashBase@V?$Pair@QEAVPxBase@physx@@_K@shdfnd@physx@@PEAVPxBase@3@U?$Hash@PEAVPxBase@physx@@@23@UGetKey@?$HashMapBase@PEAVPxBase@physx@@_KU?$Hash@PEAVPxBase@physx@@@shdfnd@2@VNonTrackingAllocator@42@@internal@23@VNonTrackingAllocator@23@$00@internal@shdfnd@physx@@QEBAIXZ 0000000180018bd0 f i CmCollection.obj
 0001:00017bf0       ?capacity@?$HashMapBase@PEAVPxBase@physx@@_KU?$Hash@PEAVPxBase@physx@@@shdfnd@2@VNonTrackingAllocator@42@@internal@shdfnd@physx@@QEBAIXZ 0000000180018bf0 f i CmCollection.obj
 0001:00017c20       ?check@Iter@?$HashBase@V?$Pair@$$CB_KPEAVPxBase@physx@@@shdfnd@physx@@_KU?$Hash@_K@23@UGetKey@?$HashMapBase@_KPEAVPxBase@physx@@U?$Hash@_K@shdfnd@2@VNonTrackingAllocator@42@@internal@23@VNonTrackingAllocator@23@$00@internal@shdfnd@physx@@QEBAXXZ 0000000180018c20 f i CmCollection.obj
 0001:00017cb0       ?create@?$HashBase@V?$Pair@$$CB_KPEAVPxBase@physx@@@shdfnd@physx@@_KU?$Hash@_K@23@UGetKey@?$HashMapBase@_KPEAVPxBase@physx@@U?$Hash@_K@shdfnd@2@VNonTrackingAllocator@42@@internal@23@VNonTrackingAllocator@23@$00@internal@shdfnd@physx@@QEAAPEAV?$Pair@$$CB_KPEAVPxBase@physx@@@34@AEB_KAEA_N@Z 0000000180018cb0 f i CmCollection.obj
 0001:00017ec0       ?create@?$HashBase@V?$Pair@QEAVPxBase@physx@@_K@shdfnd@physx@@PEAVPxBase@3@U?$Hash@PEAVPxBase@physx@@@23@UGetKey@?$HashMapBase@PEAVPxBase@physx@@_KU?$Hash@PEAVPxBase@physx@@@shdfnd@2@VNonTrackingAllocator@42@@internal@23@VNonTrackingAllocator@23@$00@internal@shdfnd@physx@@QEAAPEAV?$Pair@QEAVPxBase@physx@@_K@34@AEBQEAVPxBase@4@AEA_N@Z 0000000180018ec0 f i CmCollection.obj
 0001:000180d0       ?destroy@?$HashBase@V?$Pair@$$CB_KPEAVPxBase@physx@@@shdfnd@physx@@_KU?$Hash@_K@23@UGetKey@?$HashMapBase@_KPEAVPxBase@physx@@U?$Hash@_K@shdfnd@2@VNonTrackingAllocator@42@@internal@23@VNonTrackingAllocator@23@$00@internal@shdfnd@physx@@AEAAXXZ 00000001800190d0 f i CmCollection.obj
 0001:00018150       ?destroy@?$HashBase@V?$Pair@QEAVPxBase@physx@@_K@shdfnd@physx@@PEAVPxBase@3@U?$Hash@PEAVPxBase@physx@@@23@UGetKey@?$HashMapBase@PEAVPxBase@physx@@_KU?$Hash@PEAVPxBase@physx@@@shdfnd@2@VNonTrackingAllocator@42@@internal@23@VNonTrackingAllocator@23@$00@internal@shdfnd@physx@@AEAAXXZ 0000000180019150 f i CmCollection.obj
 0001:000181d0       ?done@Iter@?$HashBase@V?$Pair@$$CB_KPEAVPxBase@physx@@@shdfnd@physx@@_KU?$Hash@_K@23@UGetKey@?$HashMapBase@_KPEAVPxBase@physx@@U?$Hash@_K@shdfnd@2@VNonTrackingAllocator@42@@internal@23@VNonTrackingAllocator@23@$00@internal@shdfnd@physx@@QEBA_NXZ 00000001800191d0 f i CmCollection.obj
 0001:00018220       ?equal@?$Hash@PEAVPxBase@physx@@@shdfnd@physx@@QEBA_NAEBQEAVPxBase@3@0@Z 0000000180019220 f i CmCollection.obj
 0001:00018270       ?equal@?$Hash@_K@shdfnd@physx@@QEBA_NAEB_K0@Z 0000000180019270 f i CmCollection.obj
 0001:000182c0       ?erase@?$HashBase@V?$Pair@$$CB_KPEAVPxBase@physx@@@shdfnd@physx@@_KU?$Hash@_K@23@UGetKey@?$HashMapBase@_KPEAVPxBase@physx@@U?$Hash@_K@shdfnd@2@VNonTrackingAllocator@42@@internal@23@VNonTrackingAllocator@23@$00@internal@shdfnd@physx@@QEAA_NAEB_K@Z 00000001800192c0 f i CmCollection.obj
 0001:000183c0       ?erase@?$HashBase@V?$Pair@QEAVPxBase@physx@@_K@shdfnd@physx@@PEAVPxBase@3@U?$Hash@PEAVPxBase@physx@@@23@UGetKey@?$HashMapBase@PEAVPxBase@physx@@_KU?$Hash@PEAVPxBase@physx@@@shdfnd@2@VNonTrackingAllocator@42@@internal@23@VNonTrackingAllocator@23@$00@internal@shdfnd@physx@@QEAA_NAEBQEAVPxBase@4@@Z 00000001800193c0 f i CmCollection.obj
 0001:000184c0       ?erase@?$HashMapBase@PEAVPxBase@physx@@_KU?$Hash@PEAVPxBase@physx@@@shdfnd@2@VNonTrackingAllocator@42@@internal@shdfnd@physx@@QEAA_NAEBQEAVPxBase@4@@Z 00000001800194c0 f i CmCollection.obj
 0001:000184f0       ?erase@?$HashMapBase@_KPEAVPxBase@physx@@U?$Hash@_K@shdfnd@2@VNonTrackingAllocator@42@@internal@shdfnd@physx@@QEAA_NAEB_K@Z 00000001800194f0 f i CmCollection.obj
 0001:00018520       ?eraseInternal@?$HashBase@V?$Pair@$$CB_KPEAVPxBase@physx@@@shdfnd@physx@@_KU?$Hash@_K@23@UGetKey@?$HashMapBase@_KPEAVPxBase@physx@@U?$Hash@_K@shdfnd@2@VNonTrackingAllocator@42@@internal@23@VNonTrackingAllocator@23@$00@internal@shdfnd@physx@@AEAA_NPEAI@Z 0000000180019520 f i CmCollection.obj
 0001:000185d0       ?eraseInternal@?$HashBase@V?$Pair@QEAVPxBase@physx@@_K@shdfnd@physx@@PEAVPxBase@3@U?$Hash@PEAVPxBase@physx@@@23@UGetKey@?$HashMapBase@PEAVPxBase@physx@@_KU?$Hash@PEAVPxBase@physx@@@shdfnd@2@VNonTrackingAllocator@42@@internal@23@VNonTrackingAllocator@23@$00@internal@shdfnd@physx@@AEAA_NPEAI@Z 00000001800195d0 f i CmCollection.obj
 0001:00018680       ?find@?$HashBase@V?$Pair@$$CB_KPEAVPxBase@physx@@@shdfnd@physx@@_KU?$Hash@_K@23@UGetKey@?$HashMapBase@_KPEAVPxBase@physx@@U?$Hash@_K@shdfnd@2@VNonTrackingAllocator@42@@internal@23@VNonTrackingAllocator@23@$00@internal@shdfnd@physx@@QEBAPEBV?$Pair@$$CB_KPEAVPxBase@physx@@@34@AEB_K@Z 0000000180019680 f i CmCollection.obj
 0001:00018780       ?find@?$HashBase@V?$Pair@QEAVPxBase@physx@@_K@shdfnd@physx@@PEAVPxBase@3@U?$Hash@PEAVPxBase@physx@@@23@UGetKey@?$HashMapBase@PEAVPxBase@physx@@_KU?$Hash@PEAVPxBase@physx@@@shdfnd@2@VNonTrackingAllocator@42@@internal@23@VNonTrackingAllocator@23@$00@internal@shdfnd@physx@@QEBAPEBV?$Pair@QEAVPxBase@physx@@_K@34@AEBQEAVPxBase@4@@Z 0000000180019780 f i CmCollection.obj
 0001:00018880       ?find@?$HashMapBase@PEAVPxBase@physx@@_KU?$Hash@PEAVPxBase@physx@@@shdfnd@2@VNonTrackingAllocator@42@@internal@shdfnd@physx@@QEBAPEBV?$Pair@QEAVPxBase@physx@@_K@34@AEBQEAVPxBase@4@@Z 0000000180019880 f i CmCollection.obj
 0001:000188b0       ?find@?$HashMapBase@_KPEAVPxBase@physx@@U?$Hash@_K@shdfnd@2@VNonTrackingAllocator@42@@internal@shdfnd@physx@@QEBAPEBV?$Pair@$$CB_KPEAVPxBase@physx@@@34@AEB_K@Z 00000001800198b0 f i CmCollection.obj
 0001:000188e0       ?freeListAdd@?$HashBase@V?$Pair@$$CB_KPEAVPxBase@physx@@@shdfnd@physx@@_KU?$Hash@_K@23@UGetKey@?$HashMapBase@_KPEAVPxBase@physx@@U?$Hash@_K@shdfnd@2@VNonTrackingAllocator@42@@internal@23@VNonTrackingAllocator@23@$00@internal@shdfnd@physx@@AEAAXI@Z 00000001800198e0 f i CmCollection.obj
 0001:000189c0       ?freeListAdd@?$HashBase@V?$Pair@$$CB_KPEAVPxBase@physx@@@shdfnd@physx@@_KU?$Hash@_K@23@UGetKey@?$HashMapBase@_KPEAVPxBase@physx@@U?$Hash@_K@shdfnd@2@VNonTrackingAllocator@42@@internal@23@VNonTrackingAllocator@23@$00@internal@shdfnd@physx@@AEAAXII@Z 00000001800199c0 f i CmCollection.obj
 0001:00018af0       ?freeListAdd@?$HashBase@V?$Pair@QEAVPxBase@physx@@_K@shdfnd@physx@@PEAVPxBase@3@U?$Hash@PEAVPxBase@physx@@@23@UGetKey@?$HashMapBase@PEAVPxBase@physx@@_KU?$Hash@PEAVPxBase@physx@@@shdfnd@2@VNonTrackingAllocator@42@@internal@23@VNonTrackingAllocator@23@$00@internal@shdfnd@physx@@AEAAXI@Z 0000000180019af0 f i CmCollection.obj
 0001:00018bd0       ?freeListAdd@?$HashBase@V?$Pair@QEAVPxBase@physx@@_K@shdfnd@physx@@PEAVPxBase@3@U?$Hash@PEAVPxBase@physx@@@23@UGetKey@?$HashMapBase@PEAVPxBase@physx@@_KU?$Hash@PEAVPxBase@physx@@@shdfnd@2@VNonTrackingAllocator@42@@internal@23@VNonTrackingAllocator@23@$00@internal@shdfnd@physx@@AEAAXII@Z 0000000180019bd0 f i CmCollection.obj
 0001:00018d00       ?freeListEmpty@?$HashBase@V?$Pair@$$CB_KPEAVPxBase@physx@@@shdfnd@physx@@_KU?$Hash@_K@23@UGetKey@?$HashMapBase@_KPEAVPxBase@physx@@U?$Hash@_K@shdfnd@2@VNonTrackingAllocator@42@@internal@23@VNonTrackingAllocator@23@$00@internal@shdfnd@physx@@AEBA_NXZ 0000000180019d00 f i CmCollection.obj
 0001:00018d80       ?freeListEmpty@?$HashBase@V?$Pair@QEAVPxBase@physx@@_K@shdfnd@physx@@PEAVPxBase@3@U?$Hash@PEAVPxBase@physx@@@23@UGetKey@?$HashMapBase@PEAVPxBase@physx@@_KU?$Hash@PEAVPxBase@physx@@@shdfnd@2@VNonTrackingAllocator@42@@internal@23@VNonTrackingAllocator@23@$00@internal@shdfnd@physx@@AEBA_NXZ 0000000180019d80 f i CmCollection.obj
 0001:00018e00       ?freeListGetNext@?$HashBase@V?$Pair@$$CB_KPEAVPxBase@physx@@@shdfnd@physx@@_KU?$Hash@_K@23@UGetKey@?$HashMapBase@_KPEAVPxBase@physx@@U?$Hash@_K@shdfnd@2@VNonTrackingAllocator@42@@internal@23@VNonTrackingAllocator@23@$00@internal@shdfnd@physx@@AEAAIXZ 0000000180019e00 f i CmCollection.obj
 0001:00018f60       ?freeListGetNext@?$HashBase@V?$Pair@QEAVPxBase@physx@@_K@shdfnd@physx@@PEAVPxBase@3@U?$Hash@PEAVPxBase@physx@@@23@UGetKey@?$HashMapBase@PEAVPxBase@physx@@_KU?$Hash@PEAVPxBase@physx@@@shdfnd@2@VNonTrackingAllocator@42@@internal@23@VNonTrackingAllocator@23@$00@internal@shdfnd@physx@@AEAAIXZ 0000000180019f60 f i CmCollection.obj
 0001:000190c0       ?getEntries@?$CoalescedHashMap@PEAVPxBase@physx@@_KU?$Hash@PEAVPxBase@physx@@@shdfnd@2@VNonTrackingAllocator@42@@shdfnd@physx@@QEBAPEBV?$Pair@QEAVPxBase@physx@@_K@23@XZ 000000018001a0c0 f i CmCollection.obj
 0001:000190e0       ?getEntries@?$HashBase@V?$Pair@QEAVPxBase@physx@@_K@shdfnd@physx@@PEAVPxBase@3@U?$Hash@PEAVPxBase@physx@@@23@UGetKey@?$HashMapBase@PEAVPxBase@physx@@_KU?$Hash@PEAVPxBase@physx@@@shdfnd@2@VNonTrackingAllocator@42@@internal@23@VNonTrackingAllocator@23@$00@internal@shdfnd@physx@@QEBAPEBV?$Pair@QEAVPxBase@physx@@_K@34@XZ 000000018001a0e0 f i CmCollection.obj
 0001:00019100       ?getFoundation@shdfnd@physx@@YAAEAVFoundation@12@XZ 000000018001a100 f i CmCollection.obj
 0001:00019120       ?getIterator@?$HashMapBase@_KPEAVPxBase@physx@@U?$Hash@_K@shdfnd@2@VNonTrackingAllocator@42@@internal@shdfnd@physx@@QEAA?AVIter@?$HashBase@V?$Pair@$$CB_KPEAVPxBase@physx@@@shdfnd@physx@@_KU?$Hash@_K@23@UGetKey@?$HashMapBase@_KPEAVPxBase@physx@@U?$Hash@_K@shdfnd@2@VNonTrackingAllocator@42@@internal@23@VNonTrackingAllocator@23@$00@234@XZ 000000018001a120 f i CmCollection.obj
 0001:00019160       ?getName@?$ReflectionAllocator@VCollection@Cm@physx@@@shdfnd@physx@@CAPEBDXZ 000000018001a160 f i CmCollection.obj
 0001:000191b0       ?grow@?$HashBase@V?$Pair@$$CB_KPEAVPxBase@physx@@@shdfnd@physx@@_KU?$Hash@_K@23@UGetKey@?$HashMapBase@_KPEAVPxBase@physx@@U?$Hash@_K@shdfnd@2@VNonTrackingAllocator@42@@internal@23@VNonTrackingAllocator@23@$00@internal@shdfnd@physx@@AEAAXXZ 000000018001a1b0 f i CmCollection.obj
 0001:00019290       ?grow@?$HashBase@V?$Pair@QEAVPxBase@physx@@_K@shdfnd@physx@@PEAVPxBase@3@U?$Hash@PEAVPxBase@physx@@@23@UGetKey@?$HashMapBase@PEAVPxBase@physx@@_KU?$Hash@PEAVPxBase@physx@@@shdfnd@2@VNonTrackingAllocator@42@@internal@23@VNonTrackingAllocator@23@$00@internal@shdfnd@physx@@AEAAXXZ 000000018001a290 f i CmCollection.obj
 0001:00019370       ?hash@?$HashBase@V?$Pair@$$CB_KPEAVPxBase@physx@@@shdfnd@physx@@_KU?$Hash@_K@23@UGetKey@?$HashMapBase@_KPEAVPxBase@physx@@U?$Hash@_K@shdfnd@2@VNonTrackingAllocator@42@@internal@23@VNonTrackingAllocator@23@$00@internal@shdfnd@physx@@AEBAIAEB_K@Z 000000018001a370 f i CmCollection.obj
 0001:000193b0       ?hash@?$HashBase@V?$Pair@$$CB_KPEAVPxBase@physx@@@shdfnd@physx@@_KU?$Hash@_K@23@UGetKey@?$HashMapBase@_KPEAVPxBase@physx@@U?$Hash@_K@shdfnd@2@VNonTrackingAllocator@42@@internal@23@VNonTrackingAllocator@23@$00@internal@shdfnd@physx@@AEBAIAEB_KI@Z 000000018001a3b0 f i CmCollection.obj
 0001:000193f0       ?hash@?$HashBase@V?$Pair@QEAVPxBase@physx@@_K@shdfnd@physx@@PEAVPxBase@3@U?$Hash@PEAVPxBase@physx@@@23@UGetKey@?$HashMapBase@PEAVPxBase@physx@@_KU?$Hash@PEAVPxBase@physx@@@shdfnd@2@VNonTrackingAllocator@42@@internal@23@VNonTrackingAllocator@23@$00@internal@shdfnd@physx@@AEBAIAEBQEAVPxBase@4@@Z 000000018001a3f0 f i CmCollection.obj
 0001:00019430       ?hash@?$HashBase@V?$Pair@QEAVPxBase@physx@@_K@shdfnd@physx@@PEAVPxBase@3@U?$Hash@PEAVPxBase@physx@@@23@UGetKey@?$HashMapBase@PEAVPxBase@physx@@_KU?$Hash@PEAVPxBase@physx@@@shdfnd@2@VNonTrackingAllocator@42@@internal@23@VNonTrackingAllocator@23@$00@internal@shdfnd@physx@@AEBAIAEBQEAVPxBase@4@I@Z 000000018001a430 f i CmCollection.obj
 0001:00019470       ?hash@shdfnd@physx@@YAIPEBX@Z 000000018001a470 f i CmCollection.obj
 0001:00019490       ?hash@shdfnd@physx@@YAI_K@Z 000000018001a490 f i CmCollection.obj
 0001:000195a0       ?init@?$HashBase@V?$Pair@$$CB_KPEAVPxBase@physx@@@shdfnd@physx@@_KU?$Hash@_K@23@UGetKey@?$HashMapBase@_KPEAVPxBase@physx@@U?$Hash@_K@shdfnd@2@VNonTrackingAllocator@42@@internal@23@VNonTrackingAllocator@23@$00@internal@shdfnd@physx@@AEAAXIM@Z 000000018001a5a0 f i CmCollection.obj
 0001:00019680       ?init@?$HashBase@V?$Pair@QEAVPxBase@physx@@_K@shdfnd@physx@@PEAVPxBase@3@U?$Hash@PEAVPxBase@physx@@@23@UGetKey@?$HashMapBase@PEAVPxBase@physx@@_KU?$Hash@PEAVPxBase@physx@@@shdfnd@2@VNonTrackingAllocator@42@@internal@23@VNonTrackingAllocator@23@$00@internal@shdfnd@physx@@AEAAXIM@Z 000000018001a680 f i CmCollection.obj
 0001:00019760       ?insert@?$HashMapBase@PEAVPxBase@physx@@_KU?$Hash@PEAVPxBase@physx@@@shdfnd@2@VNonTrackingAllocator@42@@internal@shdfnd@physx@@QEAA_NQEAVPxBase@4@_K@Z 000000018001a760 f i CmCollection.obj
 0001:00019810       ?insert@?$HashMapBase@_KPEAVPxBase@physx@@U?$Hash@_K@shdfnd@2@VNonTrackingAllocator@42@@internal@shdfnd@physx@@QEAA_N_KQEAVPxBase@4@@Z 000000018001a810 f i CmCollection.obj
 0001:000198c0       ?isPowerOfTwo@shdfnd@physx@@YA_NI@Z 000000018001a8c0 f i CmCollection.obj
 0001:00019910       ?memSet@intrinsics@physx@@YAPEAXPEAXHI@Z 000000018001a910 f i CmCollection.obj
 0001:00019960       ?name@type_info@@QEBAPEBDXZ 000000018001a960 f i CmCollection.obj
 0001:00019990       ?nextPowerOfTwo@shdfnd@physx@@YAII@Z 000000018001a990 f i CmCollection.obj
 0001:00019a20       ?release@Collection@Cm@physx@@UEAAXXZ 000000018001aa20 f i CmCollection.obj
 0001:00019a90       ?replaceWithLast@?$HashBase@V?$Pair@$$CB_KPEAVPxBase@physx@@@shdfnd@physx@@_KU?$Hash@_K@23@UGetKey@?$HashMapBase@_KPEAVPxBase@physx@@U?$Hash@_K@shdfnd@2@VNonTrackingAllocator@42@@internal@23@VNonTrackingAllocator@23@$00@internal@shdfnd@physx@@AEAAXI@Z 000000018001aa90 f i CmCollection.obj
 0001:00019c30       ?replaceWithLast@?$HashBase@V?$Pair@QEAVPxBase@physx@@_K@shdfnd@physx@@PEAVPxBase@3@U?$Hash@PEAVPxBase@physx@@@23@UGetKey@?$HashMapBase@PEAVPxBase@physx@@_KU?$Hash@PEAVPxBase@physx@@@shdfnd@2@VNonTrackingAllocator@42@@internal@23@VNonTrackingAllocator@23@$00@internal@shdfnd@physx@@AEAAXI@Z 000000018001ac30 f i CmCollection.obj
 0001:00019dd0       ?reserve@?$HashBase@V?$Pair@$$CB_KPEAVPxBase@physx@@@shdfnd@physx@@_KU?$Hash@_K@23@UGetKey@?$HashMapBase@_KPEAVPxBase@physx@@U?$Hash@_K@shdfnd@2@VNonTrackingAllocator@42@@internal@23@VNonTrackingAllocator@23@$00@internal@shdfnd@physx@@QEAAXI@Z 000000018001add0 f i CmCollection.obj
 0001:00019e10       ?reserve@?$HashBase@V?$Pair@QEAVPxBase@physx@@_K@shdfnd@physx@@PEAVPxBase@3@U?$Hash@PEAVPxBase@physx@@@23@UGetKey@?$HashMapBase@PEAVPxBase@physx@@_KU?$Hash@PEAVPxBase@physx@@@shdfnd@2@VNonTrackingAllocator@42@@internal@23@VNonTrackingAllocator@23@$00@internal@shdfnd@physx@@QEAAXI@Z 000000018001ae10 f i CmCollection.obj
 0001:00019e50       ?reserve@?$HashMapBase@PEAVPxBase@physx@@_KU?$Hash@PEAVPxBase@physx@@@shdfnd@2@VNonTrackingAllocator@42@@internal@shdfnd@physx@@QEAAXI@Z 000000018001ae50 f i CmCollection.obj
 0001:00019e80       ?reserveInternal@?$HashBase@V?$Pair@$$CB_KPEAVPxBase@physx@@@shdfnd@physx@@_KU?$Hash@_K@23@UGetKey@?$HashMapBase@_KPEAVPxBase@physx@@U?$Hash@_K@shdfnd@2@VNonTrackingAllocator@42@@internal@23@VNonTrackingAllocator@23@$00@internal@shdfnd@physx@@AEAAXI@Z 000000018001ae80 f i CmCollection.obj
 0001:0001a530       ?reserveInternal@?$HashBase@V?$Pair@QEAVPxBase@physx@@_K@shdfnd@physx@@PEAVPxBase@3@U?$Hash@PEAVPxBase@physx@@@23@UGetKey@?$HashMapBase@PEAVPxBase@physx@@_KU?$Hash@PEAVPxBase@physx@@@shdfnd@2@VNonTrackingAllocator@42@@internal@23@VNonTrackingAllocator@23@$00@internal@shdfnd@physx@@AEAAXI@Z 000000018001b530 f i CmCollection.obj
 0001:0001abe0       ?size@?$HashBase@V?$Pair@$$CB_KPEAVPxBase@physx@@@shdfnd@physx@@_KU?$Hash@_K@23@UGetKey@?$HashMapBase@_KPEAVPxBase@physx@@U?$Hash@_K@shdfnd@2@VNonTrackingAllocator@42@@internal@23@VNonTrackingAllocator@23@$00@internal@shdfnd@physx@@QEBAIXZ 000000018001bbe0 f i CmCollection.obj
 0001:0001ac00       ?size@?$HashBase@V?$Pair@QEAVPxBase@physx@@_K@shdfnd@physx@@PEAVPxBase@3@U?$Hash@PEAVPxBase@physx@@@23@UGetKey@?$HashMapBase@PEAVPxBase@physx@@_KU?$Hash@PEAVPxBase@physx@@@shdfnd@2@VNonTrackingAllocator@42@@internal@23@VNonTrackingAllocator@23@$00@internal@shdfnd@physx@@QEBAIXZ 000000018001bc00 f i CmCollection.obj
 0001:0001ac20       ?size@?$HashMapBase@PEAVPxBase@physx@@_KU?$Hash@PEAVPxBase@physx@@@shdfnd@2@VNonTrackingAllocator@42@@internal@shdfnd@physx@@QEBAIXZ 000000018001bc20 f i CmCollection.obj
 0001:0001ac50       ?size@?$HashMapBase@_KPEAVPxBase@physx@@U?$Hash@_K@shdfnd@2@VNonTrackingAllocator@42@@internal@shdfnd@physx@@QEBAIXZ 000000018001bc50 f i CmCollection.obj
 0001:0001ac80       ?skip@Iter@?$HashBase@V?$Pair@$$CB_KPEAVPxBase@physx@@@shdfnd@physx@@_KU?$Hash@_K@23@UGetKey@?$HashMapBase@_KPEAVPxBase@physx@@U?$Hash@_K@shdfnd@2@VNonTrackingAllocator@42@@internal@23@VNonTrackingAllocator@23@$00@internal@shdfnd@physx@@AEAAXXZ 000000018001bc80 f i CmCollection.obj
 0001:0001ad00       ?PxTransformFromPlaneEquation@physx@@YA?AVPxTransform@1@AEBVPxPlane@1@@Z 000000018001bd00 f   CmMathUtils.obj
 0001:0001af20       ?PxTransformFromSegment@physx@@YA?AVPxTransform@1@AEBVPxVec3@1@0PEAM@Z 000000018001bf20 f   CmMathUtils.obj
 0001:0001b140       ??$PX_UNUSED@W4PxIDENTITY@physx@@@@YAXAEBW4PxIDENTITY@physx@@@Z 000000018001c140 f i CmMathUtils.obj
 0001:0001b150       ??0PxPlane@physx@@QEAA@AEBV01@@Z 000000018001c150 f i CmMathUtils.obj
 0001:0001b1a0       ??0PxQuat@physx@@QEAA@AEBV01@@Z 000000018001c1a0 f i CmMathUtils.obj
 0001:0001b220       ??0PxQuat@physx@@QEAA@MMMM@Z 000000018001c220 f i CmMathUtils.obj
 0001:0001b2a0       ??0PxQuat@physx@@QEAA@W4PxIDENTITY@1@@Z 000000018001c2a0 f i CmMathUtils.obj
 0001:0001b310       ??0PxQuat@physx@@QEAA@XZ   000000018001c310 f i CmMathUtils.obj
 0001:0001b320       ??0PxTransform@physx@@QEAA@AEBVPxVec3@1@AEBVPxQuat@1@@Z 000000018001c320 f i CmMathUtils.obj
 0001:0001b3f0       ??0PxVec3@physx@@QEAA@AEBV01@@Z 000000018001c3f0 f i CmMathUtils.obj
 0001:0001b450       ??0PxVec3@physx@@QEAA@MMM@Z 000000018001c450 f i CmMathUtils.obj
 0001:0001b4b0       ??4PxQuat@physx@@QEAAAEAV01@AEBV01@@Z 000000018001c4b0 f i CmMathUtils.obj
 0001:0001b530       ??DPxQuat@physx@@QEBA?AV01@M@Z 000000018001c530 f i CmMathUtils.obj
 0001:0001b5d0       ??DPxVec3@physx@@QEBA?AV01@M@Z 000000018001c5d0 f i CmMathUtils.obj
 0001:0001b660       ??GPxVec3@physx@@QEBA?AV01@AEBV01@@Z 000000018001c660 f i CmMathUtils.obj
 0001:0001b700       ??GPxVec3@physx@@QEBA?AV01@XZ 000000018001c700 f i CmMathUtils.obj
 0001:0001b790       ??HPxVec3@physx@@QEBA?AV01@AEBV01@@Z 000000018001c790 f i CmMathUtils.obj
 0001:0001b830       ??KPxVec3@physx@@QEBA?AV01@M@Z 000000018001c830 f i CmMathUtils.obj
 0001:0001b8d0       ??XPxVec3@physx@@QEAAAEAV01@M@Z 000000018001c8d0 f i CmMathUtils.obj
 0001:0001b950       ?PxAbs@physx@@YAMM@Z       000000018001c950 f i CmMathUtils.obj
 0001:0001b970       ?PxSqrt@physx@@YAMM@Z      000000018001c970 f i CmMathUtils.obj
 0001:0001b990       ?abs@intrinsics@physx@@YAMM@Z 000000018001c990 f i CmMathUtils.obj
 0001:0001b9b0       ?isFinite@PxQuat@physx@@QEBA_NXZ 000000018001c9b0 f i CmMathUtils.obj
 0001:0001ba50       ?isSane@PxQuat@physx@@QEBA_NXZ 000000018001ca50 f i CmMathUtils.obj
 0001:0001bad0       ?magnitude@PxQuat@physx@@QEBAMXZ 000000018001cad0 f i CmMathUtils.obj
 0001:0001bb00       ?magnitude@PxVec3@physx@@QEBAMXZ 000000018001cb00 f i CmMathUtils.obj
 0001:0001bb30       ?magnitudeSquared@PxQuat@physx@@QEBAMXZ 000000018001cb30 f i CmMathUtils.obj
 0001:0001bbb0       ?magnitudeSquared@PxVec3@physx@@QEBAMXZ 000000018001cbb0 f i CmMathUtils.obj
 0001:0001bc10       ?normalize@PxPlane@physx@@QEAAXXZ 000000018001cc10 f i CmMathUtils.obj
 0001:0001bc90       ?sqrt@intrinsics@physx@@YAMM@Z 000000018001cc90 f i CmMathUtils.obj
 0001:0001bcc0       fabsf                      000000018001ccc0 f i CmMathUtils.obj
 0001:0001bcf0       ??0PtrTable@Cm@physx@@QEAA@XZ 000000018001ccf0 f   CmPtrTable.obj
 0001:0001bd30       ??1PtrTable@Cm@physx@@QEAA@XZ 000000018001cd30 f   CmPtrTable.obj
 0001:0001be40       ?add@PtrTable@Cm@physx@@QEAAXPEAXAEAVPtrTableStorageManager@23@@Z 000000018001ce40 f   CmPtrTable.obj
 0001:0001c260       ?replaceWithLast@PtrTable@Cm@physx@@QEAAXIAEAVPtrTableStorageManager@23@@Z 000000018001d260 f   CmPtrTable.obj
 0001:0001c660       ?clear@PtrTable@Cm@physx@@QEAAXAEAVPtrTableStorageManager@23@@Z 000000018001d660 f   CmPtrTable.obj
 0001:0001c700       ?find@PtrTable@Cm@physx@@QEBAIPEBX@Z 000000018001d700 f   CmPtrTable.obj
 0001:0001c7d0       ?exportExtraData@PtrTable@Cm@physx@@QEAAXAEAVPxSerializationContext@3@@Z 000000018001d7d0 f   CmPtrTable.obj
 0001:0001c840       ?importExtraData@PtrTable@Cm@physx@@QEAAXAEAVPxDeserializationContext@3@@Z 000000018001d840 f   CmPtrTable.obj
 0001:0001c890       ?getBinaryMetaData@PtrTable@Cm@physx@@SAXAEAVPxOutputStream@3@@Z 000000018001d890 f   CmPtrTable.obj
 0001:0001cb80       ?realloc@PtrTable@Cm@physx@@AEAAXIIAEAVPtrTableStorageManager@23@@Z 000000018001db80 f   CmPtrTable.obj
 0001:0001d160       ??$readExtraData@PEAX$0BA@@PxDeserializationContext@physx@@QEAAPEAPEAXI@Z 000000018001e160 f i CmPtrTable.obj
 0001:0001d1a0       ??$readExtraData@PEAX@PxDeserializationContext@physx@@QEAAPEAPEAXI@Z 000000018001e1a0 f i CmPtrTable.obj
 0001:0001d1f0       ??0PtrTable@Cm@physx@@QEAA@W4PxEMPTY@2@@Z 000000018001e1f0 f i CmPtrTable.obj
 0001:0001d260       ??4PtrTable@Cm@physx@@QEAAAEAU012@AEBU012@@Z 000000018001e260 f i CmPtrTable.obj
 0001:0001d290       ?PxMemCopy@physx@@YAPEAXPEIAXPEIBXI@Z 000000018001e290 f i CmPtrTable.obj
 0001:0001d2d0       ?alignExtraData@PxDeserializationContext@physx@@QEAAXI@Z 000000018001e2d0 f i CmPtrTable.obj
 0001:0001d330       ?getCount@PtrTable@Cm@physx@@QEBAIXZ 000000018001e330 f i CmPtrTable.obj
 0001:0001d350       ?getPtrs@PtrTable@Cm@physx@@QEAAPEAPEAXXZ 000000018001e350 f i CmPtrTable.obj
 0001:0001d3a0       ?getPtrs@PtrTable@Cm@physx@@QEBAPEBQEAXXZ 000000018001e3a0 f i CmPtrTable.obj
 0001:0001d3f0       ??0RadixSort@Cm@physx@@QEAA@XZ 000000018001e3f0 f   CmRadixSort.obj
 0001:0001d490       ??1RadixSort@Cm@physx@@UEAA@XZ 000000018001e490 f   CmRadixSort.obj
 0001:0001d4b0       ?Sort@RadixSort@Cm@physx@@QEAAAEAV123@PEBIIW4RadixHint@23@@Z 000000018001e4b0 f   CmRadixSort.obj
 0001:0001e560       ?Sort@RadixSort@Cm@physx@@QEAAAEAV123@PEBMI@Z 000000018001f560 f   CmRadixSort.obj
 0001:0001f510       ?SetBuffers@RadixSort@Cm@physx@@QEAA_NPEAI00PEAPEAI@Z 0000000180020510 f   CmRadixSort.obj
 0001:0001fe10       ??_ERadixSort@Cm@physx@@UEAAPEAXI@Z 0000000180020e10 f i CmRadixSort.obj
 0001:0001fed0       ??_GRadixSort@Cm@physx@@UEAAPEAXI@Z 0000000180020ed0 f i CmRadixSort.obj
 0001:0001ff20       ?CheckPassValidity@@YAPEBIIPEBIIPEBXAEAE@Z 0000000180020f20 f i CmRadixSort.obj
 0001:0001ffa0       ?PxMemZero@physx@@YAPEAXPEAXI@Z 0000000180020fa0 f i CmRadixSort.obj
 0001:0001ffd0       ?memZero@intrinsics@physx@@YAPEAXPEAXI@Z 0000000180020fd0 f i CmRadixSort.obj
 0001:00020000       ??0RadixSortBuffered@Cm@physx@@QEAA@XZ 0000000180021000 f   CmRadixSortBuffered.obj
 0001:00020040       ??1RadixSortBuffered@Cm@physx@@UEAA@XZ 0000000180021040 f   CmRadixSortBuffered.obj
 0001:000200d0       ?Sort@RadixSortBuffered@Cm@physx@@QEAAAEAV123@PEBIIW4RadixHint@23@@Z 00000001800210d0 f   CmRadixSortBuffered.obj
 0001:000201a0       ?Sort@RadixSortBuffered@Cm@physx@@QEAAAEAV123@PEBMI@Z 00000001800211a0 f   CmRadixSortBuffered.obj
 0001:00020260       ?Resize@RadixSortBuffered@Cm@physx@@AEAA_NI@Z 0000000180021260 f   CmRadixSortBuffered.obj
 0001:00020460       ??_ERadixSortBuffered@Cm@physx@@UEAAPEAXI@Z 0000000180021460 f i CmRadixSortBuffered.obj
 0001:00020520       ??_GRadixSortBuffered@Cm@physx@@UEAAPEAXI@Z 0000000180021520 f i CmRadixSortBuffered.obj
 0001:00020570       ?CheckResize@RadixSortBuffered@Cm@physx@@AEAAXI@Z 0000000180021570 f i CmRadixSortBuffered.obj
 0001:000205f0       ??6RenderOutput@Cm@physx@@QEAAAEAV012@W4Primitive@012@@Z 00000001800215f0 f   CmRenderOutput.obj
 0001:00020620       ??6RenderOutput@Cm@physx@@QEAAAEAV012@I@Z 0000000180021620 f   CmRenderOutput.obj
 0001:00020650       ??6RenderOutput@Cm@physx@@QEAAAEAV012@AEBVPxMat44@2@@Z 0000000180021650 f   CmRenderOutput.obj
 0001:00020690       ??6RenderOutput@Cm@physx@@QEAAAEAV012@AEBVPxTransform@2@@Z 0000000180021690 f   CmRenderOutput.obj
 0001:000206d0       ??6RenderOutput@Cm@physx@@QEAAAEAV012@VPxVec3@2@@Z 00000001800216d0 f   CmRenderOutput.obj
 0001:00020a50       ??6RenderOutput@Cm@physx@@QEAAAEAV012@AEBUDebugText@12@@Z 0000000180021a50 f   CmRenderOutput.obj
 0001:00020ca0       ?outputCapsule@RenderOutput@Cm@physx@@QEAAAEAV123@MMAEBVPxMat44@3@@Z 0000000180021ca0 f   CmRenderOutput.obj
 0001:00021400       ??0DebugText@Cm@physx@@QEAA@AEBVPxVec3@2@MPEBDZZ 0000000180022400 f   CmRenderOutput.obj
 0001:000214b0       ??6Cm@physx@@YAAEAVRenderOutput@01@AEAV201@AEBUDebugBox@01@@Z 00000001800224b0 f   CmRenderOutput.obj
 0001:00021eb0       ??6Cm@physx@@YAAEAVRenderOutput@01@AEAV201@AEBUDebugArrow@01@@Z 0000000180022eb0 f   CmRenderOutput.obj
 0001:00022220       ??6Cm@physx@@YAAEAVRenderOutput@01@AEAV201@AEBUDebugBasis@01@@Z 0000000180023220 f   CmRenderOutput.obj
 0001:000223e0       ??6Cm@physx@@YAAEAVRenderOutput@01@AEAV201@AEBUDebugCircle@01@@Z 00000001800233e0 f   CmRenderOutput.obj
 0001:00022510       ??6Cm@physx@@YAAEAVRenderOutput@01@AEAV201@AEBUDebugArc@01@@Z 0000000180023510 f   CmRenderOutput.obj
 0001:00022ef0       ??$PxMax@I@physx@@YAIII@Z  0000000180023ef0 f i CmRenderOutput.obj
 0001:00022f30       ??$__vcrt_va_start_verify_argument_type@PEBD@@YAXXZ 0000000180023f30 f i CmRenderOutput.obj
 0001:00022f40       ??$swap@VPxVec4@physx@@@shdfnd@physx@@YAXAEAVPxVec4@1@0@Z 0000000180023f40 f i CmRenderOutput.obj
 0001:00022f90       ??0DebugArc@Cm@physx@@QEAA@IMMM@Z 0000000180023f90 f i CmRenderOutput.obj
 0001:00023000       ??0DebugArrow@Cm@physx@@QEAA@AEBVPxVec3@2@0M@Z 0000000180024000 f i CmRenderOutput.obj
 0001:00023080       ??0DebugCircle@Cm@physx@@QEAA@IM@Z 0000000180024080 f i CmRenderOutput.obj
 0001:000230c0       ??0DebugText@Cm@physx@@QEAA@$$QEAU012@@Z 00000001800240c0 f i CmRenderOutput.obj
 0001:00023140       ??0DebugText@Cm@physx@@QEAA@AEBU012@@Z 0000000180024140 f i CmRenderOutput.obj
 0001:000231c0       ??0PxDebugLine@physx@@QEAA@AEBU01@@Z 00000001800241c0 f i CmRenderOutput.obj
 0001:00023240       ??0PxDebugLine@physx@@QEAA@AEBVPxVec3@1@0AEBI@Z 0000000180024240 f i CmRenderOutput.obj
 0001:000232d0       ??0PxDebugPoint@physx@@QEAA@AEBU01@@Z 00000001800242d0 f i CmRenderOutput.obj
 0001:00023320       ??0PxDebugPoint@physx@@QEAA@AEBVPxVec3@1@AEBI@Z 0000000180024320 f i CmRenderOutput.obj
 0001:00023370       ??0PxDebugText@physx@@QEAA@AEBU01@@Z 0000000180024370 f i CmRenderOutput.obj
 0001:000233f0       ??0PxDebugText@physx@@QEAA@AEBVPxVec3@1@AEBMAEBIPEBD@Z 00000001800243f0 f i CmRenderOutput.obj
 0001:00023470       ??0PxDebugTriangle@physx@@QEAA@AEBU01@@Z 0000000180024470 f i CmRenderOutput.obj
 0001:00023530       ??0PxDebugTriangle@physx@@QEAA@AEBVPxVec3@1@00AEBI@Z 0000000180024530 f i CmRenderOutput.obj
 0001:000235e0       ??0PxMat33@physx@@QEAA@AEBVPxQuat@1@@Z 00000001800245e0 f i CmRenderOutput.obj
 0001:00023920       ??0PxMat44@physx@@QEAA@AEBV01@@Z 0000000180024920 f i CmRenderOutput.obj
 0001:000239c0       ??0PxMat44@physx@@QEAA@AEBVPxMat33@1@AEBVPxVec3@1@@Z 00000001800249c0 f i CmRenderOutput.obj
 0001:00023a70       ??0PxMat44@physx@@QEAA@AEBVPxTransform@1@@Z 0000000180024a70 f i CmRenderOutput.obj
 0001:00023b60       ??0PxMat44@physx@@QEAA@W4PxIDENTITY@1@@Z 0000000180024b60 f i CmRenderOutput.obj
 0001:00023c50       ??0PxVec3@physx@@QEAA@M@Z  0000000180024c50 f i CmRenderOutput.obj
 0001:00023ca0       ??0PxVec3@physx@@QEAA@XZ   0000000180024ca0 f i CmRenderOutput.obj
 0001:00023cb0       ??0PxVec4@physx@@QEAA@AEBV01@@Z 0000000180024cb0 f i CmRenderOutput.obj
 0001:00023d30       ??0PxVec4@physx@@QEAA@AEBVPxVec3@1@M@Z 0000000180024d30 f i CmRenderOutput.obj
 0001:00023db0       ??0PxVec4@physx@@QEAA@MMMM@Z 0000000180024db0 f i CmRenderOutput.obj
 0001:00023e30       ??0PxVec4@physx@@QEAA@XZ   0000000180024e30 f i CmRenderOutput.obj
 0001:00023e40       ??0RenderOutput@Cm@physx@@QEAA@AEAVRenderBuffer@12@@Z 0000000180024e40 f i CmRenderOutput.obj
 0001:00023ef0       ??0RenderOutput@Cm@physx@@QEAA@AEBV012@@Z 0000000180024ef0 f i CmRenderOutput.obj
 0001:00023fc0       ??4DebugText@Cm@physx@@QEAAAEAU012@$$QEAU012@@Z 0000000180024fc0 f i CmRenderOutput.obj
 0001:00024090       ??4DebugText@Cm@physx@@QEAAAEAU012@AEBU012@@Z 0000000180025090 f i CmRenderOutput.obj
 0001:00024160       ??4PxMat44@physx@@QEAAAEAV01@AEBV01@@Z 0000000180025160 f i CmRenderOutput.obj
 0001:00024200       ??4PxVec3@physx@@QEAAAEAV01@AEBV01@@Z 0000000180025200 f i CmRenderOutput.obj
 0001:00024260       ??4PxVec4@physx@@QEAAAEAV01@AEBV01@@Z 0000000180025260 f i CmRenderOutput.obj
 0001:000242e0       ??A?$Array@UPxDebugText@physx@@VNamedAllocator@shdfnd@2@@shdfnd@physx@@QEAAAEAUPxDebugText@2@I@Z 00000001800252e0 f i CmRenderOutput.obj
 0001:00024380       ??DPxVec4@physx@@QEBA?AV01@M@Z 0000000180025380 f i CmRenderOutput.obj
 0001:00024420       ??GPxVec4@physx@@QEBA?AV01@XZ 0000000180025420 f i CmRenderOutput.obj
 0001:000244c0       ??HPxVec4@physx@@QEBA?AV01@AEBV01@@Z 00000001800254c0 f i CmRenderOutput.obj
 0001:00024570       ??YPxVec4@physx@@QEAAAEAV01@AEBV01@@Z 0000000180025570 f i CmRenderOutput.obj
 0001:00024620       ??_0PxVec3@physx@@QEAAAEAV01@M@Z 0000000180025620 f i CmRenderOutput.obj
 0001:000246b0       ?PxCos@physx@@YAMM@Z       00000001800256b0 f i CmRenderOutput.obj
 0001:000246d0       ?PxSin@physx@@YAMM@Z       00000001800256d0 f i CmRenderOutput.obj
 0001:000246f0       ?allocate@?$Array@DVNamedAllocator@shdfnd@physx@@@shdfnd@physx@@IEAAPEADI@Z 00000001800256f0 f i CmRenderOutput.obj
 0001:00024790       ?allocate@?$Array@UPxDebugLine@physx@@VNamedAllocator@shdfnd@2@@shdfnd@physx@@IEAAPEAUPxDebugLine@3@I@Z 0000000180025790 f i CmRenderOutput.obj
 0001:00024840       ?allocate@?$Array@UPxDebugPoint@physx@@VNamedAllocator@shdfnd@2@@shdfnd@physx@@IEAAPEAUPxDebugPoint@3@I@Z 0000000180025840 f i CmRenderOutput.obj
 0001:000248f0       ?allocate@?$Array@UPxDebugText@physx@@VNamedAllocator@shdfnd@2@@shdfnd@physx@@IEAAPEAUPxDebugText@3@I@Z 00000001800258f0 f i CmRenderOutput.obj
 0001:000249a0       ?allocate@?$Array@UPxDebugTriangle@physx@@VNamedAllocator@shdfnd@2@@shdfnd@physx@@IEAAPEAUPxDebugTriangle@3@I@Z 00000001800259a0 f i CmRenderOutput.obj
 0001:00024a50       ?begin@?$Array@DVNamedAllocator@shdfnd@physx@@@shdfnd@physx@@QEAAPEADXZ 0000000180025a50 f i CmRenderOutput.obj
 0001:00024a70       ?capacity@?$Array@DVNamedAllocator@shdfnd@physx@@@shdfnd@physx@@QEBAIXZ 0000000180025a70 f i CmRenderOutput.obj
 0001:00024a90       ?capacity@?$Array@UPxDebugLine@physx@@VNamedAllocator@shdfnd@2@@shdfnd@physx@@QEBAIXZ 0000000180025a90 f i CmRenderOutput.obj
 0001:00024ab0       ?capacity@?$Array@UPxDebugPoint@physx@@VNamedAllocator@shdfnd@2@@shdfnd@physx@@QEBAIXZ 0000000180025ab0 f i CmRenderOutput.obj
 0001:00024ad0       ?capacity@?$Array@UPxDebugText@physx@@VNamedAllocator@shdfnd@2@@shdfnd@physx@@QEBAIXZ 0000000180025ad0 f i CmRenderOutput.obj
 0001:00024af0       ?capacity@?$Array@UPxDebugTriangle@physx@@VNamedAllocator@shdfnd@2@@shdfnd@physx@@QEBAIXZ 0000000180025af0 f i CmRenderOutput.obj
 0001:00024b10       ?capacityIncrement@?$Array@DVNamedAllocator@shdfnd@physx@@@shdfnd@physx@@IEBAIXZ 0000000180025b10 f i CmRenderOutput.obj
 0001:00024b60       ?capacityIncrement@?$Array@UPxDebugLine@physx@@VNamedAllocator@shdfnd@2@@shdfnd@physx@@IEBAIXZ 0000000180025b60 f i CmRenderOutput.obj
 0001:00024bb0       ?capacityIncrement@?$Array@UPxDebugPoint@physx@@VNamedAllocator@shdfnd@2@@shdfnd@physx@@IEBAIXZ 0000000180025bb0 f i CmRenderOutput.obj
 0001:00024c00       ?capacityIncrement@?$Array@UPxDebugText@physx@@VNamedAllocator@shdfnd@2@@shdfnd@physx@@IEBAIXZ 0000000180025c00 f i CmRenderOutput.obj
 0001:00024c50       ?capacityIncrement@?$Array@UPxDebugTriangle@physx@@VNamedAllocator@shdfnd@2@@shdfnd@physx@@IEBAIXZ 0000000180025c50 f i CmRenderOutput.obj
 0001:00024ca0       ?copy@?$Array@DVNamedAllocator@shdfnd@physx@@@shdfnd@physx@@KAXPEAD0PEBD@Z 0000000180025ca0 f i CmRenderOutput.obj
 0001:00024d70       ?copy@?$Array@UPxDebugLine@physx@@VNamedAllocator@shdfnd@2@@shdfnd@physx@@KAXPEAUPxDebugLine@3@0PEBU43@@Z 0000000180025d70 f i CmRenderOutput.obj
 0001:00024e50       ?copy@?$Array@UPxDebugPoint@physx@@VNamedAllocator@shdfnd@2@@shdfnd@physx@@KAXPEAUPxDebugPoint@3@0PEBU43@@Z 0000000180025e50 f i CmRenderOutput.obj
 0001:00024f30       ?copy@?$Array@UPxDebugText@physx@@VNamedAllocator@shdfnd@2@@shdfnd@physx@@KAXPEAUPxDebugText@3@0PEBU43@@Z 0000000180025f30 f i CmRenderOutput.obj
 0001:00025010       ?copy@?$Array@UPxDebugTriangle@physx@@VNamedAllocator@shdfnd@2@@shdfnd@physx@@KAXPEAUPxDebugTriangle@3@0PEBU43@@Z 0000000180026010 f i CmRenderOutput.obj
 0001:00025100       ?cos@intrinsics@physx@@YAMM@Z 0000000180026100 f i CmRenderOutput.obj
 0001:00025130       ?cross@PxVec3@physx@@QEBA?AV12@AEBV12@@Z 0000000180026130 f i CmRenderOutput.obj
 0001:00025220       ?deallocate@?$Array@DVNamedAllocator@shdfnd@physx@@@shdfnd@physx@@IEAAXPEAX@Z 0000000180026220 f i CmRenderOutput.obj
 0001:00025250       ?deallocate@?$Array@UPxDebugLine@physx@@VNamedAllocator@shdfnd@2@@shdfnd@physx@@IEAAXPEAX@Z 0000000180026250 f i CmRenderOutput.obj
 0001:00025280       ?deallocate@?$Array@UPxDebugPoint@physx@@VNamedAllocator@shdfnd@2@@shdfnd@physx@@IEAAXPEAX@Z 0000000180026280 f i CmRenderOutput.obj
 0001:000252b0       ?deallocate@?$Array@UPxDebugText@physx@@VNamedAllocator@shdfnd@2@@shdfnd@physx@@IEAAXPEAX@Z 00000001800262b0 f i CmRenderOutput.obj
 0001:000252e0       ?deallocate@?$Array@UPxDebugTriangle@physx@@VNamedAllocator@shdfnd@2@@shdfnd@physx@@IEAAXPEAX@Z 00000001800262e0 f i CmRenderOutput.obj
 0001:00025310       ?destroy@?$Array@DVNamedAllocator@shdfnd@physx@@@shdfnd@physx@@KAXPEAD0@Z 0000000180026310 f i CmRenderOutput.obj
 0001:00025360       ?destroy@?$Array@UPxDebugLine@physx@@VNamedAllocator@shdfnd@2@@shdfnd@physx@@KAXPEAUPxDebugLine@3@0@Z 0000000180026360 f i CmRenderOutput.obj
 0001:000253b0       ?destroy@?$Array@UPxDebugPoint@physx@@VNamedAllocator@shdfnd@2@@shdfnd@physx@@KAXPEAUPxDebugPoint@3@0@Z 00000001800263b0 f i CmRenderOutput.obj
 0001:00025400       ?destroy@?$Array@UPxDebugText@physx@@VNamedAllocator@shdfnd@2@@shdfnd@physx@@KAXPEAUPxDebugText@3@0@Z 0000000180026400 f i CmRenderOutput.obj
 0001:00025450       ?destroy@?$Array@UPxDebugTriangle@physx@@VNamedAllocator@shdfnd@2@@shdfnd@physx@@KAXPEAUPxDebugTriangle@3@0@Z 0000000180026450 f i CmRenderOutput.obj
 0001:000254a0       ?end@?$Array@DVNamedAllocator@shdfnd@physx@@@shdfnd@physx@@QEAAPEADXZ 00000001800264a0 f i CmRenderOutput.obj
 0001:000254c0       ?end@?$Array@UPxDebugLine@physx@@VNamedAllocator@shdfnd@2@@shdfnd@physx@@QEAAPEAUPxDebugLine@3@XZ 00000001800264c0 f i CmRenderOutput.obj
 0001:000254e0       ?forceSize_Unsafe@?$Array@UPxDebugLine@physx@@VNamedAllocator@shdfnd@2@@shdfnd@physx@@QEAAXI@Z 00000001800264e0 f i CmRenderOutput.obj
 0001:00025570       ?getXYZ@PxVec4@physx@@QEBA?AVPxVec3@2@XZ 0000000180026570 f i CmRenderOutput.obj
 0001:000255c0       ?grow@?$Array@DVNamedAllocator@shdfnd@physx@@@shdfnd@physx@@IEAAXI@Z 00000001800265c0 f i CmRenderOutput.obj
 0001:00025660       ?grow@?$Array@UPxDebugLine@physx@@VNamedAllocator@shdfnd@2@@shdfnd@physx@@IEAAXI@Z 0000000180026660 f i CmRenderOutput.obj
 0001:00025700       ?growAndPushBack@?$Array@DVNamedAllocator@shdfnd@physx@@@shdfnd@physx@@IEAAAEADAEBD@Z 0000000180026700 f i CmRenderOutput.obj
 0001:000258e0       ?growAndPushBack@?$Array@UPxDebugLine@physx@@VNamedAllocator@shdfnd@2@@shdfnd@physx@@IEAAAEAUPxDebugLine@3@AEBU43@@Z 00000001800268e0 f i CmRenderOutput.obj
 0001:00025ad0       ?growAndPushBack@?$Array@UPxDebugPoint@physx@@VNamedAllocator@shdfnd@2@@shdfnd@physx@@IEAAAEAUPxDebugPoint@3@AEBU43@@Z 0000000180026ad0 f i CmRenderOutput.obj
 0001:00025cc0       ?growAndPushBack@?$Array@UPxDebugText@physx@@VNamedAllocator@shdfnd@2@@shdfnd@physx@@IEAAAEAUPxDebugText@3@AEBU43@@Z 0000000180026cc0 f i CmRenderOutput.obj
 0001:00025eb0       ?growAndPushBack@?$Array@UPxDebugTriangle@physx@@VNamedAllocator@shdfnd@2@@shdfnd@physx@@IEAAAEAUPxDebugTriangle@3@AEBU43@@Z 0000000180026eb0 f i CmRenderOutput.obj
 0001:000260a0       ?isArrayOfPOD@?$Array@DVNamedAllocator@shdfnd@physx@@@shdfnd@physx@@SA_NXZ 00000001800270a0 f i CmRenderOutput.obj
 0001:000260b0       ?isArrayOfPOD@?$Array@UPxDebugLine@physx@@VNamedAllocator@shdfnd@2@@shdfnd@physx@@SA_NXZ 00000001800270b0 f i CmRenderOutput.obj
 0001:000260c0       ?isArrayOfPOD@?$Array@UPxDebugPoint@physx@@VNamedAllocator@shdfnd@2@@shdfnd@physx@@SA_NXZ 00000001800270c0 f i CmRenderOutput.obj
 0001:000260d0       ?isArrayOfPOD@?$Array@UPxDebugText@physx@@VNamedAllocator@shdfnd@2@@shdfnd@physx@@SA_NXZ 00000001800270d0 f i CmRenderOutput.obj
 0001:000260e0       ?isArrayOfPOD@?$Array@UPxDebugTriangle@physx@@VNamedAllocator@shdfnd@2@@shdfnd@physx@@SA_NXZ 00000001800270e0 f i CmRenderOutput.obj
 0001:000260f0       ?isInUserMemory@?$Array@DVNamedAllocator@shdfnd@physx@@@shdfnd@physx@@QEBAIXZ 00000001800270f0 f i CmRenderOutput.obj
 0001:00026110       ?isInUserMemory@?$Array@UPxDebugLine@physx@@VNamedAllocator@shdfnd@2@@shdfnd@physx@@QEBAIXZ 0000000180027110 f i CmRenderOutput.obj
 0001:00026130       ?isInUserMemory@?$Array@UPxDebugPoint@physx@@VNamedAllocator@shdfnd@2@@shdfnd@physx@@QEBAIXZ 0000000180027130 f i CmRenderOutput.obj
 0001:00026150       ?isInUserMemory@?$Array@UPxDebugText@physx@@VNamedAllocator@shdfnd@2@@shdfnd@physx@@QEBAIXZ 0000000180027150 f i CmRenderOutput.obj
 0001:00026170       ?isInUserMemory@?$Array@UPxDebugTriangle@physx@@VNamedAllocator@shdfnd@2@@shdfnd@physx@@QEBAIXZ 0000000180027170 f i CmRenderOutput.obj
 0001:00026190       ?normalToTangents@shdfnd@physx@@YAXAEBVPxVec3@2@AEAV32@1@Z 0000000180027190 f i CmRenderOutput.obj
 0001:000262a0       ?normalize@PxVec3@physx@@QEAAMXZ 00000001800272a0 f i CmRenderOutput.obj
 0001:00026300       ?outputSegment@RenderOutput@Cm@physx@@QEAAXAEBVPxVec3@3@0@Z 0000000180027300 f i CmRenderOutput.obj
 0001:000263a0       ?pushBack@?$Array@DVNamedAllocator@shdfnd@physx@@@shdfnd@physx@@QEAAAEADAEBD@Z 00000001800273a0 f i CmRenderOutput.obj
 0001:00026470       ?pushBack@?$Array@UPxDebugLine@physx@@VNamedAllocator@shdfnd@2@@shdfnd@physx@@QEAAAEAUPxDebugLine@3@AEBU43@@Z 0000000180027470 f i CmRenderOutput.obj
 0001:00026540       ?pushBack@?$Array@UPxDebugPoint@physx@@VNamedAllocator@shdfnd@2@@shdfnd@physx@@QEAAAEAUPxDebugPoint@3@AEBU43@@Z 0000000180027540 f i CmRenderOutput.obj
 0001:00026610       ?pushBack@?$Array@UPxDebugText@physx@@VNamedAllocator@shdfnd@2@@shdfnd@physx@@QEAAAEAUPxDebugText@3@AEBU43@@Z 0000000180027610 f i CmRenderOutput.obj
 0001:000266e0       ?pushBack@?$Array@UPxDebugTriangle@physx@@VNamedAllocator@shdfnd@2@@shdfnd@physx@@QEAAAEAUPxDebugTriangle@3@AEBU43@@Z 00000001800276e0 f i CmRenderOutput.obj
 0001:000267b0       ?recreate@?$Array@DVNamedAllocator@shdfnd@physx@@@shdfnd@physx@@IEAAXI@Z 00000001800277b0 f i CmRenderOutput.obj
 0001:00026900       ?recreate@?$Array@UPxDebugLine@physx@@VNamedAllocator@shdfnd@2@@shdfnd@physx@@IEAAXI@Z 0000000180027900 f i CmRenderOutput.obj
 0001:00026a60       ?reserve@?$Array@DVNamedAllocator@shdfnd@physx@@@shdfnd@physx@@QEAAXI@Z 0000000180027a60 f i CmRenderOutput.obj
 0001:00026aa0       ?reserve@?$Array@UPxDebugLine@physx@@VNamedAllocator@shdfnd@2@@shdfnd@physx@@QEAAXI@Z 0000000180027aa0 f i CmRenderOutput.obj
 0001:00026ae0       ?reserveSegments@RenderOutput@Cm@physx@@QEAAPEAUPxDebugLine@3@I@Z 0000000180027ae0 f i CmRenderOutput.obj
 0001:00026b20       ?rotate@PxMat44@physx@@QEBA?BVPxVec3@2@AEBV32@@Z 0000000180027b20 f i CmRenderOutput.obj
 0001:00026b90       ?rotate@PxMat44@physx@@QEBA?BVPxVec4@2@AEBV32@@Z 0000000180027b90 f i CmRenderOutput.obj
 0001:00026c80       ?sin@intrinsics@physx@@YAMM@Z 0000000180027c80 f i CmRenderOutput.obj
 0001:00026cb0       ?size@?$Array@DVNamedAllocator@shdfnd@physx@@@shdfnd@physx@@QEBAIXZ 0000000180027cb0 f i CmRenderOutput.obj
 0001:00026cd0       ?size@?$Array@UPxDebugLine@physx@@VNamedAllocator@shdfnd@2@@shdfnd@physx@@QEBAIXZ 0000000180027cd0 f i CmRenderOutput.obj
 0001:00026cf0       ?size@?$Array@UPxDebugText@physx@@VNamedAllocator@shdfnd@2@@shdfnd@physx@@QEBAIXZ 0000000180027cf0 f i CmRenderOutput.obj
 0001:00026d10       ?transform@PxMat44@physx@@QEBA?BVPxVec3@2@AEBV32@@Z 0000000180027d10 f i CmRenderOutput.obj
 0001:00026d80       ?transform@PxMat44@physx@@QEBA?BVPxVec4@2@AEBV32@@Z 0000000180027d80 f i CmRenderOutput.obj
 0001:00027000       ?visualizeJointFrames@Cm@physx@@YAXAEAVRenderOutput@12@MAEBVPxTransform@2@1@Z 0000000180028000 f   CmVisualization.obj
 0001:00027140       ?visualizeLinearLimit@Cm@physx@@YAXAEAVRenderOutput@12@MAEBVPxTransform@2@1M_N@Z 0000000180028140 f   CmVisualization.obj
 0001:000272f0       ?visualizeAngularLimit@Cm@physx@@YAXAEAVRenderOutput@12@MAEBVPxTransform@2@MM_N@Z 00000001800282f0 f   CmVisualization.obj
 0001:000275c0       ?visualizeLimitCone@Cm@physx@@YAXAEAVRenderOutput@12@MAEBVPxTransform@2@MM_N@Z 00000001800285c0 f   CmVisualization.obj
 0001:000278f0       ?visualizeDoubleCone@Cm@physx@@YAXAEAVRenderOutput@12@MAEBVPxTransform@2@M_N@Z 00000001800288f0 f   CmVisualization.obj
 0001:000280f0       ??$PX_UNUSED@W4PxZERO@physx@@@@YAXAEBW4PxZERO@physx@@@Z 00000001800290f0 f i CmVisualization.obj
 0001:00028100       ??0DebugArrow@Cm@physx@@QEAA@AEBVPxVec3@2@0@Z 0000000180029100 f i CmVisualization.obj
 0001:00028180       ??0DebugBasis@Cm@physx@@QEAA@AEBVPxVec3@2@III@Z 0000000180029180 f i CmVisualization.obj
 0001:000281f0       ??0PxQuat@physx@@QEAA@MAEBVPxVec3@1@@Z 00000001800291f0 f i CmVisualization.obj
 0001:00028350       ??0PxTransform@physx@@QEAA@W4PxIDENTITY@1@@Z 0000000180029350 f i CmVisualization.obj
 0001:000283b0       ??0PxVec3@physx@@QEAA@W4PxZERO@1@@Z 00000001800293b0 f i CmVisualization.obj
 0001:00028410       ??DPxQuat@physx@@QEBA?AV01@AEBV01@@Z 0000000180029410 f i CmVisualization.obj
 0001:00028620       ?getBasisVector0@PxQuat@physx@@QEBA?AVPxVec3@2@XZ 0000000180029620 f i CmVisualization.obj
 0001:00028740       ?rotate@PxQuat@physx@@QEBA?BVPxVec3@2@AEBV32@@Z 0000000180029740 f i CmVisualization.obj
 0001:00028a10       ?contactBoxBox@Gu@physx@@YA_NAEBVGeometryUnion@12@0AEBVPxTransform@2@1AEBUNarrowPhaseParams@12@AEAUCache@12@AEAVContactBuffer@12@PEAVRenderOutput@Cm@2@@Z 0000000180029a10 f   GuContactBoxBox.obj
 0001:0002d340       ??$PX_UNUSED@PEAVRenderOutput@Cm@physx@@@@YAXAEBQEAVRenderOutput@Cm@physx@@@Z 000000018002e340 f i GuContactBoxBox.obj
 0001:0002d350       ??$PX_UNUSED@VGeometryUnion@Gu@physx@@@@YAXAEBVGeometryUnion@Gu@physx@@@Z 000000018002e350 f i GuContactBoxBox.obj
 0001:0002d360       ??$checkType@$$CBVPxBoxGeometry@physx@@@physx@@YAXAEBVGeometryUnion@Gu@0@@Z 000000018002e360 f i GuContactBoxBox.obj
 0001:0002d3f0       ??$get@$$CBVPxBoxGeometry@physx@@@GeometryUnion@Gu@physx@@QEBAAEBVPxBoxGeometry@2@XZ 000000018002e3f0 f i GuContactBoxBox.obj
 0001:0002d420       ??0?$PxFlags@W4Enum@PxBaseFlag@physx@@G@physx@@QEAA@AEBV01@@Z 000000018002e420 f i GuContactBoxBox.obj
 0001:0002d450       ??0Box@Gu@physx@@QEAA@AEBV012@@Z 000000018002e450 f i GuContactBoxBox.obj
 0001:0002d4d0       ??0Box@Gu@physx@@QEAA@AEBVPxVec3@2@0AEBVPxMat33@2@@Z 000000018002e4d0 f i GuContactBoxBox.obj
 0001:0002d550       ??0Box@Gu@physx@@QEAA@XZ   000000018002e550 f i GuContactBoxBox.obj
 0001:0002d5b0       ??0GeometryUnion@Gu@physx@@QEAA@AEBVPxGeometry@2@@Z 000000018002e5b0 f i GuContactBoxBox.obj
 0001:0002d5e0       ??0GeometryUnion@Gu@physx@@QEAA@W4PxEMPTY@2@@Z 000000018002e5e0 f i GuContactBoxBox.obj
 0001:0002d600       ??0GeometryUnion@Gu@physx@@QEAA@XZ 000000018002e600 f i GuContactBoxBox.obj
 0001:0002d630       ??0InvalidGeometry@Gu@physx@@QEAA@XZ 000000018002e630 f i GuContactBoxBox.obj
 0001:0002d660       ??0MaterialIndicesStruct@physx@@QEAA@W4PxEMPTY@1@@Z 000000018002e660 f i GuContactBoxBox.obj
 0001:0002d680       ??0MaterialIndicesStruct@physx@@QEAA@XZ 000000018002e680 f i GuContactBoxBox.obj
 0001:0002d6b0       ??0Matrix34@Cm@physx@@QEAA@AEBVPxMat33@2@AEBVPxVec3@2@@Z 000000018002e6b0 f i GuContactBoxBox.obj
 0001:0002d710       ??0Matrix34@Cm@physx@@QEAA@AEBVPxTransform@2@@Z 000000018002e710 f i GuContactBoxBox.obj
 0001:0002d770       ??0Matrix34@Cm@physx@@QEAA@XZ 000000018002e770 f i GuContactBoxBox.obj
 0001:0002d7b0       ??0PxGeometry@physx@@IEAA@W4Enum@PxGeometryType@1@@Z 000000018002e7b0 f i GuContactBoxBox.obj
 0001:0002d7d0       ??0PxMat33@physx@@QEAA@AEBV01@@Z 000000018002e7d0 f i GuContactBoxBox.obj
 0001:0002d850       ??0PxMat33@physx@@QEAA@AEBVPxVec3@1@00@Z 000000018002e850 f i GuContactBoxBox.obj
 0001:0002d8d0       ??0PxMat33@physx@@QEAA@W4PxIDENTITY@1@@Z 000000018002e8d0 f i GuContactBoxBox.obj
 0001:0002d970       ??0PxMat33@physx@@QEAA@XZ  000000018002e970 f i GuContactBoxBox.obj
 0001:0002d9d0       ??0PxQuat@physx@@QEAA@AEBVPxMat33@1@@Z 000000018002e9d0 f i GuContactBoxBox.obj
 0001:0002df40       ??0VertexInfo@@QEAA@XZ     000000018002ef40 f i GuContactBoxBox.obj
 0001:0002df70       ??1Box@Gu@physx@@QEAA@XZ   000000018002ef70 f i GuContactBoxBox.obj
 0001:0002df80       ??1MaterialIndicesStruct@physx@@QEAA@XZ 000000018002ef80 f i GuContactBoxBox.obj
 0001:0002df90       ??1PxBase@physx@@MEAA@XZ   000000018002ef90 f i GuContactBoxBox.obj
 0001:0002dfb0       ??1PxConvexMesh@physx@@MEAA@XZ 000000018002efb0 f i GuContactBoxBox.obj
 0001:0002dfe0       ??4Box@Gu@physx@@QEAAAEBV012@AEBV012@@Z 000000018002efe0 f i GuContactBoxBox.obj
 0001:0002e060       ??4GeometryUnion@Gu@physx@@QEAAAEAV012@$$QEAV012@@Z 000000018002f060 f i GuContactBoxBox.obj
 0001:0002e090       ??4GeometryUnion@Gu@physx@@QEAAAEAV012@AEBV012@@Z 000000018002f090 f i GuContactBoxBox.obj
 0001:0002e0c0       ??4MaterialIndicesStruct@physx@@QEAAAEAU01@AEBU01@@Z 000000018002f0c0 f i GuContactBoxBox.obj
 0001:0002e0f0       ??4PxMat33@physx@@QEAAAEAV01@AEBV01@@Z 000000018002f0f0 f i GuContactBoxBox.obj
 0001:0002e170       ??APxMat33@physx@@QEBAAEBVPxVec3@1@I@Z 000000018002f170 f i GuContactBoxBox.obj
 0001:0002e1a0       ??B?$PxFlags@W4Enum@PxBaseFlag@physx@@G@physx@@QEBA_NXZ 000000018002f1a0 f i GuContactBoxBox.obj
 0001:0002e1e0       ??DMatrix34@Cm@physx@@QEBA?AV012@AEBV012@@Z 000000018002f1e0 f i GuContactBoxBox.obj
 0001:0002e2d0       ??DPxMat33@physx@@QEBA?BV01@AEBV01@@Z 000000018002f2d0 f i GuContactBoxBox.obj
 0001:0002e390       ??DPxMat33@physx@@QEBA?BVPxVec3@1@AEBV21@@Z 000000018002f390 f i GuContactBoxBox.obj
 0001:0002e3d0       ??I?$PxFlags@W4Enum@PxBaseFlag@physx@@G@physx@@QEBA?AV01@W4Enum@PxBaseFlag@1@@Z 000000018002f3d0 f i GuContactBoxBox.obj
 0001:0002e440       ??YPxVec3@physx@@QEAAAEAV01@AEBV01@@Z 000000018002f440 f i GuContactBoxBox.obj
 0001:0002e4c0       ??ZPxVec3@physx@@QEAAAEAV01@AEBV01@@Z 000000018002f4c0 f i GuContactBoxBox.obj
 0001:0002e540       ??_EPxConvexMesh@physx@@MEAAPEAXI@Z 000000018002f540 f i GuContactBoxBox.obj
 0001:0002e600       ??_GPxBase@physx@@MEAAPEAXI@Z 000000018002f600 f i GuContactBoxBox.obj
 0001:0002e600       ??_EPxBase@physx@@MEAAPEAXI@Z 000000018002f600 f i GuContactBoxBox.obj
 0001:0002e650       ??_H@YAXPEAX_K1P6APEAX0@Z@Z 000000018002f650 f i GuContactBoxBox.obj
 0001:0002e6f0       ?FLoad@aos@shdfnd@physx@@YA?AT__m128@@M@Z 000000018002f6f0 f i GuContactBoxBox.obj
 0001:0002e720       ?V3Load@aos@shdfnd@physx@@YA?AT__m128@@M@Z 000000018002f720 f i GuContactBoxBox.obj
 0001:0002e770       ?V4Load@aos@shdfnd@physx@@YA?AT__m128@@M@Z 000000018002f770 f i GuContactBoxBox.obj
 0001:0002e7a0       ?allocate@MaterialIndicesStruct@physx@@QEAAXG@Z 000000018002f7a0 f i GuContactBoxBox.obj
 0001:0002e830       ?computeAABBExtent@Box@Gu@physx@@QEBA?AVPxVec3@3@XZ 000000018002f830 f i GuContactBoxBox.obj
 0001:0002eb50       ?computeBoxPoints@Box@Gu@physx@@QEBAXPEIAVPxVec3@3@@Z 000000018002fb50 f i GuContactBoxBox.obj
 0001:0002ebd0       ?contact@ContactBuffer@Gu@physx@@QEAA_NAEBVPxVec3@3@0MI@Z 000000018002fbd0 f i GuContactBoxBox.obj
 0001:0002ed30       ?deallocate@MaterialIndicesStruct@physx@@QEAAXXZ 000000018002fd30 f i GuContactBoxBox.obj
 0001:0002ed80       ?dot@PxVec3@physx@@QEBAMAEBV12@@Z 000000018002fd80 f i GuContactBoxBox.obj
 0001:0002ede0       ?getConcreteTypeName@PxConvexMesh@physx@@UEBAPEBDXZ 000000018002fde0 f i GuContactBoxBox.obj
 0001:0002edf0       ?getGeometry@GeometryUnion@Gu@physx@@QEBAAEBVPxGeometry@3@XZ 000000018002fdf0 f i GuContactBoxBox.obj
 0001:0002ee00       ?getInverseRT@Matrix34@Cm@physx@@QEBA?AV123@XZ 000000018002fe00 f i GuContactBoxBox.obj
 0001:0002eea0       ?getTransform@Box@Gu@physx@@QEBA?AVPxTransform@3@XZ 000000018002fea0 f i GuContactBoxBox.obj
 0001:0002ef00       ?getTranspose@PxMat33@physx@@QEBA?BV12@XZ 000000018002ff00 f i GuContactBoxBox.obj
 0001:0002efe0       ?getType@GeometryUnion@Gu@physx@@QEBA?AW4Enum@PxGeometryType@3@XZ 000000018002ffe0 f i GuContactBoxBox.obj
 0001:0002f010       ?getType@PxGeometry@physx@@QEBA?AW4Enum@PxGeometryType@2@XZ 0000000180030010 f i GuContactBoxBox.obj
 0001:0002f020       ?isKindOf@PxBase@physx@@MEBA_NPEBD@Z 0000000180030020 f i GuContactBoxBox.obj
 0001:0002f070       ?isKindOf@PxConvexMesh@physx@@MEBA_NPEBD@Z 0000000180030070 f i GuContactBoxBox.obj
 0001:0002f0e0       ?isReleasable@PxBase@physx@@UEBA_NXZ 00000001800300e0 f i GuContactBoxBox.obj
 0001:0002f120       ?isValid@Box@Gu@physx@@QEBA_NXZ 0000000180030120 f i GuContactBoxBox.obj
 0001:0002f170       ?reset@ContactBuffer@Gu@physx@@QEAAXXZ 0000000180030170 f i GuContactBoxBox.obj
 0001:0002f190       ?rotate@Box@Gu@physx@@QEBA?AVPxVec3@3@AEBV43@@Z 0000000180030190 f i GuContactBoxBox.obj
 0001:0002f1e0       ?rotateInv@Box@Gu@physx@@QEBA?AVPxVec3@3@AEBV43@@Z 00000001800301e0 f i GuContactBoxBox.obj
 0001:0002f230       ?setAxes@Box@Gu@physx@@QEAAXAEBVPxVec3@3@00@Z 0000000180030230 f i GuContactBoxBox.obj
 0001:0002f2b0       ?setEmpty@Box@Gu@physx@@QEAAXXZ 00000001800302b0 f i GuContactBoxBox.obj
 0001:0002f350       ?to8@shdfnd@physx@@YAEI@Z  0000000180030350 f i GuContactBoxBox.obj
 0001:0002f3d0       ?transform@Box@Gu@physx@@QEBA?AVPxVec3@3@AEBV43@@Z 00000001800303d0 f i GuContactBoxBox.obj
 0001:0002f440       ?transform@Matrix34@Cm@physx@@QEBA?AVPxVec3@3@AEBV43@@Z 0000000180030440 f i GuContactBoxBox.obj
 0001:0002f4b0       ?transform@PxMat33@physx@@QEBA?BVPxVec3@2@AEBV32@@Z 00000001800304b0 f i GuContactBoxBox.obj
 0001:0002f590       ?transformTranspose@PxMat33@physx@@QEBA?BVPxVec3@2@AEBV32@@Z 0000000180030590 f i GuContactBoxBox.obj
 0001:0002f6c0       ?contactCapsuleBox@Gu@physx@@YA_NAEBVGeometryUnion@12@0AEBVPxTransform@2@1AEBUNarrowPhaseParams@12@AEAUCache@12@AEAVContactBuffer@12@PEAVRenderOutput@Cm@2@@Z 00000001800306c0 f   GuContactCapsuleBox.obj
 0001:00031400       ??$PX_UNUSED@UCache@Gu@physx@@@@YAXAEBUCache@Gu@physx@@@Z 0000000180032400 f i GuContactCapsuleBox.obj
 0001:00031410       ??$checkType@$$CBVPxCapsuleGeometry@physx@@@physx@@YAXAEBVGeometryUnion@Gu@0@@Z 0000000180032410 f i GuContactCapsuleBox.obj
 0001:000314b0       ??$get@$$CBVPxCapsuleGeometry@physx@@@GeometryUnion@Gu@physx@@QEBAAEBVPxCapsuleGeometry@2@XZ 00000001800324b0 f i GuContactCapsuleBox.obj
 0001:000314e0       ??$swap@M@shdfnd@physx@@YAXAEAM0@Z 00000001800324e0 f i GuContactCapsuleBox.obj
 0001:00031540       ??0PxPlane@physx@@QEAA@XZ  0000000180032540 f i GuContactCapsuleBox.obj
 0001:00031570       ??0Segment@Gu@physx@@QEAA@XZ 0000000180032570 f i GuContactCapsuleBox.obj
 0001:000315b0       ??1Segment@Gu@physx@@QEAA@XZ 00000001800325b0 f i GuContactCapsuleBox.obj
 0001:000315c0       ??APxVec3@physx@@QEAAAEAMI@Z 00000001800325c0 f i GuContactCapsuleBox.obj
 0001:00031650       ?PxRecipSqrt@physx@@YAMM@Z 0000000180032650 f i GuContactCapsuleBox.obj
 0001:00031670       ?QuatGetMat33V@aos@shdfnd@physx@@YAXAEBT__m128@@AEAT4@11@Z 0000000180032670 f i GuContactCapsuleBox.obj
 0001:00031b10       ?V4Add@aos@shdfnd@physx@@YA?AT__m128@@T4@0@Z 0000000180032b10 f i GuContactCapsuleBox.obj
 0001:00031b50       ?V4ClearW@aos@shdfnd@physx@@YA?AT__m128@@T4@@Z 0000000180032b50 f i GuContactCapsuleBox.obj
 0001:00031b80       ?V4GetW@aos@shdfnd@physx@@YA?AT__m128@@T4@@Z 0000000180032b80 f i GuContactCapsuleBox.obj
 0001:00031bb0       ?V4GetX@aos@shdfnd@physx@@YA?AT__m128@@T4@@Z 0000000180032bb0 f i GuContactCapsuleBox.obj
 0001:00031be0       ?V4GetY@aos@shdfnd@physx@@YA?AT__m128@@T4@@Z 0000000180032be0 f i GuContactCapsuleBox.obj
 0001:00031c10       ?V4GetZ@aos@shdfnd@physx@@YA?AT__m128@@T4@@Z 0000000180032c10 f i GuContactCapsuleBox.obj
 0001:00031c40       ?V4LoadU@aos@shdfnd@physx@@YA?AT__m128@@QEBM@Z 0000000180032c40 f i GuContactCapsuleBox.obj
 0001:00031c70       ?V4Mul@aos@shdfnd@physx@@YA?AT__m128@@T4@0@Z 0000000180032c70 f i GuContactCapsuleBox.obj
 0001:00031cb0       ?V4MulAdd@aos@shdfnd@physx@@YA?AT__m128@@T4@00@Z 0000000180032cb0 f i GuContactCapsuleBox.obj
 0001:00031d60       ?V4Neg@aos@shdfnd@physx@@YA?AT__m128@@T4@@Z 0000000180032d60 f i GuContactCapsuleBox.obj
 0001:00031da0       ?V4StoreU@aos@shdfnd@physx@@YAXT__m128@@PEAM@Z 0000000180032da0 f i GuContactCapsuleBox.obj
 0001:00031dd0       ?Vec3V_From_Vec4V@aos@shdfnd@physx@@YA?AT__m128@@T4@@Z 0000000180032dd0 f i GuContactCapsuleBox.obj
 0001:00031e10       ?Vec4V_From_Vec3V@aos@shdfnd@physx@@YA?AT__m128@@T4@@Z 0000000180032e10 f i GuContactCapsuleBox.obj
 0001:00031e30       ?buildFrom@physx@@YAXAEAVBox@Gu@1@AEBVPxQuat@1@@Z 0000000180032e30 f i GuContactCapsuleBox.obj
 0001:00031fb0       ?buildFrom@physx@@YAXAEAVBox@Gu@1@AEBVPxVec3@1@1AEBVPxQuat@1@@Z 0000000180032fb0 f i GuContactCapsuleBox.obj
 0001:00032020       ?closestAxis@shdfnd@physx@@YAIAEBVPxVec3@2@AEAI1@Z 0000000180033020 f i GuContactCapsuleBox.obj
 0001:00032140       ?computeCenter@Segment@Gu@physx@@QEBA?AVPxVec3@3@XZ 0000000180033140 f i GuContactCapsuleBox.obj
 0001:000321a0       ?distance@PxPlane@physx@@QEBAMAEBVPxVec3@2@@Z 00000001800331a0 f i GuContactCapsuleBox.obj
 0001:000321e0       ?getCapsuleHalfHeightVector@Gu@physx@@YA?AVPxVec3@2@AEBVPxTransform@2@AEBVPxCapsuleGeometry@2@@Z 00000001800331e0 f i GuContactCapsuleBox.obj
 0001:00032240       ?getCapsuleSegment@Gu@physx@@YAXAEBVPxTransform@2@AEBVPxCapsuleGeometry@2@AEAVSegment@12@@Z 0000000180033240 f i GuContactCapsuleBox.obj
 0001:000322e0       ?getNormalized@PxVec3@physx@@QEBA?AV12@XZ 00000001800332e0 f i GuContactCapsuleBox.obj
 0001:00032390       ?getPointAt@Segment@Gu@physx@@QEBA?AVPxVec3@3@M@Z 0000000180033390 f i GuContactCapsuleBox.obj
 0001:00032430       ?isAlmostZero@shdfnd@physx@@YA_NAEBVPxVec3@2@@Z 0000000180033430 f i GuContactCapsuleBox.obj
 0001:000324b0       ?makeFatEdge@shdfnd@physx@@YAXAEAVPxVec3@2@0M@Z 00000001800334b0 f i GuContactCapsuleBox.obj
 0001:00032560       ?recipSqrt@intrinsics@physx@@YAMM@Z 0000000180033560 f i GuContactCapsuleBox.obj
 0001:000325a0       ?selectMin@intrinsics@physx@@YAMMM@Z 00000001800335a0 f i GuContactCapsuleBox.obj
 0001:00032670       ?contactCapsuleCapsule@Gu@physx@@YA_NAEBVGeometryUnion@12@0AEBVPxTransform@2@1AEBUNarrowPhaseParams@12@AEAUCache@12@AEAVContactBuffer@12@PEAVRenderOutput@Cm@2@@Z 0000000180033670 f   GuContactCapsuleCapsule.obj
 0001:000332e0       ?computeDirection@Segment@Gu@physx@@QEBA?AVPxVec3@3@XZ 00000001800342e0 f i GuContactCapsuleCapsule.obj
 0001:00033320       ?distanceSegmentSegmentSquared@Gu@physx@@YAMAEBVSegment@12@0PEAM1@Z 0000000180034320 f i GuContactCapsuleCapsule.obj
 0001:00033500       ?contactCapsuleConvex@Gu@physx@@YA_NAEBVGeometryUnion@12@0AEBVPxTransform@2@1AEBUNarrowPhaseParams@12@AEAUCache@12@AEAVContactBuffer@12@PEAVRenderOutput@Cm@2@@Z 0000000180034500 f   GuContactCapsuleConvex.obj
 0001:00035be0       ??$checkType@$$CBUPxConvexMeshGeometryLL@physx@@@physx@@YAXAEBVGeometryUnion@Gu@0@@Z 0000000180036be0 f i GuContactCapsuleConvex.obj
 0001:00035c70       ??$get@$$CBUPxConvexMeshGeometryLL@physx@@@GeometryUnion@Gu@physx@@QEBAAEBUPxConvexMeshGeometryLL@2@XZ 0000000180036c70 f i GuContactCapsuleConvex.obj
 0001:00035ca0       ??$getConvex@VCapsuleV@Gu@physx@@@GjkConvexBase@Gu@physx@@QEBAAEBVCapsuleV@12@XZ 0000000180036ca0 f i GuContactCapsuleConvex.obj
 0001:00035cc0       ??$getConvex@VConvexHullV@Gu@physx@@@GjkConvexBase@Gu@physx@@QEBAAEBVConvexHullV@12@XZ 0000000180036cc0 f i GuContactCapsuleConvex.obj
 0001:00035ce0       ??$gjk@U?$LocalConvex@VCapsuleV@Gu@physx@@@Gu@physx@@U?$LocalConvex@VConvexHullV@Gu@physx@@@23@@Gu@physx@@YA?AW4GjkStatus@01@AEBU?$LocalConvex@VCapsuleV@Gu@physx@@@01@AEBU?$LocalConvex@VConvexHullV@Gu@physx@@@01@AEBT__m128@@2AEAT5@333@Z 0000000180036ce0 f i GuContactCapsuleConvex.obj
 0001:00037210       ??0?$LocalConvex@VCapsuleV@Gu@physx@@@Gu@physx@@QEAA@AEBVCapsuleV@12@@Z 0000000180038210 f i GuContactCapsuleConvex.obj
 0001:00037260       ??0?$LocalConvex@VConvexHullV@Gu@physx@@@Gu@physx@@QEAA@AEBVConvexHullV@12@@Z 0000000180038260 f i GuContactCapsuleConvex.obj
 0001:000372b0       ??0?$PxBitAndDataT@G$0IAAA@@physx@@QEAA@W4PxEMPTY@1@@Z 00000001800382b0 f i GuContactCapsuleConvex.obj
 0001:000372d0       ??0?$PxBitAndDataT@I$0IAAAAAAA@@physx@@QEAA@W4PxEMPTY@1@@Z 00000001800382d0 f i GuContactCapsuleConvex.obj
 0001:000372f0       ??0CapsuleV@Gu@physx@@QEAA@AEBT__m128@@00@Z 00000001800382f0 f i GuContactCapsuleConvex.obj
 0001:000374e0       ??0CenterExtents@Gu@physx@@QEAA@XZ 00000001800384e0 f i GuContactCapsuleConvex.obj
 0001:00037520       ??0ConvexEdge@Gu@physx@@QEAA@XZ 0000000180038520 f i GuContactCapsuleConvex.obj
 0001:00037550       ??0ConvexHullData@Gu@physx@@QEAA@W4PxEMPTY@2@@Z 0000000180038550 f i GuContactCapsuleConvex.obj
 0001:000375b0       ??0ConvexHullV@Gu@physx@@QEAA@PEBUConvexHullData@12@AEBT__m128@@11_N@Z 00000001800385b0 f i GuContactCapsuleConvex.obj
 0001:00037720       ??0ConvexMesh@Gu@physx@@QEAA@V?$PxFlags@W4Enum@PxBaseFlag@physx@@G@2@@Z 0000000180038720 f i GuContactCapsuleConvex.obj
 0001:00037810       ??0ConvexV@Gu@physx@@QEAA@W4Type@ConvexType@12@AEBT__m128@@@Z 0000000180038810 f i GuContactCapsuleConvex.obj
 0001:000378a0       ??0FastVertex2ShapeScaling@Cm@physx@@QEAA@XZ 00000001800388a0 f i GuContactCapsuleConvex.obj
 0001:00037950       ??0GjkConvex@Gu@physx@@QEAA@AEBVConvexV@12@@Z 0000000180038950 f i GuContactCapsuleConvex.obj
 0001:000379a0       ??0GjkConvexBase@Gu@physx@@QEAA@AEBVConvexV@12@@Z 00000001800389a0 f i GuContactCapsuleConvex.obj
 0001:000379e0       ??0HullPolygonData@Gu@physx@@QEAA@AEBU012@@Z 00000001800389e0 f i GuContactCapsuleConvex.obj
 0001:00037a60       ??0Mat33V@aos@shdfnd@physx@@QEAA@AEBT__m128@@00@Z 0000000180038a60 f i GuContactCapsuleConvex.obj
 0001:00037ac0       ??0Mat33V@aos@shdfnd@physx@@QEAA@XZ 0000000180038ac0 f i GuContactCapsuleConvex.obj
 0001:00037ad0       ??0PolygonalBox@Gu@physx@@QEAA@AEBV012@@Z 0000000180038ad0 f i GuContactCapsuleConvex.obj
 0001:00037b80       ??0PolygonalData@Gu@physx@@QEAA@XZ 0000000180038b80 f i GuContactCapsuleConvex.obj
 0001:00037bb0       ??0PsMatTransformV@aos@shdfnd@physx@@QEAA@AEBVPsTransformV@123@@Z 0000000180038bb0 f i GuContactCapsuleConvex.obj
 0001:00037c40       ??0PsTransformV@aos@shdfnd@physx@@QEAA@AEBVPxTransform@3@@Z 0000000180038c40 f i GuContactCapsuleConvex.obj
 0001:00037ce0       ??0PxBase@physx@@IEAA@V?$PxFlags@W4Enum@PxBaseFlag@physx@@G@1@@Z 0000000180038ce0 f i GuContactCapsuleConvex.obj
 0001:00037d30       ??0PxConvexMesh@physx@@IEAA@V?$PxFlags@W4Enum@PxBaseFlag@physx@@G@1@@Z 0000000180038d30 f i GuContactCapsuleConvex.obj
 0001:00037d90       ??0PxMeshScale@physx@@QEAA@AEBVPxVec3@1@AEBVPxQuat@1@@Z 0000000180038d90 f i GuContactCapsuleConvex.obj
 0001:00037e80       ??0RefCountable@Cm@physx@@QEAA@W4PxEMPTY@2@@Z 0000000180038e80 f i GuContactCapsuleConvex.obj
 0001:00037ec0       ??1?$LocalConvex@VCapsuleV@Gu@physx@@@Gu@physx@@UEAA@XZ 0000000180038ec0 f i GuContactCapsuleConvex.obj
 0001:00037ee0       ??1?$LocalConvex@VConvexHullV@Gu@physx@@@Gu@physx@@UEAA@XZ 0000000180038ee0 f i GuContactCapsuleConvex.obj
 0001:00037f00       ??1CapsuleV@Gu@physx@@QEAA@XZ 0000000180038f00 f i GuContactCapsuleConvex.obj
 0001:00037f20       ??1ConvexHullV@Gu@physx@@QEAA@XZ 0000000180038f20 f i GuContactCapsuleConvex.obj
 0001:00037f40       ??1ConvexV@Gu@physx@@IEAA@XZ 0000000180038f40 f i GuContactCapsuleConvex.obj
 0001:00037f50       ??1GjkConvex@Gu@physx@@UEAA@XZ 0000000180038f50 f i GuContactCapsuleConvex.obj
 0001:00037f70       ??1GjkConvexBase@Gu@physx@@UEAA@XZ 0000000180038f70 f i GuContactCapsuleConvex.obj
 0001:00037f90       ??1RefCountable@Cm@physx@@UEAA@XZ 0000000180038f90 f i GuContactCapsuleConvex.obj
 0001:00037fb0       ??4FPUGuard@shdfnd@physx@@QEAAAEAV012@AEBV012@@Z 0000000180038fb0 f i GuContactCapsuleConvex.obj
 0001:00037fe0       ??8PxVec3@physx@@QEBA_NAEBV01@@Z 0000000180038fe0 f i GuContactCapsuleConvex.obj
 0001:00038060       ??B?$PxBitAndDataT@G$0IAAA@@physx@@QEBAGXZ 0000000180039060 f i GuContactCapsuleConvex.obj
 0001:00038080       ??DFastVertex2ShapeScaling@Cm@physx@@QEBA?AVPxVec3@2@AEBV32@@Z 0000000180039080 f i GuContactCapsuleConvex.obj
 0001:000380d0       ??Dphysx@@YA?AVMatrix34@Cm@0@AEBVPxMeshScale@0@AEBVPxTransform@0@@Z 00000001800390d0 f i GuContactCapsuleConvex.obj
 0001:000381a0       ??_EConvexMesh@Gu@physx@@UEAAPEAXI@Z 00000001800391a0 f i GuContactCapsuleConvex.obj
 0001:000382ac       ??_EConvexMesh@Gu@physx@@WBA@EAAPEAXI@Z 00000001800392ac f i GuContactCapsuleConvex.obj
 0001:000382c0       ??_G?$LocalConvex@VCapsuleV@Gu@physx@@@Gu@physx@@UEAAPEAXI@Z 00000001800392c0 f i GuContactCapsuleConvex.obj
 0001:000382c0       ??_E?$LocalConvex@VCapsuleV@Gu@physx@@@Gu@physx@@UEAAPEAXI@Z 00000001800392c0 f i GuContactCapsuleConvex.obj
 0001:00038310       ??_G?$LocalConvex@VConvexHullV@Gu@physx@@@Gu@physx@@UEAAPEAXI@Z 0000000180039310 f i GuContactCapsuleConvex.obj
 0001:00038310       ??_E?$LocalConvex@VConvexHullV@Gu@physx@@@Gu@physx@@UEAAPEAXI@Z 0000000180039310 f i GuContactCapsuleConvex.obj
 0001:00038360       ??_GGjkConvex@Gu@physx@@UEAAPEAXI@Z 0000000180039360 f i GuContactCapsuleConvex.obj
 0001:00038360       ??_EGjkConvex@Gu@physx@@UEAAPEAXI@Z 0000000180039360 f i GuContactCapsuleConvex.obj
 0001:000383b0       ??_EGjkConvexBase@Gu@physx@@UEAAPEAXI@Z 00000001800393b0 f i GuContactCapsuleConvex.obj
 0001:000383b0       ??_GGjkConvexBase@Gu@physx@@UEAAPEAXI@Z 00000001800393b0 f i GuContactCapsuleConvex.obj
 0001:00038400       ??_GRefCountable@Cm@physx@@UEAAPEAXI@Z 0000000180039400 f i GuContactCapsuleConvex.obj
 0001:00038400       ??_ERefCountable@Cm@physx@@UEAAPEAXI@Z 0000000180039400 f i GuContactCapsuleConvex.obj
 0001:00038450       ??_VUserAllocated@shdfnd@physx@@SAXPEAX@Z 0000000180039450 f i GuContactCapsuleConvex.obj
 0001:00038480       ??__G@YAXPEAX0_K1P6APEAX00@Z@Z 0000000180039480 f i GuContactCapsuleConvex.obj
 0001:00038540       ?BAllEqTTTT@aos@shdfnd@physx@@YAIT__m128@@@Z 0000000180039540 f i GuContactCapsuleConvex.obj
 0001:00038580       ?BAllTrue3_R@internalWindowsSimd@aos@shdfnd@physx@@YAIT__m128@@@Z 0000000180039580 f i GuContactCapsuleConvex.obj
 0001:000385d0       ?BAllTrue4_R@internalWindowsSimd@aos@shdfnd@physx@@YAIT__m128@@@Z 00000001800395d0 f i GuContactCapsuleConvex.obj
 0001:00038620       ?BAnd@aos@shdfnd@physx@@YA?AT__m128@@T4@0@Z 0000000180039620 f i GuContactCapsuleConvex.obj
 0001:00038660       ?BFFFF@aos@shdfnd@physx@@YA?AT__m128@@XZ 0000000180039660 f i GuContactCapsuleConvex.obj
 0001:00038680       ?BLoad@aos@shdfnd@physx@@YA?AT__m128@@_N@Z 0000000180039680 f i GuContactCapsuleConvex.obj
 0001:000386c0       ?BTTTF@aos@shdfnd@physx@@YA?AT__m128@@XZ 00000001800396c0 f i GuContactCapsuleConvex.obj
 0001:00038710       ?BTTTT@aos@shdfnd@physx@@YA?AT__m128@@XZ 0000000180039710 f i GuContactCapsuleConvex.obj
 0001:00038760       ?CalculateConvexMargin@Gu@physx@@YAXPEBUConvexHullData@12@AEAM11AEBT__m128@@@Z 0000000180039760 f i GuContactCapsuleConvex.obj
 0001:00038a20       ?ComputeCubemapNearestOffset@physx@@YAIAEBVPxVec3@1@I@Z 0000000180039a20 f i GuContactCapsuleConvex.obj
 0001:00038b30       ?ConstructSkewMatrix@Gu@physx@@YAXAEBT__m128@@0AEAUMat33V@aos@shdfnd@2@1AEAT3@_N@Z 0000000180039b30 f i GuContactCapsuleConvex.obj
 0001:00039210       ?CubemapLookup@physx@@YA?AW4CubeIndex@1@AEBVPxVec3@1@AEAM1@Z 000000018003a210 f i GuContactCapsuleConvex.obj
 0001:00039420       ?FAbs@aos@shdfnd@physx@@YA?AT__m128@@T4@@Z 000000018003a420 f i GuContactCapsuleConvex.obj
 0001:000394f0       ?FAdd@aos@shdfnd@physx@@YA?AT__m128@@T4@0@Z 000000018003a4f0 f i GuContactCapsuleConvex.obj
 0001:00039640       ?FAllEq@aos@shdfnd@physx@@YAIT__m128@@0@Z 000000018003a640 f i GuContactCapsuleConvex.obj
 0001:00039780       ?FAllGrtr@aos@shdfnd@physx@@YAIT__m128@@0@Z 000000018003a780 f i GuContactCapsuleConvex.obj
 0001:000398b0       ?FAllGrtrOrEq@aos@shdfnd@physx@@YAIT__m128@@0@Z 000000018003a8b0 f i GuContactCapsuleConvex.obj
 0001:000399e0       ?FClamp@aos@shdfnd@physx@@YA?AT__m128@@T4@00@Z 000000018003a9e0 f i GuContactCapsuleConvex.obj
 0001:00039b50       ?FDiv@aos@shdfnd@physx@@YA?AT__m128@@T4@0@Z 000000018003ab50 f i GuContactCapsuleConvex.obj
 0001:00039ca0       ?FEps@aos@shdfnd@physx@@YA?AT__m128@@XZ 000000018003aca0 f i GuContactCapsuleConvex.obj
 0001:00039cd0       ?FIsGrtr@aos@shdfnd@physx@@YA?AT__m128@@T4@0@Z 000000018003acd0 f i GuContactCapsuleConvex.obj
 0001:00039e20       ?FIsGrtrOrEq@aos@shdfnd@physx@@YA?AT__m128@@T4@0@Z 000000018003ae20 f i GuContactCapsuleConvex.obj
 0001:00039f70       ?FMax@aos@shdfnd@physx@@YA?AT__m128@@T4@0@Z 000000018003af70 f i GuContactCapsuleConvex.obj
 0001:0003a0c0       ?FMax@aos@shdfnd@physx@@YA?AT__m128@@XZ 000000018003b0c0 f i GuContactCapsuleConvex.obj
 0001:0003a0f0       ?FMin@aos@shdfnd@physx@@YA?AT__m128@@T4@0@Z 000000018003b0f0 f i GuContactCapsuleConvex.obj
 0001:0003a240       ?FMul@aos@shdfnd@physx@@YA?AT__m128@@T4@0@Z 000000018003b240 f i GuContactCapsuleConvex.obj
 0001:0003a390       ?FOne@aos@shdfnd@physx@@YA?AT__m128@@XZ 000000018003b390 f i GuContactCapsuleConvex.obj
 0001:0003a3c0       ?FRecip@aos@shdfnd@physx@@YA?AT__m128@@T4@@Z 000000018003b3c0 f i GuContactCapsuleConvex.obj
 0001:0003a480       ?FSel@aos@shdfnd@physx@@YA?AT__m128@@T4@00@Z 000000018003b480 f i GuContactCapsuleConvex.obj
 0001:0003a710       ?FStore@aos@shdfnd@physx@@YAXT__m128@@PEIAM@Z 000000018003b710 f i GuContactCapsuleConvex.obj
 0001:0003a7c0       ?FSub@aos@shdfnd@physx@@YA?AT__m128@@T4@0@Z 000000018003b7c0 f i GuContactCapsuleConvex.obj
 0001:0003a910       ?FZero@aos@shdfnd@physx@@YA?AT__m128@@XZ 000000018003b910 f i GuContactCapsuleConvex.obj
 0001:0003a930       ?GJKCPairDoSimplex@Gu@physx@@YA?AT__m128@@PEIAT3@00AEBT3@AEAI@Z 000000018003b930 f i GuContactCapsuleConvex.obj
 0001:0003aac0       ?I4Load@aos@shdfnd@physx@@YA?AT__m128@@H@Z 000000018003bac0 f i GuContactCapsuleConvex.obj
 0001:0003aaf0       ?M33Diagonal@aos@shdfnd@physx@@YA?AUMat33V@123@AEBT__m128@@@Z 000000018003baf0 f i GuContactCapsuleConvex.obj
 0001:0003ac80       ?M33Identity@aos@shdfnd@physx@@YA?AUMat33V@123@XZ 000000018003bc80 f i GuContactCapsuleConvex.obj
 0001:0003ace0       ?M33MulM33@aos@shdfnd@physx@@YA?AUMat33V@123@AEBU4123@0@Z 000000018003bce0 f i GuContactCapsuleConvex.obj
 0001:0003add0       ?M33MulV3@aos@shdfnd@physx@@YA?AT__m128@@AEBUMat33V@123@T4@@Z 000000018003bdd0 f i GuContactCapsuleConvex.obj
 0001:0003b080       ?M33Trnsps@aos@shdfnd@physx@@YA?AUMat33V@123@AEBU4123@@Z 000000018003c080 f i GuContactCapsuleConvex.obj
 0001:0003b110       ?M33TrnspsMulV3@aos@shdfnd@physx@@YA?AT__m128@@AEBUMat33V@123@T4@@Z 000000018003c110 f i GuContactCapsuleConvex.obj
 0001:0003b300       ?PxI32_From_VecI32V@aos@shdfnd@physx@@YAXAEBT__m128@@PEAH@Z 000000018003c300 f i GuContactCapsuleConvex.obj
 0001:0003b330       ?QuatVLoadU@aos@shdfnd@physx@@YA?AT__m128@@PEBM@Z 000000018003c330 f i GuContactCapsuleConvex.obj
 0001:0003b360       ?QuatVLoadXYZW@aos@shdfnd@physx@@YA?AT__m128@@MMMM@Z 000000018003c360 f i GuContactCapsuleConvex.obj
 0001:0003b3c0       ?V3Add@aos@shdfnd@physx@@YA?AT__m128@@T4@0@Z 000000018003c3c0 f i GuContactCapsuleConvex.obj
 0001:0003b510       ?V3AllEq@aos@shdfnd@physx@@YAIT__m128@@0@Z 000000018003c510 f i GuContactCapsuleConvex.obj
 0001:0003b6a0       ?V3Cross@aos@shdfnd@physx@@YA?AT__m128@@AEBUVecCrossV@123@0@Z 000000018003c6a0 f i GuContactCapsuleConvex.obj
 0001:0003b710       ?V3Cross@aos@shdfnd@physx@@YA?AT__m128@@T4@0@Z 000000018003c710 f i GuContactCapsuleConvex.obj
 0001:0003b980       ?V3Dot@aos@shdfnd@physx@@YA?AT__m128@@T4@0@Z 000000018003c980 f i GuContactCapsuleConvex.obj
 0001:0003bb80       ?V3ExtractMin@aos@shdfnd@physx@@YA?AT__m128@@T4@@Z 000000018003cb80 f i GuContactCapsuleConvex.obj
 0001:0003bd00       ?V3GetX@aos@shdfnd@physx@@YA?AT__m128@@T4@@Z 000000018003cd00 f i GuContactCapsuleConvex.obj
 0001:0003bdc0       ?V3GetY@aos@shdfnd@physx@@YA?AT__m128@@T4@@Z 000000018003cdc0 f i GuContactCapsuleConvex.obj
 0001:0003be80       ?V3GetZ@aos@shdfnd@physx@@YA?AT__m128@@T4@@Z 000000018003ce80 f i GuContactCapsuleConvex.obj
 0001:0003bf40       ?V3Length@aos@shdfnd@physx@@YA?AT__m128@@T4@@Z 000000018003cf40 f i GuContactCapsuleConvex.obj
 0001:0003c040       ?V3LoadU@aos@shdfnd@physx@@YA?AT__m128@@AEBVPxVec3@3@@Z 000000018003d040 f i GuContactCapsuleConvex.obj
 0001:0003c0a0       ?V3LoadU@aos@shdfnd@physx@@YA?AT__m128@@PEBM@Z 000000018003d0a0 f i GuContactCapsuleConvex.obj
 0001:0003c120       ?V3LoadU_SafeReadW@aos@shdfnd@physx@@YA?AT__m128@@AEBVPxVec3@3@@Z 000000018003d120 f i GuContactCapsuleConvex.obj
 0001:0003c170       ?V3Mul@aos@shdfnd@physx@@YA?AT__m128@@T4@0@Z 000000018003d170 f i GuContactCapsuleConvex.obj
 0001:0003c2c0       ?V3Neg@aos@shdfnd@physx@@YA?AT__m128@@T4@@Z 000000018003d2c0 f i GuContactCapsuleConvex.obj
 0001:0003c380       ?V3NegScaleSub@aos@shdfnd@physx@@YA?AT__m128@@T4@00@Z 000000018003d380 f i GuContactCapsuleConvex.obj
 0001:0003c5e0       ?V3Normalize@aos@shdfnd@physx@@YA?AT__m128@@T4@@Z 000000018003d5e0 f i GuContactCapsuleConvex.obj
 0001:0003c730       ?V3One@aos@shdfnd@physx@@YA?AT__m128@@XZ 000000018003d730 f i GuContactCapsuleConvex.obj
 0001:0003c760       ?V3PrepareCross@aos@shdfnd@physx@@YA?AUVecCrossV@123@T__m128@@@Z 000000018003d760 f i GuContactCapsuleConvex.obj
 0001:0003c890       ?V3Recip@aos@shdfnd@physx@@YA?AT__m128@@T4@@Z 000000018003d890 f i GuContactCapsuleConvex.obj
 0001:0003ca20       ?V3Scale@aos@shdfnd@physx@@YA?AT__m128@@T4@0@Z 000000018003da20 f i GuContactCapsuleConvex.obj
 0001:0003cb70       ?V3ScaleAdd@aos@shdfnd@physx@@YA?AT__m128@@T4@00@Z 000000018003db70 f i GuContactCapsuleConvex.obj
 0001:0003cdd0       ?V3ScaleInv@aos@shdfnd@physx@@YA?AT__m128@@T4@0@Z 000000018003ddd0 f i GuContactCapsuleConvex.obj
 0001:0003cf20       ?V3Sel@aos@shdfnd@physx@@YA?AT__m128@@T4@00@Z 000000018003df20 f i GuContactCapsuleConvex.obj
 0001:0003d090       ?V3Splat@aos@shdfnd@physx@@YA?AT__m128@@T4@@Z 000000018003e090 f i GuContactCapsuleConvex.obj
 0001:0003d1a0       ?V3StoreU@aos@shdfnd@physx@@YAXT__m128@@AEAVPxVec3@3@@Z 000000018003e1a0 f i GuContactCapsuleConvex.obj
 0001:0003d220       ?V3Sub@aos@shdfnd@physx@@YA?AT__m128@@T4@0@Z 000000018003e220 f i GuContactCapsuleConvex.obj
 0001:0003d370       ?V3Transpose@aos@shdfnd@physx@@YAXAEAT__m128@@00@Z 000000018003e370 f i GuContactCapsuleConvex.obj
 0001:0003d6c0       ?V3UnitX@aos@shdfnd@physx@@YA?AT__m128@@XZ 000000018003e6c0 f i GuContactCapsuleConvex.obj
 0001:0003d720       ?V3UnitY@aos@shdfnd@physx@@YA?AT__m128@@XZ 000000018003e720 f i GuContactCapsuleConvex.obj
 0001:0003d780       ?V3UnitZ@aos@shdfnd@physx@@YA?AT__m128@@XZ 000000018003e780 f i GuContactCapsuleConvex.obj
 0001:0003d7e0       ?V3Zero@aos@shdfnd@physx@@YA?AT__m128@@XZ 000000018003e7e0 f i GuContactCapsuleConvex.obj
 0001:0003d800       ?V4IsEq@aos@shdfnd@physx@@YA?AT__m128@@T4@0@Z 000000018003e800 f i GuContactCapsuleConvex.obj
 0001:0003d840       ?V4LoadXYZW@aos@shdfnd@physx@@YA?AT__m128@@AEBM000@Z 000000018003e840 f i GuContactCapsuleConvex.obj
 0001:0003d8b0       ?V4ReadW@aos@shdfnd@physx@@YAMAEBT__m128@@@Z 000000018003e8b0 f i GuContactCapsuleConvex.obj
 0001:0003d8d0       ?V4ReadX@aos@shdfnd@physx@@YAMAEBT__m128@@@Z 000000018003e8d0 f i GuContactCapsuleConvex.obj
 0001:0003d8f0       ?V4ReadY@aos@shdfnd@physx@@YAMAEBT__m128@@@Z 000000018003e8f0 f i GuContactCapsuleConvex.obj
 0001:0003d910       ?V4ReadZ@aos@shdfnd@physx@@YAMAEBT__m128@@@Z 000000018003e910 f i GuContactCapsuleConvex.obj
 0001:0003d930       ?V4Sel@aos@shdfnd@physx@@YA?AT__m128@@T4@00@Z 000000018003e930 f i GuContactCapsuleConvex.obj
 0001:0003d9a0       ?V4StoreA@aos@shdfnd@physx@@YAXT__m128@@PEAM@Z 000000018003e9a0 f i GuContactCapsuleConvex.obj
 0001:0003da40       ?VecI32V_And@aos@shdfnd@physx@@YA?AT__m128@@AEBT4@0@Z 000000018003ea40 f i GuContactCapsuleConvex.obj
 0001:0003da80       ?VecI32V_From_BoolV@aos@shdfnd@physx@@YA?AT__m128@@AEBT4@@Z 000000018003ea80 f i GuContactCapsuleConvex.obj
 0001:0003daa0       ?VecI32V_IsEq@aos@shdfnd@physx@@YA?AT__m128@@AEBT4@0@Z 000000018003eaa0 f i GuContactCapsuleConvex.obj
 0001:0003db60       ?VecI32V_One@aos@shdfnd@physx@@YA?AT__m128@@XZ 000000018003eb60 f i GuContactCapsuleConvex.obj
 0001:0003db90       ?allElementsEqualBoolV@_VecMathTests@aos@shdfnd@physx@@YA_NT__m128@@0@Z 000000018003eb90 f i GuContactCapsuleConvex.obj
 0001:0003dc00       ?bruteForceSearch@ConvexHullV@Gu@physx@@QEBAIAEBT__m128@@@Z 000000018003ec00 f i GuContactCapsuleConvex.obj
 0001:0003ddf0       ?closestPtPointSegment@Gu@physx@@YA?AT__m128@@PEIAT3@AEAI@Z 000000018003edf0 f i GuContactCapsuleConvex.obj
 0001:0003e1d0       ?closestPtPointTriangle@Gu@physx@@YA?AT__m128@@PEIAT3@PEAT3@1AEAI@Z 000000018003f1d0 f i GuContactCapsuleConvex.obj
 0001:0003e710       ?closestPtPointTriangleBaryCentric@Gu@physx@@YA?AT__m128@@AEBT3@00PEIAIAEAIAEAT3@@Z 000000018003f710 f i GuContactCapsuleConvex.obj
 0001:00040740       ?createDiagonal@PxMat33@physx@@SA?BV12@AEBVPxVec3@2@@Z 0000000180041740 f i GuContactCapsuleConvex.obj
 0001:000407f0       ?doVirtualGetSweepMargin@GjkConvex@Gu@physx@@AEBA?AT__m128@@XZ 00000001800417f0 f i GuContactCapsuleConvex.obj
 0001:00040830       ?doVirtualSupport@GjkConvex@Gu@physx@@AEBA?AT__m128@@AEBT4@@Z 0000000180041830 f i GuContactCapsuleConvex.obj
 0001:00040880       ?doVirtualSupport@GjkConvex@Gu@physx@@AEBA?AT__m128@@AEBT4@AEAHPEAT4@@Z 0000000180041880 f i GuContactCapsuleConvex.obj
 0001:000408e0       ?doVirtualSupportPoint@GjkConvex@Gu@physx@@AEBA?AT__m128@@HPEAT4@@Z 00000001800418e0 f i GuContactCapsuleConvex.obj
 0001:00040930       ?getCenter@?$LocalConvex@VCapsuleV@Gu@physx@@@Gu@physx@@UEBA?AT__m128@@XZ 0000000180041930 f i GuContactCapsuleConvex.obj
 0001:00040970       ?getCenter@?$LocalConvex@VConvexHullV@Gu@physx@@@Gu@physx@@UEBA?AT__m128@@XZ 0000000180041970 f i GuContactCapsuleConvex.obj
 0001:000409b0       ?getCenter@ConvexV@Gu@physx@@QEBA?AT__m128@@XZ 00000001800419b0 f i GuContactCapsuleConvex.obj
 0001:000409e0       ?getClosestPoint@Gu@physx@@YAXPEIBT__m128@@00AEBT3@AEAT3@2I@Z 00000001800419e0 f i GuContactCapsuleConvex.obj
 0001:00041240       ?getConjugate@PxQuat@physx@@QEBA?AV12@XZ 0000000180042240 f i GuContactCapsuleConvex.obj
 0001:000412e0       ?getDeterminant@PxMat33@physx@@QEBAMXZ 00000001800422e0 f i GuContactCapsuleConvex.obj
 0001:00041330       ?getHull@ConvexMesh@Gu@physx@@QEAAAEAUConvexHullData@23@XZ 0000000180042330 f i GuContactCapsuleConvex.obj
 0001:00041350       ?getHullVertices@ConvexHullData@Gu@physx@@QEBAPEBVPxVec3@3@XZ 0000000180042350 f i GuContactCapsuleConvex.obj
 0001:000413a0       ?getIndex@CapsuleV@Gu@physx@@QEBAXT__m128@@AEAH@Z 00000001800423a0 f i GuContactCapsuleConvex.obj
 0001:00041430       ?getIndexBuffer@ConvexMesh@Gu@physx@@UEBAPEBEXZ 0000000180042430 f i GuContactCapsuleConvex.obj
 0001:00041460       ?getInverse@PxMat33@physx@@QEBA?BV12@XZ 0000000180042460 f i GuContactCapsuleConvex.obj
 0001:000417e0       ?getInverse@PxMeshScale@physx@@QEBA?AV12@XZ 00000001800427e0 f i GuContactCapsuleConvex.obj
 0001:000418a0       ?getInverse@PxTransform@physx@@QEBA?AV12@XZ 00000001800428a0 f i GuContactCapsuleConvex.obj
 0001:000419b0       ?getMargin@ConvexV@Gu@physx@@QEBA?AT__m128@@XZ 00000001800429b0 f i GuContactCapsuleConvex.obj
 0001:00041a00       ?getMargin@GjkConvexBase@Gu@physx@@QEBA?AT__m128@@XZ 0000000180042a00 f i GuContactCapsuleConvex.obj
 0001:00041a40       ?getMinMargin@ConvexV@Gu@physx@@QEBA?AT__m128@@XZ 0000000180042a40 f i GuContactCapsuleConvex.obj
 0001:00041a90       ?getMinMargin@GjkConvexBase@Gu@physx@@QEBA?AT__m128@@XZ 0000000180042a90 f i GuContactCapsuleConvex.obj
 0001:00041ad0       ?getNbPolygons@ConvexMesh@Gu@physx@@UEBAIXZ 0000000180042ad0 f i GuContactCapsuleConvex.obj
 0001:00041af0       ?getNbVertices@ConvexMesh@Gu@physx@@UEBAIXZ 0000000180042af0 f i GuContactCapsuleConvex.obj
 0001:00041b10       ?getSweepMargin@?$LocalConvex@VCapsuleV@Gu@physx@@@Gu@physx@@UEBA?AT__m128@@XZ 0000000180042b10 f i GuContactCapsuleConvex.obj
 0001:00041b50       ?getSweepMargin@?$LocalConvex@VConvexHullV@Gu@physx@@@Gu@physx@@UEBA?AT__m128@@XZ 0000000180042b50 f i GuContactCapsuleConvex.obj
 0001:00041b90       ?getSweepMargin@CapsuleV@Gu@physx@@QEBA?AT__m128@@XZ 0000000180042b90 f i GuContactCapsuleConvex.obj
 0001:00041bd0       ?getSweepMargin@ConvexV@Gu@physx@@QEBA?AT__m128@@XZ 0000000180042bd0 f i GuContactCapsuleConvex.obj
 0001:00041c20       ?getSweepMargin@GjkConvex@Gu@physx@@UEBA?AT__m128@@XZ 0000000180042c20 f i GuContactCapsuleConvex.obj
 0001:00041c50       ?getVertexData8@ConvexHullData@Gu@physx@@QEBAPEBEXZ 0000000180042c50 f i GuContactCapsuleConvex.obj
 0001:00041d60       ?getVertices@ConvexMesh@Gu@physx@@UEBAPEBVPxVec3@3@XZ 0000000180042d60 f i GuContactCapsuleConvex.obj
 0001:00041d90       ?hillClimbing@ConvexHullV@Gu@physx@@QEBAIAEBT__m128@@@Z 0000000180042d90 f i GuContactCapsuleConvex.obj
 0001:000421a0       ?init@FastVertex2ShapeScaling@Cm@physx@@QEAAXAEBVPxMeshScale@3@@Z 00000001800431a0 f i GuContactCapsuleConvex.obj
 0001:000421e0       ?init@FastVertex2ShapeScaling@Cm@physx@@QEAAXAEBVPxVec3@3@AEBVPxQuat@3@@Z 00000001800431e0 f i GuContactCapsuleConvex.obj
 0001:00042370       ?isAligned16@aos@shdfnd@physx@@YA_NPEAX@Z 0000000180043370 f i GuContactCapsuleConvex.obj
 0001:000423b0       ?isBitSet@?$PxBitAndDataT@G$0IAAA@@physx@@QEBAGXZ 00000001800433b0 f i GuContactCapsuleConvex.obj
 0001:000423d0       ?isFinite@PxTransform@physx@@QEBA_NXZ 00000001800433d0 f i GuContactCapsuleConvex.obj
 0001:00042440       ?isIdentity@PxMeshScale@physx@@QEBA_NXZ 0000000180043440 f i GuContactCapsuleConvex.obj
 0001:000424b0       ?isMarginEqRadius@ConvexV@Gu@physx@@QEBA?AT__m128@@XZ 00000001800434b0 f i GuContactCapsuleConvex.obj
 0001:00042500       ?isMarginEqRadius@GjkConvexBase@Gu@physx@@QEBA?AT__m128@@XZ 0000000180043500 f i GuContactCapsuleConvex.obj
 0001:00042540       ?isSane@PxTransform@physx@@QEBA_NXZ 0000000180043540 f i GuContactCapsuleConvex.obj
 0001:000425a0       ?isUnit@PxQuat@physx@@QEBA_NXZ 00000001800435a0 f i GuContactCapsuleConvex.obj
 0001:00042620       ?isValidFloatV@aos@shdfnd@physx@@YA_NT__m128@@@Z 0000000180043620 f i GuContactCapsuleConvex.obj
 0001:00042770       ?isValidVec3V@aos@shdfnd@physx@@YA_NT__m128@@@Z 0000000180043770 f i GuContactCapsuleConvex.obj
 0001:000427e0       ?m128_F2I@internalWindowsSimd@aos@shdfnd@physx@@YA?AT__m128i@@T__m128@@@Z 00000001800437e0 f i GuContactCapsuleConvex.obj
 0001:00042810       ?m128_I2F@internalWindowsSimd@aos@shdfnd@physx@@YA?AT__m128@@T__m128i@@@Z 0000000180043810 f i GuContactCapsuleConvex.obj
 0001:00042840       ?onRefCountZero@RefCountable@Cm@physx@@UEAAXXZ 0000000180043840 f i GuContactCapsuleConvex.obj
 0001:000428b0       ?requires@ConvexMesh@Gu@physx@@UEAAXAEAVPxProcessPxBaseCallback@3@@Z 00000001800438b0 f i GuContactCapsuleConvex.obj
 0001:000428c0       ?rotate@Matrix34@Cm@physx@@QEBA?AVPxVec3@3@AEBV43@@Z 00000001800438c0 f i GuContactCapsuleConvex.obj
 0001:00042910       ?rotate@PsMatTransformV@aos@shdfnd@physx@@QEBA?AT__m128@@AEBT5@@Z 0000000180043910 f i GuContactCapsuleConvex.obj
 0001:00042980       ?rotate@PxTransform@physx@@QEBA?AVPxVec3@2@AEBV32@@Z 0000000180043980 f i GuContactCapsuleConvex.obj
 0001:00042a30       ?rotateInv@PxQuat@physx@@QEBA?BVPxVec3@2@AEBV32@@Z 0000000180043a30 f i GuContactCapsuleConvex.obj
 0001:00042c80       ?rotateTranspose@Matrix34@Cm@physx@@QEBA?AVPxVec3@3@AEBV43@@Z 0000000180043c80 f i GuContactCapsuleConvex.obj
 0001:00042cd0       ?selectMax@intrinsics@physx@@YAMMM@Z 0000000180043cd0 f i GuContactCapsuleConvex.obj
 0001:00042d20       ?setBit@?$PxBitAndDataT@I$0IAAAAAAA@@physx@@QEAAXXZ 0000000180043d20 f i GuContactCapsuleConvex.obj
 0001:00042d40       ?support@?$LocalConvex@VCapsuleV@Gu@physx@@@Gu@physx@@UEBA?AT__m128@@AEBT4@@Z 0000000180043d40 f i GuContactCapsuleConvex.obj
 0001:00042d90       ?support@?$LocalConvex@VCapsuleV@Gu@physx@@@Gu@physx@@UEBA?AT__m128@@AEBT4@AEAHPEAT4@@Z 0000000180043d90 f i GuContactCapsuleConvex.obj
 0001:00042df0       ?support@?$LocalConvex@VConvexHullV@Gu@physx@@@Gu@physx@@UEBA?AT__m128@@AEBT4@@Z 0000000180043df0 f i GuContactCapsuleConvex.obj
 0001:00042e40       ?support@?$LocalConvex@VConvexHullV@Gu@physx@@@Gu@physx@@UEBA?AT__m128@@AEBT4@AEAHPEAT4@@Z 0000000180043e40 f i GuContactCapsuleConvex.obj
 0001:00042ea0       ?support@GjkConvex@Gu@physx@@UEBA?AT__m128@@AEBT4@@Z 0000000180043ea0 f i GuContactCapsuleConvex.obj
 0001:00042ee0       ?support@GjkConvex@Gu@physx@@UEBA?AT__m128@@AEBT4@AEAHPEAT4@@Z 0000000180043ee0 f i GuContactCapsuleConvex.obj
 0001:00042f40       ?supportLocal@CapsuleV@Gu@physx@@QEBA?AT__m128@@AEBT4@@Z 0000000180043f40 f i GuContactCapsuleConvex.obj
 0001:000430f0       ?supportLocal@CapsuleV@Gu@physx@@QEBA?AT__m128@@AEBT4@AEAHPEAT4@@Z 00000001800440f0 f i GuContactCapsuleConvex.obj
 0001:000432f0       ?supportLocal@ConvexHullV@Gu@physx@@QEBA?AT__m128@@AEBT4@@Z 00000001800442f0 f i GuContactCapsuleConvex.obj
 0001:00043400       ?supportLocal@ConvexHullV@Gu@physx@@QEBA?AT__m128@@AEBT4@AEAHPEAT4@@Z 0000000180044400 f i GuContactCapsuleConvex.obj
 0001:00043530       ?supportPoint@?$LocalConvex@VCapsuleV@Gu@physx@@@Gu@physx@@UEBA?AT__m128@@HPEAT4@@Z 0000000180044530 f i GuContactCapsuleConvex.obj
 0001:00043590       ?supportPoint@?$LocalConvex@VConvexHullV@Gu@physx@@@Gu@physx@@UEBA?AT__m128@@HPEAT4@@Z 0000000180044590 f i GuContactCapsuleConvex.obj
 0001:000435f0       ?supportPoint@CapsuleV@Gu@physx@@QEBA?AT__m128@@HPEAT4@@Z 00000001800445f0 f i GuContactCapsuleConvex.obj
 0001:00043640       ?supportPoint@ConvexHullV@Gu@physx@@QEBA?AT__m128@@HPEAT4@@Z 0000000180044640 f i GuContactCapsuleConvex.obj
 0001:000436e0       ?supportPoint@GjkConvex@Gu@physx@@UEBA?AT__m128@@HPEAT4@@Z 00000001800446e0 f i GuContactCapsuleConvex.obj
 0001:00043730       ?supportVertexIndex@ConvexHullV@Gu@physx@@QEBAIAEBT__m128@@@Z 0000000180044730 f i GuContactCapsuleConvex.obj
 0001:00043790       ?toMat33@PxMeshScale@physx@@QEBA?AVPxMat33@2@XZ 0000000180044790 f i GuContactCapsuleConvex.obj
 0001:00043880       ?transform@PxTransform@physx@@QEBA?AVPxVec3@2@AEBV32@@Z 0000000180044880 f i GuContactCapsuleConvex.obj
 0001:00043960       ?transformInv@PxTransform@physx@@QEBA?AV12@AEBV12@@Z 0000000180044960 f i GuContactCapsuleConvex.obj
 0001:00043bb0       ?contactCapsuleMesh@Gu@physx@@YA_NAEBVGeometryUnion@12@0AEBVPxTransform@2@1AEBUNarrowPhaseParams@12@AEAUCache@12@AEAVContactBuffer@12@PEAVRenderOutput@Cm@2@@Z 0000000180044bb0 f   GuContactCapsuleMesh.obj
 0001:00043e70       ?contactCapsuleHeightfield@Gu@physx@@YA_NAEBVGeometryUnion@12@0AEBVPxTransform@2@1AEBUNarrowPhaseParams@12@AEAUCache@12@AEAVContactBuffer@12@PEAVRenderOutput@Cm@2@@Z 0000000180044e70 f   GuContactCapsuleMesh.obj
 0001:00045360       ??$PX_UNUSED@M@@YAXAEBM@Z  0000000180046360 f i GuContactCapsuleMesh.obj
 0001:00045370       ??$checkType@$$CBUPxHeightFieldGeometryLL@physx@@@physx@@YAXAEBVGeometryUnion@Gu@0@@Z 0000000180046370 f i GuContactCapsuleMesh.obj
 0001:00045400       ??$checkType@$$CBUPxTriangleMeshGeometryLL@physx@@@physx@@YAXAEBVGeometryUnion@Gu@0@@Z 0000000180046400 f i GuContactCapsuleMesh.obj
 0001:00045490       ??$get@$$CBUPxHeightFieldGeometryLL@physx@@@GeometryUnion@Gu@physx@@QEBAAEBUPxHeightFieldGeometryLL@2@XZ 0000000180046490 f i GuContactCapsuleMesh.obj
 0001:000454c0       ??$get@$$CBUPxTriangleMeshGeometryLL@physx@@@GeometryUnion@Gu@physx@@QEBAAEBUPxTriangleMeshGeometryLL@2@XZ 00000001800464c0 f i GuContactCapsuleMesh.obj
 0001:000454f0       ??0?$EntityReport@I@Gu@physx@@QEAA@XZ 00000001800464f0 f i GuContactCapsuleMesh.obj
 0001:00045510       ??0?$MeshHitCallback@UPxRaycastHit@physx@@@Gu@physx@@QEAA@W4Enum@CallbackMode@12@@Z 0000000180046510 f i GuContactCapsuleMesh.obj
 0001:00045550       ??0?$PxFlags@W4Enum@PxHeightFieldFlag@physx@@G@physx@@QEAA@AEBV01@@Z 0000000180046550 f i GuContactCapsuleMesh.obj
 0001:00045580       ??0?$PxFlags@W4Enum@PxHeightFieldFlag@physx@@G@physx@@QEAA@W4PxEMPTY@1@@Z 0000000180046580 f i GuContactCapsuleMesh.obj
 0001:000455a0       ??0?$PxFlags@W4Enum@PxHeightFieldFlag@physx@@G@physx@@QEAA@XZ 00000001800465a0 f i GuContactCapsuleMesh.obj
 0001:000455c0       ??0Capsule@Gu@physx@@QEAA@AEBVSegment@12@M@Z 00000001800465c0 f i GuContactCapsuleMesh.obj
 0001:00045c30       ??0CenterExtents@Gu@physx@@QEAA@AEBV012@@Z 0000000180046c30 f i GuContactCapsuleMesh.obj
 0001:00045c90       ??0FastVertex2ShapeScaling@Cm@physx@@QEAA@AEBVPxMeshScale@2@@Z 0000000180046c90 f i GuContactCapsuleMesh.obj
 0001:00045cf0       ??0HeightFieldData@Gu@physx@@QEAA@$$QEAU012@@Z 0000000180046cf0 f i GuContactCapsuleMesh.obj
 0001:00045e20       ??0HeightFieldData@Gu@physx@@QEAA@AEBU012@@Z 0000000180046e20 f i GuContactCapsuleMesh.obj
 0001:00045f50       ??0HeightFieldData@Gu@physx@@QEAA@W4PxEMPTY@2@@Z 0000000180046f50 f i GuContactCapsuleMesh.obj
 0001:00045fa0       ??0HeightFieldData@Gu@physx@@QEAA@XZ 0000000180046fa0 f i GuContactCapsuleMesh.obj
 0001:00045fe0       ??0HeightFieldUtil@Gu@physx@@QEAA@AEBVPxHeightFieldGeometry@2@@Z 0000000180046fe0 f i GuContactCapsuleMesh.obj
 0001:00046040       ??0HeightFieldUtil@Gu@physx@@QEAA@AEBVPxHeightFieldGeometry@2@AEBVHeightField@12@@Z 0000000180047040 f i GuContactCapsuleMesh.obj
 0001:000460a0       ??0HeightFieldUtil@Gu@physx@@QEAA@XZ 00000001800470a0 f i GuContactCapsuleMesh.obj
 0001:000460b0       ??0PxBounds3@physx@@QEAA@AEBVPxVec3@1@0@Z 00000001800470b0 f i GuContactCapsuleMesh.obj
 0001:00046110       ??0PxBounds3@physx@@QEAA@XZ 0000000180047110 f i GuContactCapsuleMesh.obj
 0001:00046150       ??0PxTriangle@physx@@QEAA@XZ 0000000180047150 f i GuContactCapsuleMesh.obj
 0001:00046190       ??0Segment@Gu@physx@@QEAA@AEBV012@@Z 0000000180047190 f i GuContactCapsuleMesh.obj
 0001:000461f0       ??0Segment@Gu@physx@@QEAA@AEBVPxVec3@2@0@Z 00000001800471f0 f i GuContactCapsuleMesh.obj
 0001:00046250       ??0TrianglePadded@Gu@physx@@QEAA@XZ 0000000180047250 f i GuContactCapsuleMesh.obj
 0001:00046280       ??0Vec3p@Gu@physx@@QEAA@AEBVPxVec3@2@@Z 0000000180047280 f i GuContactCapsuleMesh.obj
 0001:000462b0       ??0Vec3p@Gu@physx@@QEAA@XZ 00000001800472b0 f i GuContactCapsuleMesh.obj
 0001:000462e0       ??1?$EntityReport@I@Gu@physx@@UEAA@XZ 00000001800472e0 f i GuContactCapsuleMesh.obj
 0001:00046300       ??1?$MeshHitCallback@UPxRaycastHit@physx@@@Gu@physx@@UEAA@XZ 0000000180047300 f i GuContactCapsuleMesh.obj
 0001:00046320       ??1Capsule@Gu@physx@@QEAA@XZ 0000000180047320 f i GuContactCapsuleMesh.obj
 0001:00046420       ??1CenterExtents@Gu@physx@@QEAA@XZ 0000000180047420 f i GuContactCapsuleMesh.obj
 0001:00046430       ??1HeightFieldData@Gu@physx@@QEAA@XZ 0000000180047430 f i GuContactCapsuleMesh.obj
 0001:00046460       ??1PxHeightField@physx@@MEAA@XZ 0000000180047460 f i GuContactCapsuleMesh.obj
 0001:00046490       ??1PxTriangle@physx@@QEAA@XZ 0000000180047490 f i GuContactCapsuleMesh.obj
 0001:000464a0       ??1TrianglePadded@Gu@physx@@QEAA@XZ 00000001800474a0 f i GuContactCapsuleMesh.obj
 0001:000464c0       ??1Vec3p@Gu@physx@@QEAA@XZ 00000001800474c0 f i GuContactCapsuleMesh.obj
 0001:000464d0       ??4?$PxFlags@W4Enum@PxHeightFieldFlag@physx@@G@physx@@QEAAAEAV01@AEBV01@@Z 00000001800474d0 f i GuContactCapsuleMesh.obj
 0001:00046500       ??4CenterExtents@Gu@physx@@QEAAAEAV012@AEBV012@@Z 0000000180047500 f i GuContactCapsuleMesh.obj
 0001:00046560       ??4HeightFieldData@Gu@physx@@QEAAAEAU012@$$QEAU012@@Z 0000000180047560 f i GuContactCapsuleMesh.obj
 0001:00046690       ??4HeightFieldData@Gu@physx@@QEAAAEAU012@AEBU012@@Z 0000000180047690 f i GuContactCapsuleMesh.obj
 0001:000467c0       ??4HeightFieldUtil@Gu@physx@@QEAAAEAV012@$$QEAV012@@Z 00000001800477c0 f i GuContactCapsuleMesh.obj
 0001:00046850       ??4HeightFieldUtil@Gu@physx@@QEAAAEAV012@AEBV012@@Z 0000000180047850 f i GuContactCapsuleMesh.obj
 0001:00046880       ??4PxBounds3@physx@@QEAAAEAV01@$$QEAV01@@Z 0000000180047880 f i GuContactCapsuleMesh.obj
 0001:000468e0       ??4Vec3p@Gu@physx@@QEAAAEAV012@AEBV012@@Z 00000001800478e0 f i GuContactCapsuleMesh.obj
 0001:00046930       ??B?$PxBitAndDataT@E$0IA@@physx@@QEBAEXZ 0000000180047930 f i GuContactCapsuleMesh.obj
 0001:00046950       ??B?$PxFlags@W4Enum@PxHeightFieldFlag@physx@@G@physx@@QEBA_NXZ 0000000180047950 f i GuContactCapsuleMesh.obj
 0001:00046990       ??I?$PxFlags@W4Enum@PxHeightFieldFlag@physx@@G@physx@@QEBA?AV01@W4Enum@PxHeightFieldFlag@1@@Z 0000000180047990 f i GuContactCapsuleMesh.obj
 0001:00046a00       ??_EPxHeightField@physx@@MEAAPEAXI@Z 0000000180047a00 f i GuContactCapsuleMesh.obj
 0001:00046ac0       ??_G?$EntityReport@I@Gu@physx@@UEAAPEAXI@Z 0000000180047ac0 f i GuContactCapsuleMesh.obj
 0001:00046ac0       ??_E?$EntityReport@I@Gu@physx@@UEAAPEAXI@Z 0000000180047ac0 f i GuContactCapsuleMesh.obj
 0001:00046b10       ??_E?$MeshHitCallback@UPxRaycastHit@physx@@@Gu@physx@@UEAAPEAXI@Z 0000000180047b10 f i GuContactCapsuleMesh.obj
 0001:00046b10       ??_G?$MeshHitCallback@UPxRaycastHit@physx@@@Gu@physx@@UEAAPEAXI@Z 0000000180047b10 f i GuContactCapsuleMesh.obj
 0001:00046b60       ??_ECapsuleHeightfieldContactGenerationCallback@?A0x9a7f2cd7@@UEAAPEAXI@Z 0000000180047b60 f i GuContactCapsuleMesh.obj
 0001:00046b60       ??_GCapsuleHeightfieldContactGenerationCallback@?A0x9a7f2cd7@@UEAAPEAXI@Z 0000000180047b60 f i GuContactCapsuleMesh.obj
 0001:00046bb0       ??_GCapsuleMeshContactGenerationCallback_NoScale@?A0x9a7f2cd7@@UEAAPEAXI@Z 0000000180047bb0 f i GuContactCapsuleMesh.obj
 0001:00046bb0       ??_ECapsuleMeshContactGenerationCallback_NoScale@?A0x9a7f2cd7@@UEAAPEAXI@Z 0000000180047bb0 f i GuContactCapsuleMesh.obj
 0001:00046c00       ??_ECapsuleMeshContactGenerationCallback_Scale@?A0x9a7f2cd7@@UEAAPEAXI@Z 0000000180047c00 f i GuContactCapsuleMesh.obj
 0001:00046c00       ??_GCapsuleMeshContactGenerationCallback_Scale@?A0x9a7f2cd7@@UEAAPEAXI@Z 0000000180047c00 f i GuContactCapsuleMesh.obj
 0001:00046c50       ?PxCeil@physx@@YAMM@Z      0000000180047c50 f i GuContactCapsuleMesh.obj
 0001:00046c80       ?PxFloor@physx@@YAMM@Z     0000000180047c80 f i GuContactCapsuleMesh.obj
 0001:00046cb0       ?basisExtent@PxBounds3@physx@@SA?AV12@AEBVPxVec3@2@AEBVPxMat33@2@0@Z 0000000180047cb0 f i GuContactCapsuleMesh.obj
 0001:00046f00       ?ceilUp@HeightFieldUtil@Gu@physx@@SAMM@Z 0000000180047f00 f i GuContactCapsuleMesh.obj
 0001:00046f70       ?clipShapeNormalToVertexVoronoi@HeightFieldUtil@Gu@physx@@QEBA_NAEAVPxVec3@3@III@Z 0000000180047f70 f i GuContactCapsuleMesh.obj
 0001:00047680       ?computeBarycentricPoint@shdfnd@physx@@YA?AVPxVec3@2@AEBV32@00MM@Z 0000000180048680 f i GuContactCapsuleMesh.obj
 0001:000477c0       ?computePointNormal@HeightFieldUtil@Gu@physx@@QEBA?AVPxVec3@3@IAEBV43@AEBVPxTransform@3@MMMMAEAM@Z 00000001800487c0 f i GuContactCapsuleMesh.obj
 0001:00047920       ?denormalizedNormal@PxTriangle@physx@@QEBAXAEAVPxVec3@2@@Z 0000000180048920 f i GuContactCapsuleMesh.obj
 0001:00047a00       ?distanceSegmentTriangleSquared@Gu@physx@@YAMAEBVSegment@12@AEBVPxVec3@2@11PEAM22@Z 0000000180048a00 f i GuContactCapsuleMesh.obj
 0001:00047aa0       ?flipsNormal@FastVertex2ShapeScaling@Cm@physx@@QEBA_NXZ 0000000180048aa0 f i GuContactCapsuleMesh.obj
 0001:00047ac0       ?floorDown@HeightFieldUtil@Gu@physx@@SAMM@Z 0000000180048ac0 f i GuContactCapsuleMesh.obj
 0001:00047b30       ?fsel@intrinsics@physx@@YAMMMM@Z 0000000180048b30 f i GuContactCapsuleMesh.obj
 0001:00047b90       ?getCenter@PxBounds3@physx@@QEBA?AVPxVec3@2@XZ 0000000180048b90 f i GuContactCapsuleMesh.obj
 0001:00047c60       ?getConcreteType@PxBase@physx@@QEBAGXZ 0000000180048c60 f i GuContactCapsuleMesh.obj
 0001:00047c80       ?getConcreteTypeName@PxHeightField@physx@@UEBAPEBDXZ 0000000180048c80 f i GuContactCapsuleMesh.obj
 0001:00047c90       ?getConvexEdgeFlags@Gu@physx@@YAEPEBEI@Z 0000000180048c90 f i GuContactCapsuleMesh.obj
 0001:00047ce0       ?getConvexEdgeThreshold@HeightField@Gu@physx@@UEBAMXZ 0000000180048ce0 f i GuContactCapsuleMesh.obj
 0001:00047d00       ?getData@HeightField@Gu@physx@@QEBAAEBUHeightFieldData@23@XZ 0000000180048d00 f i GuContactCapsuleMesh.obj
 0001:00047d20       ?getDimensions@PxBounds3@physx@@QEBA?AVPxVec3@2@XZ 0000000180048d20 f i GuContactCapsuleMesh.obj
 0001:00047dd0       ?getEdgeDirection@HeightFieldUtil@Gu@physx@@QEBA?AVPxVec3@3@II@Z 0000000180048dd0 f i GuContactCapsuleMesh.obj
 0001:00048220       ?getExtents@PxBounds3@physx@@QEBA?AVPxVec3@2@XZ 0000000180049220 f i GuContactCapsuleMesh.obj
 0001:000482e0       ?getExtraTrigData@TriangleMesh@Gu@physx@@QEBAPEBEXZ 00000001800492e0 f i GuContactCapsuleMesh.obj
 0001:00048300       ?getFeatureIndex@HeightFieldUtil@Gu@physx@@SAII@Z 0000000180049300 f i GuContactCapsuleMesh.obj
 0001:00048320       ?getFeatureType@HeightFieldUtil@Gu@physx@@SA?AW4Feature@123@I@Z 0000000180049320 f i GuContactCapsuleMesh.obj
 0001:00048330       ?getFlags@HeightField@Gu@physx@@UEBA?AV?$PxFlags@W4Enum@PxHeightFieldFlag@physx@@G@3@XZ 0000000180049330 f i GuContactCapsuleMesh.obj
 0001:00048370       ?getFormat@HeightField@Gu@physx@@UEBA?AW4Enum@PxHeightFieldFormat@3@XZ 0000000180049370 f i GuContactCapsuleMesh.obj
 0001:00048390       ?getHeight@HeightField@Gu@physx@@QEBAMI@Z 0000000180049390 f i GuContactCapsuleMesh.obj
 0001:000483c0       ?getHeight@HeightField@Gu@physx@@UEBAMMM@Z 00000001800493c0 f i GuContactCapsuleMesh.obj
 0001:00048400       ?getHeightAtShapePoint2@HeightFieldUtil@Gu@physx@@QEBAMIMM@Z 0000000180049400 f i GuContactCapsuleMesh.obj
 0001:00048480       ?getHeightAtShapePoint@HeightFieldUtil@Gu@physx@@QEBAMMM@Z 0000000180049480 f i GuContactCapsuleMesh.obj
 0001:00048510       ?getHeightField@HeightFieldUtil@Gu@physx@@QEBAAEBVHeightField@23@XZ 0000000180049510 f i GuContactCapsuleMesh.obj
 0001:00048530       ?getHeightFieldGeometry@HeightFieldUtil@Gu@physx@@QEBAAEBVPxHeightFieldGeometry@3@XZ 0000000180049530 f i GuContactCapsuleMesh.obj
 0001:00048550       ?getHeightInternal2@HeightField@Gu@physx@@QEBAMIMM@Z 0000000180049550 f i GuContactCapsuleMesh.obj
 0001:00048850       ?getHeightInternal@HeightField@Gu@physx@@QEBAMMM@Z 0000000180049850 f i GuContactCapsuleMesh.obj
 0001:000488d0       ?getMaterialIndex0@HeightField@Gu@physx@@QEBAGI@Z 00000001800498d0 f i GuContactCapsuleMesh.obj
 0001:00048910       ?getMaterialIndex1@HeightField@Gu@physx@@QEBAGI@Z 0000000180049910 f i GuContactCapsuleMesh.obj
 0001:00048950       ?getNbColumns@HeightField@Gu@physx@@UEBAIXZ 0000000180049950 f i GuContactCapsuleMesh.obj
 0001:00048970       ?getNbColumnsFast@HeightField@Gu@physx@@QEBAIXZ 0000000180049970 f i GuContactCapsuleMesh.obj
 0001:00048990       ?getNbRows@HeightField@Gu@physx@@UEBAIXZ 0000000180049990 f i GuContactCapsuleMesh.obj
 0001:000489b0       ?getNbRowsFast@HeightField@Gu@physx@@QEBAIXZ 00000001800499b0 f i GuContactCapsuleMesh.obj
 0001:000489d0       ?getNextIndex3@shdfnd@physx@@YAII@Z 00000001800499d0 f i GuContactCapsuleMesh.obj
 0001:000489f0       ?getNormalAtShapePoint2@HeightFieldUtil@Gu@physx@@QEBA?AVPxVec3@3@IMM@Z 00000001800499f0 f i GuContactCapsuleMesh.obj
 0001:00048a90       ?getNormalAtShapePoint@HeightFieldUtil@Gu@physx@@QEBA?AVPxVec3@3@MM@Z 0000000180049a90 f i GuContactCapsuleMesh.obj
 0001:00048b40       ?getNormal_2@HeightField@Gu@physx@@QEBA?AVPxVec3@3@IMMMMM@Z 0000000180049b40 f i GuContactCapsuleMesh.obj
 0001:00048f90       ?getNormal_@HeightField@Gu@physx@@QEBA?AVPxVec3@3@MMMMM@Z 0000000180049f90 f i GuContactCapsuleMesh.obj
 0001:00049060       ?getOneOverColumnScale@HeightFieldUtil@Gu@physx@@QEBAMXZ 000000018004a060 f i GuContactCapsuleMesh.obj
 0001:00049080       ?getOneOverHeightScale@HeightFieldUtil@Gu@physx@@QEBAMXZ 000000018004a080 f i GuContactCapsuleMesh.obj
 0001:000490a0       ?getOneOverRowScale@HeightFieldUtil@Gu@physx@@QEBAMXZ 000000018004a0a0 f i GuContactCapsuleMesh.obj
 0001:000490c0       ?getPaddedBounds@HeightFieldData@Gu@physx@@QEBAAEBVCenterExtentsPadded@23@XZ 000000018004a0c0 f i GuContactCapsuleMesh.obj
 0001:000490d0       ?getSample@HeightField@Gu@physx@@QEBAAEBUPxHeightFieldSample@3@I@Z 000000018004a0d0 f i GuContactCapsuleMesh.obj
 0001:00049170       ?getSampleStride@HeightField@Gu@physx@@UEBAIXZ 000000018004a170 f i GuContactCapsuleMesh.obj
 0001:00049180       ?getScaledVertices@Cm@physx@@YAXPEAVPxVec3@2@AEBV32@11_NAEBVFastVertex2ShapeScaling@12@@Z 000000018004a180 f i GuContactCapsuleMesh.obj
 0001:00049340       ?getThickness@HeightField@Gu@physx@@UEBAMXZ 000000018004a340 f i GuContactCapsuleMesh.obj
 0001:00049360       ?getTimestamp@HeightField@Gu@physx@@UEBAIXZ 000000018004a360 f i GuContactCapsuleMesh.obj
 0001:00049380       ?getTriangleMaterial@HeightField@Gu@physx@@QEBAGI@Z 000000018004a380 f i GuContactCapsuleMesh.obj
 0001:00049400       ?getTriangleMaterialIndex@HeightField@Gu@physx@@UEBAGI@Z 000000018004a400 f i GuContactCapsuleMesh.obj
 0001:00049430       ?getTriangleNormal@HeightField@Gu@physx@@UEBA?AVPxVec3@3@I@Z 000000018004a430 f i GuContactCapsuleMesh.obj
 0001:00049470       ?getTriangleNormalInternal@HeightField@Gu@physx@@QEBA?AVPxVec3@3@I@Z 000000018004a470 f i GuContactCapsuleMesh.obj
 0001:00049750       ?getTriangleVertexIndices@HeightField@Gu@physx@@QEBAXIAEAI00@Z 000000018004a750 f i GuContactCapsuleMesh.obj
 0001:000498f0       ?getVertexNormal@HeightFieldUtil@Gu@physx@@QEBA?AVPxVec3@3@I@Z 000000018004a8f0 f i GuContactCapsuleMesh.obj
 0001:00049980       ?hf2shapen@HeightFieldUtil@Gu@physx@@QEBA?AVPxVec3@3@AEBV43@@Z 000000018004a980 f i GuContactCapsuleMesh.obj
 0001:00049a20       ?hf2shapep@HeightFieldUtil@Gu@physx@@QEBA?AVPxVec3@3@AEBV43@@Z 000000018004aa20 f i GuContactCapsuleMesh.obj
 0001:00049ad0       ?hf2worldn@HeightFieldUtil@Gu@physx@@QEBA?AVPxVec3@3@AEBVPxTransform@3@AEBV43@@Z 000000018004aad0 f i GuContactCapsuleMesh.obj
 0001:00049b30       ?hf2worldp@HeightFieldUtil@Gu@physx@@QEBA?AVPxVec3@3@AEBVPxTransform@3@AEBV43@@Z 000000018004ab30 f i GuContactCapsuleMesh.obj
 0001:00049b90       ?initialize@HeightFieldUtil@Gu@physx@@AEAAXXZ 000000018004ab90 f i GuContactCapsuleMesh.obj
 0001:00049dc0       ?initialize@HeightFieldUtil@Gu@physx@@QEAAXAEBVPxHeightFieldGeometry@3@AEBVHeightField@23@@Z 000000018004adc0 f i GuContactCapsuleMesh.obj
 0001:00049e10       ?intersectOBB@Midphase@Gu@physx@@YAXPEBVTriangleMesh@23@AEBVBox@23@AEAU?$MeshHitCallback@UPxRaycastHit@physx@@@23@_N3@Z 000000018004ae10 f i GuContactCapsuleMesh.obj
 0001:00049ea0       ?intersectRayTriangle@Gu@physx@@YA_NAEBVPxVec3@2@0000AEAM11_NM@Z 000000018004aea0 f i GuContactCapsuleMesh.obj
 0001:0004a310       ?intersectRayTriangleCulling@Gu@physx@@YA_NAEBVPxVec3@2@0000AEAM11M@Z 000000018004b310 f i GuContactCapsuleMesh.obj
 0001:0004a3b0       ?isBitSet@?$PxBitAndDataT@E$0IA@@physx@@QEBAEXZ 000000018004b3b0 f i GuContactCapsuleMesh.obj
 0001:0004a3d0       ?isCollisionVertex@HeightField@Gu@physx@@QEBA_NIIIG@Z 000000018004b3d0 f i GuContactCapsuleMesh.obj
 0001:0004a440       ?isCollisionVertex@HeightFieldUtil@Gu@physx@@QEBA_NIII@Z 000000018004b440 f i GuContactCapsuleMesh.obj
 0001:0004a490       ?isFirstTriangle@HeightField@Gu@physx@@QEBA_NI@Z 000000018004b490 f i GuContactCapsuleMesh.obj
 0001:0004a4d0       ?isKindOf@PxHeightField@physx@@MEBA_NPEBD@Z 000000018004b4d0 f i GuContactCapsuleMesh.obj
 0001:0004a540       ?isQueryVertex@HeightFieldUtil@Gu@physx@@QEBA_NIII@Z 000000018004b540 f i GuContactCapsuleMesh.obj
 0001:0004a690       ?isShapePointOnHeightField@HeightFieldUtil@Gu@physx@@QEBA_NMM@Z 000000018004b690 f i GuContactCapsuleMesh.obj
 0001:0004a790       ?isValidVertex@HeightField@Gu@physx@@QEBA_NI@Z 000000018004b790 f i GuContactCapsuleMesh.obj
 0001:0004a7e0       ?isZerothVertexShared@HeightField@Gu@physx@@QEBA_NI@Z 000000018004b7e0 f i GuContactCapsuleMesh.obj
 0001:0004a840       ?makeFeatureCode@HeightFieldUtil@Gu@physx@@SAIIW4Feature@123@@Z 000000018004b840 f i GuContactCapsuleMesh.obj
 0001:0004a860       ?normal@PxTriangle@physx@@QEBAXAEAVPxVec3@2@@Z 000000018004b860 f i GuContactCapsuleMesh.obj
 0001:0004b4e0       ?rotateInv@PxTransform@physx@@QEBA?AVPxVec3@2@AEBV32@@Z 000000018004c4e0 f i GuContactCapsuleMesh.obj
 0001:0004b590       ?shape2hfp@HeightFieldUtil@Gu@physx@@QEBA?AVPxVec3@3@AEBV43@@Z 000000018004c590 f i GuContactCapsuleMesh.obj
 0001:0004b630       ?tessFlag@PxHeightFieldSample@physx@@QEBAEXZ 000000018004c630 f i GuContactCapsuleMesh.obj
 0001:0004b680       ?transformFast@PxBounds3@physx@@SA?AV12@AEBVPxTransform@2@AEBV12@@Z 000000018004c680 f i GuContactCapsuleMesh.obj
 0001:0004b7c0       ?transformQueryBounds@FastVertex2ShapeScaling@Cm@physx@@QEBAXAEAVPxVec3@3@0AEAVPxMat33@3@@Z 000000018004c7c0 f i GuContactCapsuleMesh.obj
 0001:0004b980       ?contactBoxConvex@Gu@physx@@YA_NAEBVGeometryUnion@12@0AEBVPxTransform@2@1AEBUNarrowPhaseParams@12@AEAUCache@12@AEAVContactBuffer@12@PEAVRenderOutput@Cm@2@@Z 000000018004c980 f   GuContactConvexConvex.obj
 0001:0004bb30       ?contactConvexConvex@Gu@physx@@YA_NAEBVGeometryUnion@12@0AEBVPxTransform@2@1AEBUNarrowPhaseParams@12@AEAUCache@12@AEAVContactBuffer@12@PEAVRenderOutput@Cm@2@@Z 000000018004cb30 f   GuContactConvexConvex.obj
 0001:0004f7d0       ??0Matrix34@Cm@physx@@QEAA@AEBVPxVec3@2@000@Z 00000001800507d0 f i GuContactConvexConvex.obj
 0001:0004f840       ??0PxPlane@physx@@QEAA@AEBVPxVec3@1@M@Z 0000000180050840 f i GuContactConvexConvex.obj
 0001:0004f890       ??0SeparatingAxes@Gu@physx@@QEAA@$$QEAV012@@Z 0000000180050890 f i GuContactConvexConvex.obj
 0001:0004f900       ??0SeparatingAxes@Gu@physx@@QEAA@AEBV012@@Z 0000000180050900 f i GuContactConvexConvex.obj
 0001:0004f970       ??0SeparatingAxes@Gu@physx@@QEAA@XZ 0000000180050970 f i GuContactConvexConvex.obj
 0001:0004f9d0       ??4PxBounds3@physx@@QEAAAEAV01@AEBV01@@Z 00000001800509d0 f i GuContactConvexConvex.obj
 0001:0004fa30       ??4PxPlane@physx@@QEAAAEAV01@$$QEAV01@@Z 0000000180050a30 f i GuContactConvexConvex.obj
 0001:0004fa80       ??4PxTransform@physx@@QEAAAEAV01@$$QEAV01@@Z 0000000180050a80 f i GuContactConvexConvex.obj
 0001:0004fae0       ??4SeparatingAxes@Gu@physx@@QEAAAEAV012@$$QEAV012@@Z 0000000180050ae0 f i GuContactConvexConvex.obj
 0001:0004fb70       ??4SeparatingAxes@Gu@physx@@QEAAAEAV012@AEBV012@@Z 0000000180050b70 f i GuContactConvexConvex.obj
 0001:0004fc00       ??LFastVertex2ShapeScaling@Cm@physx@@QEBA?AVPxVec3@2@AEBV32@@Z 0000000180050c00 f i GuContactConvexConvex.obj
 0001:0004fc50       ?BoxSupport@@YAXQEBMAEBVPxVec3@physx@@QEAM@Z 0000000180050c50 f i GuContactConvexConvex.obj
 0001:0004fd70       ?PxcMultiplyAdd3x4@@YAMIAEBVPxVec3@physx@@0AEBVMatrix34@Cm@2@@Z 0000000180050d70 f i GuContactConvexConvex.obj
 0001:0004fee0       ?PxcMultiplySub3x4@@YAMIAEBVPxVec3@physx@@0AEBVMatrix34@Cm@2@@Z 0000000180050ee0 f i GuContactConvexConvex.obj
 0001:00050000       ?getAxes@SeparatingAxes@Gu@physx@@QEBAPEBVPxVec3@3@XZ 0000000180051000 f i GuContactConvexConvex.obj
 0001:00050020       ?getMax@HullPolygonData@Gu@physx@@QEBAMXZ 0000000180051020 f i GuContactConvexConvex.obj
 0001:00050040       ?getMin@HullPolygonData@Gu@physx@@QEBAMPEIBVPxVec3@3@@Z 0000000180051040 f i GuContactConvexConvex.obj
 0001:00050090       ?getNumAxes@SeparatingAxes@Gu@physx@@QEBAIXZ 0000000180051090 f i GuContactConvexConvex.obj
 0001:000500a0       ?getPolygonVertexRefs@PolygonalData@Gu@physx@@QEBAPEBEAEBUHullPolygonData@23@@Z 00000001800510a0 f i GuContactConvexConvex.obj
 0001:000500d0       ?prefetchLine@shdfnd@physx@@YAXPEBXI@Z 00000001800510d0 f i GuContactConvexConvex.obj
 0001:00050100       ?reset@SeparatingAxes@Gu@physx@@QEAAXXZ 0000000180051100 f i GuContactConvexConvex.obj
 0001:00050120       ?set@Matrix34@Cm@physx@@QEAAXAEBVPxQuat@3@@Z 0000000180051120 f i GuContactConvexConvex.obj
 0001:00050180       ?transformPlaneToShapeSpace@FastVertex2ShapeScaling@Cm@physx@@QEBAXAEBVPxVec3@3@MAEAV43@AEAM@Z 0000000180051180 f i GuContactConvexConvex.obj
 0001:00050240       ?contactBoxMesh@Gu@physx@@YA_NAEBVGeometryUnion@12@0AEBVPxTransform@2@1AEBUNarrowPhaseParams@12@AEAUCache@12@AEAVContactBuffer@12@PEAVRenderOutput@Cm@2@@Z 0000000180051240 f   GuContactConvexMesh.obj
 0001:000503e0       ?contactConvexMesh@Gu@physx@@YA_NAEBVGeometryUnion@12@0AEBVPxTransform@2@1AEBUNarrowPhaseParams@12@AEAUCache@12@AEAVContactBuffer@12@PEAVRenderOutput@Cm@2@@Z 00000001800513e0 f   GuContactConvexMesh.obj
 0001:00050540       ?contactBoxHeightfield@Gu@physx@@YA_NAEBVGeometryUnion@12@0AEBVPxTransform@2@1AEBUNarrowPhaseParams@12@AEAUCache@12@AEAVContactBuffer@12@PEAVRenderOutput@Cm@2@@Z 0000000180051540 f   GuContactConvexMesh.obj
 0001:000506a0       ?contactConvexHeightfield@Gu@physx@@YA_NAEBVGeometryUnion@12@0AEBVPxTransform@2@1AEBUNarrowPhaseParams@12@AEAUCache@12@AEAVContactBuffer@12@PEAVRenderOutput@Cm@2@@Z 00000001800516a0 f   GuContactConvexMesh.obj
 0001:00055210       ??$PxMin@I@physx@@YAIII@Z  0000000180056210 f i GuContactConvexMesh.obj
 0001:00055250       ??0?$Array@IV?$InlineAllocator@$0BBAA@VNamedAllocator@shdfnd@physx@@@shdfnd@physx@@@shdfnd@physx@@QEAA@AEBV?$InlineAllocator@$0BBAA@VNamedAllocator@shdfnd@physx@@@12@@Z 0000000180056250 f i GuContactConvexMesh.obj
 0001:000552c0       ??0?$CacheMap@UCachedEdge@Gu@physx@@$0IA@@Gu@physx@@QEAA@XZ 00000001800562c0 f i GuContactConvexMesh.obj
 0001:00055350       ??0?$CacheMap@UCachedVertex@Gu@physx@@$0IA@@Gu@physx@@QEAA@XZ 0000000180056350 f i GuContactConvexMesh.obj
 0001:000553e0       ??0?$InlineAllocator@$0BBAA@VNamedAllocator@shdfnd@physx@@@shdfnd@physx@@QEAA@AEBV012@@Z 00000001800563e0 f i GuContactConvexMesh.obj
 0001:00055420       ??0?$InlineAllocator@$0BBAA@VNamedAllocator@shdfnd@physx@@@shdfnd@physx@@QEAA@AEBVNamedAllocator@12@@Z 0000000180056420 f i GuContactConvexMesh.obj
 0001:00055460       ??0?$InlineArray@I$0EEA@VNamedAllocator@shdfnd@physx@@@shdfnd@physx@@QEAA@AEBVNamedAllocator@12@@Z 0000000180056460 f i GuContactConvexMesh.obj
 0001:00055510       ??0BoxPadded@Gu@physx@@QEAA@XZ 0000000180056510 f i GuContactConvexMesh.obj
 0001:00055540       ??0CachedEdge@Gu@physx@@QEAA@II@Z 0000000180056540 f i GuContactConvexMesh.obj
 0001:000555a0       ??0CachedEdge@Gu@physx@@QEAA@XZ 00000001800565a0 f i GuContactConvexMesh.obj
 0001:000555b0       ??0CachedVertex@Gu@physx@@QEAA@I@Z 00000001800565b0 f i GuContactConvexMesh.obj
 0001:000555d0       ??0CachedVertex@Gu@physx@@QEAA@XZ 00000001800565d0 f i GuContactConvexMesh.obj
 0001:000555e0       ??0ConvexMeshContactGenerationCallback@@QEAA@AEAV?$InlineArray@I$0EEA@VNamedAllocator@shdfnd@physx@@@shdfnd@physx@@AEBVPxTransform@3@1AEBUPolygonalData@Gu@3@AEBVMatrix34@Cm@3@3PEBVTriangleMesh@63@PEIBEAEBVFastVertex2ShapeScaling@83@6MM_N7M11AEAVContactBuffer@63@AEBVBoxPadded@63@@Z 00000001800565e0 f i GuContactConvexMesh.obj
 0001:00055940       ??0Matrix34@Cm@physx@@QEAA@AEBV012@@Z 0000000180056940 f i GuContactConvexMesh.obj
 0001:000559a0       ??0PxPlane@physx@@QEAA@AEBVPxVec3@1@00@Z 00000001800569a0 f i GuContactConvexMesh.obj
 0001:00055a90       ??0PxTransform@physx@@QEAA@AEBV01@@Z 0000000180056a90 f i GuContactConvexMesh.obj
 0001:00055af0       ??1?$Array@IV?$InlineAllocator@$0BBAA@VNamedAllocator@shdfnd@physx@@@shdfnd@physx@@@shdfnd@physx@@QEAA@XZ 0000000180056af0 f i GuContactConvexMesh.obj
 0001:00055b90       ??1?$InlineAllocator@$0BBAA@VNamedAllocator@shdfnd@physx@@@shdfnd@physx@@QEAA@XZ 0000000180056b90 f i GuContactConvexMesh.obj
 0001:00055bb0       ??1?$InlineArray@I$0EEA@VNamedAllocator@shdfnd@physx@@@shdfnd@physx@@QEAA@XZ 0000000180056bb0 f i GuContactConvexMesh.obj
 0001:00055bd0       ??1BoxPadded@Gu@physx@@QEAA@XZ 0000000180056bd0 f i GuContactConvexMesh.obj
 0001:00055bf0       ??1ConvexMeshContactGenerationCallback@@UEAA@XZ 0000000180056bf0 f i GuContactConvexMesh.obj
 0001:00055c30       ??8CachedEdge@Gu@physx@@QEBA_NAEBU012@@Z 0000000180056c30 f i GuContactConvexMesh.obj
 0001:00055c90       ??8CachedVertex@Gu@physx@@QEBA_NAEBU012@@Z 0000000180056c90 f i GuContactConvexMesh.obj
 0001:00055ce0       ??_GConvexMeshContactGenerationCallback@@UEAAPEAXI@Z 0000000180056ce0 f i GuContactConvexMesh.obj
 0001:00055ce0       ??_EConvexMeshContactGenerationCallback@@UEAAPEAXI@Z 0000000180056ce0 f i GuContactConvexMesh.obj
 0001:00055d30       ??_EConvexVsHeightfieldContactGenerationCallback@?A0xa87faf3f@@UEAAPEAXI@Z 0000000180056d30 f i GuContactConvexMesh.obj
 0001:00055d30       ??_GConvexVsHeightfieldContactGenerationCallback@?A0xa87faf3f@@UEAAPEAXI@Z 0000000180056d30 f i GuContactConvexMesh.obj
 0001:00055d80       ?addData@?$CacheMap@UCachedEdge@Gu@physx@@$0IA@@Gu@physx@@QEAA_NAEBUCachedEdge@23@@Z 0000000180056d80 f i GuContactConvexMesh.obj
 0001:00055f40       ?addData@?$CacheMap@UCachedVertex@Gu@physx@@$0IA@@Gu@physx@@QEAA_NAEBUCachedVertex@23@@Z 0000000180056f40 f i GuContactConvexMesh.obj
 0001:00056100       ?allocate@?$Array@IV?$InlineAllocator@$0BBAA@VNamedAllocator@shdfnd@physx@@@shdfnd@physx@@@shdfnd@physx@@IEAAPEAII@Z 0000000180057100 f i GuContactConvexMesh.obj
 0001:000561b0       ?allocate@?$InlineAllocator@$0BBAA@VNamedAllocator@shdfnd@physx@@@shdfnd@physx@@QEAAPEAXIPEBDH@Z 00000001800571b0 f i GuContactConvexMesh.obj
 0001:00056230       ?begin@?$Array@IV?$InlineAllocator@$0BBAA@VNamedAllocator@shdfnd@physx@@@shdfnd@physx@@@shdfnd@physx@@QEAAPEAIXZ 0000000180057230 f i GuContactConvexMesh.obj
 0001:00056250       ?capacity@?$Array@IV?$InlineAllocator@$0BBAA@VNamedAllocator@shdfnd@physx@@@shdfnd@physx@@@shdfnd@physx@@QEBAIXZ 0000000180057250 f i GuContactConvexMesh.obj
 0001:00056270       ?contains@?$CacheMap@UCachedEdge@Gu@physx@@$0IA@@Gu@physx@@QEBA_NAEBUCachedEdge@23@@Z 0000000180057270 f i GuContactConvexMesh.obj
 0001:00056320       ?contains@?$CacheMap@UCachedVertex@Gu@physx@@$0IA@@Gu@physx@@QEBA_NAEBUCachedVertex@23@@Z 0000000180057320 f i GuContactConvexMesh.obj
 0001:000563d0       ?copy@?$Array@IV?$InlineAllocator@$0BBAA@VNamedAllocator@shdfnd@physx@@@shdfnd@physx@@@shdfnd@physx@@KAXPEAI0PEBI@Z 00000001800573d0 f i GuContactConvexMesh.obj
 0001:000564b0       ?deallocate@?$Array@IV?$InlineAllocator@$0BBAA@VNamedAllocator@shdfnd@physx@@@shdfnd@physx@@@shdfnd@physx@@IEAAXPEAX@Z 00000001800574b0 f i GuContactConvexMesh.obj
 0001:000564e0       ?deallocate@?$InlineAllocator@$0BBAA@VNamedAllocator@shdfnd@physx@@@shdfnd@physx@@QEAAXPEAX@Z 00000001800574e0 f i GuContactConvexMesh.obj
 0001:00056530       ?destroy@?$Array@IV?$InlineAllocator@$0BBAA@VNamedAllocator@shdfnd@physx@@@shdfnd@physx@@@shdfnd@physx@@KAXPEAI0@Z 0000000180057530 f i GuContactConvexMesh.obj
 0001:00056580       ?end@?$Array@IV?$InlineAllocator@$0BBAA@VNamedAllocator@shdfnd@physx@@@shdfnd@physx@@@shdfnd@physx@@QEAAPEAIXZ 0000000180057580 f i GuContactConvexMesh.obj
 0001:000565b0       ?forceSize_Unsafe@?$Array@IV?$InlineAllocator@$0BBAA@VNamedAllocator@shdfnd@physx@@@shdfnd@physx@@@shdfnd@physx@@QEAAXI@Z 00000001800575b0 f i GuContactConvexMesh.obj
 0001:00056650       ?getHashCode@CachedEdge@Gu@physx@@QEBAIXZ 0000000180057650 f i GuContactConvexMesh.obj
 0001:00056680       ?getHashCode@CachedVertex@Gu@physx@@QEBAIXZ 0000000180057680 f i GuContactConvexMesh.obj
 0001:00056690       ?grow@?$Array@IV?$InlineAllocator@$0BBAA@VNamedAllocator@shdfnd@physx@@@shdfnd@physx@@@shdfnd@physx@@IEAAXI@Z 0000000180057690 f i GuContactConvexMesh.obj
 0001:00056730       ?hash@shdfnd@physx@@YAII@Z 0000000180057730 f i GuContactConvexMesh.obj
 0001:000567d0       ?isArrayOfPOD@?$Array@IV?$InlineAllocator@$0BBAA@VNamedAllocator@shdfnd@physx@@@shdfnd@physx@@@shdfnd@physx@@SA_NXZ 00000001800577d0 f i GuContactConvexMesh.obj
 0001:000567e0       ?isInUserMemory@?$Array@IV?$InlineAllocator@$0BBAA@VNamedAllocator@shdfnd@physx@@@shdfnd@physx@@@shdfnd@physx@@QEBAIXZ 00000001800577e0 f i GuContactConvexMesh.obj
 0001:00056b90       ?processHit@ConvexMeshContactGenerationCallback@@UEAA_NAEBUPxRaycastHit@physx@@AEBVPxVec3@3@11AEAMPEBI@Z 0000000180057b90 f i GuContactConvexMesh.obj
 0001:00056ce0       ?recreate@?$Array@IV?$InlineAllocator@$0BBAA@VNamedAllocator@shdfnd@physx@@@shdfnd@physx@@@shdfnd@physx@@IEAAXI@Z 0000000180057ce0 f i GuContactConvexMesh.obj
 0001:00056e60       ?reserve@?$Array@IV?$InlineAllocator@$0BBAA@VNamedAllocator@shdfnd@physx@@@shdfnd@physx@@@shdfnd@physx@@QEAAXI@Z 0000000180057e60 f i GuContactConvexMesh.obj
 0001:00056ea0       ?size@?$Array@IV?$InlineAllocator@$0BBAA@VNamedAllocator@shdfnd@physx@@@shdfnd@physx@@@shdfnd@physx@@QEBAIXZ 0000000180057ea0 f i GuContactConvexMesh.obj
 0001:00056ec0       ?contactPlaneBox@Gu@physx@@YA_NAEBVGeometryUnion@12@0AEBVPxTransform@2@1AEBUNarrowPhaseParams@12@AEAUCache@12@AEAVContactBuffer@12@PEAVRenderOutput@Cm@2@@Z 0000000180057ec0 f   GuContactPlaneBox.obj
 0001:00057a00       ??$PxUnionCast@PEAIPEAM@physx@@YAPEAIPEAM@Z 0000000180058a00 f i GuContactPlaneBox.obj
 0001:00057a60       ?contactPlaneCapsule@Gu@physx@@YA_NAEBVGeometryUnion@12@0AEBVPxTransform@2@1AEBUNarrowPhaseParams@12@AEAUCache@12@AEAVContactBuffer@12@PEAVRenderOutput@Cm@2@@Z 0000000180058a60 f   GuContactPlaneCapsule.obj
 0001:00057d20       ?contactPlaneConvex@Gu@physx@@YA_NAEBVGeometryUnion@12@0AEBVPxTransform@2@1AEBUNarrowPhaseParams@12@AEAUCache@12@AEAVContactBuffer@12@PEAVRenderOutput@Cm@2@@Z 0000000180058d20 f   GuContactPlaneConvex.obj
 0001:00058090       ??4Matrix34@Cm@physx@@QEAAAEBV012@AEBV012@@Z 0000000180059090 f i GuContactPlaneConvex.obj
 0001:000580f0       ??AMatrix34@Cm@physx@@QEAAAEAVPxVec3@2@H@Z 00000001800590f0 f i GuContactPlaneConvex.obj
 0001:00058120       ?contact@ContactBuffer@Gu@physx@@QEAAPEAUContactPoint@23@XZ 0000000180059120 f i GuContactPlaneConvex.obj
 0001:00058190       ?getVertex2ShapeSkew@FastVertex2ShapeScaling@Cm@physx@@QEBAAEBVPxMat33@3@XZ 0000000180059190 f i GuContactPlaneConvex.obj
 0001:00058220       ?findRotationMatrixFromZ@Gu@physx@@YA?AVPxMat33@2@AEBVPxVec3@2@@Z 0000000180059220 f   GuContactPolygonPolygon.obj
 0001:00058960       ?contactPolygonPolygonExt@Gu@physx@@YA_NIPEBVPxVec3@2@PEBEAEBVMatrix34@Cm@2@AEBVPxPlane@2@AEBVPxMat33@2@I01234AEBV32@22IIAEAVContactBuffer@12@_N5M@Z 0000000180059960 f   GuContactPolygonPolygon.obj
 0001:0005b150       ??4ContactPoint@Gu@physx@@QEAAAEAU012@AEBU012@@Z 000000018005c150 f i GuContactPolygonPolygon.obj
 0001:0005b290       ??APxMat33@physx@@QEAAAEAVPxVec3@1@I@Z 000000018005c290 f i GuContactPolygonPolygon.obj
 0001:0005b2c0       ??RPxMat33@physx@@QEAAAEAMII@Z 000000018005c2c0 f i GuContactPolygonPolygon.obj
 0001:0005b300       ?EdgeEdgeContactSpecial@@YA_NAEBVPxVec3@physx@@AEBVPxPlane@2@00000AEAMAEAV12@IIM@Z 000000018005c300 f i GuContactPolygonPolygon.obj
 0001:0005b6d0       ?cross001@shdfnd@physx@@YA?AVPxVec3@2@AEBV32@@Z 000000018005c6d0 f i GuContactPolygonPolygon.obj
 0001:0005b730       ?degToRad@shdfnd@physx@@YAMM@Z 000000018005c730 f i GuContactPolygonPolygon.obj
 0001:0005b750       ?pointInTriangle2D@@YA_NMMMMMMMM@Z 000000018005c750 f i GuContactPolygonPolygon.obj
 0001:0005b960       ?transform2D@@YAXAEAM0AEBVPxVec3@physx@@AEBVMatrix34@Cm@2@@Z 000000018005c960 f i GuContactPolygonPolygon.obj
 0001:0005ba50       ?transform2DT@@YAXAEAM0AEBVPxVec3@physx@@AEBVPxMat33@2@@Z 000000018005ca50 f i GuContactPolygonPolygon.obj
 0001:0005bac0       ?transformTranspose@@YA?AVMatrix34@Cm@physx@@AEBVPxMat33@3@AEBV123@@Z 000000018005cac0 f i GuContactPolygonPolygon.obj
 0001:0005bbe0       ?transformZ@@YAMAEBVPxVec3@physx@@AEBVMatrix34@Cm@2@@Z 000000018005cbe0 f i GuContactPolygonPolygon.obj
 0001:0005bc50       ?contactSphereBox@Gu@physx@@YA_NAEBVGeometryUnion@12@0AEBVPxTransform@2@1AEBUNarrowPhaseParams@12@AEAUCache@12@AEAVContactBuffer@12@PEAVRenderOutput@Cm@2@@Z 000000018005cc50 f   GuContactSphereBox.obj
 0001:0005c4e0       ??$checkType@$$CBVPxSphereGeometry@physx@@@physx@@YAXAEBVGeometryUnion@Gu@0@@Z 000000018005d4e0 f i GuContactSphereBox.obj
 0001:0005c570       ??$get@$$CBVPxSphereGeometry@physx@@@GeometryUnion@Gu@physx@@QEBAAEBVPxSphereGeometry@2@XZ 000000018005d570 f i GuContactSphereBox.obj
 0001:0005c620       ?contactSphereCapsule@Gu@physx@@YA_NAEBVGeometryUnion@12@0AEBVPxTransform@2@1AEBUNarrowPhaseParams@12@AEAUCache@12@AEAVContactBuffer@12@PEAVRenderOutput@Cm@2@@Z 000000018005d620 f   GuContactSphereCapsule.obj
 0001:0005c970       ?distancePointSegmentSquared@Gu@physx@@YAMAEBVPxVec3@2@00PEAM@Z 000000018005d970 f i GuContactSphereCapsule.obj
 0001:0005c9d0       ?distancePointSegmentSquared@Gu@physx@@YAMAEBVSegment@12@AEBVPxVec3@2@PEAM@Z 000000018005d9d0 f i GuContactSphereCapsule.obj
 0001:0005ca20       ?distancePointSegmentSquaredInternal@Gu@physx@@YAMAEBVPxVec3@2@00PEAM@Z 000000018005da20 f i GuContactSphereCapsule.obj
 0001:0005cbd0       ?contactSphereMesh@Gu@physx@@YA_NAEBVGeometryUnion@12@0AEBVPxTransform@2@1AEBUNarrowPhaseParams@12@AEAUCache@12@AEAVContactBuffer@12@PEAVRenderOutput@Cm@2@@Z 000000018005dbd0 f   GuContactSphereMesh.obj
 0001:0005cef0       ?contactSphereHeightfield@Gu@physx@@YA_NAEBVGeometryUnion@12@0AEBVPxTransform@2@1AEBUNarrowPhaseParams@12@AEAUCache@12@AEAVContactBuffer@12@PEAVRenderOutput@Cm@2@@Z 000000018005def0 f   GuContactSphereMesh.obj
 0001:0005de20       ??$median3@USortKey@@$$CBU?$Less@USortKey@@@shdfnd@physx@@@internal@shdfnd@physx@@YAXPEAUSortKey@@HHAEBU?$Less@USortKey@@@12@@Z 000000018005ee20 f i GuContactSphereMesh.obj
 0001:0005dfe0       ??$partition@USortKey@@$$CBU?$Less@USortKey@@@shdfnd@physx@@@internal@shdfnd@physx@@YAHPEAUSortKey@@HHAEBU?$Less@USortKey@@@12@@Z 000000018005efe0 f i GuContactSphereMesh.obj
 0001:0005e240       ??$smallSort@USortKey@@$$CBU?$Less@USortKey@@@shdfnd@physx@@@internal@shdfnd@physx@@YAXPEAUSortKey@@HHAEBU?$Less@USortKey@@@12@@Z 000000018005f240 f i GuContactSphereMesh.obj
 0001:0005e6f0       ??$swap@USortKey@@@shdfnd@physx@@YAXAEAUSortKey@@0@Z 000000018005f6f0 f i GuContactSphereMesh.obj
 0001:0005e740       ??0?$ScopedPointer@HVTempAllocator@shdfnd@physx@@@shdfnd@physx@@QEAA@XZ 000000018005f740 f i GuContactSphereMesh.obj
 0001:0005eb50       ??0TempAllocator@shdfnd@physx@@QEAA@PEBD@Z 000000018005fb50 f i GuContactSphereMesh.obj
 0001:0005eb70       ??0TriangleData@@QEAA@XZ   000000018005fb70 f i GuContactSphereMesh.obj
 0001:0005eba0       ??1?$ScopedPointer@HVTempAllocator@shdfnd@physx@@@shdfnd@physx@@QEAA@XZ 000000018005fba0 f i GuContactSphereMesh.obj
 0001:0005ecc0       ??B?$ScopedPointer@HVTempAllocator@shdfnd@physx@@@shdfnd@physx@@QEBAPEAHXZ 000000018005fcc0 f i GuContactSphereMesh.obj
 0001:0005ece0       ??MSortKey@@QEBA_NAEBU0@@Z 000000018005fce0 f i GuContactSphereMesh.obj
 0001:0005ed30       ??R?$Less@USortKey@@@shdfnd@physx@@QEBA_NAEBUSortKey@@0@Z 000000018005fd30 f i GuContactSphereMesh.obj
 0001:0005ed60       ??_GSphereHeightfieldContactGenerationCallback@?A0x52c5832b@@UEAAPEAXI@Z 000000018005fd60 f i GuContactSphereMesh.obj
 0001:0005ed60       ??_ESphereHeightfieldContactGenerationCallback@?A0x52c5832b@@UEAAPEAXI@Z 000000018005fd60 f i GuContactSphereMesh.obj
 0001:0005edb0       ??_ESphereMeshContactGenerationCallback_NoScale@?A0x52c5832b@@UEAAPEAXI@Z 000000018005fdb0 f i GuContactSphereMesh.obj
 0001:0005edb0       ??_GSphereMeshContactGenerationCallback_NoScale@?A0x52c5832b@@UEAAPEAXI@Z 000000018005fdb0 f i GuContactSphereMesh.obj
 0001:0005ee00       ??_GSphereMeshContactGenerationCallback_Scale@?A0x52c5832b@@UEAAPEAXI@Z 000000018005fe00 f i GuContactSphereMesh.obj
 0001:0005ee00       ??_ESphereMeshContactGenerationCallback_Scale@?A0x52c5832b@@UEAAPEAXI@Z 000000018005fe00 f i GuContactSphereMesh.obj
 0001:00060220       ?transformInv@PxTransform@physx@@QEBA?AVPxVec3@2@AEBV32@@Z 0000000180061220 f i GuContactSphereMesh.obj
 0001:000602f0       ?contactSpherePlane@Gu@physx@@YA_NAEBVGeometryUnion@12@0AEBVPxTransform@2@1AEBUNarrowPhaseParams@12@AEAUCache@12@AEAVContactBuffer@12@PEAVRenderOutput@Cm@2@@Z 00000001800612f0 f   GuContactSpherePlane.obj
 0001:00060450       ?contactSphereSphere@Gu@physx@@YA_NAEBVGeometryUnion@12@0AEBVPxTransform@2@1AEBUNarrowPhaseParams@12@AEAUCache@12@AEAVContactBuffer@12@PEAVRenderOutput@Cm@2@@Z 0000000180061450 f   GuContactSphereSphere.obj
 0001:000606a0       ?selectNormal@Gu@physx@@YA_NEMM@Z 00000001800616a0 f   GuFeatureCode.obj
 0001:000608d0       ?legacyContactBoxHeightfield@Gu@physx@@YA_NAEBVGeometryUnion@12@0AEBVPxTransform@2@1AEBUNarrowPhaseParams@12@AEAUCache@12@AEAVContactBuffer@12@PEAVRenderOutput@Cm@2@@Z 00000001800618d0 f   GuLegacyContactBoxHeightField.obj
 0001:000623d0       ??$PxMax@M@physx@@YAMMM@Z  00000001800633d0 f i GuLegacyContactBoxHeightField.obj
 0001:00062400       ??$PxMin@H@physx@@YAHHH@Z  0000000180063400 f i GuLegacyContactBoxHeightField.obj
 0001:00062440       ??$PxMin@M@physx@@YAMMM@Z  0000000180063440 f i GuLegacyContactBoxHeightField.obj
 0001:00062470       ??$swap@I@shdfnd@physx@@YAXAEAI0@Z 0000000180063470 f i GuLegacyContactBoxHeightField.obj
 0001:000624c0       ??$swap@PEBVPxVec3@physx@@@shdfnd@physx@@YAXAEAPEBVPxVec3@1@0@Z 00000001800634c0 f i GuLegacyContactBoxHeightField.obj
 0001:00062510       ??$traceSegment@UGuContactTraceSegmentCallback@Gu@physx@@$00$0A@@HeightFieldUtil@Gu@physx@@QEBAXAEBVPxVec3@2@0MPEAUGuContactTraceSegmentCallback@12@AEBVPxBounds3@2@_NPEBV32@@Z 0000000180063510 f i GuLegacyContactBoxHeightField.obj
 0001:00064f50       ??0?$OverlapTraceSegment@UGuContactTraceSegmentCallback@Gu@physx@@@HeightFieldUtil@Gu@physx@@QEAA@AEBV123@AEBVHeightField@23@@Z 0000000180065f50 f i GuLegacyContactBoxHeightField.obj
 0001:00064fb0       ??0GuContactHeightfieldTraceSegmentHelper@Gu@physx@@QEAA@AEBVHeightFieldUtil@12@@Z 0000000180065fb0 f i GuLegacyContactBoxHeightField.obj
 0001:00065020       ??0GuContactTraceSegmentCallback@Gu@physx@@QEAA@AEBVPxVec3@2@AEAVContactBuffer@12@VMatrix34@Cm@2@M@Z 0000000180066020 f i GuLegacyContactBoxHeightField.obj
 0001:000650c0       ?PxSign@physx@@YAMM@Z      00000001800660c0 f i GuLegacyContactBoxHeightField.obj
 0001:000650e0       ?addIndex@?$OverlapTraceSegment@UGuContactTraceSegmentCallback@Gu@physx@@@HeightFieldUtil@Gu@physx@@QEAA_NI@Z 00000001800660e0 f i GuLegacyContactBoxHeightField.obj
 0001:00065160       ?ceil@shdfnd@physx@@YAMM@Z 0000000180066160 f i GuLegacyContactBoxHeightField.obj
 0001:00065190       ?computeRectangleDifference@?$OverlapTraceSegment@UGuContactTraceSegmentCallback@Gu@physx@@@HeightFieldUtil@Gu@physx@@QEAAXAEBUOverlapRectangle@1234@0AEAUOverlapLine@1234@@Z 0000000180066190 f i GuLegacyContactBoxHeightField.obj
 0001:000652d0       ?faceHit@GuContactTraceSegmentCallback@Gu@physx@@QEAA_NAEBVHeightFieldUtil@23@AEBVPxVec3@3@IMM@Z 00000001800662d0 f i GuLegacyContactBoxHeightField.obj
 0001:000652f0       ?floatFloor@shdfnd@physx@@YAMM@Z 00000001800662f0 f i GuLegacyContactBoxHeightField.obj
 0001:00065320       ?floor@shdfnd@physx@@YAMM@Z 0000000180066320 f i GuLegacyContactBoxHeightField.obj
 0001:00065340       ?getMax@HeightField@Gu@physx@@QEBAIMI@Z 0000000180066340 f i GuLegacyContactBoxHeightField.obj
 0001:000653c0       ?getMaxColumn@HeightField@Gu@physx@@QEBAIM@Z 00000001800663c0 f i GuLegacyContactBoxHeightField.obj
 0001:00065400       ?getMaxRow@HeightField@Gu@physx@@QEBAIM@Z 0000000180066400 f i GuLegacyContactBoxHeightField.obj
 0001:00065440       ?getMin@HeightField@Gu@physx@@QEBAIMI@Z 0000000180066440 f i GuLegacyContactBoxHeightField.obj
 0001:000654c0       ?getMinColumn@HeightField@Gu@physx@@QEBAIM@Z 00000001800664c0 f i GuLegacyContactBoxHeightField.obj
 0001:00065500       ?getMinRow@HeightField@Gu@physx@@QEBAIM@Z 0000000180066500 f i GuLegacyContactBoxHeightField.obj
 0001:00065540       ?getThicknessFast@HeightField@Gu@physx@@QEBAMXZ 0000000180066540 f i GuLegacyContactBoxHeightField.obj
 0001:00065560       ?init@?$OverlapTraceSegment@UGuContactTraceSegmentCallback@Gu@physx@@@HeightFieldUtil@Gu@physx@@QEAA_NHHHHHPEAUGuContactTraceSegmentCallback@34@@Z 0000000180066560 f i GuLegacyContactBoxHeightField.obj
 0001:000656e0       ?initialized@?$OverlapTraceSegment@UGuContactTraceSegmentCallback@Gu@physx@@@HeightFieldUtil@Gu@physx@@QEBA_NXZ 00000001800666e0 f i GuLegacyContactBoxHeightField.obj
 0001:00065700       ?invalidate@OverlapRectangle@?$OverlapTraceSegment@UGuContactTraceSegmentCallback@Gu@physx@@@HeightFieldUtil@Gu@physx@@QEAAXXZ 0000000180066700 f i GuLegacyContactBoxHeightField.obj
 0001:00065750       ?isDeltaHeightInsideExtent@HeightField@Gu@physx@@QEBA_NMM@Z 0000000180066750 f i GuLegacyContactBoxHeightField.obj
 0001:00065810       ?onEvent@GuContactTraceSegmentCallback@Gu@physx@@QEAA_NIPEAI@Z 0000000180066810 f i GuLegacyContactBoxHeightField.obj
 0001:00065830       ?prepare@?$OverlapTraceSegment@UGuContactTraceSegmentCallback@Gu@physx@@@HeightFieldUtil@Gu@physx@@QEAAXAEBVPxVec3@4@00AEAM1@Z 0000000180066830 f i GuLegacyContactBoxHeightField.obj
 0001:00065b80       ?reportOverlaps@?$OverlapTraceSegment@UGuContactTraceSegmentCallback@Gu@physx@@@HeightFieldUtil@Gu@physx@@QEAA_NXZ 0000000180066b80 f i GuLegacyContactBoxHeightField.obj
 0001:00065c00       ?sign@intrinsics@physx@@YAMM@Z 0000000180066c00 f i GuLegacyContactBoxHeightField.obj
 0001:00065c50       ?step@?$OverlapTraceSegment@UGuContactTraceSegmentCallback@Gu@physx@@@HeightFieldUtil@Gu@physx@@QEAA_NHH@Z 0000000180066c50 f i GuLegacyContactBoxHeightField.obj
 0001:00065d80       ?testVertexIndex@?$OverlapTraceSegment@UGuContactTraceSegmentCallback@Gu@physx@@@HeightFieldUtil@Gu@physx@@QEAA_NI@Z 0000000180066d80 f i GuLegacyContactBoxHeightField.obj
 0001:00065f80       ?traceSegment@GuContactHeightfieldTraceSegmentHelper@Gu@physx@@QEBAXAEBVPxVec3@3@0PEAUGuContactTraceSegmentCallback@23@@Z 0000000180066f80 f i GuLegacyContactBoxHeightField.obj
 0001:00066030       ?transformTranspose@Matrix34@Cm@physx@@QEBA?AVPxVec3@3@AEBV43@@Z 0000000180067030 f i GuLegacyContactBoxHeightField.obj
 0001:00066090       ?underFaceHit@GuContactTraceSegmentCallback@Gu@physx@@QEAA_NAEBVHeightFieldUtil@23@AEBVPxVec3@3@1MMMI@Z 0000000180067090 f i GuLegacyContactBoxHeightField.obj
 0001:00066390       ?visitCells@?$OverlapTraceSegment@UGuContactTraceSegmentCallback@Gu@physx@@@HeightFieldUtil@Gu@physx@@QEAA_NAEBUOverlapLine@1234@@Z 0000000180067390 f i GuLegacyContactBoxHeightField.obj
 0001:000665d0       ?visitCells@?$OverlapTraceSegment@UGuContactTraceSegmentCallback@Gu@physx@@@HeightFieldUtil@Gu@physx@@QEAA_NAEBUOverlapRectangle@1234@@Z 00000001800675d0 f i GuLegacyContactBoxHeightField.obj
 0001:00066790       ?legacyContactCapsuleHeightfield@Gu@physx@@YA_NAEBVGeometryUnion@12@0AEBVPxTransform@2@1AEBUNarrowPhaseParams@12@AEAUCache@12@AEAVContactBuffer@12@PEAVRenderOutput@Cm@2@@Z 0000000180067790 f   GuLegacyContactCapsuleHeightField.obj
 0001:000680f0       ??0PxSphereGeometry@physx@@QEAA@M@Z 00000001800690f0 f i GuLegacyContactCapsuleHeightField.obj
 0001:00068140       ??0PxTransform@physx@@QEAA@AEBVPxVec3@1@@Z 0000000180069140 f i GuLegacyContactCapsuleHeightField.obj
 0001:00068190       ??B?$PxFlags@W4Enum@PxMeshGeometryFlag@physx@@E@physx@@QEBAIXZ 0000000180069190 f i GuLegacyContactCapsuleHeightField.obj
 0001:000681b0       ?getEdgeTriangleIndices@HeightField@Gu@physx@@QEBAIIQEAI@Z 00000001800691b0 f i GuLegacyContactCapsuleHeightField.obj
 0001:00068430       ?getTriangleVertices@HeightField@Gu@physx@@QEBAXIIIAEAVPxVec3@3@00@Z 0000000180069430 f i GuLegacyContactCapsuleHeightField.obj
 0001:000689f0       ?isDeltaHeightOppositeExtent@HeightField@Gu@physx@@QEBA_NM@Z 00000001800699f0 f i GuLegacyContactCapsuleHeightField.obj
 0001:00068b20       ?legacyContactConvexHeightfield@Gu@physx@@YA_NAEBVGeometryUnion@12@0AEBVPxTransform@2@1AEBUNarrowPhaseParams@12@AEAUCache@12@AEAVContactBuffer@12@PEAVRenderOutput@Cm@2@@Z 0000000180069b20 f   GuLegacyContactConvexHeightField.obj
 0001:0006a490       ??0EdgeCache@Gu@physx@@QEAA@XZ 000000018006b490 f i GuLegacyContactConvexHeightField.obj
 0001:0006a4c0       ?hash@EdgeCache@Gu@physx@@QEBAII@Z 000000018006b4c0 f i GuLegacyContactConvexHeightField.obj
 0001:0006a4f0       ?isInCache@EdgeCache@Gu@physx@@QEAA_NEE@Z 000000018006b4f0 f i GuLegacyContactConvexHeightField.obj
 0001:0006a5f0       ?legacyContactSphereHeightfield@Gu@physx@@YA_NAEBVGeometryUnion@12@0AEBVPxTransform@2@1AEBUNarrowPhaseParams@12@AEAUCache@12@AEAVContactBuffer@12@PEAVRenderOutput@Cm@2@@Z 000000018006b5f0 f   GuLegacyContactSphereHeightField.obj
 0001:0006a670       ?GuContactSphereHeightFieldShared@@YA_NAEBVGeometryUnion@Gu@physx@@0AEBVPxTransform@3@1AEBUNarrowPhaseParams@23@AEAUCache@23@AEAVContactBuffer@23@PEAVRenderOutput@Cm@3@_N@Z 000000018006b670 f   GuLegacyContactSphereHeightField.obj
 0001:0006bcc0       ?contact@ContactBuffer@Gu@physx@@QEAA_NAEBVPxVec3@3@0MGI@Z 000000018006ccc0 f i GuLegacyContactSphereHeightField.obj
 0001:0006be30       ?getBasisVector1@PxQuat@physx@@QEBA?AVPxVec3@2@XZ 000000018006ce30 f i GuLegacyContactSphereHeightField.obj
 0001:0006bf50       ?barycentricCoordinates@Gu@physx@@YAXAEBT__m128@@00AEAT3@@Z 000000018006cf50 f   GuBarycentricCoordinates.obj
 0001:0006c150       ?barycentricCoordinates@Gu@physx@@YAXAEBT__m128@@000AEAT3@1@Z 000000018006d150 f   GuBarycentricCoordinates.obj
 0001:0006c790       ?barycentricCoordinates@Gu@physx@@YAXAEBT__m128@@00AEAT3@1@Z 000000018006d790 f   GuBarycentricCoordinates.obj
 0001:0006cf40       ?FIsEq@aos@shdfnd@physx@@YA?AT__m128@@T4@0@Z 000000018006df40 f i GuBarycentricCoordinates.obj
 0001:0006d090       ?addAxis@SeparatingAxes@Gu@physx@@QEAA_NAEBVPxVec3@3@@Z 000000018006e090 f   GuSeparatingAxes.obj
 0001:0006d1a0       ??0BigConvexData@physx@@QEAA@XZ 000000018006e1a0 f   GuBigConvexData.obj
 0001:0006d220       ??1BigConvexData@physx@@QEAA@XZ 000000018006e220 f   GuBigConvexData.obj
 0001:0006d2c0       ?Load@BigConvexData@physx@@QEAA_NAEAVPxInputStream@2@@Z 000000018006e2c0 f   GuBigConvexData.obj
 0001:0006d420       ?ComputeOffset@BigConvexData@physx@@QEBAIAEBVPxVec3@2@@Z 000000018006e420 f   GuBigConvexData.obj
 0001:0006d450       ?ComputeNearestOffset@BigConvexData@physx@@QEBAIAEBVPxVec3@2@@Z 000000018006e450 f   GuBigConvexData.obj
 0001:0006d480       ?exportExtraData@BigConvexData@physx@@QEAAXAEAVPxSerializationContext@2@@Z 000000018006e480 f   GuBigConvexData.obj
 0001:0006d560       ?importExtraData@BigConvexData@physx@@QEAAXAEAVPxDeserializationContext@2@@Z 000000018006e560 f   GuBigConvexData.obj
 0001:0006d610       ?CreateOffsets@BigConvexData@physx@@IEAAXXZ 000000018006e610 f   GuBigConvexData.obj
 0001:0006d6a0       ?VLoad@BigConvexData@physx@@IEAA_NAEAVPxInputStream@2@@Z 000000018006e6a0 f   GuBigConvexData.obj
 0001:0006dbb0       ??$readExtraData@E$0BA@@PxDeserializationContext@physx@@QEAAPEAEI@Z 000000018006ebb0 f i GuBigConvexData.obj
 0001:0006dbf0       ??$readExtraData@E@PxDeserializationContext@physx@@QEAAPEAEI@Z 000000018006ebf0 f i GuBigConvexData.obj
 0001:0006dc40       ??$readExtraData@UValency@Gu@physx@@@PxDeserializationContext@physx@@QEAAPEAUValency@Gu@1@I@Z 000000018006ec40 f i GuBigConvexData.obj
 0001:0006dc90       ??0BigConvexData@physx@@QEAA@W4PxEMPTY@1@@Z 000000018006ec90 f i GuBigConvexData.obj
 0001:0006dcb0       ??4BigConvexData@physx@@QEAAAEAV01@AEBV01@@Z 000000018006ecb0 f i GuBigConvexData.obj
 0001:0006dce0       ?ComputeCubemapOffset@physx@@YAIAEBVPxVec3@1@I@Z 000000018006ece0 f i GuBigConvexData.obj
 0001:0006dde0       ?GetAdjacentVerts@BigConvexData@physx@@QEBAPEBEXZ 000000018006ede0 f i GuBigConvexData.obj
 0001:0006de00       ?GetNbNeighbors@BigConvexData@physx@@QEBAGI@Z 000000018006ee00 f i GuBigConvexData.obj
 0001:0006de30       ?GetNbSamples@BigConvexData@physx@@QEBAIXZ 000000018006ee30 f i GuBigConvexData.obj
 0001:0006de50       ?GetNbVerts@BigConvexData@physx@@QEBAIXZ 000000018006ee50 f i GuBigConvexData.obj
 0001:0006de70       ?GetNeighbors@BigConvexData@physx@@QEBAPEBEI@Z 000000018006ee70 f i GuBigConvexData.obj
 0001:0006deb0       ?GetOffset@BigConvexData@physx@@QEBAGI@Z 000000018006eeb0 f i GuBigConvexData.obj
 0001:0006dee0       ?GetSubdiv@BigConvexData@physx@@QEBAIXZ 000000018006eee0 f i GuBigConvexData.obj
 0001:0006df00       ?GetValencies@BigConvexData@physx@@QEBAPEBUValency@Gu@2@XZ 000000018006ef00 f i GuBigConvexData.obj
 0001:0006df20       ?GetValency@BigConvexData@physx@@QEBAGI@Z 000000018006ef20 f i GuBigConvexData.obj
 0001:0006df50       ?__global_array_delete@@YAXPEAX@Z 000000018006ef50 f i GuBigConvexData.obj
 0001:0006df70       ?__global_array_delete@@YAXPEAX_K@Z 000000018006ef70 f i GuBigConvexData.obj
 0001:0006dfa0       ?__global_delete@@YAXPEAX@Z 000000018006efa0 f i GuBigConvexData.obj
 0001:0006dfc0       ?__global_delete@@YAXPEAX_K@Z 000000018006efc0 f i GuBigConvexData.obj
 0001:0006dff0       ?to16@shdfnd@physx@@YAGI@Z 000000018006eff0 f i GuBigConvexData.obj
 0001:0006e070       ?getScaledConvex@Gu@physx@@YAXAEAPEAVPxVec3@2@AEAPEAEPEAV32@PEAE_NPEBV32@PEBEIAEBVFastVertex2ShapeScaling@Cm@2@@Z 000000018006f070 f   GuConvexHelper.obj
 0001:0006e160       ?getConvexData@Gu@physx@@YA_NAEBVGeometryUnion@12@AEAVFastVertex2ShapeScaling@Cm@2@AEAVPxBounds3@2@AEAUPolygonalData@12@@Z 000000018006f160 f   GuConvexHelper.obj
 0001:0006e2a0       ?findUniqueConvexEdges@Gu@physx@@YAIIPEIAUConvexEdge@12@IPEIBUHullPolygonData@12@PEIBE@Z 000000018006f2a0 f   GuConvexHelper.obj
 0001:0006e650       ??$PX_UNUSED@VPxVec3@physx@@@@YAXAEBVPxVec3@physx@@@Z 000000018006f650 f i GuConvexHelper.obj
 0001:0006e660       ?isEmpty@CenterExtents@Gu@physx@@QEBA_NXZ 000000018006f660 f i GuConvexHelper.obj
 0001:0006e690       ?isEmpty@Cm@physx@@YA_NAEBVPxVec3@2@0@Z 000000018006f690 f i GuConvexHelper.obj
 0001:0006e760       ?isValid@CenterExtents@Gu@physx@@QEBA_NXZ 000000018006f760 f i GuConvexHelper.obj
 0001:0006e790       ?isValid@Cm@physx@@YA_NAEBVPxVec3@2@0@Z 000000018006f790 f i GuConvexHelper.obj
 0001:0006e870       ?reset@InternalObjectsData@Gu@physx@@QEAAXXZ 000000018006f870 f i GuConvexHelper.obj
 0001:0006e8e0       ?transformFast@CenterExtents@Gu@physx@@QEBA?AVPxBounds3@3@AEBVPxMat33@3@@Z 000000018006f8e0 f i GuConvexHelper.obj
 0001:0006ea80       ?exportExtraData@ConvexMesh@Gu@physx@@UEAAXAEAVPxSerializationContext@3@@Z 000000018006fa80 f   GuConvexMesh.obj
 0001:0006eb40       ?importExtraData@ConvexMesh@Gu@physx@@QEAAXAEAVPxDeserializationContext@3@@Z 000000018006fb40 f   GuConvexMesh.obj
 0001:0006ec20       ?onRefCountZero@ConvexMesh@Gu@physx@@UEAAXXZ 000000018006fc20 f   GuConvexMesh.obj
 0001:0006ece0       ?createObject@ConvexMesh@Gu@physx@@SAPEAV123@AEAPEAEAEAVPxDeserializationContext@3@@Z 000000018006fce0 f   GuConvexMesh.obj
 0001:0006eda0       ??0ConvexMesh@Gu@physx@@QEAA@XZ 000000018006fda0 f   GuConvexMesh.obj
 0001:0006ee90       ??0ConvexMesh@Gu@physx@@QEAA@AEAVGuMeshFactory@2@AEAUConvexHullData@12@@Z 000000018006fe90 f   GuConvexMesh.obj
 0001:0006efa0       ?load@ConvexMesh@Gu@physx@@QEAA_NAEAVPxInputStream@3@@Z 000000018006ffa0 f   GuConvexMesh.obj
 0001:0006f650       ?release@ConvexMesh@Gu@physx@@UEAAXXZ 0000000180070650 f   GuConvexMesh.obj
 0001:0006f680       ?getPolygonData@ConvexMesh@Gu@physx@@UEBA_NIAEAUPxHullPolygon@3@@Z 0000000180070680 f   GuConvexMesh.obj
 0001:0006f760       ?isGpuCompatible@ConvexMesh@Gu@physx@@UEBA_NXZ 0000000180070760 f   GuConvexMesh.obj
 0001:0006f7d0       ?getReferenceCount@ConvexMesh@Gu@physx@@UEBAIXZ 00000001800707d0 f   GuConvexMesh.obj
 0001:0006f800       ?acquireReference@ConvexMesh@Gu@physx@@UEAAXXZ 0000000180070800 f   GuConvexMesh.obj
 0001:0006f830       ?getMassInformation@ConvexMesh@Gu@physx@@UEBAXAEAMAEAVPxMat33@3@AEAVPxVec3@3@@Z 0000000180070830 f   GuConvexMesh.obj
 0001:0006f8a0       ?getLocalBounds@ConvexMesh@Gu@physx@@UEBA?AVPxBounds3@3@XZ 00000001800708a0 f   GuConvexMesh.obj
 0001:0006f940       ??1ConvexMesh@Gu@physx@@UEAA@XZ 0000000180070940 f   GuConvexMesh.obj
 0001:00070a80       ??$PX_UNUSED@G@@YAXAEBG@Z  0000000180071a80 f i GuConvexMesh.obj
 0001:00070a90       ??$deletePxBase@VConvexMesh@Gu@physx@@@Cm@physx@@YAXPEAVConvexMesh@Gu@1@@Z 0000000180071a90 f i GuConvexMesh.obj
 0001:00070b50       ??$readExtraData@VBigConvexData@physx@@$0BA@@PxDeserializationContext@physx@@QEAAPEAVBigConvexData@1@I@Z 0000000180071b50 f i GuConvexMesh.obj
 0001:00070b90       ??$readExtraData@VBigConvexData@physx@@@PxDeserializationContext@physx@@QEAAPEAVBigConvexData@1@I@Z 0000000180071b90 f i GuConvexMesh.obj
 0001:00070be0       ??0?$PxBitAndDataT@G$0IAAA@@physx@@QEAA@G_N@Z 0000000180071be0 f i GuConvexMesh.obj
 0001:00070c40       ??0?$PxBitAndDataT@G$0IAAA@@physx@@QEAA@XZ 0000000180071c40 f i GuConvexMesh.obj
 0001:00070c60       ??0?$PxBitAndDataT@I$0IAAAAAAA@@physx@@QEAA@I_N@Z 0000000180071c60 f i GuConvexMesh.obj
 0001:00070cc0       ??0?$PxFlags@W4Enum@PxBaseFlag@physx@@G@physx@@QEAA@W4Enum@PxBaseFlag@1@@Z 0000000180071cc0 f i GuConvexMesh.obj
 0001:00070cf0       ??0?$ReflectionAllocator@VBigConvexData@physx@@@shdfnd@physx@@QEAA@PEBD@Z 0000000180071cf0 f i GuConvexMesh.obj
 0001:00070d10       ??0CenterExtents@Gu@physx@@QEAA@AEBVPxBounds3@2@@Z 0000000180071d10 f i GuConvexMesh.obj
 0001:00070da0       ??0ConvexHullData@Gu@physx@@QEAA@XZ 0000000180071da0 f i GuConvexMesh.obj
 0001:00070e00       ??0PxBase@physx@@IEAA@GV?$PxFlags@W4Enum@PxBaseFlag@physx@@G@1@@Z 0000000180071e00 f i GuConvexMesh.obj
 0001:00070e70       ??0PxConvexMesh@physx@@IEAA@GV?$PxFlags@W4Enum@PxBaseFlag@physx@@G@1@@Z 0000000180071e70 f i GuConvexMesh.obj
 0001:00070ee0       ??0RefCountable@Cm@physx@@QEAA@I@Z 0000000180071ee0 f i GuConvexMesh.obj
 0001:00070f90       ??1ConvexHullData@Gu@physx@@QEAA@XZ 0000000180071f90 f i GuConvexMesh.obj
 0001:00070fc0       ??2UserAllocated@shdfnd@physx@@SAPEAX_KPEAX@Z 0000000180071fc0 f i GuConvexMesh.obj
 0001:00070fe0       ??4ConvexHullData@Gu@physx@@QEAAAEAU012@AEBU012@@Z 0000000180071fe0 f i GuConvexMesh.obj
 0001:000710d0       ??B?$PxBitAndDataT@I$0IAAAAAAA@@physx@@QEBAIXZ 00000001800720d0 f i GuConvexMesh.obj
 0001:000710f0       ??Uphysx@@YA?AV?$PxFlags@W4Enum@PxBaseFlag@physx@@G@0@W4Enum@PxBaseFlag@0@0@Z 00000001800720f0 f i GuConvexMesh.obj
 0001:00071150       ??_5?$PxFlags@W4Enum@PxBaseFlag@physx@@G@physx@@QEAAAEAV01@W4Enum@PxBaseFlag@1@@Z 0000000180072150 f i GuConvexMesh.obj
 0001:00071190       ??_GBigConvexData@physx@@QEAAPEAXI@Z 0000000180072190 f i GuConvexMesh.obj
 0001:00071200       ?ReadDwordBuffer@physx@@YA_NPEAII_NAEAVPxInputStream@1@@Z 0000000180072200 f i GuConvexMesh.obj
 0001:00071250       ?allocate@?$ReflectionAllocator@VBigConvexData@physx@@@shdfnd@physx@@QEAAPEAX_KPEBDH@Z 0000000180072250 f i GuConvexMesh.obj
 0001:000712f0       ?centerExtents@PxBounds3@physx@@SA?AV12@AEBVPxVec3@2@0@Z 00000001800722f0 f i GuConvexMesh.obj
 0001:00071370       ?computeBufferSize@Gu@physx@@YAIAEBUConvexHullData@12@I@Z 0000000180072370 f i GuConvexMesh.obj
 0001:000714d0       ?decRefCount@RefCountable@Cm@physx@@QEAAXXZ 00000001800724d0 f i GuConvexMesh.obj
 0001:00071580       ?flip@physx@@YAXAEAG@Z     0000000180072580 f i GuConvexMesh.obj
 0001:00071600       ?flip@physx@@YAXAEAM@Z     0000000180072600 f i GuConvexMesh.obj
 0001:000716f0       ?flipData@Gu@physx@@YAXAEAUHullPolygonData@12@@Z 00000001800726f0 f i GuConvexMesh.obj
 0001:00071770       ?getBaseFlags@PxBase@physx@@QEBA?AV?$PxFlags@W4Enum@PxBaseFlag@physx@@G@2@XZ 0000000180072770 f i GuConvexMesh.obj
 0001:000717b0       ?getBufferSize@ConvexMesh@Gu@physx@@QEBAIXZ 00000001800727b0 f i GuConvexMesh.obj
 0001:000717f0       ?getHull@ConvexMesh@Gu@physx@@QEBAAEBUConvexHullData@23@XZ 00000001800727f0 f i GuConvexMesh.obj
 0001:00071810       ?getInertia@ConvexMesh@Gu@physx@@QEBAAEBVPxMat33@3@XZ 0000000180072810 f i GuConvexMesh.obj
 0001:00071830       ?getMass@ConvexMesh@Gu@physx@@QEBAMXZ 0000000180072830 f i GuConvexMesh.obj
 0001:00071850       ?getName@?$ReflectionAllocator@VBigConvexData@physx@@@shdfnd@physx@@CAPEBDXZ 0000000180072850 f i GuConvexMesh.obj
 0001:000718a0       ?getNb@ConvexMesh@Gu@physx@@AEBAIXZ 00000001800728a0 f i GuConvexMesh.obj
 0001:000718d0       ?getRefCount@RefCountable@Cm@physx@@QEBAIXZ 00000001800728d0 f i GuConvexMesh.obj
 0001:000718f0       ?incRefCount@RefCountable@Cm@physx@@QEAAXXZ 00000001800728f0 f i GuConvexMesh.obj
 0001:00071980       ?markSerializedMem@Cm@physx@@YAXPEAXI@Z 0000000180072980 f i GuConvexMesh.obj
 0001:000719d0       ?notifyReleaseConvexMesh@GuMeshFactory@physx@@MEAAXAEBVPxConvexMesh@2@@Z 00000001800729d0 f i GuConvexMesh.obj
 0001:000719e0       ?notifyReleaseHeightField@GuMeshFactory@physx@@MEAAXAEBVPxHeightField@2@@Z 00000001800729e0 f i GuConvexMesh.obj
 0001:000719f0       ?notifyReleaseTriangleMesh@GuMeshFactory@physx@@MEAAXAEBVPxTriangleMesh@2@@Z 00000001800729f0 f i GuConvexMesh.obj
 0001:00071a00       ?resolveReferences@ConvexMesh@Gu@physx@@QEAAXAEAVPxDeserializationContext@3@@Z 0000000180072a00 f i GuConvexMesh.obj
 0001:00071a10       ?setEmpty@CenterExtents@Gu@physx@@QEAAXXZ 0000000180072a10 f i GuConvexMesh.obj
 0001:00071a50       ?BFFTF@aos@shdfnd@physx@@YA?AT__m128@@XZ 0000000180072a50 f i GuConvexSupportTable.obj
 0001:00071aa0       ?BFTFF@aos@shdfnd@physx@@YA?AT__m128@@XZ 0000000180072aa0 f i GuConvexSupportTable.obj
 0001:00071af0       ?BFTTF@aos@shdfnd@physx@@YA?AT__m128@@XZ 0000000180072af0 f i GuConvexSupportTable.obj
 0001:00071b40       ?BTFFF@aos@shdfnd@physx@@YA?AT__m128@@XZ 0000000180072b40 f i GuConvexSupportTable.obj
 0001:00071b90       ?BTFTF@aos@shdfnd@physx@@YA?AT__m128@@XZ 0000000180072b90 f i GuConvexSupportTable.obj
 0001:00071be0       ?BTTFF@aos@shdfnd@physx@@YA?AT__m128@@XZ 0000000180072be0 f i GuConvexSupportTable.obj
 0001:00071c30       ?computeHullOBB@Gu@physx@@YAXAEAVBox@12@AEBVPxBounds3@2@MAEBVMatrix34@Cm@2@2AEBVFastVertex2ShapeScaling@62@_N@Z 0000000180072c30 f   GuConvexUtilsInternal.obj
 0001:00071d60       ?computeVertexSpaceOBB@Gu@physx@@YAXAEAVBox@12@AEBV312@AEBVPxTransform@2@AEBVPxMeshScale@2@@Z 0000000180072d60 f   GuConvexUtilsInternal.obj
 0001:00071e10       ?computeOBBAroundConvex@Gu@physx@@YAXAEAVBox@12@AEBVPxConvexMeshGeometry@2@PEBVPxConvexMesh@2@AEBVPxTransform@2@@Z 0000000180072e10 f   GuConvexUtilsInternal.obj
 0001:00072180       ??DMatrix34@Cm@physx@@QEBA?AV012@AEBVPxMat33@2@@Z 0000000180073180 f i GuConvexUtilsInternal.obj
 0001:000721f0       ??Dphysx@@YA?AVMatrix34@Cm@0@AEBVPxMeshScale@0@AEBV120@@Z 00000001800731f0 f i GuConvexUtilsInternal.obj
 0001:000722a0       ?getLocalBoundsFast@ConvexMesh@Gu@physx@@QEBAAEBVCenterExtents@23@XZ 00000001800732a0 f i GuConvexUtilsInternal.obj
 0001:000722c0       ?transform@physx@@YA?AVBox@Gu@1@AEBVMatrix34@Cm@1@AEBV231@@Z 00000001800732c0 f i GuConvexUtilsInternal.obj
 0001:000724c0       ?transformTranspose@Matrix34@Cm@physx@@QEBA?AV123@AEBV123@@Z 00000001800734c0 f i GuConvexUtilsInternal.obj
 0001:00072630       ?localSearch@physx@@YAXAEAIAEBVPxVec3@1@PEBV21@PEBUBigConvexRawData@Gu@1@@Z 0000000180073630 f   GuHillClimbing.obj
 0001:00072ac0       ??0PolygonalBox@Gu@physx@@QEAA@AEBVPxVec3@2@@Z 0000000180073ac0 f   GuShapeConvex.obj
 0001:000733f0       ?getPolygonalData@PolygonalBox@Gu@physx@@QEBAXPEIAUPolygonalData@23@@Z 00000001800743f0 f   GuShapeConvex.obj
 0001:00073520       ?getPolygonalData_Convex@Gu@physx@@YAXPEIAUPolygonalData@12@PEIBUConvexHullData@12@AEBVFastVertex2ShapeScaling@Cm@2@@Z 0000000180074520 f   GuShapeConvex.obj
 0001:000749d0       ??$PX_UNUSED@VFastVertex2ShapeScaling@Cm@physx@@@@YAXAEBVFastVertex2ShapeScaling@Cm@physx@@@Z 00000001800759d0 f i GuShapeConvex.obj
 0001:000749e0       ??0HullPolygonData@Gu@physx@@QEAA@XZ 00000001800759e0 f i GuShapeConvex.obj
 0001:00074a10       ?getFacesByEdges8@ConvexHullData@Gu@physx@@QEBAPEBEXZ 0000000180075a10 f i GuShapeConvex.obj
 0001:00074a80       ?getSamples2@BigConvexRawData@Gu@physx@@QEBAPEBEXZ 0000000180075a80 f i GuShapeConvex.obj
 0001:00074aa0       ?distancePointBoxSquared@Gu@physx@@YAMAEBVPxVec3@2@00AEBVPxMat33@2@PEAV32@@Z 0000000180075aa0 f   GuDistancePointBox.obj
 0001:00074e60       ?closestPtPointTriangle@Gu@physx@@YA?AVPxVec3@2@AEBV32@000AEAM1@Z 0000000180075e60 f   GuDistancePointTriangle.obj
 0001:00075470       ?distancePointTriangleSquared@Gu@physx@@YA?AT__m128@@AEBT3@000AEAT3@11@Z 0000000180076470 f   GuDistancePointTriangle.obj
 0001:000776b0       ?distanceSegmentBoxSquared@Gu@physx@@YAMAEBVPxVec3@2@000AEBVPxMat33@2@PEAMPEAV32@@Z 00000001800786b0 f   GuDistanceSegmentBox.obj
 0001:0007cb40       ?distanceSegmentSegmentSquared@Gu@physx@@YAMAEBVPxVec3@2@0M00MPEAM1@Z 000000018007db40 f   GuDistanceSegmentSegment.obj
 0001:0007e170       ?distanceSegmentSegmentSquared@Gu@physx@@YAMAEBVPxVec3@2@000PEAM1@Z 000000018007f170 f   GuDistanceSegmentSegment.obj
 0001:0007e430       ?distanceSegmentSegmentSquared@Gu@physx@@YA?AT__m128@@AEBT3@000AEAT3@1@Z 000000018007f430 f   GuDistanceSegmentSegment.obj
 0001:0007ee90       ?distanceSegmentSegmentSquared4@Gu@physx@@YA?AT__m128@@AEBT3@000000000AEAT3@1@Z 000000018007fe90 f   GuDistanceSegmentSegment.obj
 0001:000813d0       ?FHalf@aos@shdfnd@physx@@YA?AT__m128@@XZ 00000001800823d0 f i GuDistanceSegmentSegment.obj
 0001:00081400       ?FScaleAdd@aos@shdfnd@physx@@YA?AT__m128@@T4@00@Z 0000000180082400 f i GuDistanceSegmentSegment.obj
 0001:00081660       ?V3Dot4@aos@shdfnd@physx@@YA?AT__m128@@AEBT4@0000000@Z 0000000180082660 f i GuDistanceSegmentSegment.obj
 0001:00081ab0       ?V4Clamp@aos@shdfnd@physx@@YA?AT__m128@@T4@00@Z 0000000180082ab0 f i GuDistanceSegmentSegment.obj
 0001:00081b60       ?V4Div@aos@shdfnd@physx@@YA?AT__m128@@T4@0@Z 0000000180082b60 f i GuDistanceSegmentSegment.obj
 0001:00081ba0       ?V4Eps@aos@shdfnd@physx@@YA?AT__m128@@XZ 0000000180082ba0 f i GuDistanceSegmentSegment.obj
 0001:00081bd0       ?V4IsGrtr@aos@shdfnd@physx@@YA?AT__m128@@T4@0@Z 0000000180082bd0 f i GuDistanceSegmentSegment.obj
 0001:00081c10       ?V4IsGrtrOrEq@aos@shdfnd@physx@@YA?AT__m128@@T4@0@Z 0000000180082c10 f i GuDistanceSegmentSegment.obj
 0001:00081c50       ?V4Max@aos@shdfnd@physx@@YA?AT__m128@@T4@0@Z 0000000180082c50 f i GuDistanceSegmentSegment.obj
 0001:00081c90       ?V4Min@aos@shdfnd@physx@@YA?AT__m128@@T4@0@Z 0000000180082c90 f i GuDistanceSegmentSegment.obj
 0001:00081cd0       ?V4One@aos@shdfnd@physx@@YA?AT__m128@@XZ 0000000180082cd0 f i GuDistanceSegmentSegment.obj
 0001:00081d00       ?V4Recip@aos@shdfnd@physx@@YA?AT__m128@@T4@@Z 0000000180082d00 f i GuDistanceSegmentSegment.obj
 0001:00081d40       ?V4Splat@aos@shdfnd@physx@@YA?AT__m128@@T4@@Z 0000000180082d40 f i GuDistanceSegmentSegment.obj
 0001:00081de0       ?V4Sub@aos@shdfnd@physx@@YA?AT__m128@@T4@0@Z 0000000180082de0 f i GuDistanceSegmentSegment.obj
 0001:00081e20       ?V4UnpackXY@aos@shdfnd@physx@@YA?AT__m128@@AEBT4@0@Z 0000000180082e20 f i GuDistanceSegmentSegment.obj
 0001:00081e60       ?V4UnpackZW@aos@shdfnd@physx@@YA?AT__m128@@AEBT4@0@Z 0000000180082e60 f i GuDistanceSegmentSegment.obj
 0001:00081ea0       ?V4Zero@aos@shdfnd@physx@@YA?AT__m128@@XZ 0000000180082ea0 f i GuDistanceSegmentSegment.obj
 0001:00081ec0       ?distanceSegmentTriangleSquared@Gu@physx@@YAMAEBVPxVec3@2@0000PEAM11@Z 0000000180082ec0 f   GuDistanceSegmentTriangle.obj
 0001:00083ad0       ?distanceSegmentTriangleSquared@Gu@physx@@YA?AT__m128@@AEBT3@0000AEAT3@1@Z 0000000180084ad0 f   GuDistanceSegmentTriangle.obj
 0001:00086d80       ?FNeg@aos@shdfnd@physx@@YA?AT__m128@@T4@@Z 0000000180087d80 f i GuDistanceSegmentTriangle.obj
 0001:00086e40       ?distancePointTriangleSquared@Gu@physx@@YAMAEBVPxVec3@2@000PEAM1@Z 0000000180087e40 f i GuDistanceSegmentTriangle.obj
 0001:00086f70       ?isValidTriangleBarycentricCoord@Gu@physx@@YA?AT__m128@@AEBT3@0@Z 0000000180087f70 f i GuDistanceSegmentTriangle.obj
 0001:00087410       ?sweepBoxBox@Gu@physx@@YA_NAEBVBox@12@0AEBVPxVec3@2@MV?$PxFlags@W4Enum@PxHitFlag@physx@@G@2@AEAUPxSweepHit@2@@Z 0000000180088410 f   GuSweepBoxBox.obj
 0001:00088220       ??0?$PxFlags@W4Enum@PxHitFlag@physx@@G@physx@@QEAA@AEBV01@@Z 0000000180089220 f i GuSweepBoxBox.obj
 0001:00088250       ??0?$PxFlags@W4Enum@PxHitFlag@physx@@G@physx@@QEAA@W4Enum@PxHitFlag@1@@Z 0000000180089250 f i GuSweepBoxBox.obj
 0001:00088280       ??4?$PxFlags@W4Enum@PxHitFlag@physx@@G@physx@@QEAAAEAV01@AEBV01@@Z 0000000180089280 f i GuSweepBoxBox.obj
 0001:000882b0       ??B?$PxFlags@W4Enum@PxHitFlag@physx@@G@physx@@QEBA_NXZ 00000001800892b0 f i GuSweepBoxBox.obj
 0001:000882f0       ??I?$PxFlags@W4Enum@PxHitFlag@physx@@G@physx@@QEBA?AV01@W4Enum@PxHitFlag@1@@Z 00000001800892f0 f i GuSweepBoxBox.obj
 0001:00088360       ??U?$PxFlags@W4Enum@PxHitFlag@physx@@G@physx@@QEBA?AV01@W4Enum@PxHitFlag@1@@Z 0000000180089360 f i GuSweepBoxBox.obj
 0001:000883c0       ??Uphysx@@YA?AV?$PxFlags@W4Enum@PxHitFlag@physx@@G@0@W4Enum@PxHitFlag@0@0@Z 00000001800893c0 f i GuSweepBoxBox.obj
 0001:00088420       ??_5?$PxFlags@W4Enum@PxHitFlag@physx@@G@physx@@QEAAAEAV01@W4Enum@PxHitFlag@1@@Z 0000000180089420 f i GuSweepBoxBox.obj
 0001:00088460       ?buildMatrixFromBox@physx@@YAXAEAVMatrix34@Cm@1@AEBVBox@Gu@1@@Z 0000000180089460 f i GuSweepBoxBox.obj
 0001:000884b0       ?computeWorldToBoxMatrix@physx@@YAXAEAVMatrix34@Cm@1@AEBVBox@Gu@1@@Z 00000001800894b0 f i GuSweepBoxBox.obj
 0001:000885a0       ?sweepBoxSphere@Gu@physx@@YA_NAEBVBox@12@MAEBVPxVec3@2@1MAEAMAEAV42@V?$PxFlags@W4Enum@PxHitFlag@physx@@G@2@@Z 00000001800895a0 f   GuSweepBoxSphere.obj
 0001:00088db0       ??0Capsule@Gu@physx@@QEAA@AEBVPxVec3@2@0M@Z 0000000180089db0 f i GuSweepBoxSphere.obj
 0001:00088e10       ??0Sphere@Gu@physx@@QEAA@AEBVPxVec3@2@M@Z 0000000180089e10 f i GuSweepBoxSphere.obj
 0001:00088e60       ??1Sphere@Gu@physx@@QEAA@XZ 0000000180089e60 f i GuSweepBoxSphere.obj
 0001:00088e70       ?computePoint@Segment@Gu@physx@@QEBAXAEAVPxVec3@3@M@Z 0000000180089e70 f i GuSweepBoxSphere.obj
 0001:00088ef0       ?intersectRayCapsule@Gu@physx@@YA_NAEBVPxVec3@2@000MAEAM@Z 0000000180089ef0 f i GuSweepBoxSphere.obj
 0001:00089150       ?intersectRayCapsule@Gu@physx@@YA_NAEBVPxVec3@2@0AEBVCapsule@12@AEAM@Z 000000018008a150 f i GuSweepBoxSphere.obj
 0001:00089240       ?sweepBoxTriangle@Gu@physx@@YA_NAEBVPxTriangle@2@AEBVPxBounds3@2@AEBVPxVec3@2@2AEAV52@3AEAM_N@Z 000000018008a240 f   GuSweepBoxTriangle_FeatureBased.obj
 0001:0008b210       ??0PxTriangle@physx@@QEAA@AEBV01@@Z 000000018008c210 f i GuSweepBoxTriangle_FeatureBased.obj
 0001:0008be30       ?triBoxSweepTestBoxSpace@Gu@physx@@YAHAEBVPxTriangle@2@AEBVPxVec3@2@11MAEAM_N@Z 000000018008ce30 f   GuSweepBoxTriangle_SAT.obj
 0001:0008c170       ?cross010@shdfnd@physx@@YA?AVPxVec3@2@AEBV32@@Z 000000018008d170 f i GuSweepBoxTriangle_SAT.obj
 0001:0008c1d0       ?cross100@shdfnd@physx@@YA?AVPxVec3@2@AEBV32@@Z 000000018008d1d0 f i GuSweepBoxTriangle_SAT.obj
 0001:0008c230       ?testSeparationAxes@Gu@physx@@YAHAEBVPxTriangle@2@AEBVPxVec3@2@111MAEAM@Z 000000018008d230 f i GuSweepBoxTriangle_SAT.obj
 0001:0008c6f0       ?triBoxSweepTestBoxSpace_inlined@Gu@physx@@YAHAEBVPxTriangle@2@AEBVPxVec3@2@11MAEAMI@Z 000000018008d6f0 f i GuSweepBoxTriangle_SAT.obj
 0001:0008c7c0       ?sweepCapsuleBox@Gu@physx@@YA_NAEBVCapsule@12@AEBVPxTransform@2@AEBVPxVec3@2@2MAEAV52@AEAM3V?$PxFlags@W4Enum@PxHitFlag@physx@@G@2@@Z 000000018008d7c0 f   GuSweepCapsuleBox.obj
 0001:0008dde0       ??0?$PxFlags@W4Enum@PxHitFlag@physx@@G@physx@@QEAA@G@Z 000000018008ede0 f i GuSweepCapsuleBox.obj
 0001:0008de10       ??0?$ScopedPointer@VPxTriangle@physx@@VTempAllocator@shdfnd@2@@shdfnd@physx@@QEAA@XZ 000000018008ee10 f i GuSweepCapsuleBox.obj
 0001:0008de40       ??0PxActorShape@physx@@QEAA@XZ 000000018008ee40 f i GuSweepCapsuleBox.obj
 0001:0008de70       ??0PxLocationHit@physx@@QEAA@XZ 000000018008ee70 f i GuSweepCapsuleBox.obj
 0001:0008df00       ??0PxMat33Padded@Gu@physx@@QEAA@AEBVPxQuat@2@@Z 000000018008ef00 f i GuSweepCapsuleBox.obj
 0001:0008e010       ??0PxQueryHit@physx@@QEAA@XZ 000000018008f010 f i GuSweepCapsuleBox.obj
 0001:0008e050       ??0PxSweepHit@physx@@QEAA@XZ 000000018008f050 f i GuSweepCapsuleBox.obj
 0001:0008e080       ??1?$ScopedPointer@VPxTriangle@physx@@VTempAllocator@shdfnd@2@@shdfnd@physx@@QEAA@XZ 000000018008f080 f i GuSweepCapsuleBox.obj
 0001:0008e0c0       ??1PxMat33Padded@Gu@physx@@QEAA@XZ 000000018008f0c0 f i GuSweepCapsuleBox.obj
 0001:0008e0d0       ??B?$ScopedPointer@VPxTriangle@physx@@VTempAllocator@shdfnd@2@@shdfnd@physx@@QEBAPEAVPxTriangle@2@XZ 000000018008f0d0 f i GuSweepCapsuleBox.obj
 0001:0008e170       ?sweepCapsuleCapsule@Gu@physx@@YA_NAEBVCapsule@12@0AEBVPxVec3@2@MAEAMAEAV42@3IAEAG@Z 000000018008f170 f   GuSweepCapsuleCapsule.obj
 0001:0008f770       ??0Capsule@Gu@physx@@QEAA@XZ 0000000180090770 f i GuSweepCapsuleCapsule.obj
 0001:0008f7a0       ??0PxTriangle@physx@@QEAA@AEBVPxVec3@1@00@Z 00000001800907a0 f i GuSweepCapsuleCapsule.obj
 0001:0008f870       ??4Capsule@Gu@physx@@QEAAAEAV012@AEBV012@@Z 0000000180090870 f i GuSweepCapsuleCapsule.obj
 0001:0008f8c0       ??4Segment@Gu@physx@@QEAAAEAV012@AEBV012@@Z 00000001800908c0 f i GuSweepCapsuleCapsule.obj
 0001:0008f920       ??B?$PxFlags@W4Enum@PxHitFlag@physx@@G@physx@@QEBAGXZ 0000000180090920 f i GuSweepCapsuleCapsule.obj
 0001:0008f940       ??B?$PxFlags@W4Enum@PxHitFlag@physx@@G@physx@@QEBAIXZ 0000000180090940 f i GuSweepCapsuleCapsule.obj
 0001:0008f9e0       ?sweepCapsuleTriangles_Precise@Gu@physx@@YA_NIPEIBVPxTriangle@2@AEBVCapsule@12@AEBVPxVec3@2@MPEIBIAEAUPxSweepHit@2@AEAV52@V?$PxFlags@W4Enum@PxHitFlag@physx@@G@2@_NPEBVBoxPadded@12@@Z 00000001800909e0 f   GuSweepCapsuleTriangle.obj
 0001:00091e00       ??0CapsuleTriangleOverlapData@Gu@physx@@QEAA@XZ 0000000180092e00 f i GuSweepCapsuleTriangle.obj
 0001:00091e30       ??4PxTriangle@physx@@QEAAXAEBV01@@Z 0000000180092e30 f i GuSweepCapsuleTriangle.obj
 0001:00091f00       ?coarseCullingTri@Gu@physx@@YA_NAEBVPxVec3@2@0MMPEIBV32@@Z 0000000180092f00 f i GuSweepCapsuleTriangle.obj
 0001:000922a0       ?computeAlignmentValue@Gu@physx@@YAMAEBVPxVec3@2@0@Z 00000001800932a0 f i GuSweepCapsuleTriangle.obj
 0001:000922e0       ?computeSphereTriangleImpactData@Gu@physx@@YA_NAEAUPxSweepHit@2@AEAVPxVec3@2@IMAEBV42@22PEIBVPxTriangle@2@_N4@Z 00000001800932e0 f i GuSweepCapsuleTriangle.obj
 0001:000924e0       ?cullTriangle@Gu@physx@@YA_NPEIBVPxVec3@2@AEBV32@MMM@Z 00000001800934e0 f i GuSweepCapsuleTriangle.obj
 0001:00092680       ?getInitIndex@Gu@physx@@YAIPEIBII@Z 0000000180093680 f i GuSweepCapsuleTriangle.obj
 0001:00092740       ?getTriangleIndex@physx@@YAIII@Z 0000000180093740 f i GuSweepCapsuleTriangle.obj
 0001:00092790       ?init@CapsuleTriangleOverlapData@Gu@physx@@QEAAXAEBVCapsule@23@@Z 0000000180093790 f i GuSweepCapsuleTriangle.obj
 0001:00092860       ?keepTriangle@Gu@physx@@YA_NMMMMMM@Z 0000000180093860 f i GuSweepCapsuleTriangle.obj
 0001:00092980       ?rejectTriangle@Gu@physx@@YA_NAEBVPxVec3@2@0MMPEIBV32@M@Z 0000000180093980 f i GuSweepCapsuleTriangle.obj
 0001:00092a30       ?setInitialOverlapResults@Gu@physx@@YA_NAEAUPxSweepHit@2@AEBVPxVec3@2@I@Z 0000000180093a30 f i GuSweepCapsuleTriangle.obj
 0001:00092ae0       ?shouldFlipNormal@Gu@physx@@YA_NAEBVPxVec3@2@_N100@Z 0000000180093ae0 f i GuSweepCapsuleTriangle.obj
 0001:00092be0       ?squareDistance@Gu@physx@@YAMAEBVPxVec3@2@0M0@Z 0000000180093be0 f i GuSweepCapsuleTriangle.obj
 0001:00092d30       ?sweepSphereCapsule@Gu@physx@@YA_NAEBVSphere@12@AEBVCapsule@12@AEBVPxVec3@2@MAEAMAEAV52@4V?$PxFlags@W4Enum@PxHitFlag@physx@@G@2@@Z 0000000180093d30 f   GuSweepSphereCapsule.obj
 0001:00093250       ?sweepSphereSphere@Gu@physx@@YA_NAEBVPxVec3@2@M0M0AEAMAEAV32@@Z 0000000180094250 f   GuSweepSphereSphere.obj
 0001:00093870       ?sweepSphereVSTri@Gu@physx@@YA_NPEIBVPxVec3@2@AEBV32@1M1AEAMAEA_N_N@Z 0000000180094870 f   GuSweepSphereTriangle.obj
 0001:00093fd0       ?sweepSphereVSQuad@Gu@physx@@YA_NPEIBVPxVec3@2@AEBV32@1M1AEAM@Z 0000000180094fd0 f   GuSweepSphereTriangle.obj
 0001:00094960       ?sweepSphereTriangles@Gu@physx@@YA_NIPEIBVPxTriangle@2@AEBVPxVec3@2@M1MPEIBIAEAUPxSweepHit@2@AEAV42@_N555@Z 0000000180095960 f   GuSweepSphereTriangle.obj
 0001:00095980       ?closestPtPointTriangle2@Gu@physx@@YA?AVPxVec3@2@AEBV32@00000@Z 0000000180096980 f i GuSweepSphereTriangle.obj
 0001:00095f90       ?computeSphereTriImpactData@Gu@physx@@YAXAEAVPxVec3@2@0AEBV32@1MAEBVPxTriangle@2@@Z 0000000180096f90 f   GuSweepTriangleUtils.obj
 0001:000960e0       ?computeBoxTriImpactData@Gu@physx@@YAXAEAVPxVec3@2@0AEBV32@1AEBVPxTriangle@2@M@Z 00000001800970e0 f   GuSweepTriangleUtils.obj
 0001:000963f0       ?computeEdgeEdgeNormal@Gu@physx@@YAXAEAVPxVec3@2@AEBV32@1111M@Z 00000001800973f0 f   GuSweepTriangleUtils.obj
 0001:00096ef0       ??$getConvex@VBoxV@Gu@physx@@@GjkConvexBase@Gu@physx@@QEBAAEBVBoxV@12@XZ 0000000180097ef0 f i GuSweepTriangleUtils.obj
 0001:00096f10       ??$getConvex@VTriangleV@Gu@physx@@@GjkConvexBase@Gu@physx@@QEBAAEBVTriangleV@12@XZ 0000000180097f10 f i GuSweepTriangleUtils.obj
 0001:00096f30       ??$gjk@U?$LocalConvex@VTriangleV@Gu@physx@@@Gu@physx@@U?$LocalConvex@VBoxV@Gu@physx@@@23@@Gu@physx@@YA?AW4GjkStatus@01@AEBU?$LocalConvex@VTriangleV@Gu@physx@@@01@AEBU?$LocalConvex@VBoxV@Gu@physx@@@01@AEBT__m128@@2AEAT5@333@Z 0000000180097f30 f i GuSweepTriangleUtils.obj
 0001:00098460       ??0?$LocalConvex@VBoxV@Gu@physx@@@Gu@physx@@QEAA@AEBVBoxV@12@@Z 0000000180099460 f i GuSweepTriangleUtils.obj
 0001:000984b0       ??0?$LocalConvex@VTriangleV@Gu@physx@@@Gu@physx@@QEAA@AEBVTriangleV@12@@Z 00000001800994b0 f i GuSweepTriangleUtils.obj
 0001:00098500       ??0BoxV@Gu@physx@@QEAA@AEBT__m128@@0@Z 0000000180099500 f i GuSweepTriangleUtils.obj
 0001:000985d0       ??0ConvexV@Gu@physx@@QEAA@W4Type@ConvexType@12@@Z 00000001800995d0 f i GuSweepTriangleUtils.obj
 0001:00098670       ??0TriangleV@Gu@physx@@QEAA@AEBT__m128@@00@Z 0000000180099670 f i GuSweepTriangleUtils.obj
 0001:00098890       ??1?$LocalConvex@VBoxV@Gu@physx@@@Gu@physx@@UEAA@XZ 0000000180099890 f i GuSweepTriangleUtils.obj
 0001:000988b0       ??1?$LocalConvex@VTriangleV@Gu@physx@@@Gu@physx@@UEAA@XZ 00000001800998b0 f i GuSweepTriangleUtils.obj
 0001:000988d0       ??1BoxV@Gu@physx@@QEAA@XZ  00000001800998d0 f i GuSweepTriangleUtils.obj
 0001:000988f0       ??1TriangleV@Gu@physx@@QEAA@XZ 00000001800998f0 f i GuSweepTriangleUtils.obj
 0001:00098910       ??_G?$LocalConvex@VBoxV@Gu@physx@@@Gu@physx@@UEAAPEAXI@Z 0000000180099910 f i GuSweepTriangleUtils.obj
 0001:00098910       ??_E?$LocalConvex@VBoxV@Gu@physx@@@Gu@physx@@UEAAPEAXI@Z 0000000180099910 f i GuSweepTriangleUtils.obj
 0001:00098960       ??_E?$LocalConvex@VTriangleV@Gu@physx@@@Gu@physx@@UEAAPEAXI@Z 0000000180099960 f i GuSweepTriangleUtils.obj
 0001:00098960       ??_G?$LocalConvex@VTriangleV@Gu@physx@@@Gu@physx@@UEAAPEAXI@Z 0000000180099960 f i GuSweepTriangleUtils.obj
 0001:000989b0       ?BGetBitMask@aos@shdfnd@physx@@YAIT__m128@@@Z 00000001800999b0 f i GuSweepTriangleUtils.obj
 0001:000989d0       ?CalculateBoxMargin@Gu@physx@@YAXAEBT__m128@@AEAM11M@Z 00000001800999d0 f i GuSweepTriangleUtils.obj
 0001:00098a90       ?V3IsGrtr@aos@shdfnd@physx@@YA?AT__m128@@T4@0@Z 0000000180099a90 f i GuSweepTriangleUtils.obj
 0001:00098be0       ?VecI32V_Sel@aos@shdfnd@physx@@YA?AT__m128@@T4@AEBT4@1@Z 0000000180099be0 f i GuSweepTriangleUtils.obj
 0001:00098d80       ?VecI32V_Two@aos@shdfnd@physx@@YA?AT__m128@@XZ 0000000180099d80 f i GuSweepTriangleUtils.obj
 0001:00098db0       ?VecI32V_Zero@aos@shdfnd@physx@@YA?AT__m128@@XZ 0000000180099db0 f i GuSweepTriangleUtils.obj
 0001:00098dd0       ?getCenter@?$LocalConvex@VBoxV@Gu@physx@@@Gu@physx@@UEBA?AT__m128@@XZ 0000000180099dd0 f i GuSweepTriangleUtils.obj
 0001:00098e10       ?getCenter@?$LocalConvex@VTriangleV@Gu@physx@@@Gu@physx@@UEBA?AT__m128@@XZ 0000000180099e10 f i GuSweepTriangleUtils.obj
 0001:00098e50       ?getIndex@BoxV@Gu@physx@@QEBAXT__m128@@AEAH@Z 0000000180099e50 f i GuSweepTriangleUtils.obj
 0001:00098ea0       ?getSweepMargin@?$LocalConvex@VBoxV@Gu@physx@@@Gu@physx@@UEBA?AT__m128@@XZ 0000000180099ea0 f i GuSweepTriangleUtils.obj
 0001:00098ee0       ?getSweepMargin@?$LocalConvex@VTriangleV@Gu@physx@@@Gu@physx@@UEBA?AT__m128@@XZ 0000000180099ee0 f i GuSweepTriangleUtils.obj
 0001:00098f20       ?getSweepMargin@TriangleV@Gu@physx@@QEBA?AT__m128@@XZ 0000000180099f20 f i GuSweepTriangleUtils.obj
 0001:00098f60       ?isZero@PxVec3@physx@@QEBA_NXZ 0000000180099f60 f i GuSweepTriangleUtils.obj
 0001:00098fc0       ?support@?$LocalConvex@VBoxV@Gu@physx@@@Gu@physx@@UEBA?AT__m128@@AEBT4@@Z 0000000180099fc0 f i GuSweepTriangleUtils.obj
 0001:00099010       ?support@?$LocalConvex@VBoxV@Gu@physx@@@Gu@physx@@UEBA?AT__m128@@AEBT4@AEAHPEAT4@@Z 000000018009a010 f i GuSweepTriangleUtils.obj
 0001:00099070       ?support@?$LocalConvex@VTriangleV@Gu@physx@@@Gu@physx@@UEBA?AT__m128@@AEBT4@@Z 000000018009a070 f i GuSweepTriangleUtils.obj
 0001:000990c0       ?support@?$LocalConvex@VTriangleV@Gu@physx@@@Gu@physx@@UEBA?AT__m128@@AEBT4@AEAHPEAT4@@Z 000000018009a0c0 f i GuSweepTriangleUtils.obj
 0001:00099120       ?supportLocal@BoxV@Gu@physx@@QEBA?AT__m128@@AEBT4@@Z 000000018009a120 f i GuSweepTriangleUtils.obj
 0001:00099240       ?supportLocal@BoxV@Gu@physx@@QEBA?AT__m128@@AEBT4@AEAHPEAT4@@Z 000000018009a240 f i GuSweepTriangleUtils.obj
 0001:000993b0       ?supportLocal@TriangleV@Gu@physx@@QEBA?AT__m128@@AEBT4@@Z 000000018009a3b0 f i GuSweepTriangleUtils.obj
 0001:00099780       ?supportLocal@TriangleV@Gu@physx@@QEBA?AT__m128@@AEBT4@AEAHPEAT4@@Z 000000018009a780 f i GuSweepTriangleUtils.obj
 0001:00099c80       ?supportPoint@?$LocalConvex@VBoxV@Gu@physx@@@Gu@physx@@UEBA?AT__m128@@HPEAT4@@Z 000000018009ac80 f i GuSweepTriangleUtils.obj
 0001:00099ce0       ?supportPoint@?$LocalConvex@VTriangleV@Gu@physx@@@Gu@physx@@UEBA?AT__m128@@HPEAT4@@Z 000000018009ace0 f i GuSweepTriangleUtils.obj
 0001:00099d40       ?supportPoint@BoxV@Gu@physx@@QEBA?AT__m128@@HPEAT4@@Z 000000018009ad40 f i GuSweepTriangleUtils.obj
 0001:00099e30       ?supportPoint@TriangleV@Gu@physx@@QEBA?AT__m128@@HPEAT4@@Z 000000018009ae30 f i GuSweepTriangleUtils.obj
 0001:00099e80       ?epaPenetration@Gu@physx@@YA?AW4GjkStatus@12@AEBUGjkConvex@12@0PEIAE1EAEAT__m128@@222_N@Z 000000018009ae80 f   GuEPA.obj
 0001:0009a7f0       ?silhouette@Facet@Gu@physx@@QEAAXAEBT__m128@@PEIBT4@1AEAVEdgeBuffer@23@AEAV?$InlineDeferredIDPool@$0EA@@Cm@3@@Z 000000018009b7f0 f   GuEPA.obj
 0001:0009a890       ?PenetrationDepth@EPA@Gu@physx@@QEAA?AW4GjkStatus@23@AEBUGjkConvex@23@0PEIBT__m128@@11HAEAT6@222_N@Z 000000018009b890 f   GuEPA.obj
 0001:0009beb0       ?expandPoint@EPA@Gu@physx@@QEAA_NAEBUGjkConvex@23@0AEAHAEBT__m128@@2@Z 000000018009ceb0 f   GuEPA.obj
 0001:0009c030       ?expandSegment@EPA@Gu@physx@@QEAA_NAEBUGjkConvex@23@0AEAHAEBT__m128@@2@Z 000000018009d030 f   GuEPA.obj
 0001:0009c4a0       ?expandTriangle@EPA@Gu@physx@@QEAA_NAEAHAEBT__m128@@1@Z 000000018009d4a0 f   GuEPA.obj
 0001:0009c5b0       ?addFacet@EPA@Gu@physx@@QEAAPEAVFacet@23@IIIAEBT__m128@@0@Z 000000018009d5b0 f   GuEPA.obj
 0001:0009df20       ??0?$DeferredIDPoolBase@V?$InlineFixedArray@I$0EA@@Cm@physx@@@Cm@physx@@QEAA@XZ 000000018009ef20 f i GuEPA.obj
 0001:0009df60       ??0?$IDPoolBase@V?$InlineFixedArray@I$0EA@@Cm@physx@@@Cm@physx@@QEAA@XZ 000000018009ef60 f i GuEPA.obj
 0001:0009dfa0       ??0?$InlineDeferredIDPool@$0EA@@Cm@physx@@QEAA@XZ 000000018009efa0 f i GuEPA.obj
 0001:0009dfd0       ??0?$InlineFixedArray@I$0EA@@Cm@physx@@QEAA@XZ 000000018009efd0 f i GuEPA.obj
 0001:0009dff0       ??0?$InlinePriorityQueue@PEAVFacet@Gu@physx@@$0EA@UFacetDistanceComparator@23@@Cm@physx@@QEAA@AEBUFacetDistanceComparator@Gu@2@@Z 000000018009eff0 f i GuEPA.obj
 0001:0009e030       ??0?$PriorityQueueBase@PEAVFacet@Gu@physx@@UFacetDistanceComparator@23@@Cm@physx@@QEAA@AEBUFacetDistanceComparator@Gu@2@PEAPEAVFacet@42@@Z 000000018009f030 f i GuEPA.obj
 0001:0009e070       ??0EPA@Gu@physx@@QEAA@XZ   000000018009f070 f i GuEPA.obj
 0001:0009e100       ??0Edge@Gu@physx@@QEAA@PEIAVFacet@12@I@Z 000000018009f100 f i GuEPA.obj
 0001:0009e140       ??0Edge@Gu@physx@@QEAA@XZ  000000018009f140 f i GuEPA.obj
 0001:0009e150       ??0EdgeBuffer@Gu@physx@@QEAA@XZ 000000018009f150 f i GuEPA.obj
 0001:0009e1a0       ??0Facet@Gu@physx@@QEAA@III@Z 000000018009f1a0 f i GuEPA.obj
 0001:0009e2f0       ??0Facet@Gu@physx@@QEAA@XZ 000000018009f2f0 f i GuEPA.obj
 0001:0009e300       ??1?$DeferredIDPoolBase@V?$InlineFixedArray@I$0EA@@Cm@physx@@@Cm@physx@@QEAA@XZ 000000018009f300 f i GuEPA.obj
 0001:0009e340       ??1?$IDPoolBase@V?$InlineFixedArray@I$0EA@@Cm@physx@@@Cm@physx@@QEAA@XZ 000000018009f340 f i GuEPA.obj
 0001:0009e370       ??1?$InlineDeferredIDPool@$0EA@@Cm@physx@@QEAA@XZ 000000018009f370 f i GuEPA.obj
 0001:0009e390       ??1?$InlineFixedArray@I$0EA@@Cm@physx@@QEAA@XZ 000000018009f390 f i GuEPA.obj
 0001:0009e3a0       ??1?$InlinePriorityQueue@PEAVFacet@Gu@physx@@$0EA@UFacetDistanceComparator@23@@Cm@physx@@QEAA@XZ 000000018009f3a0 f i GuEPA.obj
 0001:0009e3c0       ??1?$PriorityQueueBase@PEAVFacet@Gu@physx@@UFacetDistanceComparator@23@@Cm@physx@@QEAA@XZ 000000018009f3c0 f i GuEPA.obj
 0001:0009e3d0       ??1EPA@Gu@physx@@QEAA@XZ   000000018009f3d0 f i GuEPA.obj
 0001:0009e410       ??4Edge@Gu@physx@@QEAAAEAV012@AEBV012@@Z 000000018009f410 f i GuEPA.obj
 0001:0009e450       ??A?$InlineFixedArray@I$0EA@@Cm@physx@@QEAAAEAII@Z 000000018009f450 f i GuEPA.obj
 0001:0009e4e0       ??AFacet@Gu@physx@@QEBAII@Z 000000018009f4e0 f i GuEPA.obj
 0001:0009e500       ??MFacet@Gu@physx@@QEBA_NAEBV012@@Z 000000018009f500 f i GuEPA.obj
 0001:0009e550       ??RFacetDistanceComparator@Gu@physx@@QEBA_NPEBVFacet@12@0@Z 000000018009f550 f i GuEPA.obj
 0001:0009e580       ?FNegScaleSub@aos@shdfnd@physx@@YA?AT__m128@@T4@00@Z 000000018009f580 f i GuEPA.obj
 0001:0009e7e0       ?FRsqrt@aos@shdfnd@physx@@YA?AT__m128@@T4@@Z 000000018009f7e0 f i GuEPA.obj
 0001:0009e8c0       ?Get@EdgeBuffer@Gu@physx@@QEAAPEAVEdge@23@I@Z 000000018009f8c0 f i GuEPA.obj
 0001:0009e960       ?Insert@EdgeBuffer@Gu@physx@@QEAAPEAVEdge@23@PEIAVFacet@23@I@Z 000000018009f960 f i GuEPA.obj
 0001:0009ea60       ?IsEmpty@EdgeBuffer@Gu@physx@@QEAA_NXZ 000000018009fa60 f i GuEPA.obj
 0001:0009eaa0       ?MakeEmpty@EdgeBuffer@Gu@physx@@QEAAXXZ 000000018009faa0 f i GuEPA.obj
 0001:0009eac0       ?Size@EdgeBuffer@Gu@physx@@QEAAIXZ 000000018009fac0 f i GuEPA.obj
 0001:0009eae0       ?V3Abs@aos@shdfnd@physx@@YA?AT__m128@@T4@@Z 000000018009fae0 f i GuEPA.obj
 0001:0009ebf0       ?V3Max@aos@shdfnd@physx@@YA?AT__m128@@T4@0@Z 000000018009fbf0 f i GuEPA.obj
 0001:0009ed40       ?Valid@Facet@Gu@physx@@QEAA_NXZ 000000018009fd40 f i GuEPA.obj
 0001:0009ee00       ?clear@?$InlineFixedArray@I$0EA@@Cm@physx@@QEAAXXZ 000000018009fe00 f i GuEPA.obj
 0001:0009ee20       ?clear@?$PriorityQueueBase@PEAVFacet@Gu@physx@@UFacetDistanceComparator@23@@Cm@physx@@QEAAXXZ 000000018009fe20 f i GuEPA.obj
 0001:0009ee40       ?compare@?$PriorityQueueBase@PEAVFacet@Gu@physx@@UFacetDistanceComparator@23@@Cm@physx@@IEBA_NAEBQEAVFacet@Gu@3@0@Z 000000018009fe40 f i GuEPA.obj
 0001:0009ee80       ?deferredFreeID@?$DeferredIDPoolBase@V?$InlineFixedArray@I$0EA@@Cm@physx@@@Cm@physx@@QEAAXI@Z 000000018009fe80 f i GuEPA.obj
 0001:0009eec0       ?empty@?$PriorityQueueBase@PEAVFacet@Gu@physx@@UFacetDistanceComparator@23@@Cm@physx@@QEBA_NXZ 000000018009fec0 f i GuEPA.obj
 0001:0009ef00       ?freeID@?$IDPoolBase@V?$InlineFixedArray@I$0EA@@Cm@physx@@@Cm@physx@@QEAAXI@Z 000000018009ff00 f i GuEPA.obj
 0001:0009ef60       ?getClosestPoint@Facet@Gu@physx@@QEBAXPEIBT__m128@@0AEAT4@1@Z 000000018009ff60 f i GuEPA.obj
 0001:0009fc70       ?getFacet@Edge@Gu@physx@@QEBAPEAVFacet@23@XZ 00000001800a0c70 f i GuEPA.obj
 0001:0009fc90       ?getIndex@Edge@Gu@physx@@QEBAIXZ 00000001800a0c90 f i GuEPA.obj
 0001:0009fcb0       ?getNewID@?$IDPoolBase@V?$InlineFixedArray@I$0EA@@Cm@physx@@@Cm@physx@@QEAAIXZ 00000001800a0cb0 f i GuEPA.obj
 0001:0009fd30       ?getNumRemainingIDs@?$InlineDeferredIDPool@$0EA@@Cm@physx@@QEAAIXZ 00000001800a0d30 f i GuEPA.obj
 0001:0009fd60       ?getNumUsedID@?$IDPoolBase@V?$InlineFixedArray@I$0EA@@Cm@physx@@@Cm@physx@@QEBAIXZ 00000001800a0d60 f i GuEPA.obj
 0001:0009fda0       ?getPlaneDist@Facet@Gu@physx@@QEBA?AT__m128@@AEBT4@PEIBT4@1@Z 00000001800a0da0 f i GuEPA.obj
 0001:0009ff40       ?getPlaneDist@Facet@Gu@physx@@QEBA?AT__m128@@XZ 00000001800a0f40 f i GuEPA.obj
 0001:0009ff90       ?getPlaneNormal@Facet@Gu@physx@@QEBA?AT__m128@@XZ 00000001800a0f90 f i GuEPA.obj
 0001:0009ffc0       ?getSource@Edge@Gu@physx@@QEBAIXZ 00000001800a0fc0 f i GuEPA.obj
 0001:000a0060       ?getTarget@Edge@Gu@physx@@QEBAIXZ 00000001800a1060 f i GuEPA.obj
 0001:000a0100       ?incMod3@Gu@physx@@YAII@Z  00000001800a1100 f i GuEPA.obj
 0001:000a0120       ?isObsolete@Facet@Gu@physx@@QEBA_NXZ 00000001800a1120 f i GuEPA.obj
 0001:000a0140       ?isValid2@Facet@Gu@physx@@QEAA?AT__m128@@IIIPEIBT4@0AEBT4@1@Z 00000001800a1140 f i GuEPA.obj
 0001:000a0a30       ?left@?$PriorityQueueBase@PEAVFacet@Gu@physx@@UFacetDistanceComparator@23@@Cm@physx@@KAII@Z 00000001800a1a30 f i GuEPA.obj
 0001:000a0a40       ?link@Facet@Gu@physx@@QEAA_NIPEIAV123@I@Z 00000001800a1a40 f i GuEPA.obj
 0001:000a0b60       ?parent@?$PriorityQueueBase@PEAVFacet@Gu@physx@@UFacetDistanceComparator@23@@Cm@physx@@KAII@Z 00000001800a1b60 f i GuEPA.obj
 0001:000a0b70       ?pop@?$PriorityQueueBase@PEAVFacet@Gu@physx@@UFacetDistanceComparator@23@@Cm@physx@@QEAAPEAVFacet@Gu@3@XZ 00000001800a1b70 f i GuEPA.obj
 0001:000a0e60       ?popBack@?$InlineFixedArray@I$0EA@@Cm@physx@@QEAAIXZ 00000001800a1e60 f i GuEPA.obj
 0001:000a0f20       ?processDeferredIds@?$DeferredIDPoolBase@V?$InlineFixedArray@I$0EA@@Cm@physx@@@Cm@physx@@QEAAXXZ 00000001800a1f20 f i GuEPA.obj
 0001:000a0fc0       ?push@?$InlinePriorityQueue@PEAVFacet@Gu@physx@@$0EA@UFacetDistanceComparator@23@@Cm@physx@@QEAAXAEAPEAVFacet@Gu@3@@Z 00000001800a1fc0 f i GuEPA.obj
 0001:000a1050       ?push@?$PriorityQueueBase@PEAVFacet@Gu@physx@@UFacetDistanceComparator@23@@Cm@physx@@QEAAXAEBQEAVFacet@Gu@3@@Z 00000001800a2050 f i GuEPA.obj
 0001:000a11c0       ?pushBack@?$InlineFixedArray@I$0EA@@Cm@physx@@QEAAXAEBI@Z 00000001800a21c0 f i GuEPA.obj
 0001:000a1280       ?silhouette@Facet@Gu@physx@@QEAAXIAEBT__m128@@PEIBT4@1AEAVEdgeBuffer@23@AEAV?$InlineDeferredIDPool@$0EA@@Cm@3@@Z 00000001800a2280 f i GuEPA.obj
 0001:000a1660       ?size@?$InlineFixedArray@I$0EA@@Cm@physx@@QEBAIXZ 00000001800a2660 f i GuEPA.obj
 0001:000a1680       ?size@?$PriorityQueueBase@PEAVFacet@Gu@physx@@UFacetDistanceComparator@23@@Cm@physx@@QEBAIXZ 00000001800a2680 f i GuEPA.obj
 0001:000a1690       ?toI8@shdfnd@physx@@YACI@Z 00000001800a2690 f i GuEPA.obj
 0001:000a1710       ?top@?$PriorityQueueBase@PEAVFacet@Gu@physx@@UFacetDistanceComparator@23@@Cm@physx@@QEAAPEAVFacet@Gu@3@XZ 00000001800a2710 f i GuEPA.obj
 0001:000a1740       ?valid@?$PriorityQueueBase@PEAVFacet@Gu@physx@@UFacetDistanceComparator@23@@Cm@physx@@QEBA_NXZ 00000001800a2740 f i GuEPA.obj
 0001:000a17e0       ?closestPtPointTetrahedron@Gu@physx@@YA?AT__m128@@PEIAT3@00AEAI@Z 00000001800a27e0 f   GuGJKSimplex.obj
 0001:000a1dd0       ?closestPtPointTetrahedron@Gu@physx@@YA?AT__m128@@PEIAT3@00PEIAH1AEAI@Z 00000001800a2dd0 f   GuGJKSimplex.obj
 0001:000a3220       ?BAllEqFFFF@aos@shdfnd@physx@@YAIT__m128@@@Z 00000001800a4220 f i GuGJKSimplex.obj
 0001:000a3260       ?BGetW@aos@shdfnd@physx@@YA?AT__m128@@T4@@Z 00000001800a4260 f i GuGJKSimplex.obj
 0001:000a3290       ?BGetX@aos@shdfnd@physx@@YA?AT__m128@@T4@@Z 00000001800a4290 f i GuGJKSimplex.obj
 0001:000a32c0       ?BGetY@aos@shdfnd@physx@@YA?AT__m128@@T4@@Z 00000001800a42c0 f i GuGJKSimplex.obj
 0001:000a32f0       ?BGetZ@aos@shdfnd@physx@@YA?AT__m128@@T4@@Z 00000001800a42f0 f i GuGJKSimplex.obj
 0001:000a3320       ?PointOutsideOfPlane4@Gu@physx@@YA?AT__m128@@AEBT3@000@Z 00000001800a4320 f i GuGJKSimplex.obj
 0001:000a3b20       ?V4Merge@aos@shdfnd@physx@@YA?AT__m128@@AEBT4@000@Z 00000001800a4b20 f i GuGJKSimplex.obj
 0001:000a3e10       ?closestPtPointTriangle@Gu@physx@@YA?AT__m128@@PEIAT3@PEAT3@1PEIAH2AEAI@Z 00000001800a4e10 f i GuGJKSimplex.obj
 0001:000a4460       ?testGjk@Gu@physx@@YA?AW4GjkStatus@12@AEAUGjkConvex@12@0AEBT__m128@@1AEAT5@222@Z 00000001800a5460 f   GuGJKTest.obj
 0001:000a44d0       ?testGjkPenetration@Gu@physx@@YA?AW4GjkStatus@12@AEAUGjkConvex@12@0AEBT__m128@@1AEAT5@222@Z 00000001800a54d0 f   GuGJKTest.obj
 0001:000a45c0       ?testGjkPenetration@Gu@physx@@YA?AW4GjkStatus@12@AEAUGjkConvex@12@0AEBT__m128@@1AEAT5@222PEAE3E@Z 00000001800a55c0 f   GuGJKTest.obj
 0001:000a46b0       ?testEpaPenetration@Gu@physx@@YA?AW4GjkStatus@12@AEAUGjkConvex@12@0AEAT__m128@@111@Z 00000001800a56b0 f   GuGJKTest.obj
 0001:000a4770       ?testEpaPenetration@Gu@physx@@YA?AW4GjkStatus@12@AEAUGjkConvex@12@0AEAT__m128@@111PEAE2E@Z 00000001800a5770 f   GuGJKTest.obj
 0001:000a4840       ?testGjkRaycast@Gu@physx@@YA_NAEAUGjkConvex@12@0AEBT__m128@@111AEAT4@22M@Z 00000001800a5840 f   GuGJKTest.obj
 0001:000a49e0       ??$PX_UNUSED@T__m128@@@@YAXAEBT__m128@@@Z 00000001800a59e0 f i GuGJKTest.obj
 0001:000a49f0       ??$gjk@UGjkConvex@Gu@physx@@U123@@Gu@physx@@YA?AW4GjkStatus@01@AEBUGjkConvex@01@0AEBT__m128@@1AEAT4@222@Z 00000001800a59f0 f i GuGJKTest.obj
 0001:000a5f20       ??$gjkPenetration@UGjkConvex@Gu@physx@@U123@@Gu@physx@@YA?AW4GjkStatus@01@AEBUGjkConvex@01@0AEBT__m128@@1AEAT4@222PEIAE3AEAE_N@Z 00000001800a6f20 f i GuGJKTest.obj
 0001:000a7dc0       ??$gjkRaycast@UGjkConvex@Gu@physx@@U123@@Gu@physx@@YA_NAEBUGjkConvex@01@0AEBT__m128@@111AEAT3@22M@Z 00000001800a8dc0 f i GuGJKTest.obj
 0001:000a9770       ?GJKCPairDoSimplex@Gu@physx@@YA?AT__m128@@PEIAT3@00PEIAH1AEBT3@AEAI@Z 00000001800aa770 f i GuGJKTest.obj
 0001:000a9950       ?V3NormalizeSafe@aos@shdfnd@physx@@YA?AT__m128@@T4@0@Z 00000001800aa950 f i GuGJKTest.obj
 0001:000a9b70       ?assignWarmStartValue@Gu@physx@@YAXPEIAE0AEAEPEIAH2I@Z 00000001800aab70 f i GuGJKTest.obj
 0001:000a9c90       ?getMarginIsRadius@ConvexV@Gu@physx@@QEBA_NXZ 00000001800aac90 f i GuGJKTest.obj
 0001:000a9cb0       ?getMarginIsRadius@GjkConvexBase@Gu@physx@@QEBA_NXZ 00000001800aacb0 f i GuGJKTest.obj
 0001:000a9ce0       ?to8@shdfnd@physx@@YAEH@Z  00000001800aace0 f i GuGJKTest.obj
 0001:000a9dc0       ?intersectOBBOBB@Gu@physx@@YA_NAEBVPxVec3@2@0AEBVPxMat33@2@001_N@Z 00000001800aadc0 f   GuIntersectionBoxBox.obj
 0001:000ab6a0       ?intersectCapsuleTriangle@Gu@physx@@YA_NAEBVPxVec3@2@000AEBVCapsule@12@AEBUCapsuleTriangleOverlapData@12@@Z 00000001800ac6a0 f   GuIntersectionCapsuleTriangle.obj
 0001:000abab0       ??$PxClamp@M@physx@@YAMMMM@Z 00000001800acab0 f i GuIntersectionCapsuleTriangle.obj
 0001:000abb70       ??9PxVec3@physx@@QEBA_NAEBV01@@Z 00000001800acb70 f i GuIntersectionCapsuleTriangle.obj
 0001:000abbf0       ?computeEdgeAxis@Gu@physx@@YA?AVPxVec3@2@AEBV32@000MM@Z 00000001800acbf0 f i GuIntersectionCapsuleTriangle.obj
 0001:000abee0       ?testAxis@Gu@physx@@YAIAEBVPxVec3@2@00AEBVCapsule@12@0@Z 00000001800acee0 f i GuIntersectionCapsuleTriangle.obj
 0001:000ac0c0       ?intersectEdgeEdge@Gu@physx@@YA_NAEBVPxVec3@2@0000AEAMAEAV32@@Z 00000001800ad0c0 f   GuIntersectionEdgeEdge.obj
 0001:000ac660       ?rayAABBIntersect@Gu@physx@@YA_NAEBVPxVec3@2@000AEAV32@@Z 00000001800ad660 f   GuIntersectionRayBox.obj
 0001:000acad0       ?rayAABBIntersect2@Gu@physx@@YAIAEBVPxVec3@2@000AEAV32@AEAM@Z 00000001800adad0 f   GuIntersectionRayBox.obj
 0001:000acf70       ?intersectRayAABB@Gu@physx@@YAHAEBVPxVec3@2@000AEAM1@Z 00000001800adf70 f   GuIntersectionRayBox.obj
 0001:000ad240       ?intersectRayAABB@Gu@physx@@YAHAEBVPxVec3@2@0000AEAM1@Z 00000001800ae240 f   GuIntersectionRayBox.obj
 0001:000ad630       ?intersectRayAABB2@Gu@physx@@YA_NAEBVPxVec3@2@000MAEAM1@Z 00000001800ae630 f   GuIntersectionRayBox.obj
 0001:000adb00       ?intersectRayAABB2@Gu@physx@@YA_NAEBT__m128@@0000AEAT3@1@Z 00000001800aeb00 f   GuIntersectionRayBox.obj
 0001:000ae7b0       ?V3IsGrtrOrEq@aos@shdfnd@physx@@YA?AT__m128@@T4@0@Z 00000001800af7b0 f i GuIntersectionRayBox.obj
 0001:000ae900       ?V3Min@aos@shdfnd@physx@@YA?AT__m128@@T4@0@Z 00000001800af900 f i GuIntersectionRayBox.obj
 0001:000aea50       ?V3Sign@aos@shdfnd@physx@@YA?AT__m128@@T4@@Z 00000001800afa50 f i GuIntersectionRayBox.obj
 0001:000aec20       ?recip@intrinsics@physx@@YAMM@Z 00000001800afc20 f i GuIntersectionRayBox.obj
 0001:000aec40       ?intersectRayCapsuleInternal@Gu@physx@@YAIAEBVPxVec3@2@000MQEAM@Z 00000001800afc40 f   GuIntersectionRayCapsule.obj
 0001:000afe50       ?intersectRaySphereBasic@Gu@physx@@YA_NAEBVPxVec3@2@0M0MAEAMPEAV32@@Z 00000001800b0e50 f   GuIntersectionRaySphere.obj
 0001:000b0010       ?intersectRaySphere@Gu@physx@@YA_NAEBVPxVec3@2@0M0MAEAMPEAV32@@Z 00000001800b1010 f   GuIntersectionRaySphere.obj
 0001:000b0230       ?intersectSphereBox@Gu@physx@@YA_NAEBVSphere@12@AEBVBox@12@@Z 00000001800b1230 f   GuIntersectionSphereBox.obj
 0001:000b04d0       ?intersectTriangleBox_ReferenceCode@Gu@physx@@YAHAEBVPxVec3@2@0000@Z 00000001800b14d0 f   GuIntersectionTriangleBox.obj
 0001:000b10b0       ?intersectTriangleBox_Unsafe@Gu@physx@@YAHAEBVPxVec3@2@0000@Z 00000001800b20b0 f   GuIntersectionTriangleBox.obj
 0001:000b1260       ?intersectTriangleBox@Gu@physx@@YAHAEBVBoxPadded@12@AEBVPxVec3@2@11@Z 00000001800b2260 f   GuIntersectionTriangleBox.obj
 0001:000b27b0       ?intersectTriangleBoxBV4@@YAHAEBVPxVec3@physx@@00AEBVPxMat33@2@00@Z 00000001800b37b0 f   GuIntersectionTriangleBox.obj
 0001:000b3320       ?BAnyTrue3_R@internalWindowsSimd@aos@shdfnd@physx@@YAIT__m128@@@Z 00000001800b4320 f i GuIntersectionTriangleBox.obj
 0001:000b3370       ?U4LoadXYZW@aos@shdfnd@physx@@YA?AT__m128@@IIII@Z 00000001800b4370 f i GuIntersectionTriangleBox.obj
 0001:000b33f0       ?V4Abs@aos@shdfnd@physx@@YA?AT__m128@@T4@@Z 00000001800b43f0 f i GuIntersectionTriangleBox.obj
 0001:000b3470       ?V4AllGrtrOrEq3@aos@shdfnd@physx@@YAIT__m128@@0@Z 00000001800b4470 f i GuIntersectionTriangleBox.obj
 0001:000b34e0       ?V4AnyGrtr3@aos@shdfnd@physx@@YAIT__m128@@0@Z 00000001800b44e0 f i GuIntersectionTriangleBox.obj
 0001:000b3550       ?V4Cross@aos@shdfnd@physx@@YA?AT__m128@@T4@0@Z 00000001800b4550 f i GuIntersectionTriangleBox.obj
 0001:000b3680       ?V4Dot3@aos@shdfnd@physx@@YA?AT__m128@@T4@0@Z 00000001800b4680 f i GuIntersectionTriangleBox.obj
 0001:000b3770       ?V4NegMulSub@aos@shdfnd@physx@@YA?AT__m128@@T4@00@Z 00000001800b4770 f i GuIntersectionTriangleBox.obj
 0001:000b3820       ?V4PermYZXW@aos@shdfnd@physx@@YA?AT__m128@@T4@@Z 00000001800b4820 f i GuIntersectionTriangleBox.obj
 0001:000b3850       ?V4Scale@aos@shdfnd@physx@@YA?AT__m128@@T4@0@Z 00000001800b4850 f i GuIntersectionTriangleBox.obj
 0001:000b3890       ?V4U32and@aos@shdfnd@physx@@YA?AT__m128@@T4@0@Z 00000001800b4890 f i GuIntersectionTriangleBox.obj
 0001:000b3950       ?V4U32or@aos@shdfnd@physx@@YA?AT__m128@@T4@0@Z 00000001800b4950 f i GuIntersectionTriangleBox.obj
 0001:000b3a10       ?V4U32xor@aos@shdfnd@physx@@YA?AT__m128@@T4@0@Z 00000001800b4a10 f i GuIntersectionTriangleBox.obj
 0001:000b3ad0       ?Vec4V_From_FloatV@aos@shdfnd@physx@@YA?AT__m128@@T4@@Z 00000001800b4ad0 f i GuIntersectionTriangleBox.obj
 0001:000b3af0       ?Vec4V_ReinterpretFrom_VecU32V@aos@shdfnd@physx@@YA?AT__m128@@T4@@Z 00000001800b4af0 f i GuIntersectionTriangleBox.obj
 0001:000b3b20       ?VecU32V_ReinterpretFrom_Vec4V@aos@shdfnd@physx@@YA?AT__m128@@T4@@Z 00000001800b4b20 f i GuIntersectionTriangleBox.obj
 0001:000b3b50       ??0BV32Tree@Gu@physx@@QEAA@W4PxEMPTY@2@@Z 00000001800b4b50 f   GuBV32.obj
 0001:000b3b90       ?exportExtraData@BV32Tree@Gu@physx@@QEAAXAEAVPxSerializationContext@3@@Z 00000001800b4b90 f   GuBV32.obj
 0001:000b3bf0       ?importExtraData@BV32Tree@Gu@physx@@QEAAXAEAVPxDeserializationContext@3@@Z 00000001800b4bf0 f   GuBV32.obj
 0001:000b3c40       ??0BV32Tree@Gu@physx@@QEAA@XZ 00000001800b4c40 f   GuBV32.obj
 0001:000b3c80       ??0BV32Tree@Gu@physx@@QEAA@PEAVSourceMesh@12@AEBVPxBounds3@2@@Z 00000001800b4c80 f   GuBV32.obj
 0001:000b3ce0       ??1BV32Tree@Gu@physx@@QEAA@XZ 00000001800b4ce0 f   GuBV32.obj
 0001:000b3d00       ?load@BV32Tree@Gu@physx@@QEAA_NAEAVPxInputStream@3@I@Z 00000001800b4d00 f   GuBV32.obj
 0001:000b40c0       ?calculateLeafNode@BV32Tree@Gu@physx@@QEAAXAEAUBV32Data@23@@Z 00000001800b50c0 f   GuBV32.obj
 0001:000b41d0       ?createSOAformatNode@BV32Tree@Gu@physx@@QEAAXAEAUBV32DataPacked@23@AEBUBV32Data@23@IAEAI2@Z 00000001800b51d0 f   GuBV32.obj
 0001:000b44f0       ?reset@BV32Tree@Gu@physx@@QEAAXXZ 00000001800b54f0 f   GuBV32.obj
 0001:000b4550       ??4BV32Tree@Gu@physx@@QEAAXAEAV012@@Z 00000001800b5550 f   GuBV32.obj
 0001:000b45e0       ?init@BV32Tree@Gu@physx@@QEAA_NPEAVSourceMesh@23@AEBVPxBounds3@3@@Z 00000001800b55e0 f   GuBV32.obj
 0001:000b4630       ?release@BV32Tree@Gu@physx@@QEAAXXZ 00000001800b5630 f   GuBV32.obj
 0001:000b49a0       ??$readExtraData@UBV32Data@Gu@physx@@@PxDeserializationContext@physx@@QEAAPEAUBV32Data@Gu@1@I@Z 00000001800b59a0 f i GuBV32.obj
 0001:000b49f0       ??0LocalBounds@Gu@physx@@QEAA@XZ 00000001800b59f0 f i GuBV32.obj
 0001:000b4a30       ??4LocalBounds@Gu@physx@@QEAAAEAU012@AEBU012@@Z 00000001800b5a30 f i GuBV32.obj
 0001:000b4a80       ?getChildOffset@BV32Data@Gu@physx@@QEBAIXZ 00000001800b5a80 f i GuBV32.obj
 0001:000b4b10       ?getNbChildren@BV32Data@Gu@physx@@QEBAIXZ 00000001800b5b10 f i GuBV32.obj
 0001:000b4bb0       ?init@LocalBounds@Gu@physx@@QEAAXAEBVPxBounds3@3@@Z 00000001800b5bb0 f i GuBV32.obj
 0001:000b4c20       ?isLeaf@BV32Data@Gu@physx@@QEBAIXZ 00000001800b5c20 f i GuBV32.obj
 0001:000b4c40       ?littleEndian@shdfnd@physx@@YADXZ 00000001800b5c40 f i GuBV32.obj
 0001:000b4c60       ?BuildBV32Ex@Gu@physx@@YA_NAEAVBV32Tree@12@AEAVSourceMesh@12@MI@Z 00000001800b5c60 f   GuBV32Build.obj
 0001:000b6450       ??$?2V?$ReflectionAllocator@UBV32Node@@@shdfnd@physx@@@UserAllocated@shdfnd@physx@@SAPEAX_KV?$ReflectionAllocator@UBV32Node@@@12@PEBDH@Z 00000001800b7450 f i GuBV32Build.obj
 0001:000b64a0       ??$?_UV?$ReflectionAllocator@UBV32Data@Gu@physx@@@shdfnd@physx@@@UserAllocated@shdfnd@physx@@SAPEAX_KV?$ReflectionAllocator@UBV32Data@Gu@physx@@@12@PEBDH@Z 00000001800b74a0 f i GuBV32Build.obj
 0001:000b64f0       ??$swap@PEAVAABBTreeNode@Gu@physx@@@shdfnd@physx@@YAXAEAPEAVAABBTreeNode@Gu@1@0@Z 00000001800b74f0 f i GuBV32Build.obj
 0001:000b6540       ??$swap@VAABBTreeNode@Gu@physx@@@shdfnd@physx@@YAXAEAVAABBTreeNode@Gu@1@0@Z 00000001800b7540 f i GuBV32Build.obj
 0001:000b65a0       ??0?$ReflectionAllocator@UBV32Data@Gu@physx@@@shdfnd@physx@@QEAA@PEBD@Z 00000001800b75a0 f i GuBV32Build.obj
 0001:000b65c0       ??0?$ReflectionAllocator@UBV32Node@@@shdfnd@physx@@QEAA@PEBD@Z 00000001800b75c0 f i GuBV32Build.obj
 0001:000b65e0       ??0AABBTreeNode@Gu@physx@@QEAA@AEBV012@@Z 00000001800b75e0 f i GuBV32Build.obj
 0001:000b6660       ??0BV32Data@Gu@physx@@QEAA@XZ 00000001800b7660 f i GuBV32Build.obj
 0001:000b66d0       ??0BV32Node@@QEAA@XZ       00000001800b76d0 f i GuBV32Build.obj
 0001:000b6720       ??0PxBounds3@physx@@QEAA@AEBV01@@Z 00000001800b7720 f i GuBV32Build.obj
 0001:000b6780       ??1AABBTreeNode@Gu@physx@@QEAA@XZ 00000001800b7780 f i GuBV32Build.obj
 0001:000b67c0       ??4AABBTreeNode@Gu@physx@@QEAAAEAV012@AEBV012@@Z 00000001800b77c0 f i GuBV32Build.obj
 0001:000b6fd0       ?allocate@?$ReflectionAllocator@UBV32Data@Gu@physx@@@shdfnd@physx@@QEAAPEAX_KPEBDH@Z 00000001800b7fd0 f i GuBV32Build.obj
 0001:000b7070       ?allocate@?$ReflectionAllocator@UBV32Node@@@shdfnd@physx@@QEAAPEAX_KPEBDH@Z 00000001800b8070 f i GuBV32Build.obj
 0001:000b7110       ?getAABB@AABBTreeNode@Gu@physx@@QEBAAEBVPxBounds3@3@XZ 00000001800b8110 f i GuBV32Build.obj
 0001:000b7120       ?getBV@AABBTree@Gu@physx@@QEBAAEBVPxBounds3@3@XZ 00000001800b8120 f i GuBV32Build.obj
 0001:000b7140       ?getChild@BV32Node@@QEBAPEBU1@I@Z 00000001800b8140 f i GuBV32Build.obj
 0001:000b7170       ?getIndices@AABBTree@Gu@physx@@QEBAPEBIXZ 00000001800b8170 f i GuBV32Build.obj
 0001:000b7190       ?getName@?$ReflectionAllocator@UBV32Data@Gu@physx@@@shdfnd@physx@@CAPEBDXZ 00000001800b8190 f i GuBV32Build.obj
 0001:000b71e0       ?getName@?$ReflectionAllocator@UBV32Node@@@shdfnd@physx@@CAPEBDXZ 00000001800b81e0 f i GuBV32Build.obj
 0001:000b7230       ?getNbPrimitives@AABBTreeNode@Gu@physx@@QEBAIXZ 00000001800b8230 f i GuBV32Build.obj
 0001:000b7250       ?getNbTriangles@SourceMesh@Gu@physx@@QEBAIXZ 00000001800b8250 f i GuBV32Build.obj
 0001:000b7270       ?getNeg@AABBTreeNode@Gu@physx@@QEBAPEBV123@XZ 00000001800b8270 f i GuBV32Build.obj
 0001:000b72d0       ?getNodes@AABBTree@Gu@physx@@QEBAPEBVAABBTreeNode@23@XZ 00000001800b82d0 f i GuBV32Build.obj
 0001:000b72f0       ?getPos@AABBTreeNode@Gu@physx@@QEBAPEBV123@XZ 00000001800b82f0 f i GuBV32Build.obj
 0001:000b7310       ?getPrimitives@AABBTreeNode@Gu@physx@@QEBAPEBIXZ 00000001800b8310 f i GuBV32Build.obj
 0001:000b7330       ?isLeaf@AABBTreeNode@Gu@physx@@QEBA_NXZ 00000001800b8330 f i GuBV32Build.obj
 0001:000b7380       ?isLeaf@BV32Node@@QEBA_KI@Z 00000001800b8380 f i GuBV32Build.obj
 0001:000b73b0       ?setEmpty@BV32Data@Gu@physx@@QEAAXXZ 00000001800b83b0 f i GuBV32Build.obj
 0001:000b7430       ??0SourceMesh@Gu@physx@@QEAA@XZ 00000001800b8430 f   GuBV4.obj
 0001:000b7460       ??1SourceMesh@Gu@physx@@QEAA@XZ 00000001800b8460 f   GuBV4.obj
 0001:000b74a0       ?reset@SourceMesh@Gu@physx@@QEAAXXZ 00000001800b84a0 f   GuBV4.obj
 0001:000b7500       ??4SourceMesh@Gu@physx@@QEAAXAEAV012@@Z 00000001800b8500 f   GuBV4.obj
 0001:000b7590       ?remapTopology@SourceMesh@Gu@physx@@QEAAXPEBI@Z 00000001800b8590 f   GuBV4.obj
 0001:000b7af0       ?isValid@SourceMesh@Gu@physx@@QEBA_NXZ 00000001800b8af0 f   GuBV4.obj
 0001:000b7b50       ??0BV4Tree@Gu@physx@@QEAA@W4PxEMPTY@2@@Z 00000001800b8b50 f   GuBV4.obj
 0001:000b7bb0       ?exportExtraData@BV4Tree@Gu@physx@@QEAAXAEAVPxSerializationContext@3@@Z 00000001800b8bb0 f   GuBV4.obj
 0001:000b7c20       ?importExtraData@BV4Tree@Gu@physx@@QEAAXAEAVPxDeserializationContext@3@@Z 00000001800b8c20 f   GuBV4.obj
 0001:000b7c70       ??0BV4Tree@Gu@physx@@QEAA@XZ 00000001800b8c70 f   GuBV4.obj
 0001:000b7cd0       ??0BV4Tree@Gu@physx@@QEAA@PEAVSourceMesh@12@AEBVPxBounds3@2@@Z 00000001800b8cd0 f   GuBV4.obj
 0001:000b7d50       ??1BV4Tree@Gu@physx@@QEAA@XZ 00000001800b8d50 f   GuBV4.obj
 0001:000b7d70       ?load@BV4Tree@Gu@physx@@QEAA_NAEAVPxInputStream@3@I@Z 00000001800b8d70 f   GuBV4.obj
 0001:000b8130       ?reset@BV4Tree@Gu@physx@@QEAAXXZ 00000001800b9130 f   GuBV4.obj
 0001:000b81c0       ??4BV4Tree@Gu@physx@@QEAAXAEAV012@@Z 00000001800b91c0 f   GuBV4.obj
 0001:000b8290       ?init@BV4Tree@Gu@physx@@QEAA_NPEAVSourceMesh@23@AEBVPxBounds3@3@@Z 00000001800b9290 f   GuBV4.obj
 0001:000b82e0       ?release@BV4Tree@Gu@physx@@QEAAXXZ 00000001800b92e0 f   GuBV4.obj
 0001:000b8700       ??$?_UV?$ReflectionAllocator@VIndTri16@Gu@physx@@@shdfnd@physx@@@UserAllocated@shdfnd@physx@@SAPEAX_KV?$ReflectionAllocator@VIndTri16@Gu@physx@@@12@PEBDH@Z 00000001800b9700 f i GuBV4.obj
 0001:000b8750       ??$?_UV?$ReflectionAllocator@VIndTri32@Gu@physx@@@shdfnd@physx@@@UserAllocated@shdfnd@physx@@SAPEAX_KV?$ReflectionAllocator@VIndTri32@Gu@physx@@@12@PEBDH@Z 00000001800b9750 f i GuBV4.obj
 0001:000b87a0       ??$readExtraData@UBVDataPacked@Gu@physx@@@PxDeserializationContext@physx@@QEAAPEAUBVDataPacked@Gu@1@I@Z 00000001800b97a0 f i GuBV4.obj
 0001:000b87f0       ??0?$ReflectionAllocator@VIndTri16@Gu@physx@@@shdfnd@physx@@QEAA@PEBD@Z 00000001800b97f0 f i GuBV4.obj
 0001:000b8810       ??0?$ReflectionAllocator@VIndTri32@Gu@physx@@@shdfnd@physx@@QEAA@PEBD@Z 00000001800b9810 f i GuBV4.obj
 0001:000b8830       ??0IndTri16@Gu@physx@@QEAA@XZ 00000001800b9830 f i GuBV4.obj
 0001:000b8840       ??0IndTri32@Gu@physx@@QEAA@XZ 00000001800b9840 f i GuBV4.obj
 0001:000b8850       ??1IndTri16@Gu@physx@@QEAA@XZ 00000001800b9850 f i GuBV4.obj
 0001:000b8860       ??1IndTri32@Gu@physx@@QEAA@XZ 00000001800b9860 f i GuBV4.obj
 0001:000b8870       ??_EIndTri16@Gu@physx@@QEAAPEAXI@Z 00000001800b9870 f i GuBV4.obj
 0001:000b8980       ??_EIndTri32@Gu@physx@@QEAAPEAXI@Z 00000001800b9980 f i GuBV4.obj
 0001:000b8a90       ?allocate@?$ReflectionAllocator@VIndTri16@Gu@physx@@@shdfnd@physx@@QEAAPEAX_KPEBDH@Z 00000001800b9a90 f i GuBV4.obj
 0001:000b8b30       ?allocate@?$ReflectionAllocator@VIndTri32@Gu@physx@@@shdfnd@physx@@QEAAPEAX_KPEBDH@Z 00000001800b9b30 f i GuBV4.obj
 0001:000b8bd0       ?getName@?$ReflectionAllocator@VIndTri16@Gu@physx@@@shdfnd@physx@@CAPEBDXZ 00000001800b9bd0 f i GuBV4.obj
 0001:000b8c20       ?getName@?$ReflectionAllocator@VIndTri32@Gu@physx@@@shdfnd@physx@@CAPEBDXZ 00000001800b9c20 f i GuBV4.obj
 0001:000b8c70       ??0AABBTree@Gu@physx@@QEAA@XZ 00000001800b9c70 f   GuBV4Build.obj
 0001:000b8cb0       ??1AABBTree@Gu@physx@@QEAA@XZ 00000001800b9cb0 f   GuBV4Build.obj
 0001:000b8cd0       ?buildFromMesh@AABBTree@Gu@physx@@QEAA_NAEAVSourceMesh@23@I@Z 00000001800b9cd0 f   GuBV4Build.obj
 0001:000b9350       ?release@AABBTree@Gu@physx@@QEAAXXZ 00000001800ba350 f   GuBV4Build.obj
 0001:000b93f0       ?walk@AABBTree@Gu@physx@@QEBAIP6A_NPEBVAABBTreeNode@23@IPEAX@Z1@Z 00000001800ba3f0 f   GuBV4Build.obj
 0001:000b9450       ?BuildBV4Ex@Gu@physx@@YA_NAEAVBV4Tree@12@AEAVSourceMesh@12@MI@Z 00000001800ba450 f   GuBV4Build.obj
 0001:000ba770       ??0BVData@@QEAA@XZ         00000001800bb770 f   GuBV4Build.obj
 0001:000ba7c0       ??1BV4BuildParams@@QEAA@XZ 00000001800bb7c0 f   GuBV4Build.obj
 0001:000ba7e0       ?allocateNode@BV4BuildParams@@QEAAPEAUBV4Node@@XZ 00000001800bb7e0 f   GuBV4Build.obj
 0001:000ba900       ?releaseNodes@BV4BuildParams@@QEAAXXZ 00000001800bb900 f   GuBV4Build.obj
 0001:000bcbf0       ??$?2V?$ReflectionAllocator@USlab@BV4BuildParams@@@shdfnd@physx@@@UserAllocated@shdfnd@physx@@SAPEAX_KV?$ReflectionAllocator@USlab@BV4BuildParams@@@12@PEBDH@Z 00000001800bdbf0 f i GuBV4Build.obj
 0001:000bcc40       ??$?_UV?$ReflectionAllocator@UBVDataPacked@Gu@physx@@@shdfnd@physx@@@UserAllocated@shdfnd@physx@@SAPEAX_KV?$ReflectionAllocator@UBVDataPacked@Gu@physx@@@12@PEBDH@Z 00000001800bdc40 f i GuBV4Build.obj
 0001:000bcc90       ??$?_UV?$ReflectionAllocator@VAABBTreeNode@Gu@physx@@@shdfnd@physx@@@UserAllocated@shdfnd@physx@@SAPEAX_KV?$ReflectionAllocator@VAABBTreeNode@Gu@physx@@@12@PEBDH@Z 00000001800bdc90 f i GuBV4Build.obj
 0001:000bcce0       ??0?$ReflectionAllocator@UBVDataPacked@Gu@physx@@@shdfnd@physx@@QEAA@PEBD@Z 00000001800bdce0 f i GuBV4Build.obj
 0001:000bcd00       ??0?$ReflectionAllocator@USlab@BV4BuildParams@@@shdfnd@physx@@QEAA@PEBD@Z 00000001800bdd00 f i GuBV4Build.obj
 0001:000bcd20       ??0?$ReflectionAllocator@VAABBTreeNode@Gu@physx@@@shdfnd@physx@@QEAA@PEBD@Z 00000001800bdd20 f i GuBV4Build.obj
 0001:000bcd40       ??0AABBTreeNode@Gu@physx@@QEAA@XZ 00000001800bdd40 f i GuBV4Build.obj
 0001:000bcda0       ??0BV4BuildParams@@QEAA@M@Z 00000001800bdda0 f i GuBV4Build.obj
 0001:000bcde0       ??0BV4Node@@QEAA@XZ        00000001800bdde0 f i GuBV4Build.obj
 0001:000bce20       ??0BuildStats@Gu@physx@@QEAA@XZ 00000001800bde20 f i GuBV4Build.obj
 0001:000bce50       ??0Slab@BV4BuildParams@@QEAA@XZ 00000001800bde50 f i GuBV4Build.obj
 0001:000bce90       ??1BV4Node@@QEAA@XZ        00000001800bde90 f i GuBV4Build.obj
 0001:000bced0       ??1BVData@@QEAA@XZ         00000001800bded0 f i GuBV4Build.obj
 0001:000bcf00       ??1Slab@BV4BuildParams@@QEAA@XZ 00000001800bdf00 f i GuBV4Build.obj
 0001:000bcf40       ??_EAABBTreeNode@Gu@physx@@QEAAPEAXI@Z 00000001800bdf40 f i GuBV4Build.obj
 0001:000bd050       ??_GSlab@BV4BuildParams@@QEAAPEAXI@Z 00000001800be050 f i GuBV4Build.obj
 0001:000be190       ?allocate@?$ReflectionAllocator@UBVDataPacked@Gu@physx@@@shdfnd@physx@@QEAAPEAX_KPEBDH@Z 00000001800bf190 f i GuBV4Build.obj
 0001:000be230       ?allocate@?$ReflectionAllocator@USlab@BV4BuildParams@@@shdfnd@physx@@QEAAPEAX_KPEBDH@Z 00000001800bf230 f i GuBV4Build.obj
 0001:000be2d0       ?allocate@?$ReflectionAllocator@VAABBTreeNode@Gu@physx@@@shdfnd@physx@@QEAAPEAX_KPEBDH@Z 00000001800bf2d0 f i GuBV4Build.obj
 0001:000be370       ?encodePNS@BVDataPacked@Gu@physx@@QEAAXI@Z 00000001800bf370 f i GuBV4Build.obj
 0001:000be410       ?getCenter@PxBounds3@physx@@QEBAMI@Z 00000001800bf410 f i GuBV4Build.obj
 0001:000be4e0       ?getChild@BV4Node@@QEBAPEBU1@I@Z 00000001800bf4e0 f i GuBV4Build.obj
 0001:000be510       ?getCount@BuildStats@Gu@physx@@QEBAIXZ 00000001800bf510 f i GuBV4Build.obj
 0001:000be520       ?getName@?$ReflectionAllocator@UBVDataPacked@Gu@physx@@@shdfnd@physx@@CAPEBDXZ 00000001800bf520 f i GuBV4Build.obj
 0001:000be570       ?getName@?$ReflectionAllocator@USlab@BV4BuildParams@@@shdfnd@physx@@CAPEBDXZ 00000001800bf570 f i GuBV4Build.obj
 0001:000be5c0       ?getName@?$ReflectionAllocator@VAABBTreeNode@Gu@physx@@@shdfnd@physx@@CAPEBDXZ 00000001800bf5c0 f i GuBV4Build.obj
 0001:000be610       ?getTriangle@SourceMesh@Gu@physx@@QEBAXAEAUVertexPointers@23@I@Z 00000001800bf610 f i GuBV4Build.obj
 0001:000be700       ?getType@BV4Node@@QEBAIXZ  00000001800bf700 f i GuBV4Build.obj
 0001:000be770       ?getVertexReferences@Gu@physx@@YAXAEAI00IPEBVIndTri32@12@PEBVIndTri16@12@@Z 00000001800bf770 f i GuBV4Build.obj
 0001:000be890       ?increaseCount@BuildStats@Gu@physx@@QEAAXI@Z 00000001800bf890 f i GuBV4Build.obj
 0001:000be8c0       ?isLeaf@BV4Node@@QEBA_KI@Z 00000001800bf8c0 f i GuBV4Build.obj
 0001:000be8f0       ?setCount@BuildStats@Gu@physx@@QEAAXI@Z 00000001800bf8f0 f i GuBV4Build.obj
 0001:000c04c0       ?Sweep_AABB_BV4@@YAHAEBVBox@Gu@physx@@AEBVPxVec3@3@MAEBVBV4Tree@23@PEIAVSweepHit@23@I@Z 00000001800c14c0 f   GuBV4_AABBSweep.obj
 0001:000c3e90       ?Sweep_AABB_BV4_CB@@YAXAEBVBox@Gu@physx@@AEBVPxVec3@3@MAEBVBV4Tree@23@PEIBVPxMat44@3@P6A_NPEAXAEBVSweepHit@23@@Z4I_N@Z 00000001800c4e90 f   GuBV4_AABBSweep.obj
 0001:000c78d0       ?GenericSweep_AABB_CB@@YAXAEBVBox@Gu@physx@@AEBVPxVec3@3@MAEBVBV4Tree@23@P6A_NPEAX111IAEAM@Z3I@Z 00000001800c88d0 f   GuBV4_AABBSweep.obj
 0001:000ce4a0       ??$V4SplatElement@$00@aos@shdfnd@physx@@YA?AT__m128@@T3@@Z 00000001800cf4a0 f i GuBV4_AABBSweep.obj
 0001:000ce520       ??$V4SplatElement@$01@aos@shdfnd@physx@@YA?AT__m128@@T3@@Z 00000001800cf520 f i GuBV4_AABBSweep.obj
 0001:000ce5a0       ??$V4SplatElement@$0A@@aos@shdfnd@physx@@YA?AT__m128@@T3@@Z 00000001800cf5a0 f i GuBV4_AABBSweep.obj
 0001:000cec80       ??0RayParams@@QEAA@XZ      00000001800cfc80 f i GuBV4_AABBSweep.obj
 0001:000cece0       ??0RaycastHitInternal@Gu@physx@@QEAA@XZ 00000001800cfce0 f i GuBV4_AABBSweep.obj
 0001:000cecf0       ??0SweepHit@Gu@physx@@QEAA@XZ 00000001800cfcf0 f i GuBV4_AABBSweep.obj
 0001:000cede0       ??1RayParams@@QEAA@XZ      00000001800cfde0 f i GuBV4_AABBSweep.obj
 0001:000cee30       ??1RaycastHitInternal@Gu@physx@@QEAA@XZ 00000001800cfe30 f i GuBV4_AABBSweep.obj
 0001:000cee40       ??1SweepHit@Gu@physx@@QEAA@XZ 00000001800cfe40 f i GuBV4_AABBSweep.obj
 0001:000cee50       ??I?$PxFlags@W4Enum@PxHitFlag@physx@@G@physx@@QEBA?AV01@AEBV01@@Z 00000001800cfe50 f i GuBV4_AABBSweep.obj
 0001:000ceec0       ?V4LoadA@aos@shdfnd@physx@@YA?AT__m128@@QEBM@Z 00000001800cfec0 f i GuBV4_AABBSweep.obj
 0001:000cef60       ?V4RecipFast@aos@shdfnd@physx@@YA?AT__m128@@T4@@Z 00000001800cff60 f i GuBV4_AABBSweep.obj
 0001:000cef90       ?computeBoxLocalImpact@Gu@physx@@YAXAEAVPxVec3@2@0AEAV?$PxFlags@W4Enum@PxHitFlag@physx@@G@2@AEBVBox@12@AEBV32@AEBVPxTriangle@2@V42@_N6M@Z 00000001800cff90 f i GuBV4_AABBSweep.obj
 0001:000cf230       ?decodePNSNoShift@BVDataSwizzled@Gu@physx@@QEBAII@Z 00000001800d0230 f i GuBV4_AABBSweep.obj
 0001:000cf9d0       ?getChildData@BVDataSwizzled@Gu@physx@@QEBAII@Z 00000001800d09d0 f i GuBV4_AABBSweep.obj
 0001:000cf9f0       ?getNbPrimitives@Gu@physx@@YAIAEAI@Z 00000001800d09f0 f i GuBV4_AABBSweep.obj
 0001:000cfa30       ?getPrimitive@BVDataSwizzled@Gu@physx@@QEBAII@Z 00000001800d0a30 f i GuBV4_AABBSweep.obj
 0001:000cfa50       ?getTris16@SourceMesh@Gu@physx@@QEBAPEBVIndTri16@23@XZ 00000001800d0a50 f i GuBV4_AABBSweep.obj
 0001:000cfa70       ?getTris32@SourceMesh@Gu@physx@@QEBAPEBVIndTri32@23@XZ 00000001800d0a70 f i GuBV4_AABBSweep.obj
 0001:000cfa90       ?getVerts@SourceMesh@Gu@physx@@QEBAPEBVPxVec3@3@XZ 00000001800d0a90 f i GuBV4_AABBSweep.obj
 0001:000cfab0       ?invertBoxMatrix@Gu@physx@@YAXAEAVPxMat33@2@AEAVPxVec3@2@AEBVBox@12@@Z 00000001800d0ab0 f i GuBV4_AABBSweep.obj
 0001:000cfd50       ?isLeaf@BVDataSwizzled@Gu@physx@@QEBAII@Z 00000001800d0d50 f i GuBV4_AABBSweep.obj
 0001:000cfd70       ?shouldFlipNormal@Gu@physx@@YA_NAEBVPxVec3@2@_N1AEBVPxTriangle@2@0PEBVPxTransform@2@@Z 00000001800d0d70 f i GuBV4_AABBSweep.obj
 0001:000cffa0       ?BV4_OverlapBoxAny@@YAHAEBVBox@Gu@physx@@AEBVBV4Tree@23@PEIBVPxMat44@3@@Z 00000001800d0fa0 f   GuBV4_BoxOverlap.obj
 0001:000d0340       ?BV4_OverlapBoxAll@@YAIAEBVBox@Gu@physx@@AEBVBV4Tree@23@PEIBVPxMat44@3@PEAIIAEA_N@Z 00000001800d1340 f   GuBV4_BoxOverlap.obj
 0001:000d0720       ?BV4_OverlapBoxCB@@YAXAEBVBox@Gu@physx@@AEBVBV4Tree@23@P6A_NPEAXAEBVPxVec3@3@33IPEBI@Z2@Z 00000001800d1720 f   GuBV4_BoxOverlap.obj
 0001:000d0e60       ?BV4_OverlapCapsuleAny@@YAHAEBVCapsule@Gu@physx@@AEBVBV4Tree@23@PEIBVPxMat44@3@@Z 00000001800d1e60 f   GuBV4_BoxOverlap.obj
 0001:000d11b0       ?BV4_OverlapCapsuleAll@@YAIAEBVCapsule@Gu@physx@@AEBVBV4Tree@23@PEIBVPxMat44@3@PEAIIAEA_N@Z 00000001800d21b0 f   GuBV4_BoxOverlap.obj
 0001:000d1560       ?BV4_OverlapCapsuleCB@@YAXAEBVCapsule@Gu@physx@@AEBVBV4Tree@23@PEIBVPxMat44@3@P6A_NPEAXAEBVPxVec3@3@44IPEBI@Z3@Z 00000001800d2560 f   GuBV4_BoxOverlap.obj
 0001:000d21b0       ??$BV4_ProcessNodeNoOrder_Swizzled@VLeafFunction_BoxOverlapAll@?A0xa7ffe934@@$00UOBBParamsAll@@@@YAHPEIAIAEAIPEIBUBVDataSwizzled@Gu@physx@@PEIAUOBBParamsAll@@@Z 00000001800d31b0 f i GuBV4_BoxOverlap.obj
 0001:000d26c0       ??$BV4_ProcessNodeNoOrder_Swizzled@VLeafFunction_BoxOverlapAll@?A0xa7ffe934@@$01UOBBParamsAll@@@@YAHPEIAIAEAIPEIBUBVDataSwizzled@Gu@physx@@PEIAUOBBParamsAll@@@Z 00000001800d36c0 f i GuBV4_BoxOverlap.obj
 0001:000d2bd0       ??$BV4_ProcessNodeNoOrder_Swizzled@VLeafFunction_BoxOverlapAll@?A0xa7ffe934@@$02UOBBParamsAll@@@@YAHPEIAIAEAIPEIBUBVDataSwizzled@Gu@physx@@PEIAUOBBParamsAll@@@Z 00000001800d3bd0 f i GuBV4_BoxOverlap.obj
 0001:000d30e0       ??$BV4_ProcessNodeNoOrder_Swizzled@VLeafFunction_BoxOverlapAll@?A0xa7ffe934@@$0A@UOBBParamsAll@@@@YAHPEIAIAEAIPEIBUBVDataSwizzled@Gu@physx@@PEIAUOBBParamsAll@@@Z 00000001800d40e0 f i GuBV4_BoxOverlap.obj
 0001:000d35e0       ??$BV4_ProcessNodeNoOrder_Swizzled@VLeafFunction_BoxOverlapAny@?A0xa7ffe934@@$00UOBBParams@@@@YAHPEIAIAEAIPEIBUBVDataSwizzled@Gu@physx@@PEIAUOBBParams@@@Z 00000001800d45e0 f i GuBV4_BoxOverlap.obj
 0001:000d3af0       ??$BV4_ProcessNodeNoOrder_Swizzled@VLeafFunction_BoxOverlapAny@?A0xa7ffe934@@$01UOBBParams@@@@YAHPEIAIAEAIPEIBUBVDataSwizzled@Gu@physx@@PEIAUOBBParams@@@Z 00000001800d4af0 f i GuBV4_BoxOverlap.obj
 0001:000d4000       ??$BV4_ProcessNodeNoOrder_Swizzled@VLeafFunction_BoxOverlapAny@?A0xa7ffe934@@$02UOBBParams@@@@YAHPEIAIAEAIPEIBUBVDataSwizzled@Gu@physx@@PEIAUOBBParams@@@Z 00000001800d5000 f i GuBV4_BoxOverlap.obj
 0001:000d4510       ??$BV4_ProcessNodeNoOrder_Swizzled@VLeafFunction_BoxOverlapAny@?A0xa7ffe934@@$0A@UOBBParams@@@@YAHPEIAIAEAIPEIBUBVDataSwizzled@Gu@physx@@PEIAUOBBParams@@@Z 00000001800d5510 f i GuBV4_BoxOverlap.obj
 0001:000d4a10       ??$BV4_ProcessNodeNoOrder_Swizzled@VLeafFunction_BoxOverlapCB@?A0xa7ffe934@@$00UOBBParamsCB@@@@YAHPEIAIAEAIPEIBUBVDataSwizzled@Gu@physx@@PEIAUOBBParamsCB@@@Z 00000001800d5a10 f i GuBV4_BoxOverlap.obj
 0001:000d4f20       ??$BV4_ProcessNodeNoOrder_Swizzled@VLeafFunction_BoxOverlapCB@?A0xa7ffe934@@$01UOBBParamsCB@@@@YAHPEIAIAEAIPEIBUBVDataSwizzled@Gu@physx@@PEIAUOBBParamsCB@@@Z 00000001800d5f20 f i GuBV4_BoxOverlap.obj
 0001:000d5430       ??$BV4_ProcessNodeNoOrder_Swizzled@VLeafFunction_BoxOverlapCB@?A0xa7ffe934@@$02UOBBParamsCB@@@@YAHPEIAIAEAIPEIBUBVDataSwizzled@Gu@physx@@PEIAUOBBParamsCB@@@Z 00000001800d6430 f i GuBV4_BoxOverlap.obj
 0001:000d5940       ??$BV4_ProcessNodeNoOrder_Swizzled@VLeafFunction_BoxOverlapCB@?A0xa7ffe934@@$0A@UOBBParamsCB@@@@YAHPEIAIAEAIPEIBUBVDataSwizzled@Gu@physx@@PEIAUOBBParamsCB@@@Z 00000001800d6940 f i GuBV4_BoxOverlap.obj
 0001:000d5e40       ??$BV4_ProcessNodeNoOrder_Swizzled@VLeafFunction_CapsuleOverlapAll@?A0xa7ffe934@@$00UCapsuleParamsAll@@@@YAHPEIAIAEAIPEIBUBVDataSwizzled@Gu@physx@@PEIAUCapsuleParamsAll@@@Z 00000001800d6e40 f i GuBV4_BoxOverlap.obj
 0001:000d6350       ??$BV4_ProcessNodeNoOrder_Swizzled@VLeafFunction_CapsuleOverlapAll@?A0xa7ffe934@@$01UCapsuleParamsAll@@@@YAHPEIAIAEAIPEIBUBVDataSwizzled@Gu@physx@@PEIAUCapsuleParamsAll@@@Z 00000001800d7350 f i GuBV4_BoxOverlap.obj
 0001:000d6860       ??$BV4_ProcessNodeNoOrder_Swizzled@VLeafFunction_CapsuleOverlapAll@?A0xa7ffe934@@$02UCapsuleParamsAll@@@@YAHPEIAIAEAIPEIBUBVDataSwizzled@Gu@physx@@PEIAUCapsuleParamsAll@@@Z 00000001800d7860 f i GuBV4_BoxOverlap.obj
 0001:000d6d70       ??$BV4_ProcessNodeNoOrder_Swizzled@VLeafFunction_CapsuleOverlapAll@?A0xa7ffe934@@$0A@UCapsuleParamsAll@@@@YAHPEIAIAEAIPEIBUBVDataSwizzled@Gu@physx@@PEIAUCapsuleParamsAll@@@Z 00000001800d7d70 f i GuBV4_BoxOverlap.obj
 0001:000d7270       ??$BV4_ProcessNodeNoOrder_Swizzled@VLeafFunction_CapsuleOverlapAny@?A0xa7ffe934@@$00UCapsuleParamsAny@@@@YAHPEIAIAEAIPEIBUBVDataSwizzled@Gu@physx@@PEIAUCapsuleParamsAny@@@Z 00000001800d8270 f i GuBV4_BoxOverlap.obj
 0001:000d7780       ??$BV4_ProcessNodeNoOrder_Swizzled@VLeafFunction_CapsuleOverlapAny@?A0xa7ffe934@@$01UCapsuleParamsAny@@@@YAHPEIAIAEAIPEIBUBVDataSwizzled@Gu@physx@@PEIAUCapsuleParamsAny@@@Z 00000001800d8780 f i GuBV4_BoxOverlap.obj
 0001:000d7c90       ??$BV4_ProcessNodeNoOrder_Swizzled@VLeafFunction_CapsuleOverlapAny@?A0xa7ffe934@@$02UCapsuleParamsAny@@@@YAHPEIAIAEAIPEIBUBVDataSwizzled@Gu@physx@@PEIAUCapsuleParamsAny@@@Z 00000001800d8c90 f i GuBV4_BoxOverlap.obj
 0001:000d81a0       ??$BV4_ProcessNodeNoOrder_Swizzled@VLeafFunction_CapsuleOverlapAny@?A0xa7ffe934@@$0A@UCapsuleParamsAny@@@@YAHPEIAIAEAIPEIBUBVDataSwizzled@Gu@physx@@PEIAUCapsuleParamsAny@@@Z 00000001800d91a0 f i GuBV4_BoxOverlap.obj
 0001:000d86a0       ??$BV4_ProcessNodeNoOrder_Swizzled@VLeafFunction_CapsuleOverlapCB@?A0xa7ffe934@@$00UCapsuleParamsCB@@@@YAHPEIAIAEAIPEIBUBVDataSwizzled@Gu@physx@@PEIAUCapsuleParamsCB@@@Z 00000001800d96a0 f i GuBV4_BoxOverlap.obj
 0001:000d8bb0       ??$BV4_ProcessNodeNoOrder_Swizzled@VLeafFunction_CapsuleOverlapCB@?A0xa7ffe934@@$01UCapsuleParamsCB@@@@YAHPEIAIAEAIPEIBUBVDataSwizzled@Gu@physx@@PEIAUCapsuleParamsCB@@@Z 00000001800d9bb0 f i GuBV4_BoxOverlap.obj
 0001:000d90c0       ??$BV4_ProcessNodeNoOrder_Swizzled@VLeafFunction_CapsuleOverlapCB@?A0xa7ffe934@@$02UCapsuleParamsCB@@@@YAHPEIAIAEAIPEIBUBVDataSwizzled@Gu@physx@@PEIAUCapsuleParamsCB@@@Z 00000001800da0c0 f i GuBV4_BoxOverlap.obj
 0001:000d95d0       ??$BV4_ProcessNodeNoOrder_Swizzled@VLeafFunction_CapsuleOverlapCB@?A0xa7ffe934@@$0A@UCapsuleParamsCB@@@@YAHPEIAIAEAIPEIBUBVDataSwizzled@Gu@physx@@PEIAUCapsuleParamsCB@@@Z 00000001800da5d0 f i GuBV4_BoxOverlap.obj
 0001:000d9ad0       ??$precomputeData@UOBBTestParams@@@@YAXPEIAUOBBTestParams@@PEIAVPxMat33@physx@@PEIBV12@@Z 00000001800daad0 f i GuBV4_BoxOverlap.obj
 0001:000d9f00       ??$setupBoxData@UOBBTestParams@@@@YAXPEIAUOBBTestParams@@AEBVPxVec3@physx@@PEIBVPxMat33@2@@Z 00000001800daf00 f i GuBV4_BoxOverlap.obj
 0001:000da090       ??$setupMeshPointersAndQuantizedCoeffs@UCapsuleParamsAll@@@Gu@physx@@YAXPEIAUCapsuleParamsAll@@PEIBVSourceMesh@01@PEIBVBV4Tree@01@@Z 00000001800db090 f i GuBV4_BoxOverlap.obj
 0001:000da190       ??$setupMeshPointersAndQuantizedCoeffs@UCapsuleParamsAny@@@Gu@physx@@YAXPEIAUCapsuleParamsAny@@PEIBVSourceMesh@01@PEIBVBV4Tree@01@@Z 00000001800db190 f i GuBV4_BoxOverlap.obj
 0001:000da290       ??$setupMeshPointersAndQuantizedCoeffs@UCapsuleParamsCB@@@Gu@physx@@YAXPEIAUCapsuleParamsCB@@PEIBVSourceMesh@01@PEIBVBV4Tree@01@@Z 00000001800db290 f i GuBV4_BoxOverlap.obj
 0001:000da390       ??$setupMeshPointersAndQuantizedCoeffs@UOBBParams@@@Gu@physx@@YAXPEIAUOBBParams@@PEIBVSourceMesh@01@PEIBVBV4Tree@01@@Z 00000001800db390 f i GuBV4_BoxOverlap.obj
 0001:000da490       ??$setupMeshPointersAndQuantizedCoeffs@UOBBParamsAll@@@Gu@physx@@YAXPEIAUOBBParamsAll@@PEIBVSourceMesh@01@PEIBVBV4Tree@01@@Z 00000001800db490 f i GuBV4_BoxOverlap.obj
 0001:000da590       ??$setupMeshPointersAndQuantizedCoeffs@UOBBParamsCB@@@Gu@physx@@YAXPEIAUOBBParamsCB@@PEIBVSourceMesh@01@PEIBVBV4Tree@01@@Z 00000001800db590 f i GuBV4_BoxOverlap.obj
 0001:000da690       ??0CapsuleParamsAll@@QEAA@XZ 00000001800db690 f i GuBV4_BoxOverlap.obj
 0001:000da6c0       ??0CapsuleParamsAny@@QEAA@XZ 00000001800db6c0 f i GuBV4_BoxOverlap.obj
 0001:000da720       ??0CapsuleParamsCB@@QEAA@XZ 00000001800db720 f i GuBV4_BoxOverlap.obj
 0001:000da750       ??0OBBParams@@QEAA@XZ      00000001800db750 f i GuBV4_BoxOverlap.obj
 0001:000da7b0       ??0OBBParamsAll@@QEAA@XZ   00000001800db7b0 f i GuBV4_BoxOverlap.obj
 0001:000da7e0       ??0OBBParamsCB@@QEAA@XZ    00000001800db7e0 f i GuBV4_BoxOverlap.obj
 0001:000da810       ??0OBBTestParams@@QEAA@XZ  00000001800db810 f i GuBV4_BoxOverlap.obj
 0001:000da920       ??0PxMat44@physx@@QEAA@XZ  00000001800db920 f i GuBV4_BoxOverlap.obj
 0001:000da990       ??1CapsuleParamsAll@@QEAA@XZ 00000001800db990 f i GuBV4_BoxOverlap.obj
 0001:000da9b0       ??1CapsuleParamsAny@@QEAA@XZ 00000001800db9b0 f i GuBV4_BoxOverlap.obj
 0001:000da9f0       ??1CapsuleParamsCB@@QEAA@XZ 00000001800db9f0 f i GuBV4_BoxOverlap.obj
 0001:000daa10       ??1OBBParams@@QEAA@XZ      00000001800dba10 f i GuBV4_BoxOverlap.obj
 0001:000daa50       ??1OBBParamsAll@@QEAA@XZ   00000001800dba50 f i GuBV4_BoxOverlap.obj
 0001:000daa70       ??1OBBParamsCB@@QEAA@XZ    00000001800dba70 f i GuBV4_BoxOverlap.obj
 0001:000daa90       ??1OBBTestParams@@QEAA@XZ  00000001800dba90 f i GuBV4_BoxOverlap.obj
 0001:000dab90       ?BV4_BoxBoxOverlap@@YAHT__m128@@0PEIBUOBBTestParams@@@Z 00000001800dbb90 f i GuBV4_BoxOverlap.obj
 0001:000db3f0       ?computeLocalBox@Gu@physx@@YAXAEAVBox@12@AEBV312@PEIBVPxMat44@2@@Z 00000001800dc3f0 f i GuBV4_BoxOverlap.obj
 0001:000db470       ?computeLocalCapsule@Gu@physx@@YAXAEAVCapsule@12@AEBV312@PEIBVPxMat44@2@@Z 00000001800dc470 f i GuBV4_BoxOverlap.obj
 0001:000dbde0       ?inverseTransform@Gu@physx@@YA?AVPxVec3@2@PEIBVPxMat44@2@AEBV32@@Z 00000001800dcde0 f i GuBV4_BoxOverlap.obj
 0001:000dc0c0       ?invertPRMatrix@Gu@physx@@YAXPEIAVPxMat44@2@PEIBV32@@Z 00000001800dd0c0 f i GuBV4_BoxOverlap.obj
 0001:000dc3a0       ?precomputeBoxData@OBBTestParams@@QEAAXAEBVPxVec3@physx@@PEIBVPxMat33@3@@Z 00000001800dd3a0 f i GuBV4_BoxOverlap.obj
 0001:000dc400       ?rotateBox@Gu@physx@@YAXAEAVBox@12@AEBVPxMat44@2@AEBV312@@Z 00000001800dd400 f i GuBV4_BoxOverlap.obj
 0001:000ddfc0       ?BV4_CapsuleSweepSingle@@YAHAEBVCapsule@Gu@physx@@AEBVPxVec3@3@MAEBVBV4Tree@23@PEIAVSweepHit@23@I@Z 00000001800defc0 f   GuBV4_CapsuleSweep.obj
 0001:000df2b0       ?BV4_CapsuleSweepCB@@YAXAEBVCapsule@Gu@physx@@AEBVPxVec3@3@MAEBVBV4Tree@23@PEIBVPxMat44@3@P6A_NPEAXAEBVSweepHit@23@@Z4I_N@Z 00000001800e02b0 f   GuBV4_CapsuleSweep.obj
 0001:000e5ce0       ??$PX_UNUSED@_N@@YAXAEB_N@Z 00000001800e6ce0 f i GuBV4_CapsuleSweep.obj
 0001:000e6a60       ?coarseCullingQuad@Gu@physx@@YA_NAEBVPxVec3@2@0MMPEIBV32@@Z 00000001800e7a60 f i GuBV4_CapsuleSweep.obj
 0001:000e6d70       ?computeBasis@shdfnd@physx@@YAXAEBVPxVec3@2@0AEAV32@11@Z 00000001800e7d70 f i GuBV4_CapsuleSweep.obj
 0001:000e6df0       ?computeBasis@shdfnd@physx@@YAXAEBVPxVec3@2@AEAV32@1@Z 00000001800e7df0 f i GuBV4_CapsuleSweep.obj
 0001:000e73c0       ?cullQuad@Gu@physx@@YA_NPEIBVPxVec3@2@AEBV32@MMM@Z 00000001800e83c0 f i GuBV4_CapsuleSweep.obj
 0001:000e78b0       ?rejectQuad@Gu@physx@@YA_NAEBVPxVec3@2@0MMPEIBV32@M@Z 00000001800e88b0 f i GuBV4_CapsuleSweep.obj
 0001:000e92d0       ?BV4_CapsuleSweepSingleAA@@YAHAEBVCapsule@Gu@physx@@AEBVPxVec3@3@MAEBVBV4Tree@23@PEIAVSweepHit@23@I@Z 00000001800ea2d0 f   GuBV4_CapsuleSweepAA.obj
 0001:000eeb50       ?abs@PxVec3@physx@@QEBA?AV12@XZ 00000001800efb50 f i GuBV4_CapsuleSweepAA.obj
 0001:000f0d30       ?Sweep_OBB_BV4@@YAHAEBVBox@Gu@physx@@AEBVPxVec3@3@MAEBVBV4Tree@23@PEIAVSweepHit@23@I@Z 00000001800f1d30 f   GuBV4_OBBSweep.obj
 0001:000f1920       ?Sweep_OBB_BV4_CB@@YAXAEBVBox@Gu@physx@@AEBVPxVec3@3@MAEBVBV4Tree@23@PEIBVPxMat44@3@P6A_NPEAXAEBVSweepHit@23@@Z4I_N@Z 00000001800f2920 f   GuBV4_OBBSweep.obj
 0001:000f2580       ?GenericSweep_OBB_CB@@YAXAEBVBox@Gu@physx@@AEBVPxVec3@3@MAEBVBV4Tree@23@P6A_NPEAX111IAEAM@Z3I@Z 00000001800f3580 f   GuBV4_OBBSweep.obj
 0001:000f3330       ?BV4_BoxSweepSingle@@YAHAEBVBox@Gu@physx@@AEBVPxVec3@3@MAEBVBV4Tree@23@PEIBVPxMat44@3@PEIAVSweepHit@23@I@Z 00000001800f4330 f   GuBV4_OBBSweep.obj
 0001:000f34c0       ?BV4_BoxSweepCB@@YAXAEBVBox@Gu@physx@@AEBVPxVec3@3@MAEBVBV4Tree@23@PEIBVPxMat44@3@P6A_NPEAXAEBVSweepHit@23@@Z4I_N@Z 00000001800f44c0 f   GuBV4_OBBSweep.obj
 0001:000f3610       ?BV4_GenericSweepCB@@YAXAEBVBox@Gu@physx@@AEBVPxVec3@3@MAEBVBV4Tree@23@P6A_NPEAX111IAEAM@Z3_N@Z 00000001800f4610 f   GuBV4_OBBSweep.obj
 0001:000fdf20       ?BV4_RaycastSingle@@YAHAEBVPxVec3@physx@@0AEBVBV4Tree@Gu@2@PEIBVPxMat44@2@PEIAUPxRaycastHit@2@MMIV?$PxFlags@W4Enum@PxHitFlag@physx@@G@2@@Z 00000001800fef20 f   GuBV4_Raycast.obj
 0001:00101870       ?BV4_RaycastCB@@YAXAEBVPxVec3@physx@@0AEBVBV4Tree@Gu@2@PEIBVPxMat44@2@MMIP6A?AW4HitCode@42@PEAX000IMMM@Z3@Z 0000000180102870 f   GuBV4_Raycast.obj
 0001:00103230       ?BV4_RaycastAll@@YAIAEBVPxVec3@physx@@0AEBVBV4Tree@Gu@2@PEIBVPxMat44@2@PEIAUPxRaycastHit@2@IMMIV?$PxFlags@W4Enum@PxHitFlag@physx@@G@2@@Z 0000000180104230 f   GuBV4_Raycast.obj
 0001:001069f0       ??$RayTriOverlapT@URayParams@@@@YAHAEAUPxRaycastHit@physx@@AEBVPxVec3@1@11PEIBURayParams@@@Z 00000001801079f0 f i GuBV4_Raycast.obj
 0001:00106ee0       ??$setupMeshPointersAndQuantizedCoeffs@URayParams@@@Gu@physx@@YAXPEIAURayParams@@PEIBVSourceMesh@01@PEIBVBV4Tree@01@@Z 0000000180107ee0 f i GuBV4_Raycast.obj
 0001:001071b0       ??$setupParamsFlags@URayParams@@@Gu@physx@@YAXPEIAURayParams@@I@Z 00000001801081b0 f i GuBV4_Raycast.obj
 0001:001072d0       ??0?$PxFlags@W4Enum@PxHitFlag@physx@@G@physx@@QEAA@XZ 00000001801082d0 f i GuBV4_Raycast.obj
 0001:00107360       ??0RaycastHitInternalUV@@QEAA@XZ 0000000180108360 f i GuBV4_Raycast.obj
 0001:001073d0       ??1RaycastHitInternalUV@@QEAA@XZ 00000001801083d0 f i GuBV4_Raycast.obj
 0001:001073f0       ?computeLocalRay@Gu@physx@@YAXAEAVPxVec3@2@0AEBV32@1PEIBVPxMat44@2@@Z 00000001801083f0 f i GuBV4_Raycast.obj
 0001:00107bf0       ?inverseRotate@Gu@physx@@YA?AVPxVec3@2@PEIBVPxMat44@2@AEBV32@@Z 0000000180108bf0 f i GuBV4_Raycast.obj
 0001:00108290       ?BV4_OverlapSphereAny@@YAHAEBVSphere@Gu@physx@@AEBVBV4Tree@23@PEIBVPxMat44@3@@Z 0000000180109290 f   GuBV4_SphereOverlap.obj
 0001:001085e0       ?BV4_OverlapSphereAll@@YAIAEBVSphere@Gu@physx@@AEBVBV4Tree@23@PEIBVPxMat44@3@PEAIIAEA_N@Z 00000001801095e0 f   GuBV4_SphereOverlap.obj
 0001:00108990       ?BV4_OverlapSphereCB@@YAXAEBVSphere@Gu@physx@@AEBVBV4Tree@23@PEIBVPxMat44@3@P6A_NPEAXAEBVPxVec3@3@44IPEBI@Z3@Z 0000000180109990 f   GuBV4_SphereOverlap.obj
 0001:001090a0       ??$BV4_ProcessNodeNoOrder_Swizzled@VLeafFunction_SphereOverlapAll@?A0xd9d072f8@@$00USphereParamsAll@@@@YAHPEIAIAEAIPEIBUBVDataSwizzled@Gu@physx@@PEIAUSphereParamsAll@@@Z 000000018010a0a0 f i GuBV4_SphereOverlap.obj
 0001:001094f0       ??$BV4_ProcessNodeNoOrder_Swizzled@VLeafFunction_SphereOverlapAll@?A0xd9d072f8@@$01USphereParamsAll@@@@YAHPEIAIAEAIPEIBUBVDataSwizzled@Gu@physx@@PEIAUSphereParamsAll@@@Z 000000018010a4f0 f i GuBV4_SphereOverlap.obj
 0001:00109940       ??$BV4_ProcessNodeNoOrder_Swizzled@VLeafFunction_SphereOverlapAll@?A0xd9d072f8@@$02USphereParamsAll@@@@YAHPEIAIAEAIPEIBUBVDataSwizzled@Gu@physx@@PEIAUSphereParamsAll@@@Z 000000018010a940 f i GuBV4_SphereOverlap.obj
 0001:00109d90       ??$BV4_ProcessNodeNoOrder_Swizzled@VLeafFunction_SphereOverlapAll@?A0xd9d072f8@@$0A@USphereParamsAll@@@@YAHPEIAIAEAIPEIBUBVDataSwizzled@Gu@physx@@PEIAUSphereParamsAll@@@Z 000000018010ad90 f i GuBV4_SphereOverlap.obj
 0001:0010a1d0       ??$BV4_ProcessNodeNoOrder_Swizzled@VLeafFunction_SphereOverlapAny@?A0xd9d072f8@@$00USphereParams@@@@YAHPEIAIAEAIPEIBUBVDataSwizzled@Gu@physx@@PEIAUSphereParams@@@Z 000000018010b1d0 f i GuBV4_SphereOverlap.obj
 0001:0010a620       ??$BV4_ProcessNodeNoOrder_Swizzled@VLeafFunction_SphereOverlapAny@?A0xd9d072f8@@$01USphereParams@@@@YAHPEIAIAEAIPEIBUBVDataSwizzled@Gu@physx@@PEIAUSphereParams@@@Z 000000018010b620 f i GuBV4_SphereOverlap.obj
 0001:0010aa70       ??$BV4_ProcessNodeNoOrder_Swizzled@VLeafFunction_SphereOverlapAny@?A0xd9d072f8@@$02USphereParams@@@@YAHPEIAIAEAIPEIBUBVDataSwizzled@Gu@physx@@PEIAUSphereParams@@@Z 000000018010ba70 f i GuBV4_SphereOverlap.obj
 0001:0010aec0       ??$BV4_ProcessNodeNoOrder_Swizzled@VLeafFunction_SphereOverlapAny@?A0xd9d072f8@@$0A@USphereParams@@@@YAHPEIAIAEAIPEIBUBVDataSwizzled@Gu@physx@@PEIAUSphereParams@@@Z 000000018010bec0 f i GuBV4_SphereOverlap.obj
 0001:0010b300       ??$BV4_ProcessNodeNoOrder_Swizzled@VLeafFunction_SphereOverlapCB@?A0xd9d072f8@@$00USphereParamsCB@@@@YAHPEIAIAEAIPEIBUBVDataSwizzled@Gu@physx@@PEIAUSphereParamsCB@@@Z 000000018010c300 f i GuBV4_SphereOverlap.obj
 0001:0010b750       ??$BV4_ProcessNodeNoOrder_Swizzled@VLeafFunction_SphereOverlapCB@?A0xd9d072f8@@$01USphereParamsCB@@@@YAHPEIAIAEAIPEIBUBVDataSwizzled@Gu@physx@@PEIAUSphereParamsCB@@@Z 000000018010c750 f i GuBV4_SphereOverlap.obj
 0001:0010bba0       ??$BV4_ProcessNodeNoOrder_Swizzled@VLeafFunction_SphereOverlapCB@?A0xd9d072f8@@$02USphereParamsCB@@@@YAHPEIAIAEAIPEIBUBVDataSwizzled@Gu@physx@@PEIAUSphereParamsCB@@@Z 000000018010cba0 f i GuBV4_SphereOverlap.obj
 0001:0010bff0       ??$BV4_ProcessNodeNoOrder_Swizzled@VLeafFunction_SphereOverlapCB@?A0xd9d072f8@@$0A@USphereParamsCB@@@@YAHPEIAIAEAIPEIBUBVDataSwizzled@Gu@physx@@PEIAUSphereParamsCB@@@Z 000000018010cff0 f i GuBV4_SphereOverlap.obj
 0001:0010c430       ??$setupMeshPointersAndQuantizedCoeffs@USphereParams@@@Gu@physx@@YAXPEIAUSphereParams@@PEIBVSourceMesh@01@PEIBVBV4Tree@01@@Z 000000018010d430 f i GuBV4_SphereOverlap.obj
 0001:0010c530       ??$setupMeshPointersAndQuantizedCoeffs@USphereParamsAll@@@Gu@physx@@YAXPEIAUSphereParamsAll@@PEIBVSourceMesh@01@PEIBVBV4Tree@01@@Z 000000018010d530 f i GuBV4_SphereOverlap.obj
 0001:0010c630       ??$setupMeshPointersAndQuantizedCoeffs@USphereParamsCB@@@Gu@physx@@YAXPEIAUSphereParamsCB@@PEIBVSourceMesh@01@PEIBVBV4Tree@01@@Z 000000018010d630 f i GuBV4_SphereOverlap.obj
 0001:0010c730       ??0SphereParams@@QEAA@XZ   000000018010d730 f i GuBV4_SphereOverlap.obj
 0001:0010c7a0       ??0SphereParamsAll@@QEAA@XZ 000000018010d7a0 f i GuBV4_SphereOverlap.obj
 0001:0010c7d0       ??0SphereParamsCB@@QEAA@XZ 000000018010d7d0 f i GuBV4_SphereOverlap.obj
 0001:0010c800       ??1SphereParams@@QEAA@XZ   000000018010d800 f i GuBV4_SphereOverlap.obj
 0001:0010c840       ??1SphereParamsAll@@QEAA@XZ 000000018010d840 f i GuBV4_SphereOverlap.obj
 0001:0010c860       ??1SphereParamsCB@@QEAA@XZ 000000018010d860 f i GuBV4_SphereOverlap.obj
 0001:0010c880       ?computeLocalSphere@Gu@physx@@YAXAEAMAEAVPxVec3@2@AEBVSphere@12@PEIBVPxMat44@2@@Z 000000018010d880 f i GuBV4_SphereOverlap.obj
 0001:0010d010       ?BV4_SphereSweepSingle@@YAHAEBVSphere@Gu@physx@@AEBVPxVec3@3@MAEBVBV4Tree@23@PEIBVPxMat44@3@PEIAVSweepHit@23@I@Z 000000018010e010 f   GuBV4_SphereSweep.obj
 0001:00111030       ?BV4_SphereSweepCB@@YAXAEBVSphere@Gu@physx@@AEBVPxVec3@3@MAEBVBV4Tree@23@PEIBVPxMat44@3@P6A_NPEAXAEBVSweepHit@23@@Z4I_N@Z 0000000180112030 f   GuBV4_SphereSweep.obj
 0001:00114ad0       ?BV4_GenericSweepCB_Old@@YAXAEBVPxVec3@physx@@00MAEBVBV4Tree@Gu@2@PEIBVPxMat44@2@P6A_NPEAX000IAEAM@Z3@Z 0000000180115ad0 f   GuBV4_SphereSweep.obj
 0001:001198a0       ??0Sphere@Gu@physx@@QEAA@XZ 000000018011a8a0 f i GuBV4_SphereSweep.obj
 0001:00119af0       ??4Sphere@Gu@physx@@QEAAAEAV012@AEBV012@@Z 000000018011aaf0 f i GuBV4_SphereSweep.obj
 0001:0011a010       ?getTriangle@PxMeshQuery@physx@@SAXAEBVPxTriangleMeshGeometry@2@AEBVPxTransform@2@IAEAVPxTriangle@2@PEAI3@Z 000000018011b010 f   GuMeshQuery.obj
 0001:0011a170       ?getTriangle@PxMeshQuery@physx@@SAXAEBVPxHeightFieldGeometry@2@AEBVPxTransform@2@IAEAVPxTriangle@2@PEAI3@Z 000000018011b170 f   GuMeshQuery.obj
 0001:0011a1f0       ?findOverlapTriangleMesh@PxMeshQuery@physx@@SAIAEBVPxGeometry@2@AEBVPxTransform@2@AEBVPxTriangleMeshGeometry@2@1PEAIIIAEA_N@Z 000000018011b1f0 f   GuMeshQuery.obj
 0001:0011a4c0       ?findOverlapHeightField@PxMeshQuery@physx@@SAIAEBVPxGeometry@2@AEBVPxTransform@2@AEBVPxHeightFieldGeometry@2@1PEAIIIAEA_N@Z 000000018011b4c0 f   GuMeshQuery.obj
 0001:0011a820       ?sweep@PxMeshQuery@physx@@SA_NAEBVPxVec3@2@MAEBVPxGeometry@2@AEBVPxTransform@2@IPEBVPxTriangle@2@AEAUPxSweepHit@2@V?$PxFlags@W4Enum@PxHitFlag@physx@@G@2@PEBIM_N@Z 000000018011b820 f   GuMeshQuery.obj
 0001:0011af30       ?intersectOBB_Particles@Gu@physx@@YAXPEBVTriangleMesh@12@AEBVBox@12@AEAU?$MeshHitCallback@UPxRaycastHit@physx@@@12@_N3@Z 000000018011bf30 f   GuMeshQuery.obj
 0001:0011b420       ??0LimitedResults@Gu@physx@@QEAA@PEAIII@Z 000000018011c420 f i GuMeshQuery.obj
 0001:0011b490       ??0PxBoxGeometry@physx@@QEAA@XZ 000000018011c490 f i GuMeshQuery.obj
 0001:0011b4e0       ??0PxCapsuleGeometry@physx@@QEAA@MM@Z 000000018011c4e0 f i GuMeshQuery.obj
 0001:0011b550       ??0PxProfileScoped@physx@@QEAA@PEBD_N_K@Z 000000018011c550 f i GuMeshQuery.obj
 0001:0011b620       ??0SIMDGuard@shdfnd@physx@@QEAA@XZ 000000018011c620 f i GuMeshQuery.obj
 0001:0011b6a0       ??1PxProfileScoped@physx@@QEAA@XZ 000000018011c6a0 f i GuMeshQuery.obj
 0001:0011b710       ??1SIMDGuard@shdfnd@physx@@QEAA@XZ 000000018011c710 f i GuMeshQuery.obj
 0001:0011b740       ??4PxBoxGeometry@physx@@QEAAAEAV01@AEBV01@@Z 000000018011c740 f i GuMeshQuery.obj
 0001:0011b790       ??Dphysx@@YA?AVMatrix34@Cm@0@AEBVPxTransform@0@AEBVPxMeshScale@0@@Z 000000018011c790 f i GuMeshQuery.obj
 0001:0011b850       ??_EHfTrianglesEntityReport2@?A0x3820ccd5@@UEAAPEAXI@Z 000000018011c850 f i GuMeshQuery.obj
 0001:0011b850       ??_GHfTrianglesEntityReport2@?A0x3820ccd5@@UEAAPEAXI@Z 000000018011c850 f i GuMeshQuery.obj
 0001:0011b8a0       ?add@LimitedResults@Gu@physx@@QEAA_NI@Z 000000018011c8a0 f i GuMeshQuery.obj
 0001:0011b940       ?computeWorldTriangle@TriangleMesh@Gu@physx@@QEBAXAEAVPxTriangle@3@IAEBVMatrix34@Cm@3@_NPEIAI3@Z 000000018011c940 f i GuMeshQuery.obj
 0001:0011bdf0       ?getAdjacencies@TriangleMesh@Gu@physx@@QEBAPEBIXZ 000000018011cdf0 f i GuMeshQuery.obj
 0001:0011be10       ?getCapsule@Gu@physx@@YAXAEAVCapsule@12@AEBVPxCapsuleGeometry@2@AEBVPxTransform@2@@Z 000000018011ce10 f i GuMeshQuery.obj
 0001:0011be60       ?getTrianglesFast@TriangleMesh@Gu@physx@@QEBAPEBXXZ 000000018011ce60 f i GuMeshQuery.obj
 0001:0011be80       ?getVerticesFast@TriangleMesh@Gu@physx@@QEBAPEBVPxVec3@3@XZ 000000018011ce80 f i GuMeshQuery.obj
 0001:0011bea0       ?has16BitIndices@TriangleMesh@Gu@physx@@QEBA_NXZ 000000018011cea0 f i GuMeshQuery.obj
 0001:0011bee0       ?hasNegativeDeterminant@PxMeshScale@physx@@QEBA_NXZ 000000018011cee0 f i GuMeshQuery.obj
 0001:0011bf40       ?intersectBoxVsMesh@Midphase@Gu@physx@@YA_NAEBVBox@23@AEBVTriangleMesh@23@AEBVPxTransform@3@AEBVPxMeshScale@3@PEAULimitedResults@23@@Z 000000018011cf40 f i GuMeshQuery.obj
 0001:0011bfd0       ?intersectCapsuleVsMesh@Midphase@Gu@physx@@YA_NAEBVCapsule@23@AEBVTriangleMesh@23@AEBVPxTransform@3@AEBVPxMeshScale@3@PEAULimitedResults@23@@Z 000000018011cfd0 f i GuMeshQuery.obj
 0001:0011c060       ?intersectSphereVsMesh@Midphase@Gu@physx@@YA_NAEBVSphere@23@AEBVTriangleMesh@23@AEBVPxTransform@3@AEBVPxMeshScale@3@PEAULimitedResults@23@@Z 000000018011d060 f i GuMeshQuery.obj
 0001:0011c0f0       ?isValid@PxTransform@physx@@QEBA_NXZ 000000018011d0f0 f i GuMeshQuery.obj
 0001:0011c3b0       ?poseExtent@PxBounds3@physx@@SA?AV12@AEBVPxTransform@2@AEBVPxVec3@2@@Z 000000018011d3b0 f i GuMeshQuery.obj
 0001:0011c410       ?reset@LimitedResults@Gu@physx@@QEAAXXZ 000000018011d410 f i GuMeshQuery.obj
 0001:0011c570       ?raycast_triangleMesh_BV4@Gu@physx@@YAIPEBVTriangleMesh@12@AEBVPxTriangleMeshGeometry@2@AEBVPxTransform@2@AEBVPxVec3@2@3MV?$PxFlags@W4Enum@PxHitFlag@physx@@G@2@IPEIAUPxRaycastHit@2@@Z 000000018011d570 f   GuMidphaseBV4.obj
 0001:0011ce00       ?intersectSphereVsMesh_BV4@Gu@physx@@YA_NAEBVSphere@12@AEBVTriangleMesh@12@AEBVPxTransform@2@AEBVPxMeshScale@2@PEAULimitedResults@12@@Z 000000018011de00 f   GuMidphaseBV4.obj
 0001:0011d0b0       ?intersectBoxVsMesh_BV4@Gu@physx@@YA_NAEBVBox@12@AEBVTriangleMesh@12@AEBVPxTransform@2@AEBVPxMeshScale@2@PEAULimitedResults@12@@Z 000000018011e0b0 f   GuMidphaseBV4.obj
 0001:0011d310       ?intersectCapsuleVsMesh_BV4@Gu@physx@@YA_NAEBVCapsule@12@AEBVTriangleMesh@12@AEBVPxTransform@2@AEBVPxMeshScale@2@PEAULimitedResults@12@@Z 000000018011e310 f   GuMidphaseBV4.obj
 0001:0011d5a0       ?intersectOBB_BV4@Gu@physx@@YAXPEBVTriangleMesh@12@AEBVBox@12@AEAU?$MeshHitCallback@UPxRaycastHit@physx@@@12@_N3@Z 000000018011e5a0 f   GuMidphaseBV4.obj
 0001:0011d600       ?sweepCapsule_MeshGeom_BV4@Gu@physx@@YA_NPEBVTriangleMesh@12@AEBVPxTriangleMeshGeometry@2@AEBVPxTransform@2@AEBVCapsule@12@AEBVPxVec3@2@MAEAUPxSweepHit@2@V?$PxFlags@W4Enum@PxHitFlag@physx@@G@2@M@Z 000000018011e600 f   GuMidphaseBV4.obj
 0001:0011deb0       ?sweepBox_MeshGeom_BV4@Gu@physx@@YA_NPEBVTriangleMesh@12@AEBVPxTriangleMeshGeometry@2@AEBVPxTransform@2@AEBVBox@12@AEBVPxVec3@2@MAEAUPxSweepHit@2@V?$PxFlags@W4Enum@PxHitFlag@physx@@G@2@M@Z 000000018011eeb0 f   GuMidphaseBV4.obj
 0001:0011e9e0       ?sweepConvex_MeshGeom_BV4@Gu@physx@@YAXPEBVTriangleMesh@12@AEBVBox@12@AEBVPxVec3@2@MAEAUSweepConvexMeshHitCallback@12@_N@Z 000000018011f9e0 f   GuMidphaseBV4.obj
 0001:00120da0       ??0?$PxFlags@W4Enum@PxMeshGeometryFlag@physx@@E@physx@@QEAA@AEBV01@@Z 0000000180121da0 f i GuMidphaseBV4.obj
 0001:00120dd0       ??0BV4RaycastCBParams@@QEAA@PEAUPxRaycastHit@physx@@IPEBVPxMeshScale@2@PEBVPxTransform@2@PEBVMatrix34@Cm@2@IAEBVPxVec3@2@_NM@Z 0000000180121dd0 f i GuMidphaseBV4.obj
 0001:00120ea0       ??0CapsuleV@Gu@physx@@QEAA@XZ 0000000180121ea0 f i GuMidphaseBV4.obj
 0001:001213f0       ??0Matrix34Padded@Gu@physx@@QEAA@AEBVMatrix34@Cm@2@@Z 00000001801223f0 f i GuMidphaseBV4.obj
 0001:00121420       ??0PxRaycastHit@physx@@QEAA@XZ 0000000180122420 f i GuMidphaseBV4.obj
 0001:001214e0       ??1Matrix34Padded@Gu@physx@@QEAA@XZ 00000001801224e0 f i GuMidphaseBV4.obj
 0001:001214f0       ??1SweepBoxMeshHitCallback@Gu@physx@@UEAA@XZ 00000001801224f0 f i GuMidphaseBV4.obj
 0001:00121540       ??1SweepCapsuleMeshHitCallback@Gu@physx@@UEAA@XZ 0000000180122540 f i GuMidphaseBV4.obj
 0001:00121560       ??1SweepShapeMeshHitCallback@Gu@physx@@UEAA@XZ 0000000180122560 f i GuMidphaseBV4.obj
 0001:00121580       ??4PxLocationHit@physx@@QEAAAEAU01@AEBU01@@Z 0000000180122580 f i GuMidphaseBV4.obj
 0001:00121640       ??4PxRaycastHit@physx@@QEAAAEAU01@AEBU01@@Z 0000000180122640 f i GuMidphaseBV4.obj
 0001:001216b0       ??B?$PxFlags@W4Enum@PxMeshGeometryFlag@physx@@E@physx@@QEBA_NXZ 00000001801226b0 f i GuMidphaseBV4.obj
 0001:001216f0       ??I?$PxFlags@W4Enum@PxMeshGeometryFlag@physx@@E@physx@@QEBA?AV01@W4Enum@PxMeshGeometryFlag@1@@Z 00000001801226f0 f i GuMidphaseBV4.obj
 0001:00121750       ??_GSweepBoxMeshHitCallback@Gu@physx@@UEAAPEAXI@Z 0000000180122750 f i GuMidphaseBV4.obj
 0001:00121750       ??_ESweepBoxMeshHitCallback@Gu@physx@@UEAAPEAXI@Z 0000000180122750 f i GuMidphaseBV4.obj
 0001:001217a0       ?basisExtent@Cm@physx@@YA?AVPxVec3@2@AEBV32@000@Z 00000001801227a0 f i GuMidphaseBV4.obj
 0001:00121990       ?computeSweepData@physx@@YAMAEBVPxTriangleMeshGeometry@1@AEAVPxVec3@1@11M@Z 0000000180122990 f i GuMidphaseBV4.obj
 0001:00121c20       ?getBV4Tree@BV4TriangleMesh@Gu@physx@@QEBAAEBVBV4Tree@23@XZ 0000000180122c20 f i GuMidphaseBV4.obj
 0001:00121c40       ?getGeomEpsilon@TriangleMesh@Gu@physx@@QEBAMXZ 0000000180122c40 f i GuMidphaseBV4.obj
 0001:00121c60       ?getInverse@physx@@YAXAEAVPxMat33@1@AEAVPxVec3@1@AEBV21@AEBV31@@Z 0000000180122c60 f i GuMidphaseBV4.obj
 0001:00121cf0       ?initialize@CapsuleV@Gu@physx@@QEAAXAEBT__m128@@00@Z 0000000180122cf0 f i GuMidphaseBV4.obj
 0001:00121ed0       ?isSet@?$PxFlags@W4Enum@PxMeshGeometryFlag@physx@@E@physx@@QEBA_NW4Enum@PxMeshGeometryFlag@2@@Z 0000000180122ed0 f i GuMidphaseBV4.obj
 0001:00121f20       ?multiply@PxVec3@physx@@QEBA?AV12@AEBV12@@Z 0000000180122f20 f i GuMidphaseBV4.obj
 0001:00121fc0       ?normalizeSafe@PxVec3@physx@@QEAAMXZ 0000000180122fc0 f i GuMidphaseBV4.obj
 0001:00122750       ?setupSweepHitForMTD@Gu@physx@@YAXAEAUPxSweepHit@2@_NAEBVPxVec3@2@@Z 0000000180123750 f i GuMidphaseBV4.obj
 0001:00122850       ?transform@PxMeshScale@physx@@QEBA?AVPxVec3@2@AEBV32@@Z 0000000180123850 f i GuMidphaseBV4.obj
 0001:00122a00       ?raycast_triangleMesh_RTREE@Gu@physx@@YAIPEBVTriangleMesh@12@AEBVPxTriangleMeshGeometry@2@AEBVPxTransform@2@AEBVPxVec3@2@3MV?$PxFlags@W4Enum@PxHitFlag@physx@@G@2@IPEIAUPxRaycastHit@2@@Z 0000000180123a00 f   GuMidphaseRTree.obj
 0001:00122e10       ?intersectSphereVsMesh_RTREE@Gu@physx@@YA_NAEBVSphere@12@AEBVTriangleMesh@12@AEBVPxTransform@2@AEBVPxMeshScale@2@PEAULimitedResults@12@@Z 0000000180123e10 f   GuMidphaseRTree.obj
 0001:00122e70       ?intersectBoxVsMesh_RTREE@Gu@physx@@YA_NAEBVBox@12@AEBVTriangleMesh@12@AEBVPxTransform@2@AEBVPxMeshScale@2@PEAULimitedResults@12@@Z 0000000180123e70 f   GuMidphaseRTree.obj
 0001:00122ed0       ?intersectCapsuleVsMesh_RTREE@Gu@physx@@YA_NAEBVCapsule@12@AEBVTriangleMesh@12@AEBVPxTransform@2@AEBVPxMeshScale@2@PEAULimitedResults@12@@Z 0000000180123ed0 f   GuMidphaseRTree.obj
 0001:00122f30       ?intersectOBB_RTREE@Gu@physx@@YAXPEBVTriangleMesh@12@AEBVBox@12@AEAU?$MeshHitCallback@UPxRaycastHit@physx@@@12@_N3@Z 0000000180123f30 f   GuMidphaseRTree.obj
 0001:00122f80       ?sweepCapsule_MeshGeom_RTREE@Gu@physx@@YA_NPEBVTriangleMesh@12@AEBVPxTriangleMeshGeometry@2@AEBVPxTransform@2@AEBVCapsule@12@AEBVPxVec3@2@MAEAUPxSweepHit@2@V?$PxFlags@W4Enum@PxHitFlag@physx@@G@2@M@Z 0000000180123f80 f   GuMidphaseRTree.obj
 0001:001233d0       ?sweepBox_MeshGeom_RTREE@Gu@physx@@YA_NPEBVTriangleMesh@12@AEBVPxTriangleMeshGeometry@2@AEBVPxTransform@2@AEBVBox@12@AEBVPxVec3@2@MAEAUPxSweepHit@2@V?$PxFlags@W4Enum@PxHitFlag@physx@@G@2@M@Z 00000001801243d0 f   GuMidphaseRTree.obj
 0001:00123bd0       ?sweepConvex_MeshGeom_RTREE@Gu@physx@@YAXPEBVTriangleMesh@12@AEBVBox@12@AEBVPxVec3@2@MAEAUSweepConvexMeshHitCallback@12@_N@Z 0000000180124bd0 f   GuMidphaseRTree.obj
 0001:00123cf0       ?collideOBB@MeshRayCollider@@SAXAEBVBox@Gu@physx@@_NPEBVRTreeTriangleMesh@34@AEAU?$MeshHitCallback@UPxRaycastHit@physx@@@34@1@Z 0000000180124cf0 f   GuMidphaseRTree.obj
 0001:00128fe0       ??$collide@$00$00@MeshRayCollider@@SAXAEBVPxVec3@physx@@0M_NPEBVRTreeTriangleMesh@Gu@2@AEAU?$MeshHitCallback@UPxRaycastHit@physx@@@42@PEBV12@@Z 0000000180129fe0 f i GuMidphaseRTree.obj
 0001:00129420       ??$collide@$00$0A@@MeshRayCollider@@SAXAEBVPxVec3@physx@@0M_NPEBVRTreeTriangleMesh@Gu@2@AEAU?$MeshHitCallback@UPxRaycastHit@physx@@@42@PEBV12@@Z 000000018012a420 f i GuMidphaseRTree.obj
 0001:00129860       ??$collide@$0A@$00@MeshRayCollider@@SAXAEBVPxVec3@physx@@0M_NPEBVRTreeTriangleMesh@Gu@2@AEAU?$MeshHitCallback@UPxRaycastHit@physx@@@42@PEBV12@@Z 000000018012a860 f i GuMidphaseRTree.obj
 0001:00129ca0       ??$collide@$0A@$0A@@MeshRayCollider@@SAXAEBVPxVec3@physx@@0M_NPEBVRTreeTriangleMesh@Gu@2@AEAU?$MeshHitCallback@UPxRaycastHit@physx@@@42@PEBV12@@Z 000000018012aca0 f i GuMidphaseRTree.obj
 0001:0012a440       ??0?$RayRTreeCallback@$00$00@@QEAA@MAEAU?$MeshHitCallback@UPxRaycastHit@physx@@@Gu@physx@@HPEBXPEBVPxVec3@3@AEBV43@3M_N2@Z 000000018012b440 f i GuMidphaseRTree.obj
 0001:0012a770       ??0?$RayRTreeCallback@$00$0A@@@QEAA@MAEAU?$MeshHitCallback@UPxRaycastHit@physx@@@Gu@physx@@HPEBXPEBVPxVec3@3@AEBV43@3M_N2@Z 000000018012b770 f i GuMidphaseRTree.obj
 0001:0012aaa0       ??0?$RayRTreeCallback@$0A@$00@@QEAA@MAEAU?$MeshHitCallback@UPxRaycastHit@physx@@@Gu@physx@@HPEBXPEBVPxVec3@3@AEBV43@3M_N2@Z 000000018012baa0 f i GuMidphaseRTree.obj
 0001:0012add0       ??0?$RayRTreeCallback@$0A@$0A@@@QEAA@MAEAU?$MeshHitCallback@UPxRaycastHit@physx@@@Gu@physx@@HPEBXPEBVPxVec3@3@AEBV43@3M_N2@Z 000000018012bdd0 f i GuMidphaseRTree.obj
 0001:0012b100       ??0Callback@RTree@Gu@physx@@QEAA@XZ 000000018012c100 f i GuMidphaseRTree.obj
 0001:0012b120       ??0CallbackRaycast@RTree@Gu@physx@@QEAA@XZ 000000018012c120 f i GuMidphaseRTree.obj
 0001:0012b1d0       ??0PxLocationHit@physx@@QEAA@AEBU01@@Z 000000018012c1d0 f i GuMidphaseRTree.obj
 0001:0012b290       ??0PxRaycastHit@physx@@QEAA@AEBU01@@Z 000000018012c290 f i GuMidphaseRTree.obj
 0001:0012b300       ??0RayMeshColliderCallback@@QEAA@W4Enum@CallbackMode@Gu@physx@@PEAUPxRaycastHit@4@IPEBVPxMeshScale@4@PEBVPxTransform@4@PEBVMatrix34@Cm@4@IAEBVPxVec3@4@_NM@Z 000000018012c300 f i GuMidphaseRTree.obj
 0001:0012b400       ??0SimpleRayTriOverlap@@QEAA@AEBVPxVec3@physx@@0_NM@Z 000000018012c400 f i GuMidphaseRTree.obj
 0001:0012b640       ??1?$RayRTreeCallback@$00$00@@UEAA@XZ 000000018012c640 f i GuMidphaseRTree.obj
 0001:0012b7d0       ??1?$RayRTreeCallback@$00$0A@@@UEAA@XZ 000000018012c7d0 f i GuMidphaseRTree.obj
 0001:0012b960       ??1?$RayRTreeCallback@$0A@$00@@UEAA@XZ 000000018012c960 f i GuMidphaseRTree.obj
 0001:0012baf0       ??1?$RayRTreeCallback@$0A@$0A@@@UEAA@XZ 000000018012caf0 f i GuMidphaseRTree.obj
 0001:0012bc80       ??1Callback@RTree@Gu@physx@@UEAA@XZ 000000018012cc80 f i GuMidphaseRTree.obj
 0001:0012bca0       ??1CallbackRaycast@RTree@Gu@physx@@UEAA@XZ 000000018012cca0 f i GuMidphaseRTree.obj
 0001:0012bcf0       ??1RayMeshColliderCallback@@UEAA@XZ 000000018012ccf0 f i GuMidphaseRTree.obj
 0001:0012bd10       ??_E?$RayRTreeCallback@$00$00@@W7EAAPEAXI@Z 000000018012cd10 f i GuMidphaseRTree.obj
 0001:0012bd1c       ??_E?$RayRTreeCallback@$00$0A@@@W7EAAPEAXI@Z 000000018012cd1c f i GuMidphaseRTree.obj
 0001:0012bd28       ??_E?$RayRTreeCallback@$0A@$00@@W7EAAPEAXI@Z 000000018012cd28 f i GuMidphaseRTree.obj
 0001:0012bd34       ??_E?$RayRTreeCallback@$0A@$0A@@@W7EAAPEAXI@Z 000000018012cd34 f i GuMidphaseRTree.obj
 0001:0012bd40       ??_G?$IntersectBoxVsMeshCallback@$00@?A0x0cfa2830@@UEAAPEAXI@Z 000000018012cd40 f i GuMidphaseRTree.obj
 0001:0012bd40       ??_E?$IntersectBoxVsMeshCallback@$00@?A0x0cfa2830@@UEAAPEAXI@Z 000000018012cd40 f i GuMidphaseRTree.obj
 0001:0012bd90       ??_G?$IntersectBoxVsMeshCallback@$0A@@?A0x0cfa2830@@UEAAPEAXI@Z 000000018012cd90 f i GuMidphaseRTree.obj
 0001:0012bd90       ??_E?$IntersectBoxVsMeshCallback@$0A@@?A0x0cfa2830@@UEAAPEAXI@Z 000000018012cd90 f i GuMidphaseRTree.obj
 0001:0012bde0       ??_G?$IntersectCapsuleVsMeshCallback@$00@?A0x0cfa2830@@UEAAPEAXI@Z 000000018012cde0 f i GuMidphaseRTree.obj
 0001:0012bde0       ??_E?$IntersectCapsuleVsMeshCallback@$00@?A0x0cfa2830@@UEAAPEAXI@Z 000000018012cde0 f i GuMidphaseRTree.obj
 0001:0012be30       ??_G?$IntersectCapsuleVsMeshCallback@$0A@@?A0x0cfa2830@@UEAAPEAXI@Z 000000018012ce30 f i GuMidphaseRTree.obj
 0001:0012be30       ??_E?$IntersectCapsuleVsMeshCallback@$0A@@?A0x0cfa2830@@UEAAPEAXI@Z 000000018012ce30 f i GuMidphaseRTree.obj
 0001:0012be80       ??_E?$IntersectSphereVsMeshCallback@$00@?A0x0cfa2830@@UEAAPEAXI@Z 000000018012ce80 f i GuMidphaseRTree.obj
 0001:0012be80       ??_G?$IntersectSphereVsMeshCallback@$00@?A0x0cfa2830@@UEAAPEAXI@Z 000000018012ce80 f i GuMidphaseRTree.obj
 0001:0012bed0       ??_E?$IntersectSphereVsMeshCallback@$0A@@?A0x0cfa2830@@UEAAPEAXI@Z 000000018012ced0 f i GuMidphaseRTree.obj
 0001:0012bed0       ??_G?$IntersectSphereVsMeshCallback@$0A@@?A0x0cfa2830@@UEAAPEAXI@Z 000000018012ced0 f i GuMidphaseRTree.obj
 0001:0012bf20       ??_G?$RayRTreeCallback@$00$00@@UEAAPEAXI@Z 000000018012cf20 f i GuMidphaseRTree.obj
 0001:0012bf20       ??_E?$RayRTreeCallback@$00$00@@UEAAPEAXI@Z 000000018012cf20 f i GuMidphaseRTree.obj
 0001:0012bf70       ??_E?$RayRTreeCallback@$00$0A@@@UEAAPEAXI@Z 000000018012cf70 f i GuMidphaseRTree.obj
 0001:0012bf70       ??_G?$RayRTreeCallback@$00$0A@@@UEAAPEAXI@Z 000000018012cf70 f i GuMidphaseRTree.obj
 0001:0012bfc0       ??_G?$RayRTreeCallback@$0A@$00@@UEAAPEAXI@Z 000000018012cfc0 f i GuMidphaseRTree.obj
 0001:0012bfc0       ??_E?$RayRTreeCallback@$0A@$00@@UEAAPEAXI@Z 000000018012cfc0 f i GuMidphaseRTree.obj
 0001:0012c010       ??_E?$RayRTreeCallback@$0A@$0A@@@UEAAPEAXI@Z 000000018012d010 f i GuMidphaseRTree.obj
 0001:0012c010       ??_G?$RayRTreeCallback@$0A@$0A@@@UEAAPEAXI@Z 000000018012d010 f i GuMidphaseRTree.obj
 0001:0012c060       ??_GCallback@RTree@Gu@physx@@UEAAPEAXI@Z 000000018012d060 f i GuMidphaseRTree.obj
 0001:0012c060       ??_ECallback@RTree@Gu@physx@@UEAAPEAXI@Z 000000018012d060 f i GuMidphaseRTree.obj
 0001:0012c0b0       ??_ECallbackRaycast@RTree@Gu@physx@@UEAAPEAXI@Z 000000018012d0b0 f i GuMidphaseRTree.obj
 0001:0012c0b0       ??_GCallbackRaycast@RTree@Gu@physx@@UEAAPEAXI@Z 000000018012d0b0 f i GuMidphaseRTree.obj
 0001:0012c100       ??_EIntersectShapeVsMeshCallback@?A0x0cfa2830@@UEAAPEAXI@Z 000000018012d100 f i GuMidphaseRTree.obj
 0001:0012c100       ??_GIntersectShapeVsMeshCallback@?A0x0cfa2830@@UEAAPEAXI@Z 000000018012d100 f i GuMidphaseRTree.obj
 0001:0012c150       ??_GRayMeshColliderCallback@@UEAAPEAXI@Z 000000018012d150 f i GuMidphaseRTree.obj
 0001:0012c150       ??_ERayMeshColliderCallback@@UEAAPEAXI@Z 000000018012d150 f i GuMidphaseRTree.obj
 0001:0012c1a0       ?GetNbTriangles@LeafTriangles@Gu@physx@@QEBAIXZ 000000018012d1a0 f i GuMidphaseRTree.obj
 0001:0012c1c0       ?GetTriangleIndex@LeafTriangles@Gu@physx@@QEBAIXZ 000000018012d1c0 f i GuMidphaseRTree.obj
 0001:0012c1e0       ?LeafGetNbTriangles@Gu@physx@@YAII@Z 000000018012d1e0 f i GuMidphaseRTree.obj
 0001:0012c200       ?LeafGetTriangleIndex@Gu@physx@@YAII@Z 000000018012d200 f i GuMidphaseRTree.obj
 0001:0012c210       ?getRTree@RTreeTriangleMesh@Gu@physx@@QEBAAEBURTree@23@XZ 000000018012d210 f i GuMidphaseRTree.obj
 0001:0012c230       ?getVertIndices@?$RayRTreeCallback@$00$00@@QEAAXIAEAI00@Z 000000018012d230 f i GuMidphaseRTree.obj
 0001:0012c360       ?getVertIndices@?$RayRTreeCallback@$00$0A@@@QEAAXIAEAI00@Z 000000018012d360 f i GuMidphaseRTree.obj
 0001:0012c490       ?getVertIndices@?$RayRTreeCallback@$0A@$00@@QEAAXIAEAI00@Z 000000018012d490 f i GuMidphaseRTree.obj
 0001:0012c5c0       ?getVertIndices@?$RayRTreeCallback@$0A@$0A@@@QEAAXIAEAI00@Z 000000018012d5c0 f i GuMidphaseRTree.obj
 0001:0012c6f0       ?inAnyMode@?$MeshHitCallback@UPxRaycastHit@physx@@@Gu@physx@@QEBA_NXZ 000000018012d6f0 f i GuMidphaseRTree.obj
 0001:0012c730       ?inClosestMode@?$MeshHitCallback@UPxRaycastHit@physx@@@Gu@physx@@QEBA_NXZ 000000018012d730 f i GuMidphaseRTree.obj
 0001:0012c770       ?largestAxis@shdfnd@physx@@YAIAEBVPxVec3@2@AEAI1@Z 000000018012d770 f i GuMidphaseRTree.obj
 0001:0012c840       ?overlap@SimpleRayTriOverlap@@QEBAHAEBVPxVec3@physx@@00AEAUPxRaycastHit@3@@Z 000000018012d840 f i GuMidphaseRTree.obj
 0001:0012de40       ?processHit@RayMeshColliderCallback@@UEAA_NAEBUPxRaycastHit@physx@@AEBVPxVec3@3@11AEAMPEBI@Z 000000018012ee40 f i GuMidphaseRTree.obj
 0001:0012e2e0       ?processResults@?$RayRTreeCallback@$00$00@@UEAA_NIPEAI@Z 000000018012f2e0 f i GuMidphaseRTree.obj
 0001:0012e330       ?processResults@?$RayRTreeCallback@$00$00@@UEAA_NIPEAIAEAM@Z 000000018012f330 f i GuMidphaseRTree.obj
 0001:0012ecc0       ?processResults@?$RayRTreeCallback@$00$0A@@@UEAA_NIPEAI@Z 000000018012fcc0 f i GuMidphaseRTree.obj
 0001:0012ed10       ?processResults@?$RayRTreeCallback@$00$0A@@@UEAA_NIPEAIAEAM@Z 000000018012fd10 f i GuMidphaseRTree.obj
 0001:0012f6a0       ?processResults@?$RayRTreeCallback@$0A@$00@@UEAA_NIPEAI@Z 00000001801306a0 f i GuMidphaseRTree.obj
 0001:0012f6f0       ?processResults@?$RayRTreeCallback@$0A@$00@@UEAA_NIPEAIAEAM@Z 00000001801306f0 f i GuMidphaseRTree.obj
 0001:00130080       ?processResults@?$RayRTreeCallback@$0A@$0A@@@UEAA_NIPEAI@Z 0000000180131080 f i GuMidphaseRTree.obj
 0001:001300d0       ?processResults@?$RayRTreeCallback@$0A@$0A@@@UEAA_NIPEAIAEAM@Z 00000001801310d0 f i GuMidphaseRTree.obj
 0001:00130a60       ?profile@Callback@RTree@Gu@physx@@UEAAXXZ 0000000180131a60 f i GuMidphaseRTree.obj
 0001:00130ae0       ?transformBoxOrthonormal@physx@@YA?AVBox@Gu@1@AEBV231@AEBVPxTransform@1@@Z 0000000180131ae0 f i GuMidphaseRTree.obj
 0001:00130c60       ?checkOverlapAABB_triangleGeom@Gu@physx@@YA_NAEBVPxGeometry@2@AEBVPxTransform@2@AEBVPxBounds3@2@@Z 0000000180131c60 f   GuOverlapTestsMesh.obj
 0001:00130e50       ?GeomOverlapCallback_SphereMesh@@YA_NAEBVPxGeometry@physx@@AEBVPxTransform@2@01PEAUTriggerCache@Gu@2@@Z 0000000180131e50 f   GuOverlapTestsMesh.obj
 0001:00130fc0       ?GeomOverlapCallback_CapsuleMesh@@YA_NAEBVPxGeometry@physx@@AEBVPxTransform@2@01PEAUTriggerCache@Gu@2@@Z 0000000180131fc0 f   GuOverlapTestsMesh.obj
 0001:00131130       ?GeomOverlapCallback_BoxMesh@@YA_NAEBVPxGeometry@physx@@AEBVPxTransform@2@01PEAUTriggerCache@Gu@2@@Z 0000000180132130 f   GuOverlapTestsMesh.obj
 0001:001312c0       ?GeomOverlapCallback_ConvexMesh@@YA_NAEBVPxGeometry@physx@@AEBVPxTransform@2@01PEAUTriggerCache@Gu@2@@Z 00000001801322c0 f   GuOverlapTestsMesh.obj
 0001:00131890       ??$PX_UNUSED@PEAUTriggerCache@Gu@physx@@@@YAXAEBQEAUTriggerCache@Gu@physx@@@Z 0000000180132890 f i GuOverlapTestsMesh.obj
 0001:001318a0       ??$gjk@U?$RelativeConvex@VTriangleV@Gu@physx@@@Gu@physx@@U?$LocalConvex@VConvexHullV@Gu@physx@@@23@@Gu@physx@@YA?AW4GjkStatus@01@AEBU?$RelativeConvex@VTriangleV@Gu@physx@@@01@AEBU?$LocalConvex@VConvexHullV@Gu@physx@@@01@AEBT__m128@@2AEAT5@333@Z 00000001801328a0 f i GuOverlapTestsMesh.obj
 0001:00132dd0       ??0?$RelativeConvex@VTriangleV@Gu@physx@@@Gu@physx@@QEAA@AEBVTriangleV@12@AEBVPsMatTransformV@aos@shdfnd@2@@Z 0000000180133dd0 f i GuOverlapTestsMesh.obj
 0001:00132e90       ??0ConvexHullV@Gu@physx@@QEAA@XZ 0000000180133e90 f i GuOverlapTestsMesh.obj
 0001:00132ef0       ??0ConvexVsMeshOverlapCallback@@QEAA@AEBVConvexMesh@Gu@physx@@AEBVPxMeshScale@3@AEBVFastVertex2ShapeScaling@Cm@3@AEBVPxTransform@3@3_NAEBVBox@23@@Z 0000000180133ef0 f i GuOverlapTestsMesh.obj
 0001:00133410       ??0PsMatTransformV@aos@shdfnd@physx@@QEAA@AEBT__m128@@AEBUMat33V@123@@Z 0000000180134410 f i GuOverlapTestsMesh.obj
 0001:00133480       ??0PsMatTransformV@aos@shdfnd@physx@@QEAA@XZ 0000000180134480 f i GuOverlapTestsMesh.obj
 0001:00133500       ??1?$RelativeConvex@VTriangleV@Gu@physx@@@Gu@physx@@UEAA@XZ 0000000180134500 f i GuOverlapTestsMesh.obj
 0001:00133520       ??1ConvexVsMeshOverlapCallback@@UEAA@XZ 0000000180134520 f i GuOverlapTestsMesh.obj
 0001:00133570       ??_G?$RelativeConvex@VTriangleV@Gu@physx@@@Gu@physx@@UEAAPEAXI@Z 0000000180134570 f i GuOverlapTestsMesh.obj
 0001:00133570       ??_E?$RelativeConvex@VTriangleV@Gu@physx@@@Gu@physx@@UEAAPEAXI@Z 0000000180134570 f i GuOverlapTestsMesh.obj
 0001:001335c0       ??_GConvexVsMeshOverlapCallback@@UEAAPEAXI@Z 00000001801345c0 f i GuOverlapTestsMesh.obj
 0001:001335c0       ??_EConvexVsMeshOverlapCallback@@UEAAPEAXI@Z 00000001801345c0 f i GuOverlapTestsMesh.obj
 0001:00133610       ?BAnyTrue3@aos@shdfnd@physx@@YA?AT__m128@@T4@@Z 0000000180134610 f i GuOverlapTestsMesh.obj
 0001:001336d0       ?BOr@aos@shdfnd@physx@@YA?AT__m128@@T4@0@Z 00000001801346d0 f i GuOverlapTestsMesh.obj
 0001:00133710       ?getCenter@?$RelativeConvex@VTriangleV@Gu@physx@@@Gu@physx@@UEBA?AT__m128@@XZ 0000000180134710 f i GuOverlapTestsMesh.obj
 0001:00133770       ?getSweepMargin@?$RelativeConvex@VTriangleV@Gu@physx@@@Gu@physx@@UEBA?AT__m128@@XZ 0000000180134770 f i GuOverlapTestsMesh.obj
 0001:001337b0       ?processHit@ConvexVsMeshOverlapCallback@@UEAA_NAEBUPxRaycastHit@physx@@AEBVPxVec3@3@11AEAMPEBI@Z 00000001801347b0 f i GuOverlapTestsMesh.obj
 0001:00133eb0       ?support@?$RelativeConvex@VTriangleV@Gu@physx@@@Gu@physx@@UEBA?AT__m128@@AEBT4@@Z 0000000180134eb0 f i GuOverlapTestsMesh.obj
 0001:00133f20       ?support@?$RelativeConvex@VTriangleV@Gu@physx@@@Gu@physx@@UEBA?AT__m128@@AEBT4@AEAHPEAT4@@Z 0000000180134f20 f i GuOverlapTestsMesh.obj
 0001:00133fc0       ?supportPoint@?$RelativeConvex@VTriangleV@Gu@physx@@@Gu@physx@@UEBA?AT__m128@@HPEAT4@@Z 0000000180134fc0 f i GuOverlapTestsMesh.obj
 0001:00134030       ?supportRelative@TriangleV@Gu@physx@@QEBA?AT__m128@@AEBT4@AEBVPsMatTransformV@aos@shdfnd@3@1@Z 0000000180135030 f i GuOverlapTestsMesh.obj
 0001:001340b0       ?supportRelative@TriangleV@Gu@physx@@QEBA?AT__m128@@AEBT4@AEBVPsMatTransformV@aos@shdfnd@3@1AEAHPEAT4@@Z 00000001801350b0 f i GuOverlapTestsMesh.obj
 0001:00134150       ?transform@PsMatTransformV@aos@shdfnd@physx@@QEBA?AT__m128@@AEBT5@@Z 0000000180135150 f i GuOverlapTestsMesh.obj
 0001:00134200       ??0RTree@Gu@physx@@QEAA@W4PxEMPTY@2@@Z 0000000180135200 f   GuRTree.obj
 0001:00134270       ?exportExtraData@RTree@Gu@physx@@QEAAXAEAVPxSerializationContext@3@@Z 0000000180135270 f   GuRTree.obj
 0001:001342d0       ?importExtraData@RTree@Gu@physx@@QEAAXAEAVPxDeserializationContext@3@@Z 00000001801352d0 f   GuRTree.obj
 0001:00134320       ?save@RTree@Gu@physx@@QEBA_NAEAVPxOutputStream@3@@Z 0000000180135320 f   GuRTree.obj
 0001:00134610       ?load@RTree@Gu@physx@@QEAA_NAEAVPxInputStream@3@I@Z 0000000180135610 f   GuRTree.obj
 0001:001349d0       ?refitAllStaticTree@RTree@Gu@physx@@QEAAXAEAUCallbackRefit@123@PEAVPxBounds3@3@@Z 00000001801359d0 f   GuRTree.obj
 0001:00134fa0       ?validate@RTree@Gu@physx@@QEAAXPEAUCallbackRefit@123@@Z 0000000180135fa0 f   GuRTree.obj
 0001:00135060       ?computeBottomLevelCount@RTree@Gu@physx@@QEBAII@Z 0000000180136060 f   GuRTree.obj
 0001:00135280       ?validateRecursive@RTree@Gu@physx@@IEAAXIURTreeNodeQ@23@PEAURTreePage@23@PEAUCallbackRefit@123@@Z 0000000180136280 f   GuRTree.obj
 0001:001362e0       ??$PX_UNUSED@URTreeNodeQ@Gu@physx@@@@YAXAEBURTreeNodeQ@Gu@physx@@@Z 00000001801372e0 f i GuRTree.obj
 0001:001362f0       ??$readExtraData@URTreePage@Gu@physx@@@PxDeserializationContext@physx@@QEAAPEAURTreePage@Gu@1@I@Z 00000001801372f0 f i GuRTree.obj
 0001:00136340       ??0?$AlignedAllocator@$0IA@VNonTrackingAllocator@shdfnd@physx@@@shdfnd@physx@@QEAA@AEBVNonTrackingAllocator@12@@Z 0000000180137340 f i GuRTree.obj
 0001:00136360       ?WriteDwordBuffer@physx@@YAXPEBII_NAEAVPxOutputStream@1@@Z 0000000180137360 f i GuRTree.obj
 0001:001363b0       ?allocate@?$AlignedAllocator@$0IA@VNonTrackingAllocator@shdfnd@physx@@@shdfnd@physx@@QEAAPEAX_KPEBDH@Z 00000001801373b0 f i GuRTree.obj
 0001:00136480       ?computeBounds@RTreePage@Gu@physx@@QEAAXAEAURTreeNodeQ@23@@Z 0000000180137480 f i GuRTree.obj
 0001:001366b0       ?deallocate@?$AlignedAllocator@$0IA@VNonTrackingAllocator@shdfnd@physx@@@shdfnd@physx@@QEAAXPEAX@Z 00000001801376b0 f i GuRTree.obj
 0001:00136720       ?getNode@RTreePage@Gu@physx@@QEBAXIAEAURTreeNodeQ@23@@Z 0000000180137720 f i GuRTree.obj
 0001:00136880       ?isEmpty@RTreePage@Gu@physx@@QEBA_NI@Z 0000000180137880 f i GuRTree.obj
 0001:001368e0       ?isLeaf@RTreeNodeQ@Gu@physx@@QEBAIXZ 00000001801378e0 f i GuRTree.obj
 0001:00136900       ?isLeaf@RTreePage@Gu@physx@@QEBAII@Z 0000000180137900 f i GuRTree.obj
 0001:00136920       ?maximum@PxVec3@physx@@QEBA?AV12@AEBV12@@Z 0000000180137920 f i GuRTree.obj
 0001:001369e0       ?minimum@PxVec3@physx@@QEBA?AV12@AEBV12@@Z 00000001801379e0 f i GuRTree.obj
 0001:00136aa0       ?nodeCount@RTreePage@Gu@physx@@QEBAIXZ 0000000180137aa0 f i GuRTree.obj
 0001:00136b00       ?release@RTree@Gu@physx@@QEAAXXZ 0000000180137b00 f i GuRTree.obj
 0001:00136b80       ?writeChunk@physx@@YAXCCCCAEAVPxOutputStream@1@@Z 0000000180137b80 f i GuRTree.obj
 0001:00136c30       ?traverseAABB@RTree@Gu@physx@@QEBAXAEBVPxVec3@3@0IPEAIPEAUCallback@123@@Z 0000000180137c30 f   GuRTreeQueries.obj
 0001:001376a0       ?traverseOBB@RTree@Gu@physx@@QEBAXAEBVBox@23@IPEAIPEAUCallback@123@@Z 00000001801386a0 f   GuRTreeQueries.obj
 0001:0013bb90       ??$PX_UNUSED@PEAI@@YAXAEBQEAI@Z 000000018013cb90 f i GuRTreeQueries.obj
 0001:0013bba0       ??$traverseRay@$00@RTree@Gu@physx@@QEBAXAEBVPxVec3@2@0IPEAIPEAUCallbackRaycast@012@PEBV32@M@Z 000000018013cba0 f i GuRTreeQueries.obj
 0001:0013d4c0       ??$traverseRay@$0A@@RTree@Gu@physx@@QEBAXAEBVPxVec3@2@0IPEAIPEAUCallbackRaycast@012@PEBV32@M@Z 000000018013e4c0 f i GuRTreeQueries.obj
 0001:0013ede0       ?U4Load@aos@shdfnd@physx@@YA?AT__m128@@I@Z 000000018013fde0 f i GuRTreeQueries.obj
 0001:0013ee10       ?U4StoreA@aos@shdfnd@physx@@YAXT__m128@@PEAI@Z 000000018013fe10 f i GuRTreeQueries.obj
 0001:0013eeb0       ?V4Andc@aos@shdfnd@physx@@YA?AT__m128@@T4@0@Z 000000018013feb0 f i GuRTreeQueries.obj
 0001:0013ef40       ?V4IsGrtrV32u@aos@shdfnd@physx@@YA?AT__m128@@T4@0@Z 000000018013ff40 f i GuRTreeQueries.obj
 0001:0013efa0       ?V4U32Andc@aos@shdfnd@physx@@YA?AT__m128@@T4@0@Z 000000018013ffa0 f i GuRTreeQueries.obj
 0001:0013f060       ?V4U32StoreAligned@aos@shdfnd@physx@@YAXT__m128@@PEAT4@@Z 0000000180140060 f i GuRTreeQueries.obj
 0001:0013f090       ?Vec4V_From_PxVec3_WUndefined@aos@shdfnd@physx@@YA?AT__m128@@AEBVPxVec3@3@@Z 0000000180140090 f i GuRTreeQueries.obj
 0001:0013f0f0       ?VecU32V_From_BoolV@aos@shdfnd@physx@@YA?AT__m128@@AEBT4@@Z 00000001801400f0 f i GuRTreeQueries.obj
 0001:0013f1c0       ??0SweepShapeMeshHitCallback@Gu@physx@@QEAA@W4Enum@CallbackMode@12@AEBV?$PxFlags@W4Enum@PxHitFlag@physx@@G@2@_NM@Z 00000001801401c0 f   GuSweepsMesh.obj
 0001:0013f250       ??0SweepCapsuleMeshHitCallback@Gu@physx@@QEAA@AEAUPxSweepHit@2@AEBVMatrix34@Cm@2@M_NAEBVCapsule@12@AEBVPxVec3@2@AEBV?$PxFlags@W4Enum@PxHitFlag@physx@@G@2@2M@Z 0000000180140250 f   GuSweepsMesh.obj
 0001:0013f370       ?processHit@SweepCapsuleMeshHitCallback@Gu@physx@@UEAA_NAEBUPxRaycastHit@3@AEBVPxVec3@3@11AEAMPEBI@Z 0000000180140370 f   GuSweepsMesh.obj
 0001:0013f8d0       ?finalizeHit@SweepCapsuleMeshHitCallback@Gu@physx@@QEBA_NAEAUPxSweepHit@3@AEBVCapsule@23@AEBVPxTriangleMeshGeometry@3@AEBVPxTransform@3@_N@Z 00000001801408d0 f   GuSweepsMesh.obj
 0001:0013fad0       ??0SweepBoxMeshHitCallback@Gu@physx@@QEAA@W4Enum@CallbackMode@12@AEBVMatrix34Padded@12@M_NAEBVBox@12@AEBVPxVec3@2@44AEBV?$PxFlags@W4Enum@PxHitFlag@physx@@G@2@M2M@Z 0000000180140ad0 f   GuSweepsMesh.obj
 0001:0013fd50       ?processHit@SweepBoxMeshHitCallback@Gu@physx@@UEAA_NAEBUPxRaycastHit@3@AEBVPxVec3@3@11AEAMPEBI@Z 0000000180140d50 f   GuSweepsMesh.obj
 0001:00140970       ?finalizeHit@SweepBoxMeshHitCallback@Gu@physx@@QEBA_NAEAUPxSweepHit@3@AEBVPxTriangleMeshGeometry@3@AEBVPxTransform@3@2AEBVPxVec3@3@_N4@Z 0000000180141970 f   GuSweepsMesh.obj
 0001:00140e20       ??0SweepConvexMeshHitCallback@Gu@physx@@QEAA@AEBUConvexHullData@12@AEBVPxMeshScale@2@AEBVFastVertex2ShapeScaling@Cm@2@AEBVPxTransform@2@3AEBVPxVec3@2@MV?$PxFlags@W4Enum@PxHitFlag@physx@@G@2@_NM6M@Z 0000000180141e20 f   GuSweepsMesh.obj
 0001:001412f0       ?processHit@SweepConvexMeshHitCallback@Gu@physx@@UEAA_NAEBUPxRaycastHit@3@AEBVPxVec3@3@11AEAMPEBI@Z 00000001801422f0 f   GuSweepsMesh.obj
 0001:00141620       ?finalizeHit@SweepConvexMeshHitCallback@Gu@physx@@QEAA_NAEAUPxSweepHit@3@AEBVPxTriangleMeshGeometry@3@AEBVPxTransform@3@AEBVPxConvexMeshGeometry@3@2AEBVPxVec3@3@M_N555@Z 0000000180142620 f   GuSweepsMesh.obj
 0001:00142090       ?sweepCapsule_MeshGeom@@YA_NAEBVPxGeometry@physx@@AEBVPxTransform@2@AEBVPxCapsuleGeometry@2@1AEBVCapsule@Gu@2@AEBVPxVec3@2@MAEAUPxSweepHit@2@V?$PxFlags@W4Enum@PxHitFlag@physx@@G@2@M@Z 0000000180143090 f   GuSweepsMesh.obj
 0001:00142400       ?sweepBox_MeshGeom@@YA_NAEBVPxGeometry@physx@@AEBVPxTransform@2@AEBVPxBoxGeometry@2@1AEBVBox@Gu@2@AEBVPxVec3@2@MAEAUPxSweepHit@2@V?$PxFlags@W4Enum@PxHitFlag@physx@@G@2@M@Z 0000000180143400 f   GuSweepsMesh.obj
 0001:00142530       ?sweepConvex_MeshGeom@@YA_NAEBVPxGeometry@physx@@AEBVPxTransform@2@AEBVPxConvexMeshGeometry@2@1AEBVPxVec3@2@MAEAUPxSweepHit@2@V?$PxFlags@W4Enum@PxHitFlag@physx@@G@2@M@Z 0000000180143530 f   GuSweepsMesh.obj
 0001:001439e0       ??$PX_UNUSED@VPxBoxGeometry@physx@@@@YAXAEBVPxBoxGeometry@physx@@@Z 00000001801449e0 f i GuSweepsMesh.obj
 0001:001439f0       ??$PX_UNUSED@VPxCapsuleGeometry@physx@@@@YAXAEBVPxCapsuleGeometry@physx@@@Z 00000001801449f0 f i GuSweepsMesh.obj
 0001:00143a00       ??$PX_UNUSED@VPxTransform@physx@@@@YAXAEBVPxTransform@physx@@@Z 0000000180144a00 f i GuSweepsMesh.obj
 0001:00143a10       ??$getConvex@VShrunkBoxV@Gu@physx@@@GjkConvexBase@Gu@physx@@QEBAAEBVShrunkBoxV@12@XZ 0000000180144a10 f i GuSweepsMesh.obj
 0001:00143a30       ??$getConvex@VShrunkConvexHullV@Gu@physx@@@GjkConvexBase@Gu@physx@@QEBAAEBVShrunkConvexHullV@12@XZ 0000000180144a30 f i GuSweepsMesh.obj
 0001:00143a50       ??$gjkPenetration@U?$LocalConvex@VTriangleV@Gu@physx@@@Gu@physx@@U?$LocalConvex@VShrunkBoxV@Gu@physx@@@23@@Gu@physx@@YA?AW4GjkStatus@01@AEBU?$LocalConvex@VTriangleV@Gu@physx@@@01@AEBU?$LocalConvex@VShrunkBoxV@Gu@physx@@@01@AEBT__m128@@2AEAT5@333PEIAE4AEAE_N@Z 0000000180144a50 f i GuSweepsMesh.obj
 0001:001458f0       ??$gjkPenetration@U?$LocalConvex@VTriangleV@Gu@physx@@@Gu@physx@@U?$LocalConvex@VShrunkConvexHullV@Gu@physx@@@23@@Gu@physx@@YA?AW4GjkStatus@01@AEBU?$LocalConvex@VTriangleV@Gu@physx@@@01@AEBU?$LocalConvex@VShrunkConvexHullV@Gu@physx@@@01@AEBT__m128@@2AEAT5@333PEIAE4AEAE_N@Z 00000001801468f0 f i GuSweepsMesh.obj
 0001:00147790       ??$gjkRaycast@U?$LocalConvex@VTriangleV@Gu@physx@@@Gu@physx@@U?$LocalConvex@VBoxV@Gu@physx@@@23@@Gu@physx@@YA_NAEBU?$LocalConvex@VTriangleV@Gu@physx@@@01@AEBU?$LocalConvex@VBoxV@Gu@physx@@@01@AEBT__m128@@222AEAT4@33M@Z 0000000180148790 f i GuSweepsMesh.obj
 0001:00149140       ??$gjkRaycast@U?$LocalConvex@VTriangleV@Gu@physx@@@Gu@physx@@U?$LocalConvex@VConvexHullV@Gu@physx@@@23@@Gu@physx@@YA_NAEBU?$LocalConvex@VTriangleV@Gu@physx@@@01@AEBU?$LocalConvex@VConvexHullV@Gu@physx@@@01@AEBT__m128@@222AEAT4@33M@Z 000000018014a140 f i GuSweepsMesh.obj
 0001:0014aaf0       ??$gjkRaycastPenetration@U?$LocalConvex@VTriangleV@Gu@physx@@@Gu@physx@@U?$LocalConvex@VBoxV@Gu@physx@@@23@@Gu@physx@@YA_NAEBU?$LocalConvex@VTriangleV@Gu@physx@@@01@AEBU?$LocalConvex@VBoxV@Gu@physx@@@01@AEBT__m128@@222AEAT4@33M_N@Z 000000018014baf0 f i GuSweepsMesh.obj
 0001:0014aff0       ??$gjkRaycastPenetration@U?$LocalConvex@VTriangleV@Gu@physx@@@Gu@physx@@U?$LocalConvex@VConvexHullV@Gu@physx@@@23@@Gu@physx@@YA_NAEBU?$LocalConvex@VTriangleV@Gu@physx@@@01@AEBU?$LocalConvex@VConvexHullV@Gu@physx@@@01@AEBT__m128@@222AEAT4@33M_N@Z 000000018014bff0 f i GuSweepsMesh.obj
 0001:0014b4f0       ??0?$LocalConvex@VShrunkBoxV@Gu@physx@@@Gu@physx@@QEAA@AEBVShrunkBoxV@12@@Z 000000018014c4f0 f i GuSweepsMesh.obj
 0001:0014b540       ??0?$LocalConvex@VShrunkConvexHullV@Gu@physx@@@Gu@physx@@QEAA@AEBVShrunkConvexHullV@12@@Z 000000018014c540 f i GuSweepsMesh.obj
 0001:0014b590       ??0PsTransformV@aos@shdfnd@physx@@QEAA@AEBT__m128@@0@Z 000000018014c590 f i GuSweepsMesh.obj
 0001:0014b660       ??1?$LocalConvex@VShrunkBoxV@Gu@physx@@@Gu@physx@@UEAA@XZ 000000018014c660 f i GuSweepsMesh.obj
 0001:0014b680       ??1?$LocalConvex@VShrunkConvexHullV@Gu@physx@@@Gu@physx@@UEAA@XZ 000000018014c680 f i GuSweepsMesh.obj
 0001:0014b6a0       ??1SweepConvexMeshHitCallback@Gu@physx@@UEAA@XZ 000000018014c6a0 f i GuSweepsMesh.obj
 0001:0014b700       ??4PxSweepHit@physx@@QEAAAEAU01@AEBU01@@Z 000000018014c700 f i GuSweepsMesh.obj
 0001:0014b750       ??_5?$PxFlags@W4Enum@PxHitFlag@physx@@G@physx@@QEAAAEAV01@AEBV01@@Z 000000018014c750 f i GuSweepsMesh.obj
 0001:0014b790       ??_G?$LocalConvex@VShrunkBoxV@Gu@physx@@@Gu@physx@@UEAAPEAXI@Z 000000018014c790 f i GuSweepsMesh.obj
 0001:0014b790       ??_E?$LocalConvex@VShrunkBoxV@Gu@physx@@@Gu@physx@@UEAAPEAXI@Z 000000018014c790 f i GuSweepsMesh.obj
 0001:0014b7e0       ??_G?$LocalConvex@VShrunkConvexHullV@Gu@physx@@@Gu@physx@@UEAAPEAXI@Z 000000018014c7e0 f i GuSweepsMesh.obj
 0001:0014b7e0       ??_E?$LocalConvex@VShrunkConvexHullV@Gu@physx@@@Gu@physx@@UEAAPEAXI@Z 000000018014c7e0 f i GuSweepsMesh.obj
 0001:0014b830       ??_GSweepCapsuleMeshHitCallback@Gu@physx@@UEAAPEAXI@Z 000000018014c830 f i GuSweepsMesh.obj
 0001:0014b830       ??_ESweepCapsuleMeshHitCallback@Gu@physx@@UEAAPEAXI@Z 000000018014c830 f i GuSweepsMesh.obj
 0001:0014b880       ??_ESweepConvexMeshHitCallback@Gu@physx@@UEAAPEAXI@Z 000000018014c880 f i GuSweepsMesh.obj
 0001:0014b880       ??_GSweepConvexMeshHitCallback@Gu@physx@@UEAAPEAXI@Z 000000018014c880 f i GuSweepsMesh.obj
 0001:0014b8d0       ??_GSweepShapeMeshHitCallback@Gu@physx@@UEAAPEAXI@Z 000000018014c8d0 f i GuSweepsMesh.obj
 0001:0014b8d0       ??_ESweepShapeMeshHitCallback@Gu@physx@@UEAAPEAXI@Z 000000018014c8d0 f i GuSweepsMesh.obj
 0001:0014b920       ?QuatConjugate@aos@shdfnd@physx@@YA?AT__m128@@T4@@Z 000000018014c920 f i GuSweepsMesh.obj
 0001:0014b9d0       ?QuatIdentity@aos@shdfnd@physx@@YA?AT__m128@@XZ 000000018014c9d0 f i GuSweepsMesh.obj
 0001:0014ba30       ?QuatLength@aos@shdfnd@physx@@YA?AT__m128@@T4@@Z 000000018014ca30 f i GuSweepsMesh.obj
 0001:0014ba70       ?QuatMul@aos@shdfnd@physx@@YA?AT__m128@@T4@0@Z 000000018014ca70 f i GuSweepsMesh.obj
 0001:0014beb0       ?QuatRotate@aos@shdfnd@physx@@YA?AT__m128@@T4@0@Z 000000018014ceb0 f i GuSweepsMesh.obj
 0001:0014c240       ?QuatRotateInv@aos@shdfnd@physx@@YA?AT__m128@@T4@0@Z 000000018014d240 f i GuSweepsMesh.obj
 0001:0014c5d0       ?QuatTransform@aos@shdfnd@physx@@YA?AT__m128@@T4@00@Z 000000018014d5d0 f i GuSweepsMesh.obj
 0001:0014c9a0       ?V4Dot@aos@shdfnd@physx@@YA?AT__m128@@T4@0@Z 000000018014d9a0 f i GuSweepsMesh.obj
 0001:0014caa0       ?V4Length@aos@shdfnd@physx@@YA?AT__m128@@T4@@Z 000000018014daa0 f i GuSweepsMesh.obj
 0001:0014cb00       ?V4ScaleAdd@aos@shdfnd@physx@@YA?AT__m128@@T4@00@Z 000000018014db00 f i GuSweepsMesh.obj
 0001:0014cc40       ?V4SetW@aos@shdfnd@physx@@YA?AT__m128@@T4@0@Z 000000018014dc40 f i GuSweepsMesh.obj
 0001:0014cd60       ?getCenter@?$LocalConvex@VShrunkBoxV@Gu@physx@@@Gu@physx@@UEBA?AT__m128@@XZ 000000018014dd60 f i GuSweepsMesh.obj
 0001:0014cda0       ?getCenter@?$LocalConvex@VShrunkConvexHullV@Gu@physx@@@Gu@physx@@UEBA?AT__m128@@XZ 000000018014dda0 f i GuSweepsMesh.obj
 0001:0014cde0       ?getFacesByVertices8@ConvexHullData@Gu@physx@@QEBAPEBEXZ 000000018014dde0 f i GuSweepsMesh.obj
 0001:0014ce80       ?getMarginF@ConvexV@Gu@physx@@QEBAMXZ 000000018014de80 f i GuSweepsMesh.obj
 0001:0014cea0       ?getShape2VertexSkew@FastVertex2ShapeScaling@Cm@physx@@QEBAAEBVPxMat33@3@XZ 000000018014dea0 f i GuSweepsMesh.obj
 0001:0014cec0       ?getShrunkConvex@?$LocalConvex@VBoxV@Gu@physx@@@Gu@physx@@QEBA?AU?$LocalConvex@VShrunkBoxV@Gu@physx@@@23@XZ 000000018014dec0 f i GuSweepsMesh.obj
 0001:0014cf00       ?getShrunkConvex@?$LocalConvex@VConvexHullV@Gu@physx@@@Gu@physx@@QEBA?AU?$LocalConvex@VShrunkConvexHullV@Gu@physx@@@23@XZ 000000018014df00 f i GuSweepsMesh.obj
 0001:0014cf40       ?getShrunkConvex@?$LocalConvex@VTriangleV@Gu@physx@@@Gu@physx@@QEBA?AU123@XZ 000000018014df40 f i GuSweepsMesh.obj
 0001:0014cf80       ?getSweepContactEps@Gu@physx@@YA?AT__m128@@AEBT3@0@Z 000000018014df80 f i GuSweepsMesh.obj
 0001:0014d060       ?getSweepMargin@?$LocalConvex@VShrunkBoxV@Gu@physx@@@Gu@physx@@UEBA?AT__m128@@XZ 000000018014e060 f i GuSweepsMesh.obj
 0001:0014d0a0       ?getSweepMargin@?$LocalConvex@VShrunkConvexHullV@Gu@physx@@@Gu@physx@@UEBA?AT__m128@@XZ 000000018014e0a0 f i GuSweepsMesh.obj
 0001:0014d0e0       ?initialize@ConvexHullV@Gu@physx@@QEAAXPEBUConvexHullData@23@AEBT__m128@@11_N@Z 000000018014e0e0 f i GuSweepsMesh.obj
 0001:0014d290       ?intersectPlanes@Gu@physx@@YA?AT__m128@@AEBT3@00000@Z 000000018014e290 f i GuSweepsMesh.obj
 0001:0014d560       ?isFinite@PsTransformV@aos@shdfnd@physx@@QEBA_NXZ 000000018014e560 f i GuSweepsMesh.obj
 0001:0014d5d0       ?isFiniteQuatV@aos@shdfnd@physx@@YA_NT__m128@@@Z 000000018014e5d0 f i GuSweepsMesh.obj
 0001:0014d600       ?isFiniteVec3V@aos@shdfnd@physx@@YA_NT__m128@@@Z 000000018014e600 f i GuSweepsMesh.obj
 0001:0014d6c0       ?isFiniteVec4V@aos@shdfnd@physx@@YA_NT__m128@@@Z 000000018014e6c0 f i GuSweepsMesh.obj
 0001:0014d7a0       ?isSane@PsTransformV@aos@shdfnd@physx@@QEBA_NXZ 000000018014e7a0 f i GuSweepsMesh.obj
 0001:0014d800       ?isSaneQuatV@aos@shdfnd@physx@@YA_NT__m128@@@Z 000000018014e800 f i GuSweepsMesh.obj
 0001:0014d9d0       ?planeShift@ShrunkConvexHullV@Gu@physx@@QEBA?AT__m128@@IAEBT4@PEAT4@@Z 000000018014e9d0 f i GuSweepsMesh.obj
 0001:0014e0c0       ?rotate@PsTransformV@aos@shdfnd@physx@@QEBA?AT__m128@@AEBT5@@Z 000000018014f0c0 f i GuSweepsMesh.obj
 0001:0014e1b0       ?rotateInv@PsTransformV@aos@shdfnd@physx@@QEBA?AT__m128@@AEBT5@@Z 000000018014f1b0 f i GuSweepsMesh.obj
 0001:0014e2a0       ?support@?$LocalConvex@VShrunkBoxV@Gu@physx@@@Gu@physx@@UEBA?AT__m128@@AEBT4@@Z 000000018014f2a0 f i GuSweepsMesh.obj
 0001:0014e2f0       ?support@?$LocalConvex@VShrunkBoxV@Gu@physx@@@Gu@physx@@UEBA?AT__m128@@AEBT4@AEAHPEAT4@@Z 000000018014f2f0 f i GuSweepsMesh.obj
 0001:0014e350       ?support@?$LocalConvex@VShrunkConvexHullV@Gu@physx@@@Gu@physx@@UEBA?AT__m128@@AEBT4@@Z 000000018014f350 f i GuSweepsMesh.obj
 0001:0014e3a0       ?support@?$LocalConvex@VShrunkConvexHullV@Gu@physx@@@Gu@physx@@UEBA?AT__m128@@AEBT4@AEAHPEAT4@@Z 000000018014f3a0 f i GuSweepsMesh.obj
 0001:0014e400       ?supportLocal@ShrunkBoxV@Gu@physx@@QEBA?AT__m128@@AEBT4@@Z 000000018014f400 f i GuSweepsMesh.obj
 0001:0014e5e0       ?supportLocal@ShrunkBoxV@Gu@physx@@QEBA?AT__m128@@AEBT4@AEAHPEAT4@@Z 000000018014f5e0 f i GuSweepsMesh.obj
 0001:0014e820       ?supportLocal@ShrunkConvexHullV@Gu@physx@@QEBA?AT__m128@@AEBT4@@Z 000000018014f820 f i GuSweepsMesh.obj
 0001:0014e870       ?supportLocal@ShrunkConvexHullV@Gu@physx@@QEBA?AT__m128@@AEBT4@AEAHPEAT4@@Z 000000018014f870 f i GuSweepsMesh.obj
 0001:0014ea20       ?supportPoint@?$LocalConvex@VShrunkBoxV@Gu@physx@@@Gu@physx@@UEBA?AT__m128@@HPEAT4@@Z 000000018014fa20 f i GuSweepsMesh.obj
 0001:0014ea80       ?supportPoint@?$LocalConvex@VShrunkConvexHullV@Gu@physx@@@Gu@physx@@UEBA?AT__m128@@HPEAT4@@Z 000000018014fa80 f i GuSweepsMesh.obj
 0001:0014eae0       ?supportPoint@ShrunkBoxV@Gu@physx@@QEBA?AT__m128@@HPEAT4@@Z 000000018014fae0 f i GuSweepsMesh.obj
 0001:0014ec80       ?supportPoint@ShrunkConvexHullV@Gu@physx@@QEBA?AT__m128@@HPEAT4@@Z 000000018014fc80 f i GuSweepsMesh.obj
 0001:0014eda0       ?sweepBoxVsMesh@Midphase@Gu@physx@@YA_NPEBVTriangleMesh@23@AEBVPxTriangleMeshGeometry@3@AEBVPxTransform@3@AEBVBox@23@AEBVPxVec3@3@MAEAUPxSweepHit@3@V?$PxFlags@W4Enum@PxHitFlag@physx@@G@3@M@Z 000000018014fda0 f i GuSweepsMesh.obj
 0001:0014eeb0       ?sweepCapsuleVsMesh@Midphase@Gu@physx@@YA_NPEBVTriangleMesh@23@AEBVPxTriangleMeshGeometry@3@AEBVPxTransform@3@AEBVCapsule@23@AEBVPxVec3@3@MAEAUPxSweepHit@3@V?$PxFlags@W4Enum@PxHitFlag@physx@@G@3@M@Z 000000018014feb0 f i GuSweepsMesh.obj
 0001:0014efc0       ?sweepConvexVsMesh@Midphase@Gu@physx@@YAXPEBVTriangleMesh@23@AEBVBox@23@AEBVPxVec3@3@MAEAUSweepConvexMeshHitCallback@23@_N@Z 000000018014ffc0 f i GuSweepsMesh.obj
 0001:0014f050       ?transform@PsTransformV@aos@shdfnd@physx@@QEBA?AT__m128@@AEBT5@@Z 0000000180150050 f i GuSweepsMesh.obj
 0001:0014f170       ?transformInv@PsTransformV@aos@shdfnd@physx@@QEBA?AV1234@AEBV1234@@Z 0000000180150170 f i GuSweepsMesh.obj
 0001:0014f4a0       ?exportExtraData@TriangleMesh@Gu@physx@@UEAAXAEAVPxSerializationContext@3@@Z 00000001801504a0 f   GuTriangleMesh.obj
 0001:0014f6d0       ?importExtraData@TriangleMesh@Gu@physx@@QEAAXAEAVPxDeserializationContext@3@@Z 00000001801506d0 f   GuTriangleMesh.obj
 0001:0014f890       ?release@TriangleMesh@Gu@physx@@UEAAXXZ 0000000180150890 f   GuTriangleMesh.obj
 0001:0014f8c0       ?onRefCountZero@TriangleMesh@Gu@physx@@UEAAXXZ 00000001801508c0 f   GuTriangleMesh.obj
 0001:0014f980       ??0TriangleMesh@Gu@physx@@QEAA@AEAVGuMeshFactory@2@AEAVTriangleMeshData@12@@Z 0000000180150980 f   GuTriangleMesh.obj
 0001:0014fc60       ??1TriangleMesh@Gu@physx@@UEAA@XZ 0000000180150c60 f   GuTriangleMesh.obj
 0001:0014ff70       ?getVerticesForModification@TriangleMesh@Gu@physx@@UEAAPEAVPxVec3@3@XZ 0000000180150f70 f   GuTriangleMesh.obj
 0001:0014ffc0       ?refitBVH@TriangleMesh@Gu@physx@@UEAA?AVPxBounds3@3@XZ 0000000180150fc0 f   GuTriangleMesh.obj
 0001:00150360       ??$deletePxBase@VTriangleMesh@Gu@physx@@@Cm@physx@@YAXPEAVTriangleMesh@Gu@1@@Z 0000000180151360 f i GuTriangleMesh.obj
 0001:00150420       ??$readExtraData@G$0BA@@PxDeserializationContext@physx@@QEAAPEAGI@Z 0000000180151420 f i GuTriangleMesh.obj
 0001:00150460       ??$readExtraData@G@PxDeserializationContext@physx@@QEAAPEAGI@Z 0000000180151460 f i GuTriangleMesh.obj
 0001:001504b0       ??$readExtraData@I$0BA@@PxDeserializationContext@physx@@QEAAPEAII@Z 00000001801514b0 f i GuTriangleMesh.obj
 0001:001504f0       ??$readExtraData@I@PxDeserializationContext@physx@@QEAAPEAII@Z 00000001801514f0 f i GuTriangleMesh.obj
 0001:00150540       ??$readExtraData@VPxVec3@physx@@$0BA@@PxDeserializationContext@physx@@QEAAPEAVPxVec3@1@I@Z 0000000180151540 f i GuTriangleMesh.obj
 0001:00150580       ??$readExtraData@VPxVec3@physx@@@PxDeserializationContext@physx@@QEAAPEAVPxVec3@1@I@Z 0000000180151580 f i GuTriangleMesh.obj
 0001:001505d0       ??0?$PxFlags@W4Enum@PxTriangleMeshFlag@physx@@E@physx@@QEAA@E@Z 00000001801515d0 f i GuTriangleMesh.obj
 0001:00150600       ??0PxTriangleMesh@physx@@IEAA@GV?$PxFlags@W4Enum@PxBaseFlag@physx@@G@1@@Z 0000000180151600 f i GuTriangleMesh.obj
 0001:00150670       ??1PxTriangleMesh@physx@@MEAA@XZ 0000000180151670 f i GuTriangleMesh.obj
 0001:001506a0       ??_ETriangleMesh@Gu@physx@@WBA@EAAPEAXI@Z 00000001801516a0 f i GuTriangleMesh.obj
 0001:001506b0       ??_GBV32Tree@Gu@physx@@QEAAPEAXI@Z 00000001801516b0 f i GuTriangleMesh.obj
 0001:00150720       ??_EPxTriangleMesh@physx@@MEAAPEAXI@Z 0000000180151720 f i GuTriangleMesh.obj
 0001:00150720       ??_GPxTriangleMesh@physx@@MEAAPEAXI@Z 0000000180151720 f i GuTriangleMesh.obj
 0001:00150770       ??_GTriangleMesh@Gu@physx@@UEAAPEAXI@Z 0000000180151770 f i GuTriangleMesh.obj
 0001:00150770       ??_ETriangleMesh@Gu@physx@@UEAAPEAXI@Z 0000000180151770 f i GuTriangleMesh.obj
 0001:001507e0       ?acquireReference@TriangleMesh@Gu@physx@@UEAAXXZ 00000001801517e0 f i GuTriangleMesh.obj
 0001:00150810       ?getLocalBounds@TriangleMesh@Gu@physx@@UEBA?AVPxBounds3@3@XZ 0000000180151810 f i GuTriangleMesh.obj
 0001:001508d0       ?getMaterials@TriangleMesh@Gu@physx@@QEBAPEBGXZ 00000001801518d0 f i GuTriangleMesh.obj
 0001:001508f0       ?getMax@CenterExtents@Gu@physx@@QEBA?AVPxVec3@3@XZ 00000001801518f0 f i GuTriangleMesh.obj
 0001:00150930       ?getMin@CenterExtents@Gu@physx@@QEBA?AVPxVec3@3@XZ 0000000180151930 f i GuTriangleMesh.obj
 0001:00150970       ?getNbTriangles@TriangleMesh@Gu@physx@@UEBAIXZ 0000000180151970 f i GuTriangleMesh.obj
 0001:00150990       ?getNbVertices@TriangleMesh@Gu@physx@@UEBAIXZ 0000000180151990 f i GuTriangleMesh.obj
 0001:001509b0       ?getReferenceCount@TriangleMesh@Gu@physx@@UEBAIXZ 00000001801519b0 f i GuTriangleMesh.obj
 0001:001509e0       ?getTriangleMaterialIndex@TriangleMesh@Gu@physx@@UEBAGI@Z 00000001801519e0 f i GuTriangleMesh.obj
 0001:00150a40       ?getTriangleMeshFlags@TriangleMesh@Gu@physx@@UEBA?AV?$PxFlags@W4Enum@PxTriangleMeshFlag@physx@@E@3@XZ 0000000180151a40 f i GuTriangleMesh.obj
 0001:00150a80       ?getTriangles@TriangleMesh@Gu@physx@@UEBAPEBXXZ 0000000180151a80 f i GuTriangleMesh.obj
 0001:00150aa0       ?getTrianglesRemap@TriangleMesh@Gu@physx@@UEBAPEBIXZ 0000000180151aa0 f i GuTriangleMesh.obj
 0001:00150ac0       ?getVertices@TriangleMesh@Gu@physx@@UEBAPEBVPxVec3@3@XZ 0000000180151ac0 f i GuTriangleMesh.obj
 0001:00150ae0       ?hasPerTriangleMaterials@TriangleMesh@Gu@physx@@QEBA_NXZ 0000000180151ae0 f i GuTriangleMesh.obj
 0001:00150b20       ?isKindOf@PxTriangleMesh@physx@@MEBA_NPEBD@Z 0000000180151b20 f i GuTriangleMesh.obj
 0001:00150b90       ?requires@TriangleMesh@Gu@physx@@UEAAXAEAVPxProcessPxBaseCallback@3@@Z 0000000180151b90 f i GuTriangleMesh.obj
 0001:00150c50       ?exportExtraData@BV4TriangleMesh@Gu@physx@@UEAAXAEAVPxSerializationContext@3@@Z 0000000180151c50 f   GuTriangleMeshBV4.obj
 0001:00150c90       ?importExtraData@BV4TriangleMesh@Gu@physx@@QEAAXAEAVPxDeserializationContext@3@@Z 0000000180151c90 f   GuTriangleMeshBV4.obj
 0001:00150d70       ?createObject@BV4TriangleMesh@Gu@physx@@SAPEAVTriangleMesh@23@AEAPEAEAEAVPxDeserializationContext@3@@Z 0000000180151d70 f   GuTriangleMeshBV4.obj
 0001:00150e30       ??0BV4TriangleMesh@Gu@physx@@QEAA@AEAVGuMeshFactory@2@AEAVTriangleMeshData@12@@Z 0000000180151e30 f   GuTriangleMeshBV4.obj
 0001:00151050       ??0BV4TriangleMesh@Gu@physx@@QEAA@V?$PxFlags@W4Enum@PxBaseFlag@physx@@G@2@@Z 0000000180152050 f i GuTriangleMeshBV4.obj
 0001:00151100       ??0PxTriangleMesh@physx@@IEAA@V?$PxFlags@W4Enum@PxBaseFlag@physx@@G@1@@Z 0000000180152100 f i GuTriangleMeshBV4.obj
 0001:00151160       ??0SourceMesh@Gu@physx@@QEAA@W4PxEMPTY@2@@Z 0000000180152160 f i GuTriangleMeshBV4.obj
 0001:00151180       ??0TriangleMesh@Gu@physx@@QEAA@V?$PxFlags@W4Enum@PxBaseFlag@physx@@G@2@@Z 0000000180152180 f i GuTriangleMeshBV4.obj
 0001:00151230       ??1BV4TriangleMesh@Gu@physx@@UEAA@XZ 0000000180152230 f i GuTriangleMeshBV4.obj
 0001:001512a4       ??_EBV4TriangleMesh@Gu@physx@@WBA@EAAPEAXI@Z 00000001801522a4 f i GuTriangleMeshBV4.obj
 0001:001512b0       ??_GBV4TriangleMesh@Gu@physx@@UEAAPEAXI@Z 00000001801522b0 f i GuTriangleMeshBV4.obj
 0001:001512b0       ??_EBV4TriangleMesh@Gu@physx@@UEAAPEAXI@Z 00000001801522b0 f i GuTriangleMeshBV4.obj
 0001:00151320       ?getConcreteTypeName@BV4TriangleMesh@Gu@physx@@UEBAPEBDXZ 0000000180152320 f i GuTriangleMeshBV4.obj
 0001:00151330       ?getMidphaseID@BV4TriangleMesh@Gu@physx@@UEBA?AW4Enum@PxMeshMidPhase@3@XZ 0000000180152330 f i GuTriangleMeshBV4.obj
 0001:00151340       ?resolveReferences@TriangleMesh@Gu@physx@@QEAAXAEAVPxDeserializationContext@3@@Z 0000000180152340 f i GuTriangleMeshBV4.obj
 0001:00151350       ?setPointers@SourceMesh@Gu@physx@@QEAAXPEAVIndTri32@23@PEAVIndTri16@23@PEBVPxVec3@3@@Z 0000000180152350 f i GuTriangleMeshBV4.obj
 0001:00151450       ?exportExtraData@RTreeTriangleMesh@Gu@physx@@UEAAXAEAVPxSerializationContext@3@@Z 0000000180152450 f   GuTriangleMeshRTree.obj
 0001:00151490       ?importExtraData@RTreeTriangleMesh@Gu@physx@@QEAAXAEAVPxDeserializationContext@3@@Z 0000000180152490 f   GuTriangleMeshRTree.obj
 0001:001514d0       ?createObject@RTreeTriangleMesh@Gu@physx@@SAPEAVTriangleMesh@23@AEAPEAEAEAVPxDeserializationContext@3@@Z 00000001801524d0 f   GuTriangleMeshRTree.obj
 0001:00151590       ??0RTreeTriangleMesh@Gu@physx@@QEAA@AEAVGuMeshFactory@2@AEAVTriangleMeshData@12@@Z 0000000180152590 f   GuTriangleMeshRTree.obj
 0001:00151690       ?getVerticesForModification@RTreeTriangleMesh@Gu@physx@@UEAAPEAVPxVec3@3@XZ 0000000180152690 f   GuTriangleMeshRTree.obj
 0001:001516c0       ?refitBVH@RTreeTriangleMesh@Gu@physx@@UEAA?AVPxBounds3@3@XZ 00000001801526c0 f   GuTriangleMeshRTree.obj
 0001:001519b0       ??0?$RefitCallback@G@physx@@QEAA@PEBVPxVec3@1@PEBG@Z 00000001801529b0 f i GuTriangleMeshRTree.obj
 0001:00151a20       ??0?$RefitCallback@I@physx@@QEAA@PEBVPxVec3@1@PEBI@Z 0000000180152a20 f i GuTriangleMeshRTree.obj
 0001:00151a90       ??0CallbackRefit@RTree@Gu@physx@@QEAA@XZ 0000000180152a90 f i GuTriangleMeshRTree.obj
 0001:00151ab0       ??0PxBounds3@physx@@QEAA@$$QEAV01@@Z 0000000180152ab0 f i GuTriangleMeshRTree.obj
 0001:00151b10       ??0RTree@Gu@physx@@QEAA@XZ 0000000180152b10 f i GuTriangleMeshRTree.obj
 0001:00151bd0       ??0RTreeTriangleMesh@Gu@physx@@QEAA@V?$PxFlags@W4Enum@PxBaseFlag@physx@@G@2@@Z 0000000180152bd0 f i GuTriangleMeshRTree.obj
 0001:00151c60       ??1?$RefitCallback@G@physx@@UEAA@XZ 0000000180152c60 f i GuTriangleMeshRTree.obj
 0001:00151c90       ??1?$RefitCallback@I@physx@@UEAA@XZ 0000000180152c90 f i GuTriangleMeshRTree.obj
 0001:00151cc0       ??1CallbackRefit@RTree@Gu@physx@@UEAA@XZ 0000000180152cc0 f i GuTriangleMeshRTree.obj
 0001:00151ce0       ??1RTree@Gu@physx@@QEAA@XZ 0000000180152ce0 f i GuTriangleMeshRTree.obj
 0001:00151d00       ??1RTreeTriangleMesh@Gu@physx@@UEAA@XZ 0000000180152d00 f i GuTriangleMeshRTree.obj
 0001:00151d60       ??4RTree@Gu@physx@@QEAAAEAU012@AEBU012@@Z 0000000180152d60 f i GuTriangleMeshRTree.obj
 0001:00151e84       ??_ERTreeTriangleMesh@Gu@physx@@WBA@EAAPEAXI@Z 0000000180152e84 f i GuTriangleMeshRTree.obj
 0001:00151e90       ??_E?$RefitCallback@G@physx@@UEAAPEAXI@Z 0000000180152e90 f i GuTriangleMeshRTree.obj
 0001:00151e90       ??_G?$RefitCallback@G@physx@@UEAAPEAXI@Z 0000000180152e90 f i GuTriangleMeshRTree.obj
 0001:00151ee0       ??_G?$RefitCallback@I@physx@@UEAAPEAXI@Z 0000000180152ee0 f i GuTriangleMeshRTree.obj
 0001:00151ee0       ??_E?$RefitCallback@I@physx@@UEAAPEAXI@Z 0000000180152ee0 f i GuTriangleMeshRTree.obj
 0001:00151f30       ??_GCallbackRefit@RTree@Gu@physx@@UEAAPEAXI@Z 0000000180152f30 f i GuTriangleMeshRTree.obj
 0001:00151f30       ??_ECallbackRefit@RTree@Gu@physx@@UEAAPEAXI@Z 0000000180152f30 f i GuTriangleMeshRTree.obj
 0001:00151f80       ??_GRTreeTriangleMesh@Gu@physx@@UEAAPEAXI@Z 0000000180152f80 f i GuTriangleMeshRTree.obj
 0001:00151f80       ??_ERTreeTriangleMesh@Gu@physx@@UEAAPEAXI@Z 0000000180152f80 f i GuTriangleMeshRTree.obj
 0001:00151ff0       ?getConcreteTypeName@RTreeTriangleMesh@Gu@physx@@UEBAPEBDXZ 0000000180152ff0 f i GuTriangleMeshRTree.obj
 0001:00152000       ?getMidphaseID@RTreeTriangleMesh@Gu@physx@@UEBA?AW4Enum@PxMeshMidPhase@3@XZ 0000000180153000 f i GuTriangleMeshRTree.obj
 0001:00152010       ?recomputeBounds@?$RefitCallback@G@physx@@UEAAXIAEAT__m128@@0@Z 0000000180153010 f i GuTriangleMeshRTree.obj
 0001:001526f0       ?recomputeBounds@?$RefitCallback@I@physx@@UEAAXIAEAT__m128@@0@Z 00000001801536f0 f i GuTriangleMeshRTree.obj
 0001:00152dc0       ?exportExtraData@HeightField@Gu@physx@@UEAAXAEAVPxSerializationContext@3@@Z 0000000180153dc0 f   GuHeightField.obj
 0001:00152e30       ?importExtraData@HeightField@Gu@physx@@QEAAXAEAVPxDeserializationContext@3@@Z 0000000180153e30 f   GuHeightField.obj
 0001:00152e70       ?createObject@HeightField@Gu@physx@@SAPEAV123@AEAPEAEAEAVPxDeserializationContext@3@@Z 0000000180153e70 f   GuHeightField.obj
 0001:00152f30       ??0HeightField@Gu@physx@@QEAA@PEAVGuMeshFactory@2@@Z 0000000180153f30 f   GuHeightField.obj
 0001:00153080       ??0HeightField@Gu@physx@@QEAA@AEAVGuMeshFactory@2@AEAUHeightFieldData@12@@Z 0000000180154080 f   GuHeightField.obj
 0001:00153190       ?release@HeightField@Gu@physx@@UEAAXXZ 0000000180154190 f   GuHeightField.obj
 0001:001531c0       ?saveCells@HeightField@Gu@physx@@UEBAIPEAXI@Z 00000001801541c0 f   GuHeightField.obj
 0001:00153230       ?modifySamples@HeightField@Gu@physx@@UEAA_NHHAEBVPxHeightFieldDesc@3@_N@Z 0000000180154230 f   GuHeightField.obj
 0001:00153610       ?acquireReference@HeightField@Gu@physx@@UEAAXXZ 0000000180154610 f   GuHeightField.obj
 0001:00153640       ?getReferenceCount@HeightField@Gu@physx@@UEBAIXZ 0000000180154640 f   GuHeightField.obj
 0001:00153670       ?onRefCountZero@HeightField@Gu@physx@@UEAAXXZ 0000000180154670 f   GuHeightField.obj
 0001:00153760       ?loadFromDesc@HeightField@Gu@physx@@QEAA_NAEBVPxHeightFieldDesc@3@@Z 0000000180154760 f   GuHeightField.obj
 0001:00153c70       ?load@HeightField@Gu@physx@@QEAA_NAEAVPxInputStream@3@@Z 0000000180154c70 f   GuHeightField.obj
 0001:001540c0       ?computeCellCoordinates@HeightField@Gu@physx@@QEBAIMMAEAM0@Z 00000001801550c0 f   GuHeightField.obj
 0001:00154380       ?isSolidVertex@HeightField@Gu@physx@@QEBA_NIIIGAEA_N@Z 0000000180155380 f   GuHeightField.obj
 0001:001545a0       ?isCollisionVertexPreca@HeightField@Gu@physx@@QEBA_NIIIG@Z 00000001801555a0 f   GuHeightField.obj
 0001:00154770       ?parseTrianglesForCollisionVertices@HeightField@Gu@physx@@QEAAXG@Z 0000000180155770 f   GuHeightField.obj
 0001:00154b30       ?computeExtreme@HeightField@Gu@physx@@QEBAMIIII@Z 0000000180155b30 f   GuHeightField.obj
 0001:00154cb0       ?releaseMemory@HeightField@Gu@physx@@QEAAXXZ 0000000180155cb0 f   GuHeightField.obj
 0001:00154d20       ??1HeightField@Gu@physx@@UEAA@XZ 0000000180155d20 f   GuHeightField.obj
 0001:00154d90       ?getVertexEdgeIndices@physx@@YAIAEBVHeightField@Gu@1@IIIQEAUEdgeData@1@@Z 0000000180155d90 f   GuHeightField.obj
 0001:00155370       ?getEdgeTriangleIndices@physx@@YAIAEBVHeightField@Gu@1@AEBUEdgeData@1@PEIAI@Z 0000000180156370 f   GuHeightField.obj
 0001:00156130       ??$PxMax@H@physx@@YAHHH@Z  0000000180157130 f i GuHeightField.obj
 0001:00156170       ??$deletePxBase@VHeightField@Gu@physx@@@Cm@physx@@YAXPEAVHeightField@Gu@1@@Z 0000000180157170 f i GuHeightField.obj
 0001:00156230       ??$readExtraData@UPxHeightFieldSample@physx@@$0BA@@PxDeserializationContext@physx@@QEAAPEAUPxHeightFieldSample@1@I@Z 0000000180157230 f i GuHeightField.obj
 0001:00156270       ??$readExtraData@UPxHeightFieldSample@physx@@@PxDeserializationContext@physx@@QEAAPEAUPxHeightFieldSample@1@I@Z 0000000180157270 f i GuHeightField.obj
 0001:001562c0       ??0?$BitMapBase@VNonTrackingAllocator@shdfnd@physx@@@Cm@physx@@QEAA@XZ 00000001801572c0 f i GuHeightField.obj
 0001:00156310       ??0?$PxFlags@W4Enum@PxHeightFieldFlag@physx@@G@physx@@QEAA@G@Z 0000000180157310 f i GuHeightField.obj
 0001:00156340       ??0HeightField@Gu@physx@@QEAA@V?$PxFlags@W4Enum@PxBaseFlag@physx@@G@2@@Z 0000000180157340 f i GuHeightField.obj
 0001:00156400       ??0PxHeightField@physx@@IEAA@GV?$PxFlags@W4Enum@PxBaseFlag@physx@@G@1@@Z 0000000180157400 f i GuHeightField.obj
 0001:00156470       ??0PxHeightField@physx@@IEAA@V?$PxFlags@W4Enum@PxBaseFlag@physx@@G@1@@Z 0000000180157470 f i GuHeightField.obj
 0001:001564d0       ??1?$BitMapBase@VNonTrackingAllocator@shdfnd@physx@@@Cm@physx@@QEAA@XZ 00000001801574d0 f i GuHeightField.obj
 0001:00156530       ??9?$PxFlags@W4Enum@PxHeightFieldFlag@physx@@G@physx@@QEBA_NAEBV01@@Z 0000000180157530 f i GuHeightField.obj
 0001:00156580       ??_EHeightField@Gu@physx@@UEAAPEAXI@Z 0000000180157580 f i GuHeightField.obj
 0001:0015668c       ??_EHeightField@Gu@physx@@WBA@EAAPEAXI@Z 000000018015768c f i GuHeightField.obj
 0001:001566a0       ?PxMemSet@physx@@YAPEAXPEAXHI@Z 00000001801576a0 f i GuHeightField.obj
 0001:001566e0       ?anyHole@@YAIIG@Z          00000001801576e0 f i GuHeightField.obj
 0001:00156760       ?clear@?$BitMapBase@VNonTrackingAllocator@shdfnd@physx@@@Cm@physx@@QEAAXXZ 0000000180157760 f i GuHeightField.obj
 0001:001567a0       ?clearBit@?$PxBitAndDataT@E$0IA@@physx@@QEAAXXZ 00000001801577a0 f i GuHeightField.obj
 0001:001567c0       ?extendUninitialized@?$BitMapBase@VNonTrackingAllocator@shdfnd@physx@@@Cm@physx@@IEAAXI@Z 00000001801577c0 f i GuHeightField.obj
 0001:00156890       ?flip@physx@@YAXAEAF@Z     0000000180157890 f i GuHeightField.obj
 0001:00156910       ?getMaterialIndex01@HeightField@Gu@physx@@QEBAII@Z 0000000180157910 f i GuHeightField.obj
 0001:00156980       ?getMaxHeight@HeightField@Gu@physx@@QEBAMXZ 0000000180157980 f i GuHeightField.obj
 0001:001569a0       ?getMinHeight@HeightField@Gu@physx@@QEBAMXZ 00000001801579a0 f i GuHeightField.obj
 0001:001569c0       ?getWordCount@?$BitMapBase@VNonTrackingAllocator@shdfnd@physx@@@Cm@physx@@QEBAIXZ 00000001801579c0 f i GuHeightField.obj
 0001:001569e0       ?isConvexVertex@HeightField@Gu@physx@@QEBA_NIII@Z 00000001801579e0 f i GuHeightField.obj
 0001:00156da0       ?isInUserMemory@?$BitMapBase@VNonTrackingAllocator@shdfnd@physx@@@Cm@physx@@QEBAIXZ 0000000180157da0 f i GuHeightField.obj
 0001:00156dc0       ?isValid@PxHeightFieldDesc@physx@@QEBA_NXZ 0000000180157dc0 f i GuHeightField.obj
 0001:00156ed0       ?requires@HeightField@Gu@physx@@UEAAXAEAVPxProcessPxBaseCallback@3@@Z 0000000180157ed0 f i GuHeightField.obj
 0001:00156ee0       ?resizeAndClear@?$BitMapBase@VNonTrackingAllocator@shdfnd@physx@@@Cm@physx@@QEAAXI@Z 0000000180157ee0 f i GuHeightField.obj
 0001:00156f40       ?resolveReferences@HeightField@Gu@physx@@QEAAXAEAVPxDeserializationContext@3@@Z 0000000180157f40 f i GuHeightField.obj
 0001:00156f50       ?set@?$BitMapBase@VNonTrackingAllocator@shdfnd@physx@@@Cm@physx@@QEAAXI@Z 0000000180157f50 f i GuHeightField.obj
 0001:00157040       ?setBit@?$PxBitAndDataT@E$0IA@@physx@@QEAAXXZ 0000000180158040 f i GuHeightField.obj
 0001:00157060       ?test@?$BitMapBase@VNonTrackingAllocator@shdfnd@physx@@@Cm@physx@@QEBAHI@Z 0000000180158060 f i GuHeightField.obj
 0001:001571b0       ?computeLocalBounds@HeightFieldUtil@Gu@physx@@QEBAXAEAVPxBounds3@3@@Z 00000001801581b0 f   GuHeightFieldUtil.obj
 0001:00157350       ?isCollisionEdge@HeightFieldUtil@Gu@physx@@QEBA_NI@Z 0000000180158350 f   GuHeightFieldUtil.obj
 0001:001574a0       ?isCollisionEdge@HeightFieldUtil@Gu@physx@@QEBA_NIIPEIBIIII@Z 00000001801584a0 f   GuHeightFieldUtil.obj
 0001:00157610       ?isBoundaryEdge@HeightFieldUtil@Gu@physx@@QEBA_NI@Z 0000000180158610 f   GuHeightFieldUtil.obj
 0001:00157730       ?getFaceIndexAtShapePoint@HeightFieldUtil@Gu@physx@@QEBAIMM@Z 0000000180158730 f   GuHeightFieldUtil.obj
 0001:001577e0       ?getFaceIndexAtShapePointNoTest@HeightFieldUtil@Gu@physx@@QEBAIMM@Z 00000001801587e0 f   GuHeightFieldUtil.obj
 0001:001578d0       ?getFaceIndexAtShapePointNoTest2@HeightFieldUtil@Gu@physx@@QEBAIIMM@Z 00000001801588d0 f   GuHeightFieldUtil.obj
 0001:00157950       ?getFaceIndexAtTriangleIndex@HeightFieldUtil@Gu@physx@@QEBAII@Z 0000000180158950 f   GuHeightFieldUtil.obj
 0001:001579a0       ?getSmoothNormalAtShapePoint@HeightFieldUtil@Gu@physx@@QEBA?AVPxVec3@3@MM@Z 00000001801589a0 f   GuHeightFieldUtil.obj
 0001:00157f00       ?getVertexNormal@HeightFieldUtil@Gu@physx@@QEBA?AVPxVec3@3@III@Z 0000000180158f00 f   GuHeightFieldUtil.obj
 0001:00158190       ?getVertexFaceIndex@HeightFieldUtil@Gu@physx@@QEBAIIII@Z 0000000180159190 f   GuHeightFieldUtil.obj
 0001:00158370       ?getEdge@HeightFieldUtil@Gu@physx@@QEBAXIIIIAEAVPxVec3@3@0@Z 0000000180159370 f   GuHeightFieldUtil.obj
 0001:00158a70       ?getEdgeFaceIndex@HeightFieldUtil@Gu@physx@@QEBAII@Z 0000000180159a70 f   GuHeightFieldUtil.obj
 0001:00158b50       ?getEdgeFaceIndex@HeightFieldUtil@Gu@physx@@QEBAIIIII@Z 0000000180159b50 f   GuHeightFieldUtil.obj
 0001:00158c50       ?getEdgeFaceIndex@HeightFieldUtil@Gu@physx@@QEBAIIIPEIBI@Z 0000000180159c50 f   GuHeightFieldUtil.obj
 0001:00158d40       ?findClosestPointsOnCell@HeightFieldUtil@Gu@physx@@QEBAIIIVPxVec3@3@PEIAV43@PEIAI_N33@Z 0000000180159d40 f   GuHeightFieldUtil.obj
 0001:00159bf0       ?findProjectionOnTriangle@HeightFieldUtil@Gu@physx@@QEBA_NIIIAEBVPxVec3@3@AEAV43@@Z 000000018015abf0 f   GuHeightFieldUtil.obj
 0001:0015a320       ?findClosestPointOnEdge@HeightFieldUtil@Gu@physx@@QEBAMIIIIAEBVPxVec3@3@AEAV43@@Z 000000018015b320 f   GuHeightFieldUtil.obj
 0001:0015ad10       ?getTriangle@HeightFieldUtil@Gu@physx@@QEBAIAEBVPxTransform@3@AEAVPxTriangle@3@PEAI2I_N3@Z 000000018015bd10 f   GuHeightFieldUtil.obj
 0001:0015b290       ?overlapAABBTriangles@HeightFieldUtil@Gu@physx@@QEBA_NAEBVPxTransform@3@AEBVPxBounds3@3@IPEAV?$EntityReport@I@23@@Z 000000018015c290 f   GuHeightFieldUtil.obj
 0001:0015cb40       ??B?$PxFlags@W4Enum@PxHeightFieldFlag@physx@@G@physx@@QEBAIXZ 000000018015db40 f i GuHeightFieldUtil.obj
 0001:0015cb60       ?getEdgeTriangleIndices@HeightField@Gu@physx@@QEBAIIQEAIIII@Z 000000018015db60 f i GuHeightFieldUtil.obj
 0001:0015cda0       ?getFlagsFast@HeightField@Gu@physx@@QEBAIXZ 000000018015dda0 f i GuHeightFieldUtil.obj
 0001:0015cdd0       ?getTriangleAdjacencyIndices@HeightField@Gu@physx@@QEBAXIIIIAEAI00@Z 000000018015ddd0 f i GuHeightFieldUtil.obj
 0001:0015d0f0       ?getTriangleIndex2@HeightField@Gu@physx@@QEBAIIMM@Z 000000018015e0f0 f i GuHeightFieldUtil.obj
 0001:0015d1b0       ?getTriangleIndex@HeightField@Gu@physx@@QEBAIMM@Z 000000018015e1b0 f i GuHeightFieldUtil.obj
 0001:0015d230       ?getVertex@HeightField@Gu@physx@@QEBA?AVPxVec3@3@I@Z 000000018015e230 f i GuHeightFieldUtil.obj
 0001:0015d2d0       ?isConvexEdge@HeightField@Gu@physx@@QEBA_NI@Z 000000018015e2d0 f i GuHeightFieldUtil.obj
 0001:0015d360       ?isConvexEdge@HeightField@Gu@physx@@QEBA_NIIII@Z 000000018015e360 f i GuHeightFieldUtil.obj
 0001:0015daa0       ?isEmpty@PxBounds3@physx@@QEBA_NXZ 000000018015eaa0 f i GuHeightFieldUtil.obj
 0001:0015db60       ?isValidTriangle@HeightField@Gu@physx@@QEBA_NI@Z 000000018015eb60 f i GuHeightFieldUtil.obj
 0001:0015dbf0       ?checkOverlapAABB_heightFieldGeom@Gu@physx@@YA_NAEBVPxGeometry@2@AEBVPxTransform@2@AEBVPxBounds3@2@@Z 000000018015ebf0 f   GuOverlapTestsHF.obj
 0001:0015ff10       ?GeomOverlapCallback_SphereHeightfield@@YA_NAEBVPxGeometry@physx@@AEBVPxTransform@2@01PEAUTriggerCache@Gu@2@@Z 0000000180160f10 f   GuOverlapTestsHF.obj
 0001:00160080       ?GeomOverlapCallback_CapsuleHeightfield@@YA_NAEBVPxGeometry@physx@@AEBVPxTransform@2@01PEAUTriggerCache@Gu@2@@Z 0000000180161080 f   GuOverlapTestsHF.obj
 0001:001601c0       ?GeomOverlapCallback_BoxHeightfield@@YA_NAEBVPxGeometry@physx@@AEBVPxTransform@2@01PEAUTriggerCache@Gu@2@@Z 00000001801611c0 f   GuOverlapTestsHF.obj
 0001:00160340       ?GeomOverlapCallback_ConvexHeightfield@@YA_NAEBVPxGeometry@physx@@AEBVPxTransform@2@01PEAUTriggerCache@Gu@2@@Z 0000000180161340 f   GuOverlapTestsHF.obj
 0001:00160eb0       ??$traceSegment@UTriggerTraceSegmentCallback@Gu@physx@@$0A@$0A@@HeightFieldUtil@Gu@physx@@QEBAXAEBVPxVec3@2@0MPEAUTriggerTraceSegmentCallback@12@AEBVPxBounds3@2@_NPEBV32@@Z 0000000180161eb0 f i GuOverlapTestsHF.obj
 0001:001638d0       ??0?$OverlapTraceSegment@UTriggerTraceSegmentCallback@Gu@physx@@@HeightFieldUtil@Gu@physx@@QEAA@AEBV123@AEBVHeightField@23@@Z 00000001801648d0 f i GuOverlapTestsHF.obj
 0001:00163930       ??0Matrix34@Cm@physx@@QEAA@AEBVPxMat33@2@@Z 0000000180164930 f i GuOverlapTestsHF.obj
 0001:00163980       ??0OverlapHeightfieldTraceSegmentHelper@Gu@physx@@QEAA@AEBVHeightFieldUtil@12@@Z 0000000180164980 f i GuOverlapTestsHF.obj
 0001:001639f0       ??0TriggerTraceSegmentCallback@Gu@physx@@QEAA@XZ 00000001801649f0 f i GuOverlapTestsHF.obj
 0001:00163a10       ?V4AllGrtr@aos@shdfnd@physx@@YAIT__m128@@0@Z 0000000180164a10 f i GuOverlapTestsHF.obj
 0001:00163a80       ?addIndex@?$OverlapTraceSegment@UTriggerTraceSegmentCallback@Gu@physx@@@HeightFieldUtil@Gu@physx@@QEAA_NI@Z 0000000180164a80 f i GuOverlapTestsHF.obj
 0001:00163b00       ?computeRectangleDifference@?$OverlapTraceSegment@UTriggerTraceSegmentCallback@Gu@physx@@@HeightFieldUtil@Gu@physx@@QEAAXAEBUOverlapRectangle@1234@0AEAUOverlapLine@1234@@Z 0000000180164b00 f i GuOverlapTestsHF.obj
 0001:00163c40       ?faceHit@TriggerTraceSegmentCallback@Gu@physx@@QEAA_NAEBVHeightFieldUtil@23@AEBVPxVec3@3@IMM@Z 0000000180164c40 f i GuOverlapTestsHF.obj
 0001:00163c70       ?getInverse@PsTransformV@aos@shdfnd@physx@@QEBA?AV1234@XZ 0000000180164c70 f i GuOverlapTestsHF.obj
 0001:00163dd0       ?init@?$OverlapTraceSegment@UTriggerTraceSegmentCallback@Gu@physx@@@HeightFieldUtil@Gu@physx@@QEAA_NHHHHHPEAUTriggerTraceSegmentCallback@34@@Z 0000000180164dd0 f i GuOverlapTestsHF.obj
 0001:00163f50       ?initialized@?$OverlapTraceSegment@UTriggerTraceSegmentCallback@Gu@physx@@@HeightFieldUtil@Gu@physx@@QEBA_NXZ 0000000180164f50 f i GuOverlapTestsHF.obj
 0001:00163f70       ?invalidate@OverlapRectangle@?$OverlapTraceSegment@UTriggerTraceSegmentCallback@Gu@physx@@@HeightFieldUtil@Gu@physx@@QEAAXXZ 0000000180164f70 f i GuOverlapTestsHF.obj
 0001:00163fc0       ?onEvent@TriggerTraceSegmentCallback@Gu@physx@@QEAA_NIPEAI@Z 0000000180164fc0 f i GuOverlapTestsHF.obj
 0001:00163fe0       ?prepare@?$OverlapTraceSegment@UTriggerTraceSegmentCallback@Gu@physx@@@HeightFieldUtil@Gu@physx@@QEAAXAEBVPxVec3@4@00AEAM1@Z 0000000180164fe0 f i GuOverlapTestsHF.obj
 0001:00164330       ?reportOverlaps@?$OverlapTraceSegment@UTriggerTraceSegmentCallback@Gu@physx@@@HeightFieldUtil@Gu@physx@@QEAA_NXZ 0000000180165330 f i GuOverlapTestsHF.obj
 0001:001643b0       ?step@?$OverlapTraceSegment@UTriggerTraceSegmentCallback@Gu@physx@@@HeightFieldUtil@Gu@physx@@QEAA_NHH@Z 00000001801653b0 f i GuOverlapTestsHF.obj
 0001:001644e0       ?testVertexIndex@?$OverlapTraceSegment@UTriggerTraceSegmentCallback@Gu@physx@@@HeightFieldUtil@Gu@physx@@QEAA_NI@Z 00000001801654e0 f i GuOverlapTestsHF.obj
 0001:001646e0       ?traceSegment@OverlapHeightfieldTraceSegmentHelper@Gu@physx@@QEBAXAEBVPxVec3@3@0PEAUTriggerTraceSegmentCallback@23@@Z 00000001801656e0 f i GuOverlapTestsHF.obj
 0001:00164790       ?underFaceHit@TriggerTraceSegmentCallback@Gu@physx@@QEAA_NAEBVHeightFieldUtil@23@AEBVPxVec3@3@1MMMI@Z 0000000180165790 f i GuOverlapTestsHF.obj
 0001:001647b0       ?visitCells@?$OverlapTraceSegment@UTriggerTraceSegmentCallback@Gu@physx@@@HeightFieldUtil@Gu@physx@@QEAA_NAEBUOverlapLine@1234@@Z 00000001801657b0 f i GuOverlapTestsHF.obj
 0001:001649f0       ?visitCells@?$OverlapTraceSegment@UTriggerTraceSegmentCallback@Gu@physx@@@HeightFieldUtil@Gu@physx@@QEAA_NAEBUOverlapRectangle@1234@@Z 00000001801659f0 f i GuOverlapTestsHF.obj
 0001:00165230       ?sweepCapsule_HeightFieldGeom@@YA_NAEBVPxGeometry@physx@@AEBVPxTransform@2@AEBVPxCapsuleGeometry@2@1AEBVCapsule@Gu@2@AEBVPxVec3@2@MAEAUPxSweepHit@2@V?$PxFlags@W4Enum@PxHitFlag@physx@@G@2@M@Z 0000000180166230 f   GuSweepsHF.obj
 0001:00165540       ?sweepConvex_HeightFieldGeom@@YA_NAEBVPxGeometry@physx@@AEBVPxTransform@2@AEBVPxConvexMeshGeometry@2@1AEBVPxVec3@2@MAEAUPxSweepHit@2@V?$PxFlags@W4Enum@PxHitFlag@physx@@G@2@M@Z 0000000180166540 f   GuSweepsHF.obj
 0001:001659b0       ?sweepBox_HeightFieldGeom@@YA_NAEBVPxGeometry@physx@@AEBVPxTransform@2@AEBVPxBoxGeometry@2@1AEBVBox@Gu@2@AEBVPxVec3@2@MAEAUPxSweepHit@2@V?$PxFlags@W4Enum@PxHitFlag@physx@@G@2@M@Z 00000001801669b0 f   GuSweepsHF.obj
 0001:00166280       ??$PX_UNUSED@V?$PxFlags@W4Enum@PxHitFlag@physx@@G@physx@@@@YAXAEBV?$PxFlags@W4Enum@PxHitFlag@physx@@G@physx@@@Z 0000000180167280 f i GuSweepsHF.obj
 0001:00166290       ??$traceSegment@VBoxTraceSegmentReport@@$0A@$00@HeightFieldUtil@Gu@physx@@QEBAXAEBVPxVec3@2@0MPEAVBoxTraceSegmentReport@@AEBVPxBounds3@2@_NPEBV32@@Z 0000000180167290 f i GuSweepsHF.obj
 0001:00168cc0       ??$traceSegment@VBoxTraceSegmentReport@@@HeightFieldTraceSegmentSweepHelper@@QEBAXAEBVPxVec3@physx@@0MPEAVBoxTraceSegmentReport@@@Z 0000000180169cc0 f i GuSweepsHF.obj
 0001:00168d40       ??$traceSegment@VCapsuleTraceSegmentReport@@$0A@$00@HeightFieldUtil@Gu@physx@@QEBAXAEBVPxVec3@2@0MPEAVCapsuleTraceSegmentReport@@AEBVPxBounds3@2@_NPEBV32@@Z 0000000180169d40 f i GuSweepsHF.obj
 0001:0016b770       ??$traceSegment@VCapsuleTraceSegmentReport@@@HeightFieldTraceSegmentSweepHelper@@QEBAXAEBVPxVec3@physx@@0MPEAVCapsuleTraceSegmentReport@@@Z 000000018016c770 f i GuSweepsHF.obj
 0001:0016b7f0       ??$traceSegment@VConvexTraceSegmentReport@@$0A@$00@HeightFieldUtil@Gu@physx@@QEBAXAEBVPxVec3@2@0MPEAVConvexTraceSegmentReport@@AEBVPxBounds3@2@_NPEBV32@@Z 000000018016c7f0 f i GuSweepsHF.obj
 0001:0016e220       ??$traceSegment@VConvexTraceSegmentReport@@@HeightFieldTraceSegmentSweepHelper@@QEBAXAEBVPxVec3@physx@@0MPEAVConvexTraceSegmentReport@@@Z 000000018016f220 f i GuSweepsHF.obj
 0001:0016e2a0       ??0?$OverlapTraceSegment@VBoxTraceSegmentReport@@@HeightFieldUtil@Gu@physx@@QEAA@AEBV123@AEBVHeightField@23@@Z 000000018016f2a0 f i GuSweepsHF.obj
 0001:0016e300       ??0?$OverlapTraceSegment@VCapsuleTraceSegmentReport@@@HeightFieldUtil@Gu@physx@@QEAA@AEBV123@AEBVHeightField@23@@Z 000000018016f300 f i GuSweepsHF.obj
 0001:0016e360       ??0?$OverlapTraceSegment@VConvexTraceSegmentReport@@@HeightFieldUtil@Gu@physx@@QEAA@AEBV123@AEBVHeightField@23@@Z 000000018016f360 f i GuSweepsHF.obj
 0001:0016e3c0       ??0BoxTraceSegmentReport@@QEAA@AEBVHeightFieldUtil@Gu@physx@@V?$PxFlags@W4Enum@PxHitFlag@physx@@G@3@AEBVPsTransformV@aos@shdfnd@3@AEBVPxTransform@3@AEBVBoxV@23@AEBVPxVec3@3@AEAUPxSweepHit@3@M@Z 000000018016f3c0 f i GuSweepsHF.obj
 0001:0016e4e0       ??0CapsuleTraceSegmentReport@@QEAA@AEBVHeightFieldUtil@Gu@physx@@V?$PxFlags@W4Enum@PxHitFlag@physx@@G@3@AEBVCapsule@23@AEBVPxVec3@3@AEAUPxSweepHit@3@AEBVPxTransform@3@M@Z 000000018016f4e0 f i GuSweepsHF.obj
 0001:0016e5b0       ??0ConvexTraceSegmentReport@@QEAA@AEBVHeightFieldUtil@Gu@physx@@AEBUConvexHullData@23@AEBVPxMeshScale@3@AEBVPxTransform@3@3AEBVPxVec3@3@MV?$PxFlags@W4Enum@PxHitFlag@physx@@G@3@M@Z 000000018016f5b0 f i GuSweepsHF.obj
 0001:0016eb40       ??0HeightFieldTraceSegmentReport@@QEAA@AEBVHeightFieldUtil@Gu@physx@@V?$PxFlags@W4Enum@PxHitFlag@physx@@G@3@@Z 000000018016fb40 f i GuSweepsHF.obj
 0001:0016ec80       ??0HeightFieldTraceSegmentSweepHelper@@QEAA@AEBVHeightFieldUtil@Gu@physx@@AEBVPxVec3@3@@Z 000000018016fc80 f i GuSweepsHF.obj
 0001:0016ed70       ??0PxTransform@physx@@QEAA@XZ 000000018016fd70 f i GuSweepsHF.obj
 0001:0016edb0       ??1BoxTraceSegmentReport@@UEAA@XZ 000000018016fdb0 f i GuSweepsHF.obj
 0001:0016edd0       ??1CapsuleTraceSegmentReport@@UEAA@XZ 000000018016fdd0 f i GuSweepsHF.obj
 0001:0016edf0       ??1ConvexTraceSegmentReport@@UEAA@XZ 000000018016fdf0 f i GuSweepsHF.obj
 0001:0016ee30       ??1HeightFieldTraceSegmentReport@@UEAA@XZ 000000018016fe30 f i GuSweepsHF.obj
 0001:0016ee50       ??_EBoxTraceSegmentReport@@UEAAPEAXI@Z 000000018016fe50 f i GuSweepsHF.obj
 0001:0016ee50       ??_GBoxTraceSegmentReport@@UEAAPEAXI@Z 000000018016fe50 f i GuSweepsHF.obj
 0001:0016eea0       ??_GCapsuleTraceSegmentReport@@UEAAPEAXI@Z 000000018016fea0 f i GuSweepsHF.obj
 0001:0016eea0       ??_ECapsuleTraceSegmentReport@@UEAAPEAXI@Z 000000018016fea0 f i GuSweepsHF.obj
 0001:0016eef0       ??_GConvexTraceSegmentReport@@UEAAPEAXI@Z 000000018016fef0 f i GuSweepsHF.obj
 0001:0016eef0       ??_EConvexTraceSegmentReport@@UEAAPEAXI@Z 000000018016fef0 f i GuSweepsHF.obj
 0001:0016ef40       ??_GHeightFieldTraceSegmentReport@@UEAAPEAXI@Z 000000018016ff40 f i GuSweepsHF.obj
 0001:0016ef40       ??_EHeightFieldTraceSegmentReport@@UEAAPEAXI@Z 000000018016ff40 f i GuSweepsHF.obj
 0001:0016ef90       ?QuatVLoadA@aos@shdfnd@physx@@YA?AT__m128@@PEBM@Z 000000018016ff90 f i GuSweepsHF.obj
 0001:0016efc0       ?V3LoadA@aos@shdfnd@physx@@YA?AT__m128@@PEBM@Z 000000018016ffc0 f i GuSweepsHF.obj
 0001:0016f080       ?addIndex@?$OverlapTraceSegment@VBoxTraceSegmentReport@@@HeightFieldUtil@Gu@physx@@QEAA_NI@Z 0000000180170080 f i GuSweepsHF.obj
 0001:0016f100       ?addIndex@?$OverlapTraceSegment@VCapsuleTraceSegmentReport@@@HeightFieldUtil@Gu@physx@@QEAA_NI@Z 0000000180170100 f i GuSweepsHF.obj
 0001:0016f180       ?addIndex@?$OverlapTraceSegment@VConvexTraceSegmentReport@@@HeightFieldUtil@Gu@physx@@QEAA_NI@Z 0000000180170180 f i GuSweepsHF.obj
 0001:0016f200       ?computeRectangleDifference@?$OverlapTraceSegment@VBoxTraceSegmentReport@@@HeightFieldUtil@Gu@physx@@QEAAXAEBUOverlapRectangle@1234@0AEAUOverlapLine@1234@@Z 0000000180170200 f i GuSweepsHF.obj
 0001:0016f340       ?computeRectangleDifference@?$OverlapTraceSegment@VCapsuleTraceSegmentReport@@@HeightFieldUtil@Gu@physx@@QEAAXAEBUOverlapRectangle@1234@0AEAUOverlapLine@1234@@Z 0000000180170340 f i GuSweepsHF.obj
 0001:0016f480       ?computeRectangleDifference@?$OverlapTraceSegment@VConvexTraceSegmentReport@@@HeightFieldUtil@Gu@physx@@QEAAXAEBUOverlapRectangle@1234@0AEAUOverlapLine@1234@@Z 0000000180170480 f i GuSweepsHF.obj
 0001:0016f5c0       ?faceHit@HeightFieldTraceSegmentReport@@QEAA_NAEBVHeightFieldUtil@Gu@physx@@AEBVPxVec3@4@IMM@Z 00000001801705c0 f i GuSweepsHF.obj
 0001:0016f5e0       ?finalizeHit@BoxTraceSegmentReport@@QEAA_NAEAUPxSweepHit@physx@@AEBVPxHeightFieldGeometry@3@AEBVPxTransform@3@2AEBVBox@Gu@3@AEBVPxVec3@3@MM@Z 00000001801705e0 f i GuSweepsHF.obj
 0001:0016f980       ?finalizeHit@CapsuleTraceSegmentReport@@QEAA_NAEAUPxSweepHit@physx@@AEBVPxHeightFieldGeometry@3@AEBVPxTransform@3@AEBVCapsule@Gu@3@3AEBVPxVec3@3@@Z 0000000180170980 f i GuSweepsHF.obj
 0001:0016fcd0       ?finalizeHit@ConvexTraceSegmentReport@@QEAA_NAEAUPxSweepHit@physx@@AEBVPxHeightFieldGeometry@3@AEBVPxTransform@3@AEBVPxConvexMeshGeometry@3@2AEBVPxVec3@3@M@Z 0000000180170cd0 f i GuSweepsHF.obj
 0001:0016ff10       ?init@?$OverlapTraceSegment@VBoxTraceSegmentReport@@@HeightFieldUtil@Gu@physx@@QEAA_NHHHHHPEAVBoxTraceSegmentReport@@@Z 0000000180170f10 f i GuSweepsHF.obj
 0001:00170090       ?init@?$OverlapTraceSegment@VCapsuleTraceSegmentReport@@@HeightFieldUtil@Gu@physx@@QEAA_NHHHHHPEAVCapsuleTraceSegmentReport@@@Z 0000000180171090 f i GuSweepsHF.obj
 0001:00170210       ?init@?$OverlapTraceSegment@VConvexTraceSegmentReport@@@HeightFieldUtil@Gu@physx@@QEAA_NHHHHHPEAVConvexTraceSegmentReport@@@Z 0000000180171210 f i GuSweepsHF.obj
 0001:00170390       ?initialized@?$OverlapTraceSegment@VBoxTraceSegmentReport@@@HeightFieldUtil@Gu@physx@@QEBA_NXZ 0000000180171390 f i GuSweepsHF.obj
 0001:001703b0       ?initialized@?$OverlapTraceSegment@VCapsuleTraceSegmentReport@@@HeightFieldUtil@Gu@physx@@QEBA_NXZ 00000001801713b0 f i GuSweepsHF.obj
 0001:001703d0       ?initialized@?$OverlapTraceSegment@VConvexTraceSegmentReport@@@HeightFieldUtil@Gu@physx@@QEBA_NXZ 00000001801713d0 f i GuSweepsHF.obj
 0001:001703f0       ?invalidate@OverlapRectangle@?$OverlapTraceSegment@VBoxTraceSegmentReport@@@HeightFieldUtil@Gu@physx@@QEAAXXZ 00000001801713f0 f i GuSweepsHF.obj
 0001:00170440       ?invalidate@OverlapRectangle@?$OverlapTraceSegment@VCapsuleTraceSegmentReport@@@HeightFieldUtil@Gu@physx@@QEAAXXZ 0000000180171440 f i GuSweepsHF.obj
 0001:00170490       ?invalidate@OverlapRectangle@?$OverlapTraceSegment@VConvexTraceSegmentReport@@@HeightFieldUtil@Gu@physx@@QEAAXXZ 0000000180171490 f i GuSweepsHF.obj
 0001:001704e0       ?onEvent@BoxTraceSegmentReport@@UEAA_NIPEAI@Z 00000001801714e0 f i GuSweepsHF.obj
 0001:00170d80       ?onEvent@CapsuleTraceSegmentReport@@UEAA_NIPEAI@Z 0000000180171d80 f i GuSweepsHF.obj
 0001:001710e0       ?onEvent@ConvexTraceSegmentReport@@UEAA_NIPEAI@Z 00000001801720e0 f i GuSweepsHF.obj
 0001:00171400       ?prepare@?$OverlapTraceSegment@VBoxTraceSegmentReport@@@HeightFieldUtil@Gu@physx@@QEAAXAEBVPxVec3@4@00AEAM1@Z 0000000180172400 f i GuSweepsHF.obj
 0001:00171750       ?prepare@?$OverlapTraceSegment@VCapsuleTraceSegmentReport@@@HeightFieldUtil@Gu@physx@@QEAAXAEBVPxVec3@4@00AEAM1@Z 0000000180172750 f i GuSweepsHF.obj
 0001:00171aa0       ?prepare@?$OverlapTraceSegment@VConvexTraceSegmentReport@@@HeightFieldUtil@Gu@physx@@QEAAXAEBVPxVec3@4@00AEAM1@Z 0000000180172aa0 f i GuSweepsHF.obj
 0001:00171df0       ?reportOverlaps@?$OverlapTraceSegment@VBoxTraceSegmentReport@@@HeightFieldUtil@Gu@physx@@QEAA_NXZ 0000000180172df0 f i GuSweepsHF.obj
 0001:00171e90       ?reportOverlaps@?$OverlapTraceSegment@VCapsuleTraceSegmentReport@@@HeightFieldUtil@Gu@physx@@QEAA_NXZ 0000000180172e90 f i GuSweepsHF.obj
 0001:00171f30       ?reportOverlaps@?$OverlapTraceSegment@VConvexTraceSegmentReport@@@HeightFieldUtil@Gu@physx@@QEAA_NXZ 0000000180172f30 f i GuSweepsHF.obj
 0001:00171fd0       ?step@?$OverlapTraceSegment@VBoxTraceSegmentReport@@@HeightFieldUtil@Gu@physx@@QEAA_NHH@Z 0000000180172fd0 f i GuSweepsHF.obj
 0001:00172100       ?step@?$OverlapTraceSegment@VCapsuleTraceSegmentReport@@@HeightFieldUtil@Gu@physx@@QEAA_NHH@Z 0000000180173100 f i GuSweepsHF.obj
 0001:00172230       ?step@?$OverlapTraceSegment@VConvexTraceSegmentReport@@@HeightFieldUtil@Gu@physx@@QEAA_NHH@Z 0000000180173230 f i GuSweepsHF.obj
 0001:00172360       ?testVertexIndex@?$OverlapTraceSegment@VBoxTraceSegmentReport@@@HeightFieldUtil@Gu@physx@@QEAA_NI@Z 0000000180173360 f i GuSweepsHF.obj
 0001:00172560       ?testVertexIndex@?$OverlapTraceSegment@VCapsuleTraceSegmentReport@@@HeightFieldUtil@Gu@physx@@QEAA_NI@Z 0000000180173560 f i GuSweepsHF.obj
 0001:00172760       ?testVertexIndex@?$OverlapTraceSegment@VConvexTraceSegmentReport@@@HeightFieldUtil@Gu@physx@@QEAA_NI@Z 0000000180173760 f i GuSweepsHF.obj
 0001:00172960       ?underFaceHit@HeightFieldTraceSegmentReport@@QEAA_NAEBVHeightFieldUtil@Gu@physx@@AEBVPxVec3@4@1MMMI@Z 0000000180173960 f i GuSweepsHF.obj
 0001:00172980       ?visitCells@?$OverlapTraceSegment@VBoxTraceSegmentReport@@@HeightFieldUtil@Gu@physx@@QEAA_NAEBUOverlapLine@1234@@Z 0000000180173980 f i GuSweepsHF.obj
 0001:00172bc0       ?visitCells@?$OverlapTraceSegment@VBoxTraceSegmentReport@@@HeightFieldUtil@Gu@physx@@QEAA_NAEBUOverlapRectangle@1234@@Z 0000000180173bc0 f i GuSweepsHF.obj
 0001:00172d00       ?visitCells@?$OverlapTraceSegment@VCapsuleTraceSegmentReport@@@HeightFieldUtil@Gu@physx@@QEAA_NAEBUOverlapLine@1234@@Z 0000000180173d00 f i GuSweepsHF.obj
 0001:00172f40       ?visitCells@?$OverlapTraceSegment@VCapsuleTraceSegmentReport@@@HeightFieldUtil@Gu@physx@@QEAA_NAEBUOverlapRectangle@1234@@Z 0000000180173f40 f i GuSweepsHF.obj
 0001:00173080       ?visitCells@?$OverlapTraceSegment@VConvexTraceSegmentReport@@@HeightFieldUtil@Gu@physx@@QEAA_NAEBUOverlapLine@1234@@Z 0000000180174080 f i GuSweepsHF.obj
 0001:001732c0       ?visitCells@?$OverlapTraceSegment@VConvexTraceSegmentReport@@@HeightFieldUtil@Gu@physx@@QEAA_NAEBUOverlapRectangle@1234@@Z 00000001801742c0 f i GuSweepsHF.obj
 0001:00173400       ?pcmContactBoxBox@Gu@physx@@YA_NAEBVGeometryUnion@12@0AEBVPxTransform@2@1AEBUNarrowPhaseParams@12@AEAUCache@12@AEAVContactBuffer@12@PEAVRenderOutput@Cm@2@@Z 0000000180174400 f   GuPCMContactBoxBox.obj
 0001:0017e290       ??$PX_UNUSED@PEAVMeshPersistentContact@Gu@physx@@@@YAXAEBQEAVMeshPersistentContact@Gu@physx@@@Z 000000018017f290 f i GuPCMContactBoxBox.obj
 0001:0017e2a0       ??$gjkPenetration@U?$RelativeConvex@VBoxV@Gu@physx@@@Gu@physx@@U?$LocalConvex@VBoxV@Gu@physx@@@23@@Gu@physx@@YA?AW4GjkStatus@01@AEBU?$RelativeConvex@VBoxV@Gu@physx@@@01@AEBU?$LocalConvex@VBoxV@Gu@physx@@@01@AEBT__m128@@2AEAT5@333PEIAE4AEAE_N@Z 000000018017f2a0 f i GuPCMContactBoxBox.obj
 0001:00180140       ??0?$RelativeConvex@VBoxV@Gu@physx@@@Gu@physx@@QEAA@AEBVBoxV@12@AEBVPsMatTransformV@aos@shdfnd@2@@Z 0000000180181140 f i GuPCMContactBoxBox.obj
 0001:00180200       ??0MeshPersistentContact@Gu@physx@@QEAA@XZ 0000000180181200 f i GuPCMContactBoxBox.obj
 0001:00180230       ??0MultiplePersistentContactManifold@Gu@physx@@QEAA@XZ 0000000180181230 f i GuPCMContactBoxBox.obj
 0001:001802d0       ??0PersistentContact@Gu@physx@@QEAA@XZ 00000001801812d0 f i GuPCMContactBoxBox.obj
 0001:001802e0       ??0SinglePersistentContactManifold@Gu@physx@@QEAA@XZ 00000001801812e0 f i GuPCMContactBoxBox.obj
 0001:00180330       ??1?$RelativeConvex@VBoxV@Gu@physx@@@Gu@physx@@UEAA@XZ 0000000180181330 f i GuPCMContactBoxBox.obj
 0001:00180350       ??4MultiplePersistentContactManifold@Gu@physx@@QEAAAEAV012@$$QEAV012@@Z 0000000180181350 f i GuPCMContactBoxBox.obj
 0001:001804d0       ??4MultiplePersistentContactManifold@Gu@physx@@QEAAAEAV012@AEBV012@@Z 00000001801814d0 f i GuPCMContactBoxBox.obj
 0001:00180500       ??_G?$RelativeConvex@VBoxV@Gu@physx@@@Gu@physx@@UEAAPEAXI@Z 0000000180181500 f i GuPCMContactBoxBox.obj
 0001:00180500       ??_E?$RelativeConvex@VBoxV@Gu@physx@@@Gu@physx@@UEAAPEAXI@Z 0000000180181500 f i GuPCMContactBoxBox.obj
 0001:00180550       ?BTTFT@aos@shdfnd@physx@@YA?AT__m128@@XZ 0000000180181550 f i GuPCMContactBoxBox.obj
 0001:001805a0       ?CalculatePCMBoxMargin@Gu@physx@@YA?AT__m128@@AEBT3@@Z 00000001801815a0 f i GuPCMContactBoxBox.obj
 0001:00180650       ?Invalidate@PsTransformV@aos@shdfnd@physx@@QEAAXXZ 0000000180181650 f i GuPCMContactBoxBox.obj
 0001:001806c0       ?QuatDot@aos@shdfnd@physx@@YA?AT__m128@@T4@0@Z 00000001801816c0 f i GuPCMContactBoxBox.obj
 0001:00180720       ?V3ExtractMax@aos@shdfnd@physx@@YA?AT__m128@@T4@@Z 0000000180181720 f i GuPCMContactBoxBox.obj
 0001:001808a0       ?V3Merge@aos@shdfnd@physx@@YA?AT__m128@@AEBT4@00@Z 00000001801818a0 f i GuPCMContactBoxBox.obj
 0001:00180b20       ?V3RecipFast@aos@shdfnd@physx@@YA?AT__m128@@T4@@Z 0000000180181b20 f i GuPCMContactBoxBox.obj
 0001:00180c90       ?V3SetZ@aos@shdfnd@physx@@YA?AT__m128@@T4@0@Z 0000000180181c90 f i GuPCMContactBoxBox.obj
 0001:00180e30       ?V4ExtractMax@aos@shdfnd@physx@@YA?AT__m128@@T4@@Z 0000000180181e30 f i GuPCMContactBoxBox.obj
 0001:00180f30       ?Vec3V_From_FloatV@aos@shdfnd@physx@@YA?AT__m128@@T4@@Z 0000000180181f30 f i GuPCMContactBoxBox.obj
 0001:00180f90       ?clearManifold@MultiplePersistentContactManifold@Gu@physx@@QEAAXXZ 0000000180181f90 f i GuPCMContactBoxBox.obj
 0001:00181020       ?clearManifold@SinglePersistentContactManifold@Gu@physx@@QEAAXXZ 0000000180182020 f i GuPCMContactBoxBox.obj
 0001:00181040       ?contains@Gu@physx@@YA_NPEAT__m128@@IAEBT3@11@Z 0000000180182040 f i GuPCMContactBoxBox.obj
 0001:00181c70       ?getCenter@?$RelativeConvex@VBoxV@Gu@physx@@@Gu@physx@@UEBA?AT__m128@@XZ 0000000180182c70 f i GuPCMContactBoxBox.obj
 0001:00181cd0       ?getCol0@PsMatTransformV@aos@shdfnd@physx@@QEBA?AT__m128@@XZ 0000000180182cd0 f i GuPCMContactBoxBox.obj
 0001:00181d00       ?getCol1@PsMatTransformV@aos@shdfnd@physx@@QEBA?AT__m128@@XZ 0000000180182d00 f i GuPCMContactBoxBox.obj
 0001:00181d30       ?getCol2@PsMatTransformV@aos@shdfnd@physx@@QEBA?AT__m128@@XZ 0000000180182d30 f i GuPCMContactBoxBox.obj
 0001:00181d60       ?getEmptyManifold@MultiplePersistentContactManifold@Gu@physx@@QEAAPEAVSinglePersistentContactManifold@23@XZ 0000000180182d60 f i GuPCMContactBoxBox.obj
 0001:00181db0       ?getManifold@Cache@Gu@physx@@QEAAAEAVPersistentContactManifold@23@XZ 0000000180182db0 f i GuPCMContactBoxBox.obj
 0001:00181f20       ?getManifold@MultiplePersistentContactManifold@Gu@physx@@QEAAPEAVSinglePersistentContactManifold@23@I@Z 0000000180182f20 f i GuPCMContactBoxBox.obj
 0001:00181fc0       ?getNumContacts@PersistentContactManifold@Gu@physx@@QEBAIXZ 0000000180182fc0 f i GuPCMContactBoxBox.obj
 0001:00181fe0       ?getSweepMargin@?$RelativeConvex@VBoxV@Gu@physx@@@Gu@physx@@UEBA?AT__m128@@XZ 0000000180182fe0 f i GuPCMContactBoxBox.obj
 0001:00182020       ?getWorldNormal@PersistentContactManifold@Gu@physx@@QEAA?AT__m128@@AEBVPsTransformV@aos@shdfnd@3@@Z 0000000180183020 f i GuPCMContactBoxBox.obj
 0001:00182320       ?initialize@MultiplePersistentContactManifold@Gu@physx@@QEAAXXZ 0000000180183320 f i GuPCMContactBoxBox.obj
 0001:001823c0       ?initialize@SinglePersistentContactManifold@Gu@physx@@QEAAXXZ 00000001801833c0 f i GuPCMContactBoxBox.obj
 0001:001823e0       ?invalidate@MultiplePersistentContactManifold@Gu@physx@@QEAAIAEBVPsTransformV@aos@shdfnd@3@AEBT__m128@@1@Z 00000001801833e0 f i GuPCMContactBoxBox.obj
 0001:00182630       ?invalidate@MultiplePersistentContactManifold@Gu@physx@@QEAAIAEBVPsTransformV@aos@shdfnd@3@AEBT__m128@@@Z 0000000180183630 f i GuPCMContactBoxBox.obj
 0001:00182690       ?invalidate_BoxConvex@PersistentContactManifold@Gu@physx@@QEAAIAEBVPsTransformV@aos@shdfnd@3@AEBT__m128@@@Z 0000000180183690 f i GuPCMContactBoxBox.obj
 0001:001829a0       ?isEmpty@SinglePersistentContactManifold@Gu@physx@@QEAA_NXZ 00000001801839a0 f i GuPCMContactBoxBox.obj
 0001:001829e0       ?isManifold@Cache@Gu@physx@@QEBAEXZ 00000001801839e0 f i GuPCMContactBoxBox.obj
 0001:00182a00       ?isMultiManifold@Cache@Gu@physx@@QEBAEXZ 0000000180183a00 f i GuPCMContactBoxBox.obj
 0001:00182a20       ?loadTransformA@aos@shdfnd@physx@@YA?AVPsTransformV@123@AEBVPxTransform@3@@Z 0000000180183a20 f i GuPCMContactBoxBox.obj
 0001:00182ab0       ?maxTransformPositionDelta@MultiplePersistentContactManifold@Gu@physx@@QEAA?AT__m128@@AEBT4@@Z 0000000180183ab0 f i GuPCMContactBoxBox.obj
 0001:00182be0       ?maxTransformPositionDelta@PersistentContactManifold@Gu@physx@@QEAA?AT__m128@@AEBT4@@Z 0000000180183be0 f i GuPCMContactBoxBox.obj
 0001:00182d10       ?maxTransformQuatDelta@MultiplePersistentContactManifold@Gu@physx@@QEAA?AT__m128@@AEBT4@@Z 0000000180183d10 f i GuPCMContactBoxBox.obj
 0001:00182e10       ?reduceManifoldContactsInDifferentPatches@MultiplePersistentContactManifold@Gu@physx@@QEAAIPEAPEAUPCMContactPatch@23@IPEAVMeshPersistentContact@23@IAEBT__m128@@@Z 0000000180183e10 f i GuPCMContactBoxBox.obj
 0001:001830f0       ?refineContactPatchConnective@MultiplePersistentContactManifold@Gu@physx@@QEAAXPEAPEAUPCMContactPatch@23@IPEAVMeshPersistentContact@23@AEBT__m128@@@Z 00000001801840f0 f i GuPCMContactBoxBox.obj
 0001:00183330       ?refreshContactPoints@PersistentContactManifold@Gu@physx@@QEAAXAEBVPsMatTransformV@aos@shdfnd@3@AEBT__m128@@1@Z 0000000180184330 f i GuPCMContactBoxBox.obj
 0001:001837a0       ?refreshManifold@MultiplePersistentContactManifold@Gu@physx@@QEAAXAEBVPsMatTransformV@aos@shdfnd@3@AEBT__m128@@1@Z 00000001801847a0 f i GuPCMContactBoxBox.obj
 0001:00183ac0       ?removeContactPoint@PersistentContactManifold@Gu@physx@@QEAAXI@Z 0000000180184ac0 f i GuPCMContactBoxBox.obj
 0001:00183b30       ?rotateInv@PsMatTransformV@aos@shdfnd@physx@@QEBA?AT__m128@@AEBT5@@Z 0000000180184b30 f i GuPCMContactBoxBox.obj
 0001:00183ba0       ?setRelativeTransform@MultiplePersistentContactManifold@Gu@physx@@QEAAXAEBVPsTransformV@aos@shdfnd@3@@Z 0000000180184ba0 f i GuPCMContactBoxBox.obj
 0001:00183bd0       ?setRelativeTransform@PersistentContactManifold@Gu@physx@@QEAAXAEBVPsTransformV@aos@shdfnd@3@@Z 0000000180184bd0 f i GuPCMContactBoxBox.obj
 0001:00183c00       ?support@?$RelativeConvex@VBoxV@Gu@physx@@@Gu@physx@@UEBA?AT__m128@@AEBT4@@Z 0000000180184c00 f i GuPCMContactBoxBox.obj
 0001:00183c70       ?support@?$RelativeConvex@VBoxV@Gu@physx@@@Gu@physx@@UEBA?AT__m128@@AEBT4@AEAHPEAT4@@Z 0000000180184c70 f i GuPCMContactBoxBox.obj
 0001:00183d10       ?supportPoint@?$RelativeConvex@VBoxV@Gu@physx@@@Gu@physx@@UEBA?AT__m128@@HPEAT4@@Z 0000000180184d10 f i GuPCMContactBoxBox.obj
 0001:00183d80       ?supportRelative@BoxV@Gu@physx@@QEBA?AT__m128@@AEBT4@AEBVPsMatTransformV@aos@shdfnd@3@1@Z 0000000180184d80 f i GuPCMContactBoxBox.obj
 0001:00183e00       ?supportRelative@BoxV@Gu@physx@@QEBA?AT__m128@@AEBT4@AEBVPsMatTransformV@aos@shdfnd@3@1AEAHPEAT4@@Z 0000000180184e00 f i GuPCMContactBoxBox.obj
 0001:00183ea0       ?toBuffer@MultiplePersistentContactManifold@Gu@physx@@QEAAXPEIAE@Z 0000000180184ea0 f i GuPCMContactBoxBox.obj
 0001:001842d0       ?transformInv@PsMatTransformV@aos@shdfnd@physx@@QEBA?AT__m128@@AEBT5@@Z 00000001801852d0 f i GuPCMContactBoxBox.obj
 0001:00184380       ?transformInv@PsMatTransformV@aos@shdfnd@physx@@QEBA?AV1234@AEBV1234@@Z 0000000180185380 f i GuPCMContactBoxBox.obj
 0001:001844a0       ?pcmContactBoxConvex@Gu@physx@@YA_NAEBVGeometryUnion@12@0AEBVPxTransform@2@1AEBUNarrowPhaseParams@12@AEAUCache@12@AEAVContactBuffer@12@PEAVRenderOutput@Cm@2@@Z 00000001801854a0 f   GuPCMContactBoxConvex.obj
 0001:00185f20       ??$getConvex@VShrunkConvexHullNoScaleV@Gu@physx@@@GjkConvexBase@Gu@physx@@QEBAAEBVShrunkConvexHullNoScaleV@12@XZ 0000000180186f20 f i GuPCMContactBoxConvex.obj
 0001:00185f40       ??$gjkPenetration@U?$RelativeConvex@VBoxV@Gu@physx@@@Gu@physx@@U?$LocalConvex@VShrunkConvexHullNoScaleV@Gu@physx@@@23@@Gu@physx@@YA?AW4GjkStatus@01@AEBU?$RelativeConvex@VBoxV@Gu@physx@@@01@AEBU?$LocalConvex@VShrunkConvexHullNoScaleV@Gu@physx@@@01@AEBT__m128@@2AEAT5@333PEIAE4AEAE_N@Z 0000000180186f40 f i GuPCMContactBoxConvex.obj
 0001:00187de0       ??$gjkPenetration@U?$RelativeConvex@VBoxV@Gu@physx@@@Gu@physx@@U?$LocalConvex@VShrunkConvexHullV@Gu@physx@@@23@@Gu@physx@@YA?AW4GjkStatus@01@AEBU?$RelativeConvex@VBoxV@Gu@physx@@@01@AEBU?$LocalConvex@VShrunkConvexHullV@Gu@physx@@@01@AEBT__m128@@2AEAT5@333PEIAE4AEAE_N@Z 0000000180188de0 f i GuPCMContactBoxConvex.obj
 0001:00189c80       ??0?$LocalConvex@VShrunkConvexHullNoScaleV@Gu@physx@@@Gu@physx@@QEAA@AEBVShrunkConvexHullNoScaleV@12@@Z 000000018018ac80 f i GuPCMContactBoxConvex.obj
 0001:00189cd0       ??0?$SupportLocalImpl@VBoxV@Gu@physx@@@Gu@physx@@QEAA@AEBVBoxV@12@AEBVPsTransformV@aos@shdfnd@2@AEBUMat33V@562@2_N@Z 000000018018acd0 f i GuPCMContactBoxConvex.obj
 0001:00189d50       ??0?$SupportLocalImpl@VConvexHullNoScaleV@Gu@physx@@@Gu@physx@@QEAA@AEBVConvexHullNoScaleV@12@AEBVPsTransformV@aos@shdfnd@2@AEBUMat33V@562@2_N@Z 000000018018ad50 f i GuPCMContactBoxConvex.obj
 0001:00189dd0       ??0?$SupportLocalImpl@VConvexHullV@Gu@physx@@@Gu@physx@@QEAA@AEBVConvexHullV@12@AEBVPsTransformV@aos@shdfnd@2@AEBUMat33V@562@2_N@Z 000000018018add0 f i GuPCMContactBoxConvex.obj
 0001:00189e50       ??0ShrunkConvexHullV@Gu@physx@@QEAA@PEBUConvexHullData@12@AEBT__m128@@11_N@Z 000000018018ae50 f i GuPCMContactBoxConvex.obj
 0001:00189ec0       ??0SupportLocal@Gu@physx@@QEAA@AEBVPsTransformV@aos@shdfnd@2@AEBUMat33V@452@1_N@Z 000000018018aec0 f i GuPCMContactBoxConvex.obj
 0001:00189f40       ??1?$LocalConvex@VShrunkConvexHullNoScaleV@Gu@physx@@@Gu@physx@@UEAA@XZ 000000018018af40 f i GuPCMContactBoxConvex.obj
 0001:00189f60       ??1?$SupportLocalImpl@VBoxV@Gu@physx@@@Gu@physx@@UEAA@XZ 000000018018af60 f i GuPCMContactBoxConvex.obj
 0001:00189f80       ??1?$SupportLocalImpl@VConvexHullNoScaleV@Gu@physx@@@Gu@physx@@UEAA@XZ 000000018018af80 f i GuPCMContactBoxConvex.obj
 0001:00189fa0       ??1?$SupportLocalImpl@VConvexHullV@Gu@physx@@@Gu@physx@@UEAA@XZ 000000018018afa0 f i GuPCMContactBoxConvex.obj
 0001:00189fc0       ??1ShrunkConvexHullV@Gu@physx@@QEAA@XZ 000000018018afc0 f i GuPCMContactBoxConvex.obj
 0001:00189fe0       ??1SupportLocal@Gu@physx@@UEAA@XZ 000000018018afe0 f i GuPCMContactBoxConvex.obj
 0001:0018a000       ??_G?$LocalConvex@VShrunkConvexHullNoScaleV@Gu@physx@@@Gu@physx@@UEAAPEAXI@Z 000000018018b000 f i GuPCMContactBoxConvex.obj
 0001:0018a000       ??_E?$LocalConvex@VShrunkConvexHullNoScaleV@Gu@physx@@@Gu@physx@@UEAAPEAXI@Z 000000018018b000 f i GuPCMContactBoxConvex.obj
 0001:0018a050       ??_E?$SupportLocalImpl@VBoxV@Gu@physx@@@Gu@physx@@UEAAPEAXI@Z 000000018018b050 f i GuPCMContactBoxConvex.obj
 0001:0018a050       ??_G?$SupportLocalImpl@VBoxV@Gu@physx@@@Gu@physx@@UEAAPEAXI@Z 000000018018b050 f i GuPCMContactBoxConvex.obj
 0001:0018a0a0       ??_G?$SupportLocalImpl@VConvexHullNoScaleV@Gu@physx@@@Gu@physx@@UEAAPEAXI@Z 000000018018b0a0 f i GuPCMContactBoxConvex.obj
 0001:0018a0a0       ??_E?$SupportLocalImpl@VConvexHullNoScaleV@Gu@physx@@@Gu@physx@@UEAAPEAXI@Z 000000018018b0a0 f i GuPCMContactBoxConvex.obj
 0001:0018a0f0       ??_E?$SupportLocalImpl@VConvexHullV@Gu@physx@@@Gu@physx@@UEAAPEAXI@Z 000000018018b0f0 f i GuPCMContactBoxConvex.obj
 0001:0018a0f0       ??_G?$SupportLocalImpl@VConvexHullV@Gu@physx@@@Gu@physx@@UEAAPEAXI@Z 000000018018b0f0 f i GuPCMContactBoxConvex.obj
 0001:0018a140       ??_ESupportLocal@Gu@physx@@UEAAPEAXI@Z 000000018018b140 f i GuPCMContactBoxConvex.obj
 0001:0018a140       ??_GSupportLocal@Gu@physx@@UEAAPEAXI@Z 000000018018b140 f i GuPCMContactBoxConvex.obj
 0001:0018a190       ?CalculatePCMConvexMargin@Gu@physx@@YA?AT__m128@@PEBUConvexHullData@12@AEBT3@@Z 000000018018b190 f i GuPCMContactBoxConvex.obj
 0001:0018a2c0       ?bruteForceSearchMinMax@ConvexHullNoScaleV@Gu@physx@@QEBAXAEBT__m128@@AEAT4@1@Z 000000018018b2c0 f i GuPCMContactBoxConvex.obj
 0001:0018a560       ?bruteForceSearchMinMax@ConvexHullV@Gu@physx@@QEBAXAEBT__m128@@AEAT4@1@Z 000000018018b560 f i GuPCMContactBoxConvex.obj
 0001:0018a7c0       ?doSupport@?$SupportLocalImpl@VBoxV@Gu@physx@@@Gu@physx@@UEBA?AT__m128@@AEBT4@@Z 000000018018b7c0 f i GuPCMContactBoxConvex.obj
 0001:0018a810       ?doSupport@?$SupportLocalImpl@VBoxV@Gu@physx@@@Gu@physx@@UEBAXAEBT__m128@@AEAT4@1@Z 000000018018b810 f i GuPCMContactBoxConvex.obj
 0001:0018a860       ?doSupport@?$SupportLocalImpl@VConvexHullNoScaleV@Gu@physx@@@Gu@physx@@UEBA?AT__m128@@AEBT4@@Z 000000018018b860 f i GuPCMContactBoxConvex.obj
 0001:0018a8b0       ?doSupport@?$SupportLocalImpl@VConvexHullNoScaleV@Gu@physx@@@Gu@physx@@UEBAXAEBT__m128@@AEAT4@1@Z 000000018018b8b0 f i GuPCMContactBoxConvex.obj
 0001:0018a900       ?doSupport@?$SupportLocalImpl@VConvexHullV@Gu@physx@@@Gu@physx@@UEBA?AT__m128@@AEBT4@@Z 000000018018b900 f i GuPCMContactBoxConvex.obj
 0001:0018a950       ?doSupport@?$SupportLocalImpl@VConvexHullV@Gu@physx@@@Gu@physx@@UEBAXAEBT__m128@@AEAT4@1@Z 000000018018b950 f i GuPCMContactBoxConvex.obj
 0001:0018a9a0       ?getCenter@?$LocalConvex@VShrunkConvexHullNoScaleV@Gu@physx@@@Gu@physx@@UEBA?AT__m128@@XZ 000000018018b9a0 f i GuPCMContactBoxConvex.obj
 0001:0018a9e0       ?getLocalNormal@PersistentContactManifold@Gu@physx@@QEAA?AT__m128@@XZ 000000018018b9e0 f i GuPCMContactBoxConvex.obj
 0001:0018ab30       ?getSweepMargin@?$LocalConvex@VShrunkConvexHullNoScaleV@Gu@physx@@@Gu@physx@@UEBA?AT__m128@@XZ 000000018018bb30 f i GuPCMContactBoxConvex.obj
 0001:0018ab70       ?planeShift@ShrunkConvexHullNoScaleV@Gu@physx@@QEBA?AT__m128@@IAEBT4@PEAT4@@Z 000000018018bb70 f i GuPCMContactBoxConvex.obj
 0001:0018b080       ?populateVerts@?$SupportLocalImpl@VBoxV@Gu@physx@@@Gu@physx@@UEBAXPEBEIPEBVPxVec3@3@PEAT__m128@@@Z 000000018018c080 f i GuPCMContactBoxConvex.obj
 0001:0018b0e0       ?populateVerts@?$SupportLocalImpl@VConvexHullNoScaleV@Gu@physx@@@Gu@physx@@UEBAXPEBEIPEBVPxVec3@3@PEAT__m128@@@Z 000000018018c0e0 f i GuPCMContactBoxConvex.obj
 0001:0018b140       ?populateVerts@?$SupportLocalImpl@VConvexHullV@Gu@physx@@@Gu@physx@@UEBAXPEBEIPEBVPxVec3@3@PEAT__m128@@@Z 000000018018c140 f i GuPCMContactBoxConvex.obj
 0001:0018b1a0       ?populateVerts@BoxV@Gu@physx@@QEBAXPEBEIPEBVPxVec3@3@PEAT__m128@@@Z 000000018018c1a0 f i GuPCMContactBoxConvex.obj
 0001:0018b240       ?populateVerts@ConvexHullNoScaleV@Gu@physx@@QEBAXPEBEIPEBVPxVec3@3@PEAT__m128@@@Z 000000018018c240 f i GuPCMContactBoxConvex.obj
 0001:0018b2e0       ?populateVerts@ConvexHullV@Gu@physx@@QEBAXPEBEIPEBVPxVec3@3@PEAT__m128@@@Z 000000018018c2e0 f i GuPCMContactBoxConvex.obj
 0001:0018b3c0       ?support@?$LocalConvex@VShrunkConvexHullNoScaleV@Gu@physx@@@Gu@physx@@UEBA?AT__m128@@AEBT4@@Z 000000018018c3c0 f i GuPCMContactBoxConvex.obj
 0001:0018b410       ?support@?$LocalConvex@VShrunkConvexHullNoScaleV@Gu@physx@@@Gu@physx@@UEBA?AT__m128@@AEBT4@AEAHPEAT4@@Z 000000018018c410 f i GuPCMContactBoxConvex.obj
 0001:0018b470       ?supportLocal@BoxV@Gu@physx@@QEBAXAEBT__m128@@AEAT4@1@Z 000000018018c470 f i GuPCMContactBoxConvex.obj
 0001:0018b640       ?supportLocal@ConvexHullNoScaleV@Gu@physx@@QEBA?AT__m128@@AEBT4@@Z 000000018018c640 f i GuPCMContactBoxConvex.obj
 0001:0018b6c0       ?supportLocal@ConvexHullNoScaleV@Gu@physx@@QEBAXAEBT__m128@@AEAT4@1@Z 000000018018c6c0 f i GuPCMContactBoxConvex.obj
 0001:0018b710       ?supportLocal@ConvexHullV@Gu@physx@@QEBAXAEBT__m128@@AEAT4@1@Z 000000018018c710 f i GuPCMContactBoxConvex.obj
 0001:0018b760       ?supportLocal@ShrunkConvexHullNoScaleV@Gu@physx@@QEBA?AT__m128@@AEBT4@@Z 000000018018c760 f i GuPCMContactBoxConvex.obj
 0001:0018b7b0       ?supportLocal@ShrunkConvexHullNoScaleV@Gu@physx@@QEBA?AT__m128@@AEBT4@AEAHPEAT4@@Z 000000018018c7b0 f i GuPCMContactBoxConvex.obj
 0001:0018b8b0       ?supportPoint@?$LocalConvex@VShrunkConvexHullNoScaleV@Gu@physx@@@Gu@physx@@UEBA?AT__m128@@HPEAT4@@Z 000000018018c8b0 f i GuPCMContactBoxConvex.obj
 0001:0018b910       ?supportPoint@ShrunkConvexHullNoScaleV@Gu@physx@@QEBA?AT__m128@@HPEAT4@@Z 000000018018c910 f i GuPCMContactBoxConvex.obj
 0001:0018b9e0       ?supportVertexMinMax@ConvexHullNoScaleV@Gu@physx@@QEBAXAEBT__m128@@AEAT4@1@Z 000000018018c9e0 f i GuPCMContactBoxConvex.obj
 0001:0018bc00       ?supportVertexMinMax@ConvexHullV@Gu@physx@@QEBAXAEBT__m128@@AEAT4@1@Z 000000018018cc00 f i GuPCMContactBoxConvex.obj
 0001:0018bef0       ?pcmContactCapsuleBox@Gu@physx@@YA_NAEBVGeometryUnion@12@0AEBVPxTransform@2@1AEBUNarrowPhaseParams@12@AEAUCache@12@AEAVContactBuffer@12@PEAVRenderOutput@Cm@2@@Z 000000018018cef0 f   GuPCMContactCapsuleBox.obj
 0001:0018d5d0       ??$gjkPenetration@U?$LocalConvex@VCapsuleV@Gu@physx@@@Gu@physx@@U?$LocalConvex@VBoxV@Gu@physx@@@23@@Gu@physx@@YA?AW4GjkStatus@01@AEBU?$LocalConvex@VCapsuleV@Gu@physx@@@01@AEBU?$LocalConvex@VBoxV@Gu@physx@@@01@AEBT__m128@@2AEAT5@333PEIAE4AEAE_N@Z 000000018018e5d0 f i GuPCMContactCapsuleBox.obj
 0001:0018f470       ?invalidate_SphereCapsule@PersistentContactManifold@Gu@physx@@QEAAIAEBVPsTransformV@aos@shdfnd@3@AEBT__m128@@@Z 0000000180190470 f i GuPCMContactCapsuleBox.obj
 0001:0018f780       ?setMargin@ConvexV@Gu@physx@@QEAAXAEBT__m128@@@Z 0000000180190780 f i GuPCMContactCapsuleBox.obj
 0001:0018f7d0       ?transformInv@PsTransformV@aos@shdfnd@physx@@QEBA?AT__m128@@AEBT5@@Z 00000001801907d0 f i GuPCMContactCapsuleBox.obj
 0001:0018f910       ?pcmContactCapsuleCapsule@Gu@physx@@YA_NAEBVGeometryUnion@12@0AEBVPxTransform@2@1AEBUNarrowPhaseParams@12@AEAUCache@12@AEAVContactBuffer@12@PEAVRenderOutput@Cm@2@@Z 0000000180190910 f   GuPCMContactCapsuleCapsule.obj
 0001:00192e80       ?BFTTT@aos@shdfnd@physx@@YA?AT__m128@@XZ 0000000180193e80 f i GuPCMContactCapsuleCapsule.obj
 0001:00192ed0       ?FSqrt@aos@shdfnd@physx@@YA?AT__m128@@T4@@Z 0000000180193ed0 f i GuPCMContactCapsuleCapsule.obj
 0001:00192f80       ?QuatGetBasisVector0@aos@shdfnd@physx@@YA?AT__m128@@T4@@Z 0000000180193f80 f i GuPCMContactCapsuleCapsule.obj
 0001:00193390       ?V3SetX@aos@shdfnd@physx@@YA?AT__m128@@T4@0@Z 0000000180194390 f i GuPCMContactCapsuleCapsule.obj
 0001:00193530       ?V3StoreA@aos@shdfnd@physx@@YAXT__m128@@AEAVPxVec3@3@@Z 0000000180194530 f i GuPCMContactCapsuleCapsule.obj
 0001:00193620       ?pcmContactCapsuleConvex@Gu@physx@@YA_NAEBVGeometryUnion@12@0AEBVPxTransform@2@1AEBUNarrowPhaseParams@12@AEAUCache@12@AEAVContactBuffer@12@PEAVRenderOutput@Cm@2@@Z 0000000180194620 f   GuPCMContactCapsuleConvex.obj
 0001:00194f80       ??$getConvex@VConvexHullNoScaleV@Gu@physx@@@GjkConvexBase@Gu@physx@@QEBAAEBVConvexHullNoScaleV@12@XZ 0000000180195f80 f i GuPCMContactCapsuleConvex.obj
 0001:00194fa0       ??$gjkPenetration@U?$LocalConvex@VCapsuleV@Gu@physx@@@Gu@physx@@U?$LocalConvex@VConvexHullNoScaleV@Gu@physx@@@23@@Gu@physx@@YA?AW4GjkStatus@01@AEBU?$LocalConvex@VCapsuleV@Gu@physx@@@01@AEBU?$LocalConvex@VConvexHullNoScaleV@Gu@physx@@@01@AEBT__m128@@2AEAT5@333PEIAE4AEAE_N@Z 0000000180195fa0 f i GuPCMContactCapsuleConvex.obj
 0001:00196e40       ??$gjkPenetration@U?$LocalConvex@VCapsuleV@Gu@physx@@@Gu@physx@@U?$LocalConvex@VConvexHullV@Gu@physx@@@23@@Gu@physx@@YA?AW4GjkStatus@01@AEBU?$LocalConvex@VCapsuleV@Gu@physx@@@01@AEBU?$LocalConvex@VConvexHullV@Gu@physx@@@01@AEBT__m128@@2AEAT5@333PEIAE4AEAE_N@Z 0000000180197e40 f i GuPCMContactCapsuleConvex.obj
 0001:00198ce0       ??0?$LocalConvex@VConvexHullNoScaleV@Gu@physx@@@Gu@physx@@QEAA@AEBVConvexHullNoScaleV@12@@Z 0000000180199ce0 f i GuPCMContactCapsuleConvex.obj
 0001:00198d30       ??1?$LocalConvex@VConvexHullNoScaleV@Gu@physx@@@Gu@physx@@UEAA@XZ 0000000180199d30 f i GuPCMContactCapsuleConvex.obj
 0001:00198d50       ??_G?$LocalConvex@VConvexHullNoScaleV@Gu@physx@@@Gu@physx@@UEAAPEAXI@Z 0000000180199d50 f i GuPCMContactCapsuleConvex.obj
 0001:00198d50       ??_E?$LocalConvex@VConvexHullNoScaleV@Gu@physx@@@Gu@physx@@UEAAPEAXI@Z 0000000180199d50 f i GuPCMContactCapsuleConvex.obj
 0001:00198da0       ?CalculateCapsuleMinMargin@Gu@physx@@YA?AT__m128@@AEBT3@@Z 0000000180199da0 f i GuPCMContactCapsuleConvex.obj
 0001:00198e20       ?getCenter@?$LocalConvex@VConvexHullNoScaleV@Gu@physx@@@Gu@physx@@UEBA?AT__m128@@XZ 0000000180199e20 f i GuPCMContactCapsuleConvex.obj
 0001:00198e60       ?getSweepMargin@?$LocalConvex@VConvexHullNoScaleV@Gu@physx@@@Gu@physx@@UEBA?AT__m128@@XZ 0000000180199e60 f i GuPCMContactCapsuleConvex.obj
 0001:00198ea0       ?support@?$LocalConvex@VConvexHullNoScaleV@Gu@physx@@@Gu@physx@@UEBA?AT__m128@@AEBT4@@Z 0000000180199ea0 f i GuPCMContactCapsuleConvex.obj
 0001:00198ef0       ?support@?$LocalConvex@VConvexHullNoScaleV@Gu@physx@@@Gu@physx@@UEBA?AT__m128@@AEBT4@AEAHPEAT4@@Z 0000000180199ef0 f i GuPCMContactCapsuleConvex.obj
 0001:00198f50       ?supportLocal@ConvexHullNoScaleV@Gu@physx@@QEBA?AT__m128@@AEBT4@AEAHPEAT4@@Z 0000000180199f50 f i GuPCMContactCapsuleConvex.obj
 0001:00198fe0       ?supportPoint@?$LocalConvex@VConvexHullNoScaleV@Gu@physx@@@Gu@physx@@UEBA?AT__m128@@HPEAT4@@Z 0000000180199fe0 f i GuPCMContactCapsuleConvex.obj
 0001:00199040       ?supportPoint@ConvexHullNoScaleV@Gu@physx@@QEBA?AT__m128@@HPEAT4@@Z 000000018019a040 f i GuPCMContactCapsuleConvex.obj
 0001:001990b0       ?pcmContactCapsuleHeightField@Gu@physx@@YA_NAEBVGeometryUnion@12@0AEBVPxTransform@2@1AEBUNarrowPhaseParams@12@AEAUCache@12@AEAVContactBuffer@12@PEAVRenderOutput@Cm@2@@Z 000000018019a0b0 f   GuPCMContactCapsuleHeightField.obj
 0001:00199810       ??$processTriangleCache@$0BA@@PCMCapsuleVsHeightfieldContactGenerationCallback@physx@@QEAAXAEAU?$TriangleCache@$0BA@@Gu@1@@Z 000000018019a810 f i GuPCMContactCapsuleHeightField.obj
 0001:00199850       ??$processTriangleCache@$0BA@VPCMCapsuleVsMeshContactGeneration@Gu@physx@@@PCMMeshContactGeneration@Gu@physx@@QEAA_NAEAU?$TriangleCache@$0BA@@12@@Z 000000018019a850 f i GuPCMContactCapsuleHeightField.obj
 0001:00199960       ??0?$PCMHeightfieldContactGenerationCallback@UPCMCapsuleVsHeightfieldContactGenerationCallback@physx@@@Gu@physx@@QEAA@AEBVHeightFieldUtil@12@AEBVPxTransform@2@@Z 000000018019a960 f i GuPCMContactCapsuleHeightField.obj
 0001:001999d0       ??0?$TriangleCache@$0BA@@Gu@physx@@QEAA@XZ 000000018019a9d0 f i GuPCMContactCapsuleHeightField.obj
 0001:00199a20       ??0PCMCapsuleVsHeightfieldContactGenerationCallback@physx@@QEAA@AEBVCapsuleV@Gu@1@AEBT__m128@@1AEBVPsTransformV@aos@shdfnd@1@2AEBVPxTransform@1@AEAVMultiplePersistentContactManifold@31@AEAVContactBuffer@31@AEAVHeightFieldUtil@31@@Z 000000018019aa20 f i GuPCMContactCapsuleHeightField.obj
 0001:00199b00       ??0PCMCapsuleVsMeshContactGeneration@Gu@physx@@QEAA@AEBVCapsuleV@12@AEBT__m128@@1AEBVPsTransformV@aos@shdfnd@2@2AEAVMultiplePersistentContactManifold@12@AEAVContactBuffer@12@PEAVRenderOutput@Cm@2@@Z 000000018019ab00 f i GuPCMContactCapsuleHeightField.obj
 0001:00199c90       ??0PCMContactPatch@Gu@physx@@QEAA@XZ 000000018019ac90 f i GuPCMContactCapsuleHeightField.obj
 0001:00199d00       ??0PCMMeshContactGeneration@Gu@physx@@QEAA@AEBT__m128@@0AEBVPsTransformV@aos@shdfnd@2@1AEAVMultiplePersistentContactManifold@12@AEAVContactBuffer@12@PEAVRenderOutput@Cm@2@@Z 000000018019ad00 f i GuPCMContactCapsuleHeightField.obj
 0001:0019a000       ??1?$PCMHeightfieldContactGenerationCallback@UPCMCapsuleVsHeightfieldContactGenerationCallback@physx@@@Gu@physx@@UEAA@XZ 000000018019b000 f i GuPCMContactCapsuleHeightField.obj
 0001:0019a020       ??1PCMCapsuleVsHeightfieldContactGenerationCallback@physx@@UEAA@XZ 000000018019b020 f i GuPCMContactCapsuleHeightField.obj
 0001:0019a040       ??_G?$PCMHeightfieldContactGenerationCallback@UPCMCapsuleVsHeightfieldContactGenerationCallback@physx@@@Gu@physx@@UEAAPEAXI@Z 000000018019b040 f i GuPCMContactCapsuleHeightField.obj
 0001:0019a040       ??_E?$PCMHeightfieldContactGenerationCallback@UPCMCapsuleVsHeightfieldContactGenerationCallback@physx@@@Gu@physx@@UEAAPEAXI@Z 000000018019b040 f i GuPCMContactCapsuleHeightField.obj
 0001:0019a090       ??_EPCMCapsuleVsHeightfieldContactGenerationCallback@physx@@UEAAPEAXI@Z 000000018019b090 f i GuPCMContactCapsuleHeightField.obj
 0001:0019a090       ??_GPCMCapsuleVsHeightfieldContactGenerationCallback@physx@@UEAAPEAXI@Z 000000018019b090 f i GuPCMContactCapsuleHeightField.obj
 0001:0019a0e0       ?addTriangle@?$TriangleCache@$0BA@@Gu@physx@@QEAAXPEBVPxVec3@3@PEBIIE@Z 000000018019b0e0 f i GuPCMContactCapsuleHeightField.obj
 0001:0019a330       ?getMultipleManifold@Cache@Gu@physx@@QEAAAEAVMultiplePersistentContactManifold@23@XZ 000000018019b330 f i GuPCMContactCapsuleHeightField.obj
 0001:0019a4a0       ?onEvent@?$PCMHeightfieldContactGenerationCallback@UPCMCapsuleVsHeightfieldContactGenerationCallback@physx@@@Gu@physx@@UEAA_NIPEAI@Z 000000018019b4a0 f i GuPCMContactCapsuleHeightField.obj
 0001:0019aba0       ?prioritizeContactPatches@PCMMeshContactGeneration@Gu@physx@@QEAAXXZ 000000018019bba0 f i GuPCMContactCapsuleHeightField.obj
 0001:0019adf0       ?processContacts@PCMMeshContactGeneration@Gu@physx@@QEAAXE_N@Z 000000018019bdf0 f i GuPCMContactCapsuleHeightField.obj
 0001:0019b010       ?pcmContactCapsuleMesh@Gu@physx@@YA_NAEBVGeometryUnion@12@0AEBVPxTransform@2@1AEBUNarrowPhaseParams@12@AEAUCache@12@AEAVContactBuffer@12@PEAVRenderOutput@Cm@2@@Z 000000018019c010 f   GuPCMContactCapsuleMesh.obj
 0001:0019b8f0       ??$processTriangleCache@$0BA@@PCMCapsuleVsMeshContactGenerationCallback@physx@@QEAAXAEAU?$TriangleCache@$0BA@@Gu@1@@Z 000000018019c8f0 f i GuPCMContactCapsuleMesh.obj
 0001:0019b930       ??0?$PCMMeshContactGenerationCallback@UPCMCapsuleVsMeshContactGenerationCallback@physx@@@Gu@physx@@QEAA@AEBVFastVertex2ShapeScaling@Cm@2@PEBE_N@Z 000000018019c930 f i GuPCMContactCapsuleMesh.obj
 0001:0019b9d0       ??0PCMCapsuleVsMeshContactGenerationCallback@physx@@QEAA@AEBVCapsuleV@Gu@1@AEBT__m128@@1AEBVPsTransformV@aos@shdfnd@1@2AEAVMultiplePersistentContactManifold@31@AEAVContactBuffer@31@PEBEAEBVFastVertex2ShapeScaling@Cm@1@_NPEAVRenderOutput@Cm@1@@Z 000000018019c9d0 f i GuPCMContactCapsuleMesh.obj
 0001:0019bac0       ??1?$PCMMeshContactGenerationCallback@UPCMCapsuleVsMeshContactGenerationCallback@physx@@@Gu@physx@@UEAA@XZ 000000018019cac0 f i GuPCMContactCapsuleMesh.obj
 0001:0019bae0       ??1PCMCapsuleVsMeshContactGenerationCallback@physx@@UEAA@XZ 000000018019cae0 f i GuPCMContactCapsuleMesh.obj
 0001:0019bb00       ??_E?$PCMMeshContactGenerationCallback@UPCMCapsuleVsMeshContactGenerationCallback@physx@@@Gu@physx@@UEAAPEAXI@Z 000000018019cb00 f i GuPCMContactCapsuleMesh.obj
 0001:0019bb00       ??_G?$PCMMeshContactGenerationCallback@UPCMCapsuleVsMeshContactGenerationCallback@physx@@@Gu@physx@@UEAAPEAXI@Z 000000018019cb00 f i GuPCMContactCapsuleMesh.obj
 0001:0019bb50       ??_EPCMCapsuleVsMeshContactGenerationCallback@physx@@UEAAPEAXI@Z 000000018019cb50 f i GuPCMContactCapsuleMesh.obj
 0001:0019bb50       ??_GPCMCapsuleVsMeshContactGenerationCallback@physx@@UEAAPEAXI@Z 000000018019cb50 f i GuPCMContactCapsuleMesh.obj
 0001:0019bba0       ?doTest@PCMCapsuleVsMeshContactGenerationCallback@physx@@QEAA_NAEBVPxVec3@2@00@Z 000000018019cba0 f i GuPCMContactCapsuleMesh.obj
 0001:0019bbc0       ?flushCache@?$PCMMeshContactGenerationCallback@UPCMCapsuleVsMeshContactGenerationCallback@physx@@@Gu@physx@@QEAAXXZ 000000018019cbc0 f i GuPCMContactCapsuleMesh.obj
 0001:0019bc20       ?isEmpty@?$TriangleCache@$0BA@@Gu@physx@@QEBA_NXZ 000000018019cc20 f i GuPCMContactCapsuleMesh.obj
 0001:0019bc60       ?isFull@?$TriangleCache@$0BA@@Gu@physx@@QEBA_NXZ 000000018019cc60 f i GuPCMContactCapsuleMesh.obj
 0001:0019bca0       ?processHit@?$PCMMeshContactGenerationCallback@UPCMCapsuleVsMeshContactGenerationCallback@physx@@@Gu@physx@@UEAA_NAEBUPxRaycastHit@3@AEBVPxVec3@3@11AEAMPEBI@Z 000000018019cca0 f i GuPCMContactCapsuleMesh.obj
 0001:0019bfa0       ?reset@?$TriangleCache@$0BA@@Gu@physx@@QEAAXXZ 000000018019cfa0 f i GuPCMContactCapsuleMesh.obj
 0001:0019bfc0       ?generateLastContacts@PCMConvexVsMeshContactGeneration@Gu@physx@@QEAAXXZ 000000018019cfc0 f   GuPCMContactConvexCommon.obj
 0001:0019c650       ?addContactsToPatch@PCMConvexVsMeshContactGeneration@Gu@physx@@QEAAXAEBT__m128@@I@Z 000000018019d650 f   GuPCMContactConvexCommon.obj
 0001:0019cb60       ?processTriangle@PCMConvexVsMeshContactGeneration@Gu@physx@@QEAA_NPEBVPxVec3@3@IEPEBI@Z 000000018019db60 f   GuPCMContactConvexCommon.obj
 0001:0019d2a0       ?processTriangle@PCMConvexVsMeshContactGeneration@Gu@physx@@SA_NAEBUPolygonalData@23@PEAVSupportLocal@23@PEBVPxVec3@3@IEAEBT__m128@@_NAEBVPsTransformV@aos@shdfnd@3@AEBVPsMatTransformV@9shdfnd@3@PEAVMeshPersistentContact@23@AEAI@Z 000000018019e2a0 f   GuPCMContactConvexCommon.obj
 0001:0019d730       ?processTriangle@PCMSphereVsMeshContactGeneration@Gu@physx@@QEAA_NPEBVPxVec3@3@IEPEBI@Z 000000018019e730 f   GuPCMContactConvexCommon.obj
 0001:0019e2a0       ?generateEEContacts@PCMCapsuleVsMeshContactGeneration@Gu@physx@@QEAAXAEBT__m128@@000I000PEAVMeshPersistentContact@23@AEAI@Z 000000018019f2a0 f   GuPCMContactConvexCommon.obj
 0001:0019e400       ?generateEE@PCMCapsuleVsMeshContactGeneration@Gu@physx@@QEAAXAEBT__m128@@000I00PEAVMeshPersistentContact@23@AEAI@Z 000000018019f400 f   GuPCMContactConvexCommon.obj
 0001:0019edb0       ?generateContacts@PCMCapsuleVsMeshContactGeneration@Gu@physx@@SA_NAEBT__m128@@0000I000PEAVMeshPersistentContact@23@AEAI@Z 000000018019fdb0 f   GuPCMContactConvexCommon.obj
 0001:0019ff60       ?generateEEContactsMTD@PCMCapsuleVsMeshContactGeneration@Gu@physx@@SAXAEBT__m128@@000I000PEAVMeshPersistentContact@23@AEAI@Z 00000001801a0f60 f   GuPCMContactConvexCommon.obj
 0001:001a00a0       ?generateEEMTD@PCMCapsuleVsMeshContactGeneration@Gu@physx@@SAXAEBT__m128@@000I00PEAVMeshPersistentContact@23@AEAI@Z 00000001801a10a0 f   GuPCMContactConvexCommon.obj
 0001:001a0960       ?processTriangle@PCMCapsuleVsMeshContactGeneration@Gu@physx@@QEAA_NPEBVPxVec3@3@IEPEBI@Z 00000001801a1960 f   GuPCMContactConvexCommon.obj
 0001:001a16f0       ?processTriangle@PCMCapsuleVsMeshContactGeneration@Gu@physx@@SA_NAEBVTriangleV@23@IAEBVCapsuleV@23@AEBT__m128@@EPEAVMeshPersistentContact@23@AEAI@Z 00000001801a26f0 f   GuPCMContactConvexCommon.obj
 0001:001a3520       ?pcmDistanceSegmentTriangleSquared@Gu@physx@@YA?AT__m128@@AEBT3@0000AEAT3@11@Z 00000001801a4520 f   GuPCMContactConvexCommon.obj
 0001:001a7bc0       ??$PX_UNUSED@PEBI@@YAXAEBQEBI@Z 00000001801a8bc0 f i GuPCMContactConvexCommon.obj
 0001:001a7bd0       ??0?$SupportLocalImpl@VTriangleV@Gu@physx@@@Gu@physx@@QEAA@AEBVTriangleV@12@AEBVPsTransformV@aos@shdfnd@2@AEBUMat33V@562@2_N@Z 00000001801a8bd0 f i GuPCMContactConvexCommon.obj
 0001:001a7c50       ??0TriangleV@Gu@physx@@QEAA@PEBVPxVec3@2@@Z 00000001801a8c50 f i GuPCMContactConvexCommon.obj
 0001:001a7f10       ??1?$SupportLocalImpl@VTriangleV@Gu@physx@@@Gu@physx@@UEAA@XZ 00000001801a8f10 f i GuPCMContactConvexCommon.obj
 0001:001a7f30       ??_G?$SupportLocalImpl@VTriangleV@Gu@physx@@@Gu@physx@@UEAAPEAXI@Z 00000001801a8f30 f i GuPCMContactConvexCommon.obj
 0001:001a7f30       ??_E?$SupportLocalImpl@VTriangleV@Gu@physx@@@Gu@physx@@UEAAPEAXI@Z 00000001801a8f30 f i GuPCMContactConvexCommon.obj
 0001:001a7f80       ?V4PermXZXZ@aos@shdfnd@physx@@YA?AT__m128@@T4@@Z 00000001801a8f80 f i GuPCMContactConvexCommon.obj
 0001:001a7fb0       ?V4PermYWYW@aos@shdfnd@physx@@YA?AT__m128@@T4@@Z 00000001801a8fb0 f i GuPCMContactConvexCommon.obj
 0001:001a7fe0       ?V4PermYXWZ@aos@shdfnd@physx@@YA?AT__m128@@T4@@Z 00000001801a8fe0 f i GuPCMContactConvexCommon.obj
 0001:001a8010       ?addManifoldPointToPatch@PCMMeshContactGeneration@Gu@physx@@QEAAXAEBT__m128@@0I@Z 00000001801a9010 f i GuPCMContactConvexCommon.obj
 0001:001a8640       ?doSupport@?$SupportLocalImpl@VTriangleV@Gu@physx@@@Gu@physx@@UEBA?AT__m128@@AEBT4@@Z 00000001801a9640 f i GuPCMContactConvexCommon.obj
 0001:001a8690       ?doSupport@?$SupportLocalImpl@VTriangleV@Gu@physx@@@Gu@physx@@UEBAXAEBT__m128@@AEAT4@1@Z 00000001801a9690 f i GuPCMContactConvexCommon.obj
 0001:001a86e0       ?get@?$CacheMap@UCachedEdge@Gu@physx@@$0IA@@Gu@physx@@QEBAPEBUCachedEdge@23@AEBU423@@Z 00000001801a96e0 f i GuPCMContactConvexCommon.obj
 0001:001a87a0       ?isValidTriangleBarycentricCoord2@Gu@physx@@YA?AT__m128@@AEBT3@@Z 00000001801a97a0 f i GuPCMContactConvexCommon.obj
 0001:001a8c40       ?normal@TriangleV@Gu@physx@@QEBA?AT__m128@@XZ 00000001801a9c40 f i GuPCMContactConvexCommon.obj
 0001:001a8df0       ?pcmDistanceSegmentSegmentSquared4@Gu@physx@@YA?AT__m128@@AEBT3@000000000AEAT3@1@Z 00000001801a9df0 f i GuPCMContactConvexCommon.obj
 0001:001aabb0       ?populateVerts@?$SupportLocalImpl@VTriangleV@Gu@physx@@@Gu@physx@@UEBAXPEBEIPEBVPxVec3@3@PEAT__m128@@@Z 00000001801abbb0 f i GuPCMContactConvexCommon.obj
 0001:001aac10       ?populateVerts@TriangleV@Gu@physx@@QEBAXPEBEIPEBVPxVec3@3@PEAT__m128@@@Z 00000001801abc10 f i GuPCMContactConvexCommon.obj
 0001:001aacb0       ?supportLocal@TriangleV@Gu@physx@@QEBAXAEBT__m128@@AEAT4@1@Z 00000001801abcb0 f i GuPCMContactConvexCommon.obj
 0001:001aafa0       ?pcmContactConvexConvex@Gu@physx@@YA_NAEBVGeometryUnion@12@0AEBVPxTransform@2@1AEBUNarrowPhaseParams@12@AEAUCache@12@AEAVContactBuffer@12@PEAVRenderOutput@Cm@2@@Z 00000001801abfa0 f   GuPCMContactConvexConvex.obj
 0001:001acf40       ??$gjkPenetration@U?$RelativeConvex@VShrunkConvexHullNoScaleV@Gu@physx@@@Gu@physx@@U?$LocalConvex@VShrunkConvexHullNoScaleV@Gu@physx@@@23@@Gu@physx@@YA?AW4GjkStatus@01@AEBU?$RelativeConvex@VShrunkConvexHullNoScaleV@Gu@physx@@@01@AEBU?$LocalConvex@VShrunkConvexHullNoScaleV@Gu@physx@@@01@AEBT__m128@@2AEAT5@333PEIAE4AEAE_N@Z 00000001801adf40 f i GuPCMContactConvexConvex.obj
 0001:001aede0       ??$gjkPenetration@U?$RelativeConvex@VShrunkConvexHullNoScaleV@Gu@physx@@@Gu@physx@@U?$LocalConvex@VShrunkConvexHullV@Gu@physx@@@23@@Gu@physx@@YA?AW4GjkStatus@01@AEBU?$RelativeConvex@VShrunkConvexHullNoScaleV@Gu@physx@@@01@AEBU?$LocalConvex@VShrunkConvexHullV@Gu@physx@@@01@AEBT__m128@@2AEAT5@333PEIAE4AEAE_N@Z 00000001801afde0 f i GuPCMContactConvexConvex.obj
 0001:001b0c80       ??$gjkPenetration@U?$RelativeConvex@VShrunkConvexHullV@Gu@physx@@@Gu@physx@@U?$LocalConvex@VShrunkConvexHullNoScaleV@Gu@physx@@@23@@Gu@physx@@YA?AW4GjkStatus@01@AEBU?$RelativeConvex@VShrunkConvexHullV@Gu@physx@@@01@AEBU?$LocalConvex@VShrunkConvexHullNoScaleV@Gu@physx@@@01@AEBT__m128@@2AEAT5@333PEIAE4AEAE_N@Z 00000001801b1c80 f i GuPCMContactConvexConvex.obj
 0001:001b2b20       ??$gjkPenetration@U?$RelativeConvex@VShrunkConvexHullV@Gu@physx@@@Gu@physx@@U?$LocalConvex@VShrunkConvexHullV@Gu@physx@@@23@@Gu@physx@@YA?AW4GjkStatus@01@AEBU?$RelativeConvex@VShrunkConvexHullV@Gu@physx@@@01@AEBU?$LocalConvex@VShrunkConvexHullV@Gu@physx@@@01@AEBT__m128@@2AEAT5@333PEIAE4AEAE_N@Z 00000001801b3b20 f i GuPCMContactConvexConvex.obj
 0001:001b49c0       ??0?$RelativeConvex@VConvexHullV@Gu@physx@@@Gu@physx@@QEAA@AEBVConvexHullV@12@AEBVPsMatTransformV@aos@shdfnd@2@@Z 00000001801b59c0 f i GuPCMContactConvexConvex.obj
 0001:001b4a80       ??0?$RelativeConvex@VShrunkConvexHullNoScaleV@Gu@physx@@@Gu@physx@@QEAA@AEBVShrunkConvexHullNoScaleV@12@AEBVPsMatTransformV@aos@shdfnd@2@@Z 00000001801b5a80 f i GuPCMContactConvexConvex.obj
 0001:001b4b40       ??0?$RelativeConvex@VShrunkConvexHullV@Gu@physx@@@Gu@physx@@QEAA@AEBVShrunkConvexHullV@12@AEBVPsMatTransformV@aos@shdfnd@2@@Z 00000001801b5b40 f i GuPCMContactConvexConvex.obj
 0001:001b4c00       ??1?$RelativeConvex@VConvexHullV@Gu@physx@@@Gu@physx@@UEAA@XZ 00000001801b5c00 f i GuPCMContactConvexConvex.obj
 0001:001b4c20       ??1?$RelativeConvex@VShrunkConvexHullNoScaleV@Gu@physx@@@Gu@physx@@UEAA@XZ 00000001801b5c20 f i GuPCMContactConvexConvex.obj
 0001:001b4c40       ??1?$RelativeConvex@VShrunkConvexHullV@Gu@physx@@@Gu@physx@@UEAA@XZ 00000001801b5c40 f i GuPCMContactConvexConvex.obj
 0001:001b4c60       ??_E?$RelativeConvex@VConvexHullV@Gu@physx@@@Gu@physx@@UEAAPEAXI@Z 00000001801b5c60 f i GuPCMContactConvexConvex.obj
 0001:001b4c60       ??_G?$RelativeConvex@VConvexHullV@Gu@physx@@@Gu@physx@@UEAAPEAXI@Z 00000001801b5c60 f i GuPCMContactConvexConvex.obj
 0001:001b4cb0       ??_G?$RelativeConvex@VShrunkConvexHullNoScaleV@Gu@physx@@@Gu@physx@@UEAAPEAXI@Z 00000001801b5cb0 f i GuPCMContactConvexConvex.obj
 0001:001b4cb0       ??_E?$RelativeConvex@VShrunkConvexHullNoScaleV@Gu@physx@@@Gu@physx@@UEAAPEAXI@Z 00000001801b5cb0 f i GuPCMContactConvexConvex.obj
 0001:001b4d00       ??_E?$RelativeConvex@VShrunkConvexHullV@Gu@physx@@@Gu@physx@@UEAAPEAXI@Z 00000001801b5d00 f i GuPCMContactConvexConvex.obj
 0001:001b4d00       ??_G?$RelativeConvex@VShrunkConvexHullV@Gu@physx@@@Gu@physx@@UEAAPEAXI@Z 00000001801b5d00 f i GuPCMContactConvexConvex.obj
 0001:001b4d50       ?getCenter@?$RelativeConvex@VConvexHullV@Gu@physx@@@Gu@physx@@UEBA?AT__m128@@XZ 00000001801b5d50 f i GuPCMContactConvexConvex.obj
 0001:001b4db0       ?getCenter@?$RelativeConvex@VShrunkConvexHullNoScaleV@Gu@physx@@@Gu@physx@@UEBA?AT__m128@@XZ 00000001801b5db0 f i GuPCMContactConvexConvex.obj
 0001:001b4e10       ?getCenter@?$RelativeConvex@VShrunkConvexHullV@Gu@physx@@@Gu@physx@@UEBA?AT__m128@@XZ 00000001801b5e10 f i GuPCMContactConvexConvex.obj
 0001:001b4e70       ?getSweepMargin@?$RelativeConvex@VConvexHullV@Gu@physx@@@Gu@physx@@UEBA?AT__m128@@XZ 00000001801b5e70 f i GuPCMContactConvexConvex.obj
 0001:001b4eb0       ?getSweepMargin@?$RelativeConvex@VShrunkConvexHullNoScaleV@Gu@physx@@@Gu@physx@@UEBA?AT__m128@@XZ 00000001801b5eb0 f i GuPCMContactConvexConvex.obj
 0001:001b4ef0       ?getSweepMargin@?$RelativeConvex@VShrunkConvexHullV@Gu@physx@@@Gu@physx@@UEBA?AT__m128@@XZ 00000001801b5ef0 f i GuPCMContactConvexConvex.obj
 0001:001b4f30       ?support@?$RelativeConvex@VConvexHullV@Gu@physx@@@Gu@physx@@UEBA?AT__m128@@AEBT4@@Z 00000001801b5f30 f i GuPCMContactConvexConvex.obj
 0001:001b4fa0       ?support@?$RelativeConvex@VConvexHullV@Gu@physx@@@Gu@physx@@UEBA?AT__m128@@AEBT4@AEAHPEAT4@@Z 00000001801b5fa0 f i GuPCMContactConvexConvex.obj
 0001:001b5040       ?support@?$RelativeConvex@VShrunkConvexHullNoScaleV@Gu@physx@@@Gu@physx@@UEBA?AT__m128@@AEBT4@@Z 00000001801b6040 f i GuPCMContactConvexConvex.obj
 0001:001b50b0       ?support@?$RelativeConvex@VShrunkConvexHullNoScaleV@Gu@physx@@@Gu@physx@@UEBA?AT__m128@@AEBT4@AEAHPEAT4@@Z 00000001801b60b0 f i GuPCMContactConvexConvex.obj
 0001:001b5150       ?support@?$RelativeConvex@VShrunkConvexHullV@Gu@physx@@@Gu@physx@@UEBA?AT__m128@@AEBT4@@Z 00000001801b6150 f i GuPCMContactConvexConvex.obj
 0001:001b51c0       ?support@?$RelativeConvex@VShrunkConvexHullV@Gu@physx@@@Gu@physx@@UEBA?AT__m128@@AEBT4@AEAHPEAT4@@Z 00000001801b61c0 f i GuPCMContactConvexConvex.obj
 0001:001b5260       ?supportPoint@?$RelativeConvex@VConvexHullV@Gu@physx@@@Gu@physx@@UEBA?AT__m128@@HPEAT4@@Z 00000001801b6260 f i GuPCMContactConvexConvex.obj
 0001:001b52d0       ?supportPoint@?$RelativeConvex@VShrunkConvexHullNoScaleV@Gu@physx@@@Gu@physx@@UEBA?AT__m128@@HPEAT4@@Z 00000001801b62d0 f i GuPCMContactConvexConvex.obj
 0001:001b5340       ?supportPoint@?$RelativeConvex@VShrunkConvexHullV@Gu@physx@@@Gu@physx@@UEBA?AT__m128@@HPEAT4@@Z 00000001801b6340 f i GuPCMContactConvexConvex.obj
 0001:001b53b0       ?supportRelative@ConvexHullV@Gu@physx@@QEBA?AT__m128@@AEBT4@AEBVPsMatTransformV@aos@shdfnd@3@1@Z 00000001801b63b0 f i GuPCMContactConvexConvex.obj
 0001:001b5430       ?supportRelative@ConvexHullV@Gu@physx@@QEBA?AT__m128@@AEBT4@AEBVPsMatTransformV@aos@shdfnd@3@1AEAHPEAT4@@Z 00000001801b6430 f i GuPCMContactConvexConvex.obj
 0001:001b54d0       ?supportRelative@ShrunkConvexHullNoScaleV@Gu@physx@@QEBA?AT__m128@@AEBT4@AEBVPsMatTransformV@aos@shdfnd@3@1@Z 00000001801b64d0 f i GuPCMContactConvexConvex.obj
 0001:001b5550       ?supportRelative@ShrunkConvexHullNoScaleV@Gu@physx@@QEBA?AT__m128@@AEBT4@AEBVPsMatTransformV@aos@shdfnd@3@1AEAHPEAT4@@Z 00000001801b6550 f i GuPCMContactConvexConvex.obj
 0001:001b55f0       ?supportRelative@ShrunkConvexHullV@Gu@physx@@QEBA?AT__m128@@AEBT4@AEBVPsMatTransformV@aos@shdfnd@3@1@Z 00000001801b65f0 f i GuPCMContactConvexConvex.obj
 0001:001b5670       ?supportRelative@ShrunkConvexHullV@Gu@physx@@QEBA?AT__m128@@AEBT4@AEBVPsMatTransformV@aos@shdfnd@3@1AEAHPEAT4@@Z 00000001801b6670 f i GuPCMContactConvexConvex.obj
 0001:001b5710       ?pcmContactBoxHeightField@Gu@physx@@YA_NAEBVGeometryUnion@12@0AEBVPxTransform@2@1AEBUNarrowPhaseParams@12@AEAUCache@12@AEAVContactBuffer@12@PEAVRenderOutput@Cm@2@@Z 00000001801b6710 f   GuPCMContactConvexHeightField.obj
 0001:001b5af0       ?pcmContactConvexHeightField@Gu@physx@@YA_NAEBVGeometryUnion@12@0AEBVPxTransform@2@1AEBUNarrowPhaseParams@12@AEAUCache@12@AEAVContactBuffer@12@PEAVRenderOutput@Cm@2@@Z 00000001801b6af0 f   GuPCMContactConvexHeightField.obj
 0001:001b6000       ?PCMContactConvexHeightfield@Gu@physx@@YA_NAEBUPolygonalData@12@PEAVSupportLocal@12@AEBT__m128@@AEBVPxBounds3@2@AEBVPxHeightFieldGeometry@2@AEBVPxTransform@2@5MAEAVContactBuffer@12@AEBVFastVertex2ShapeScaling@Cm@2@_NAEAVMultiplePersistentContactManifold@12@PEAVRenderOutput@Cm@2@@Z 00000001801b7000 f   GuPCMContactConvexHeightField.obj
 0001:001b6910       ??$processTriangleCache@$0BA@@PCMConvexVsHeightfieldContactGenerationCallback@physx@@QEAAXAEAU?$TriangleCache@$0BA@@Gu@1@@Z 00000001801b7910 f i GuPCMContactConvexHeightField.obj
 0001:001b6950       ??$processTriangleCache@$0BA@VPCMConvexVsMeshContactGeneration@Gu@physx@@@PCMMeshContactGeneration@Gu@physx@@QEAA_NAEAU?$TriangleCache@$0BA@@12@@Z 00000001801b7950 f i GuPCMContactConvexHeightField.obj
 0001:001b6a60       ??0?$PCMHeightfieldContactGenerationCallback@UPCMConvexVsHeightfieldContactGenerationCallback@physx@@@Gu@physx@@QEAA@AEBVHeightFieldUtil@12@AEBVPxTransform@2@@Z 00000001801b7a60 f i GuPCMContactConvexHeightField.obj
 0001:001b6ad0       ??0PCMConvexVsHeightfieldContactGenerationCallback@physx@@QEAA@AEBT__m128@@0AEBUPolygonalData@Gu@1@PEAVSupportLocal@41@AEBVFastVertex2ShapeScaling@Cm@1@_NAEBVPsTransformV@aos@shdfnd@1@5AEBVPxTransform@1@AEAVMultiplePersistentContactManifold@41@AEAVContactBuffer@41@AEAVHeightFieldUtil@41@AEAV?$InlineArray@I$0EEA@VNamedAllocator@shdfnd@physx@@@shdfnd@1@PEAVRenderOutput@71@@Z 00000001801b7ad0 f i GuPCMContactConvexHeightField.obj
 0001:001b6c10       ??0PCMConvexVsMeshContactGeneration@Gu@physx@@QEAA@AEBT__m128@@0AEBVPsTransformV@aos@shdfnd@2@1AEAVMultiplePersistentContactManifold@12@AEAVContactBuffer@12@AEBUPolygonalData@12@PEAVSupportLocal@12@AEAV?$InlineArray@I$0EEA@VNamedAllocator@shdfnd@physx@@@62@AEBVFastVertex2ShapeScaling@Cm@2@_NPEAVRenderOutput@Cm@2@@Z 00000001801b7c10 f i GuPCMContactConvexHeightField.obj
 0001:001b6e00       ??1?$PCMHeightfieldContactGenerationCallback@UPCMConvexVsHeightfieldContactGenerationCallback@physx@@@Gu@physx@@UEAA@XZ 00000001801b7e00 f i GuPCMContactConvexHeightField.obj
 0001:001b6e20       ??1PCMConvexVsHeightfieldContactGenerationCallback@physx@@UEAA@XZ 00000001801b7e20 f i GuPCMContactConvexHeightField.obj
 0001:001b6e40       ??_G?$PCMHeightfieldContactGenerationCallback@UPCMConvexVsHeightfieldContactGenerationCallback@physx@@@Gu@physx@@UEAAPEAXI@Z 00000001801b7e40 f i GuPCMContactConvexHeightField.obj
 0001:001b6e40       ??_E?$PCMHeightfieldContactGenerationCallback@UPCMConvexVsHeightfieldContactGenerationCallback@physx@@@Gu@physx@@UEAAPEAXI@Z 00000001801b7e40 f i GuPCMContactConvexHeightField.obj
 0001:001b6e90       ??_GPCMConvexVsHeightfieldContactGenerationCallback@physx@@UEAAPEAXI@Z 00000001801b7e90 f i GuPCMContactConvexHeightField.obj
 0001:001b6e90       ??_EPCMConvexVsHeightfieldContactGenerationCallback@physx@@UEAAPEAXI@Z 00000001801b7e90 f i GuPCMContactConvexHeightField.obj
 0001:001b6ee0       ?onEvent@?$PCMHeightfieldContactGenerationCallback@UPCMConvexVsHeightfieldContactGenerationCallback@physx@@@Gu@physx@@UEAA_NIPEAI@Z 00000001801b7ee0 f i GuPCMContactConvexHeightField.obj
 0001:001b75e0       ?pcmContactBoxMesh@Gu@physx@@YA_NAEBVGeometryUnion@12@0AEBVPxTransform@2@1AEBUNarrowPhaseParams@12@AEAUCache@12@AEAVContactBuffer@12@PEAVRenderOutput@Cm@2@@Z 00000001801b85e0 f   GuPCMContactConvexMesh.obj
 0001:001b79d0       ?pcmContactConvexMesh@Gu@physx@@YA_NAEBVGeometryUnion@12@0AEBVPxTransform@2@1AEBUNarrowPhaseParams@12@AEAUCache@12@AEAVContactBuffer@12@PEAVRenderOutput@Cm@2@@Z 00000001801b89d0 f   GuPCMContactConvexMesh.obj
 0001:001b7f30       ?PCMContactConvexMesh@Gu@physx@@YA_NAEBUPolygonalData@12@PEAVSupportLocal@12@AEBT__m128@@AEBVPxBounds3@2@AEBUPxTriangleMeshGeometryLL@2@AEBVPxTransform@2@5MAEAVContactBuffer@12@AEBVFastVertex2ShapeScaling@Cm@2@7_N8AEAVMultiplePersistentContactManifold@12@PEAVRenderOutput@Cm@2@@Z 00000001801b8f30 f   GuPCMContactConvexMesh.obj
 0001:001b88e0       ??$processTriangleCache@$0BA@@PCMConvexVsMeshContactGenerationCallback@physx@@QEAAXAEAU?$TriangleCache@$0BA@@Gu@1@@Z 00000001801b98e0 f i GuPCMContactConvexMesh.obj
 0001:001b8920       ??0?$PCMMeshContactGenerationCallback@UPCMConvexVsMeshContactGenerationCallback@physx@@@Gu@physx@@QEAA@AEBVFastVertex2ShapeScaling@Cm@2@PEBE_N@Z 00000001801b9920 f i GuPCMContactConvexMesh.obj
 0001:001b89c0       ??0PCMConvexVsMeshContactGenerationCallback@physx@@QEAA@AEBT__m128@@0AEBVPsTransformV@aos@shdfnd@1@1AEAVMultiplePersistentContactManifold@Gu@1@AEAVContactBuffer@71@AEBUPolygonalData@71@PEAVSupportLocal@71@AEAV?$InlineArray@I$0EEA@VNamedAllocator@shdfnd@physx@@@51@AEBVFastVertex2ShapeScaling@Cm@1@_N7PEBE8AEBVBoxPadded@71@PEAVRenderOutput@Cm@1@@Z 00000001801b99c0 f i GuPCMContactConvexMesh.obj
 0001:001b8b20       ??1?$PCMMeshContactGenerationCallback@UPCMConvexVsMeshContactGenerationCallback@physx@@@Gu@physx@@UEAA@XZ 00000001801b9b20 f i GuPCMContactConvexMesh.obj
 0001:001b8b40       ??1PCMConvexVsMeshContactGenerationCallback@physx@@UEAA@XZ 00000001801b9b40 f i GuPCMContactConvexMesh.obj
 0001:001b8b60       ??_E?$PCMMeshContactGenerationCallback@UPCMConvexVsMeshContactGenerationCallback@physx@@@Gu@physx@@UEAAPEAXI@Z 00000001801b9b60 f i GuPCMContactConvexMesh.obj
 0001:001b8b60       ??_G?$PCMMeshContactGenerationCallback@UPCMConvexVsMeshContactGenerationCallback@physx@@@Gu@physx@@UEAAPEAXI@Z 00000001801b9b60 f i GuPCMContactConvexMesh.obj
 0001:001b8bb0       ??_EPCMConvexVsMeshContactGenerationCallback@physx@@UEAAPEAXI@Z 00000001801b9bb0 f i GuPCMContactConvexMesh.obj
 0001:001b8bb0       ??_GPCMConvexVsMeshContactGenerationCallback@physx@@UEAAPEAXI@Z 00000001801b9bb0 f i GuPCMContactConvexMesh.obj
 0001:001b8c00       ?doTest@PCMConvexVsMeshContactGenerationCallback@physx@@QEAAHAEBVPxVec3@2@00@Z 00000001801b9c00 f i GuPCMContactConvexMesh.obj
 0001:001b8c50       ?flushCache@?$PCMMeshContactGenerationCallback@UPCMConvexVsMeshContactGenerationCallback@physx@@@Gu@physx@@QEAAXXZ 00000001801b9c50 f i GuPCMContactConvexMesh.obj
 0001:001b8cb0       ?processHit@?$PCMMeshContactGenerationCallback@UPCMConvexVsMeshContactGenerationCallback@physx@@@Gu@physx@@UEAA_NAEBUPxRaycastHit@3@AEBVPxVec3@3@11AEAMPEBI@Z 00000001801b9cb0 f i GuPCMContactConvexMesh.obj
 0001:001b8fb0       ?generateFullContactManifold@Gu@physx@@YA_NAEAUPolygonalData@12@0PEAVSupportLocal@12@1PEAVPersistentContact@12@AEAIAEBT__m128@@44444_NPEAVRenderOutput@Cm@2@4@Z 00000001801b9fb0 f   GuPCMContactGenBoxConvex.obj
 0001:001b9a40       ?computeMTD@Gu@physx@@YA_NAEAUPolygonalData@12@0PEAVSupportLocal@12@1AEAT__m128@@2@Z 00000001801baa40 f   GuPCMContactGenBoxConvex.obj
 0001:001b9dd0       ?buildPartialHull@Gu@physx@@YAXAEBUPolygonalData@12@PEAVSupportLocal@12@AEAVSeparatingAxes@12@AEBT__m128@@3@Z 00000001801badd0 f   GuPCMContactGenBoxConvex.obj
 0001:001bbe50       ?generatedContacts@Gu@physx@@YAXAEAUPolygonalData@12@0AEBUHullPolygonData@12@1PEAVSupportLocal@12@2AEBVPsMatTransformV@aos@shdfnd@2@PEAVPersistentContact@12@AEAIAEBT__m128@@PEAVRenderOutput@Cm@2@@Z 00000001801bce50 f   GuPCMContactGenBoxConvex.obj
 0001:001be810       ??$PX_UNUSED@UPolygonalData@Gu@physx@@@@YAXAEBUPolygonalData@Gu@physx@@@Z 00000001801bf810 f i GuPCMContactGenBoxConvex.obj
 0001:001be820       ?getPolygonIndex@Gu@physx@@YAHAEBUPolygonalData@12@PEAVSupportLocal@12@AEBT__m128@@@Z 00000001801bf820 f i GuPCMContactGenBoxConvex.obj
 0001:001bf200       ?getWitnessPolygonIndex@Gu@physx@@YAIAEBUPolygonalData@12@PEAVSupportLocal@12@AEBT__m128@@22@Z 00000001801c0200 f i GuPCMContactGenBoxConvex.obj
 0001:001bf8b0       ?signed2DTriArea@Gu@physx@@YA?AT__m128@@AEBT3@00@Z 00000001801c08b0 f i GuPCMContactGenBoxConvex.obj
 0001:001bfb40       ?generateFullContactManifold@Gu@physx@@YA_NAEBVCapsuleV@12@AEAUPolygonalData@12@PEAVSupportLocal@12@AEBVPsMatTransformV@aos@shdfnd@2@PEAVPersistentContact@12@AEAIAEBT__m128@@AEAT__m128@@66_N6@Z 00000001801c0b40 f   GuPCMContactGenSphereCapsule.obj
 0001:001bff80       ?generateCapsuleBoxFullContactManifold@Gu@physx@@YA_NAEBVCapsuleV@12@AEAUPolygonalData@12@PEAVSupportLocal@12@AEBVPsMatTransformV@aos@shdfnd@2@PEAVPersistentContact@12@AEAIAEBT__m128@@AEAT__m128@@66_N6@Z 00000001801c0f80 f   GuPCMContactGenSphereCapsule.obj
 0001:001c02e0       ?computeMTD@Gu@physx@@YA_NAEBVCapsuleV@12@AEAUPolygonalData@12@PEAVSupportLocal@12@AEAT__m128@@3@Z 00000001801c12e0 f   GuPCMContactGenSphereCapsule.obj
 0001:001c03a0       ?generateSphereFullContactManifold@Gu@physx@@YA_NAEBVCapsuleV@12@AEAUPolygonalData@12@PEAVSupportLocal@12@PEAVPersistentContact@12@AEAIAEBT__m128@@AEAT7@_N@Z 00000001801c13a0 f   GuPCMContactGenSphereCapsule.obj
 0001:001c1000       ?generatedCapsuleBoxFaceContacts@Gu@physx@@YAXAEBVCapsuleV@12@AEAUPolygonalData@12@AEBUHullPolygonData@12@PEAVSupportLocal@12@AEBVPsMatTransformV@aos@shdfnd@2@PEAVPersistentContact@12@AEAIAEBT__m128@@7@Z 00000001801c2000 f   GuPCMContactGenSphereCapsule.obj
 0001:001c2930       ?generatedContactsEEContacts@Gu@physx@@YAXAEBVCapsuleV@12@AEAUPolygonalData@12@AEBUHullPolygonData@12@PEAVSupportLocal@12@AEBVPsMatTransformV@aos@shdfnd@2@PEAVPersistentContact@12@AEAIAEBT__m128@@7@Z 00000001801c3930 f   GuPCMContactGenSphereCapsule.obj
 0001:001c36f0       ?BAndNot@aos@shdfnd@physx@@YA?AT__m128@@T4@0@Z 00000001801c46f0 f i GuPCMContactGenSphereCapsule.obj
 0001:001c3730       ?intersectSegmentPolyhedron@Gu@physx@@YA_NAEBT__m128@@0AEBUPolygonalData@12@AEAT3@2@Z 00000001801c4730 f i GuPCMContactGenSphereCapsule.obj
 0001:001c3e00       ?testPolyDataAxis@Gu@physx@@YA_NAEBVCapsuleV@12@AEBUPolygonalData@12@PEAVSupportLocal@12@AEBT__m128@@AEAT6@4@Z 00000001801c4e00 f i GuPCMContactGenSphereCapsule.obj
 0001:001c46b0       ?pcmContactPlaneBox@Gu@physx@@YA_NAEBVGeometryUnion@12@0AEBVPxTransform@2@1AEBUNarrowPhaseParams@12@AEAUCache@12@AEAVContactBuffer@12@PEAVRenderOutput@Cm@2@@Z 00000001801c56b0 f   GuPCMContactPlaneBox.obj
 0001:001c6700       ?invalidate_PrimitivesPlane@PersistentContactManifold@Gu@physx@@QEAAIAEBVPsTransformV@aos@shdfnd@3@AEBT__m128@@1@Z 00000001801c7700 f i GuPCMContactPlaneBox.obj
 0001:001c6950       ?pcmContactPlaneCapsule@Gu@physx@@YA_NAEBVGeometryUnion@12@0AEBVPxTransform@2@1AEBUNarrowPhaseParams@12@AEAUCache@12@AEAVContactBuffer@12@PEAVRenderOutput@Cm@2@@Z 00000001801c7950 f   GuPCMContactPlaneCapsule.obj
 0001:001c74b0       ?pcmContactPlaneConvex@Gu@physx@@YA_NAEBVGeometryUnion@12@0AEBVPxTransform@2@1AEBUNarrowPhaseParams@12@AEAUCache@12@AEAVContactBuffer@12@PEAVRenderOutput@Cm@2@@Z 00000001801c84b0 f   GuPCMContactPlaneConvex.obj
 0001:001c7df0       ?ConstructVertex2ShapeMatrix@Gu@physx@@YA?AUMat33V@aos@shdfnd@2@AEBT__m128@@0@Z 00000001801c8df0 f i GuPCMContactPlaneConvex.obj
 0001:001c8020       ?pcmContactSphereBox@Gu@physx@@YA_NAEBVGeometryUnion@12@0AEBVPxTransform@2@1AEBUNarrowPhaseParams@12@AEAUCache@12@AEAVContactBuffer@12@PEAVRenderOutput@Cm@2@@Z 00000001801c9020 f   GuPCMContactSphereBox.obj
 0001:001c91c0       ?BAllTrue3@aos@shdfnd@physx@@YA?AT__m128@@T4@@Z 00000001801ca1c0 f i GuPCMContactSphereBox.obj
 0001:001c9280       ?V3Clamp@aos@shdfnd@physx@@YA?AT__m128@@T4@00@Z 00000001801ca280 f i GuPCMContactSphereBox.obj
 0001:001c94e0       ?pcmContactSphereCapsule@Gu@physx@@YA_NAEBVGeometryUnion@12@0AEBVPxTransform@2@1AEBUNarrowPhaseParams@12@AEAUCache@12@AEAVContactBuffer@12@PEAVRenderOutput@Cm@2@@Z 00000001801ca4e0 f   GuPCMContactSphereCapsule.obj
 0001:001c9e30       ?PxcDistancePointSegmentSquared@Gu@physx@@YA?AT__m128@@AEBT3@00AEAT3@@Z 00000001801cae30 f i GuPCMContactSphereCapsule.obj
 0001:001ca2c0       ?pcmContactSphereConvex@Gu@physx@@YA_NAEBVGeometryUnion@12@0AEBVPxTransform@2@1AEBUNarrowPhaseParams@12@AEAUCache@12@AEAVContactBuffer@12@PEAVRenderOutput@Cm@2@@Z 00000001801cb2c0 f   GuPCMContactSphereConvex.obj
 0001:001cbdd0       ??0CapsuleV@Gu@physx@@QEAA@AEBT__m128@@0@Z 00000001801ccdd0 f i GuPCMContactSphereConvex.obj
 0001:001cbef0       ?getContactPoint@PersistentContactManifold@Gu@physx@@QEAAAEAVPersistentContact@23@I@Z 00000001801ccef0 f i GuPCMContactSphereConvex.obj
 0001:001cbf80       ?pcmContactSphereHeightField@Gu@physx@@YA_NAEBVGeometryUnion@12@0AEBVPxTransform@2@1AEBUNarrowPhaseParams@12@AEAUCache@12@AEAVContactBuffer@12@PEAVRenderOutput@Cm@2@@Z 00000001801ccf80 f   GuPCMContactSphereHeightField.obj
 0001:001cc700       ??$processTriangleCache@$0BA@@PCMSphereVsHeightfieldContactGenerationCallback@physx@@QEAAXAEAU?$TriangleCache@$0BA@@Gu@1@@Z 00000001801cd700 f i GuPCMContactSphereHeightField.obj
 0001:001cc740       ??$processTriangleCache@$0BA@VPCMSphereVsMeshContactGeneration@Gu@physx@@@PCMMeshContactGeneration@Gu@physx@@QEAA_NAEAU?$TriangleCache@$0BA@@12@@Z 00000001801cd740 f i GuPCMContactSphereHeightField.obj
 0001:001cc850       ??0?$PCMHeightfieldContactGenerationCallback@UPCMSphereVsHeightfieldContactGenerationCallback@physx@@@Gu@physx@@QEAA@AEBVHeightFieldUtil@12@AEBVPxTransform@2@@Z 00000001801cd850 f i GuPCMContactSphereHeightField.obj
 0001:001cc8c0       ??0PCMSphereVsHeightfieldContactGenerationCallback@physx@@QEAA@AEBT__m128@@000AEBVPsTransformV@aos@shdfnd@1@1AEBVPxTransform@1@AEAVMultiplePersistentContactManifold@Gu@1@AEAVContactBuffer@81@AEAVHeightFieldUtil@81@@Z 00000001801cd8c0 f i GuPCMContactSphereHeightField.obj
 0001:001cc9b0       ??0PCMSphereVsMeshContactGeneration@Gu@physx@@QEAA@AEBT__m128@@000AEBVPsTransformV@aos@shdfnd@2@1AEAVMultiplePersistentContactManifold@12@AEAVContactBuffer@12@PEAVRenderOutput@Cm@2@@Z 00000001801cd9b0 f i GuPCMContactSphereHeightField.obj
 0001:001ccb50       ??1?$PCMHeightfieldContactGenerationCallback@UPCMSphereVsHeightfieldContactGenerationCallback@physx@@@Gu@physx@@UEAA@XZ 00000001801cdb50 f i GuPCMContactSphereHeightField.obj
 0001:001ccb70       ??1PCMSphereVsHeightfieldContactGenerationCallback@physx@@UEAA@XZ 00000001801cdb70 f i GuPCMContactSphereHeightField.obj
 0001:001ccb90       ??_G?$PCMHeightfieldContactGenerationCallback@UPCMSphereVsHeightfieldContactGenerationCallback@physx@@@Gu@physx@@UEAAPEAXI@Z 00000001801cdb90 f i GuPCMContactSphereHeightField.obj
 0001:001ccb90       ??_E?$PCMHeightfieldContactGenerationCallback@UPCMSphereVsHeightfieldContactGenerationCallback@physx@@@Gu@physx@@UEAAPEAXI@Z 00000001801cdb90 f i GuPCMContactSphereHeightField.obj
 0001:001ccbe0       ??_GPCMSphereVsHeightfieldContactGenerationCallback@physx@@UEAAPEAXI@Z 00000001801cdbe0 f i GuPCMContactSphereHeightField.obj
 0001:001ccbe0       ??_EPCMSphereVsHeightfieldContactGenerationCallback@physx@@UEAAPEAXI@Z 00000001801cdbe0 f i GuPCMContactSphereHeightField.obj
 0001:001ccc30       ?onEvent@?$PCMHeightfieldContactGenerationCallback@UPCMSphereVsHeightfieldContactGenerationCallback@physx@@@Gu@physx@@UEAA_NIPEAI@Z 00000001801cdc30 f i GuPCMContactSphereHeightField.obj
 0001:001cd330       ?pcmContactSphereMesh@Gu@physx@@YA_NAEBVGeometryUnion@12@0AEBVPxTransform@2@1AEBUNarrowPhaseParams@12@AEAUCache@12@AEAVContactBuffer@12@PEAVRenderOutput@Cm@2@@Z 00000001801ce330 f   GuPCMContactSphereMesh.obj
 0001:001cdb80       ??$processTriangleCache@$0BA@@PCMSphereVsMeshContactGenerationCallback@physx@@QEAAXAEAU?$TriangleCache@$0BA@@Gu@1@@Z 00000001801ceb80 f i GuPCMContactSphereMesh.obj
 0001:001cdbc0       ??0?$PCMMeshContactGenerationCallback@UPCMSphereVsMeshContactGenerationCallback@physx@@@Gu@physx@@QEAA@AEBVFastVertex2ShapeScaling@Cm@2@PEBE_N@Z 00000001801cebc0 f i GuPCMContactSphereMesh.obj
 0001:001cdc60       ??0PCMSphereVsMeshContactGenerationCallback@physx@@QEAA@AEBT__m128@@000AEBVPsTransformV@aos@shdfnd@1@1AEAVMultiplePersistentContactManifold@Gu@1@AEAVContactBuffer@71@PEBEAEBVFastVertex2ShapeScaling@Cm@1@_NPEAVRenderOutput@Cm@1@@Z 00000001801cec60 f i GuPCMContactSphereMesh.obj
 0001:001cdd60       ??1?$PCMMeshContactGenerationCallback@UPCMSphereVsMeshContactGenerationCallback@physx@@@Gu@physx@@UEAA@XZ 00000001801ced60 f i GuPCMContactSphereMesh.obj
 0001:001cdd80       ??1PCMSphereVsMeshContactGenerationCallback@physx@@UEAA@XZ 00000001801ced80 f i GuPCMContactSphereMesh.obj
 0001:001cdda0       ??_G?$PCMMeshContactGenerationCallback@UPCMSphereVsMeshContactGenerationCallback@physx@@@Gu@physx@@UEAAPEAXI@Z 00000001801ceda0 f i GuPCMContactSphereMesh.obj
 0001:001cdda0       ??_E?$PCMMeshContactGenerationCallback@UPCMSphereVsMeshContactGenerationCallback@physx@@@Gu@physx@@UEAAPEAXI@Z 00000001801ceda0 f i GuPCMContactSphereMesh.obj
 0001:001cddf0       ??_GPCMSphereVsMeshContactGenerationCallback@physx@@UEAAPEAXI@Z 00000001801cedf0 f i GuPCMContactSphereMesh.obj
 0001:001cddf0       ??_EPCMSphereVsMeshContactGenerationCallback@physx@@UEAAPEAXI@Z 00000001801cedf0 f i GuPCMContactSphereMesh.obj
 0001:001cde40       ?doTest@PCMSphereVsMeshContactGenerationCallback@physx@@QEAA_NAEBVPxVec3@2@00@Z 00000001801cee40 f i GuPCMContactSphereMesh.obj
 0001:001cde60       ?flushCache@?$PCMMeshContactGenerationCallback@UPCMSphereVsMeshContactGenerationCallback@physx@@@Gu@physx@@QEAAXXZ 00000001801cee60 f i GuPCMContactSphereMesh.obj
 0001:001cdec0       ?processHit@?$PCMMeshContactGenerationCallback@UPCMSphereVsMeshContactGenerationCallback@physx@@@Gu@physx@@UEAA_NAEBUPxRaycastHit@3@AEBVPxVec3@3@11AEAMPEBI@Z 00000001801ceec0 f i GuPCMContactSphereMesh.obj
 0001:001ce1c0       ?pcmContactSpherePlane@Gu@physx@@YA_NAEBVGeometryUnion@12@0AEBVPxTransform@2@1AEBUNarrowPhaseParams@12@AEAUCache@12@AEAVContactBuffer@12@PEAVRenderOutput@Cm@2@@Z 00000001801cf1c0 f   GuPCMContactSpherePlane.obj
 0001:001ce640       ?pcmContactSphereSphere@Gu@physx@@YA_NAEBVGeometryUnion@12@0AEBVPxTransform@2@1AEBUNarrowPhaseParams@12@AEAUCache@12@AEAVContactBuffer@12@PEAVRenderOutput@Cm@2@@Z 00000001801cf640 f   GuPCMContactSphereSphere.obj
 0001:001cef30       ??0PCMPolygonalBox@Gu@physx@@QEAA@AEBVPxVec3@2@@Z 00000001801cff30 f   GuPCMShapeConvex.obj
 0001:001cf860       ?getPolygonalData@PCMPolygonalBox@Gu@physx@@QEBAXPEIAUPolygonalData@23@@Z 00000001801d0860 f   GuPCMShapeConvex.obj
 0001:001cf960       ?getPCMConvexData@Gu@physx@@YAXAEBVConvexHullV@12@_NAEAUPolygonalData@12@@Z 00000001801d0960 f   GuPCMShapeConvex.obj
 0001:001cfa20       ?getPCMConvexData@Gu@physx@@YA_NAEBVGeometryUnion@12@AEAVFastVertex2ShapeScaling@Cm@2@AEAVPxBounds3@2@AEAUPolygonalData@12@@Z 00000001801d0a20 f   GuPCMShapeConvex.obj
 0001:001d0280       ?getVerticesByEdges16@ConvexHullData@Gu@physx@@QEBAPEBGXZ 00000001801d1280 f i GuPCMShapeConvex.obj
 0001:001d0370       ?generateTriangleFullContactManifold@PCMConvexVsMeshContactGeneration@Gu@physx@@QEAA_NAEAVTriangleV@23@IPEBIEAEBUPolygonalData@23@PEAV?$SupportLocalImpl@VTriangleV@Gu@physx@@@23@PEAVSupportLocal@23@PEAVMeshPersistentContact@23@AEAIAEBT__m128@@AEAT9@@Z 00000001801d1370 f   GuPCMTriangleContactGen.obj
 0001:001d0b40       ?generatePolyDataContactManifold@PCMConvexVsMeshContactGeneration@Gu@physx@@QEAA_NAEAVTriangleV@23@IIEPEAVMeshPersistentContact@23@AEAIAEBT__m128@@AEAT6@@Z 00000001801d1b40 f   GuPCMTriangleContactGen.obj
 0001:001d0cf0       ?generateTriangleFullContactManifold@PCMConvexVsMeshContactGeneration@Gu@physx@@SA_NAEAVTriangleV@23@IEAEBUPolygonalData@23@PEAV?$SupportLocalImpl@VTriangleV@Gu@physx@@@23@PEAVSupportLocal@23@PEAVMeshPersistentContact@23@AEAIAEBT__m128@@AEAT9@PEAVRenderOutput@Cm@3@@Z 00000001801d1cf0 f   GuPCMTriangleContactGen.obj
 0001:001d6c00       ??$PX_UNUSED@E@@YAXAEBE@Z  00000001801d7c00 f i GuPCMTriangleContactGen.obj
 0001:001d6c10       ??$PX_UNUSED@PEAV?$SupportLocalImpl@VTriangleV@Gu@physx@@@Gu@physx@@@@YAXAEBQEAV?$SupportLocalImpl@VTriangleV@Gu@physx@@@Gu@physx@@@Z 00000001801d7c10 f i GuPCMTriangleContactGen.obj
 0001:001d6c20       ??$PX_UNUSED@VTriangleV@Gu@physx@@@@YAXAEBVTriangleV@Gu@physx@@@Z 00000001801d7c20 f i GuPCMTriangleContactGen.obj
 0001:001d6c30       ?FRsqrtFast@aos@shdfnd@physx@@YA?AT__m128@@T4@@Z 00000001801d7c30 f i GuPCMTriangleContactGen.obj
 0001:001d6ce0       ?V3AllGrtr@aos@shdfnd@physx@@YAIT__m128@@0@Z 00000001801d7ce0 f i GuPCMTriangleContactGen.obj
 0001:001d6e70       ?V3LengthSq@aos@shdfnd@physx@@YA?AT__m128@@T4@@Z 00000001801d7e70 f i GuPCMTriangleContactGen.obj
 0001:001d6f60       ?findRotationMatrixFromZAxis@Gu@physx@@YA?AUMat33V@aos@shdfnd@2@AEBT__m128@@@Z 00000001801d7f60 f   GuPersistentContactManifold.obj
 0001:001d7ed0       ?replaceManifoldPoint@PersistentContactManifold@Gu@physx@@QEAA_NAEBT__m128@@000@Z 00000001801d8ed0 f   GuPersistentContactManifold.obj
 0001:001d81b0       ?addManifoldPoint@PersistentContactManifold@Gu@physx@@QEAAIAEBT__m128@@000@Z 00000001801d91b0 f   GuPersistentContactManifold.obj
 0001:001d82d0       ?addManifoldPoint2@PersistentContactManifold@Gu@physx@@QEAAIAEBT__m128@@000@Z 00000001801d92d0 f   GuPersistentContactManifold.obj
 0001:001d8440       ?addBatchManifoldContactsCluster@PersistentContactManifold@Gu@physx@@QEAAXPEBVPersistentContact@23@I@Z 00000001801d9440 f   GuPersistentContactManifold.obj
 0001:001d8540       ?addBatchManifoldContacts2@PersistentContactManifold@Gu@physx@@QEAAXPEBVPersistentContact@23@I@Z 00000001801d9540 f   GuPersistentContactManifold.obj
 0001:001d8640       ?addBatchManifoldContacts@PersistentContactManifold@Gu@physx@@QEAAXPEBVPersistentContact@23@I@Z 00000001801d9640 f   GuPersistentContactManifold.obj
 0001:001d8740       ?reduceBatchContactsCluster@PersistentContactManifold@Gu@physx@@QEAAXPEBVPersistentContact@23@I@Z 00000001801d9740 f   GuPersistentContactManifold.obj
 0001:001d9430       ?reduceBatchContacts2@PersistentContactManifold@Gu@physx@@QEAAXPEBVPersistentContact@23@I@Z 00000001801da430 f   GuPersistentContactManifold.obj
 0001:001d9b20       ?reduceBatchContacts@PersistentContactManifold@Gu@physx@@QEAAXPEBVPersistentContact@23@I@Z 00000001801dab20 f   GuPersistentContactManifold.obj
 0001:001da590       ?reduceContactsForPCM@PersistentContactManifold@Gu@physx@@QEAAIAEBT__m128@@00@Z 00000001801db590 f   GuPersistentContactManifold.obj
 0001:001daf20       ?reduceContactSegment@PersistentContactManifold@Gu@physx@@QEAAIAEBT__m128@@00@Z 00000001801dbf20 f   GuPersistentContactManifold.obj
 0001:001db1c0       ?addManifoldContactsToContactBuffer@PersistentContactManifold@Gu@physx@@QEAAXAEAVContactBuffer@23@AEBT__m128@@AEBVPsMatTransformV@aos@shdfnd@3@@Z 00000001801dc1c0 f   GuPersistentContactManifold.obj
 0001:001db4e0       ?addManifoldContactsToContactBuffer@PersistentContactManifold@Gu@physx@@QEAAXAEAVContactBuffer@23@AEBT__m128@@AEBVPsTransformV@aos@shdfnd@3@1@Z 00000001801dc4e0 f   GuPersistentContactManifold.obj
 0001:001db840       ?addManifoldContactsToContactBuffer@PersistentContactManifold@Gu@physx@@QEAAXAEAVContactBuffer@23@AEBT__m128@@1AEBVPsTransformV@aos@shdfnd@3@11@Z 00000001801dc840 f   GuPersistentContactManifold.obj
 0001:001dbb20       ?drawManifold@PersistentContactManifold@Gu@physx@@QEAAXAEAVRenderOutput@Cm@3@AEBVPsTransformV@aos@shdfnd@3@1@Z 00000001801dcb20 f   GuPersistentContactManifold.obj
 0001:001dbc20       ?drawManifold@PersistentContactManifold@Gu@physx@@QEAAXAEAVRenderOutput@Cm@3@AEBVPsTransformV@aos@shdfnd@3@1AEBT__m128@@@Z 00000001801dcc20 f   GuPersistentContactManifold.obj
 0001:001dbd20       ?drawManifold@PersistentContactManifold@Gu@physx@@QEAAXAEBVPersistentContact@23@AEAVRenderOutput@Cm@3@AEBVPsTransformV@aos@shdfnd@3@2@Z 00000001801dcd20 f   GuPersistentContactManifold.obj
 0001:001dbd80       ?drawPoint@PersistentContactManifold@Gu@physx@@SAXAEAVRenderOutput@Cm@3@AEBT__m128@@MI@Z 00000001801dcd80 f   GuPersistentContactManifold.obj
 0001:001dc040       ?drawLine@PersistentContactManifold@Gu@physx@@SAXAEAVRenderOutput@Cm@3@AEBT__m128@@1I@Z 00000001801dd040 f   GuPersistentContactManifold.obj
 0001:001dc160       ?drawTriangle@PersistentContactManifold@Gu@physx@@SAXAEAVRenderOutput@Cm@3@AEBT__m128@@11I@Z 00000001801dd160 f   GuPersistentContactManifold.obj
 0001:001dc2f0       ?drawPolygon@PersistentContactManifold@Gu@physx@@SAXAEAVRenderOutput@Cm@3@AEBVPsTransformV@aos@shdfnd@3@PEAT__m128@@II@Z 00000001801dd2f0 f   GuPersistentContactManifold.obj
 0001:001dc3f0       ?drawPolygon@PersistentContactManifold@Gu@physx@@SAXAEAVRenderOutput@Cm@3@AEBVPsMatTransformV@aos@shdfnd@3@PEAT__m128@@II@Z 00000001801dd3f0 f   GuPersistentContactManifold.obj
 0001:001dc4f0       ?reduceBatchContactsConvex@SinglePersistentContactManifold@Gu@physx@@QEAA?AT__m128@@PEBVMeshPersistentContact@23@IAEAUPCMContactPatch@23@@Z 00000001801dd4f0 f   GuPersistentContactManifold.obj
 0001:001dd1e0       ?reduceBatchContactsSphere@SinglePersistentContactManifold@Gu@physx@@QEAA?AT__m128@@PEBVMeshPersistentContact@23@IAEAUPCMContactPatch@23@@Z 00000001801de1e0 f   GuPersistentContactManifold.obj
 0001:001dd3c0       ?reduceBatchContactsCapsule@SinglePersistentContactManifold@Gu@physx@@QEAA?AT__m128@@PEBVMeshPersistentContact@23@IAEAUPCMContactPatch@23@@Z 00000001801de3c0 f   GuPersistentContactManifold.obj
 0001:001dda00       ?addBatchManifoldContactsConvex@SinglePersistentContactManifold@Gu@physx@@QEAA?AT__m128@@PEBVMeshPersistentContact@23@IAEAUPCMContactPatch@23@AEBT4@@Z 00000001801dea00 f   GuPersistentContactManifold.obj
 0001:001ddb50       ?addBatchManifoldContactsSphere@SinglePersistentContactManifold@Gu@physx@@QEAA?AT__m128@@PEBVMeshPersistentContact@23@IAEAUPCMContactPatch@23@AEBT4@@Z 00000001801deb50 f   GuPersistentContactManifold.obj
 0001:001ddbd0       ?addBatchManifoldContactsCapsule@SinglePersistentContactManifold@Gu@physx@@QEAA?AT__m128@@PEBVMeshPersistentContact@23@IAEAUPCMContactPatch@23@AEBT4@@Z 00000001801debd0 f   GuPersistentContactManifold.obj
 0001:001ddd20       ?reduceContacts@SinglePersistentContactManifold@Gu@physx@@SAIPEAVMeshPersistentContact@23@I@Z 00000001801ded20 f   GuPersistentContactManifold.obj
 0001:001de640       ?refreshContactPoints@SinglePersistentContactManifold@Gu@physx@@QEAA?AT__m128@@AEBVPsMatTransformV@aos@shdfnd@3@AEBT4@1@Z 00000001801df640 f   GuPersistentContactManifold.obj
 0001:001dea50       ?drawManifold@SinglePersistentContactManifold@Gu@physx@@QEAAXAEAVRenderOutput@Cm@3@AEBVPsTransformV@aos@shdfnd@3@1@Z 00000001801dfa50 f   GuPersistentContactManifold.obj
 0001:001deb50       ?addManifoldContactPoints@MultiplePersistentContactManifold@Gu@physx@@QEAAXPEAVMeshPersistentContact@23@IPEAPEAUPCMContactPatch@23@IAEBT__m128@@2E@Z 00000001801dfb50 f   GuPersistentContactManifold.obj
 0001:001df420       ?addManifoldContactsToContactBuffer@MultiplePersistentContactManifold@Gu@physx@@QEAA_NAEAVContactBuffer@23@AEBVPsTransformV@aos@shdfnd@3@@Z 00000001801e0420 f   GuPersistentContactManifold.obj
 0001:001df7a0       ?addManifoldContactsToContactBuffer@MultiplePersistentContactManifold@Gu@physx@@QEAA_NAEAVContactBuffer@23@AEBVPsTransformV@aos@shdfnd@3@1AEBT__m128@@@Z 00000001801e07a0 f   GuPersistentContactManifold.obj
 0001:001dfbc0       ?drawManifold@MultiplePersistentContactManifold@Gu@physx@@QEAAXAEAVRenderOutput@Cm@3@AEBVPsTransformV@aos@shdfnd@3@1@Z 00000001801e0bc0 f   GuPersistentContactManifold.obj
 0001:001dfc40       ?fromBuffer@MultiplePersistentContactManifold@Gu@physx@@QEAAXPEIAE@Z 00000001801e0c40 f   GuPersistentContactManifold.obj
 0001:001e0070       ?drawLine@MultiplePersistentContactManifold@Gu@physx@@SAXAEAVRenderOutput@Cm@3@AEBT__m128@@1I@Z 00000001801e1070 f   GuPersistentContactManifold.obj
 0001:001e0190       ?drawLine@MultiplePersistentContactManifold@Gu@physx@@SAXAEAVRenderOutput@Cm@3@VPxVec3@3@1I@Z 00000001801e1190 f   GuPersistentContactManifold.obj
 0001:001e0260       ?drawPoint@MultiplePersistentContactManifold@Gu@physx@@SAXAEAVRenderOutput@Cm@3@AEBT__m128@@MI@Z 00000001801e1260 f   GuPersistentContactManifold.obj
 0001:001e0520       ?drawPolygon@MultiplePersistentContactManifold@Gu@physx@@SAXAEAVRenderOutput@Cm@3@AEBVPsTransformV@aos@shdfnd@3@PEAT__m128@@II@Z 00000001801e1520 f   GuPersistentContactManifold.obj
 0001:001e6530       ?BTFTT@aos@shdfnd@physx@@YA?AT__m128@@XZ 00000001801e7530 f i GuPersistentContactManifold.obj
 0001:001e6580       ?V3SetY@aos@shdfnd@physx@@YA?AT__m128@@T4@0@Z 00000001801e7580 f i GuPersistentContactManifold.obj
 0001:001e6720       ?getContactPoint@SinglePersistentContactManifold@Gu@physx@@QEAAAEAVMeshPersistentContact@23@I@Z 00000001801e7720 f i GuPersistentContactManifold.obj
 0001:001e67b0       ?getLocalNormal@SinglePersistentContactManifold@Gu@physx@@QEAA?AT__m128@@XZ 00000001801e77b0 f i GuPersistentContactManifold.obj
 0001:001e68f0       ?getNumContacts@SinglePersistentContactManifold@Gu@physx@@QEBAIXZ 00000001801e78f0 f i GuPersistentContactManifold.obj
 0001:001e6910       ?getWorldNormal@SinglePersistentContactManifold@Gu@physx@@QEAA?AT__m128@@AEBVPsTransformV@aos@shdfnd@3@@Z 00000001801e7910 f i GuPersistentContactManifold.obj
 0001:001e6a90       ?removeContactPoint@SinglePersistentContactManifold@Gu@physx@@QEAAXI@Z 00000001801e7a90 f i GuPersistentContactManifold.obj
 0001:001e6b00       ?SweepEstimateAnyShapeHeightfield@Gu@physx@@YAMAEBUCCDShape@12@0AEBVPxTransform@2@111MM@Z 00000001801e7b00 f   GuCCDSweepConvexMesh.obj
 0001:001e7090       ?SweepEstimateAnyShapeMesh@Gu@physx@@YAMAEBUCCDShape@12@0AEBVPxTransform@2@111MM@Z 00000001801e8090 f   GuCCDSweepConvexMesh.obj
 0001:001e7a40       ?SweepAnyShapeHeightfield@Gu@physx@@YAMAEBUCCDShape@12@0AEBVPxTransform@2@111MAEAVPxVec3@2@2MAEAIM@Z 00000001801e8a40 f   GuCCDSweepConvexMesh.obj
 0001:001e88f0       ?SweepAnyShapeMesh@Gu@physx@@YAMAEBUCCDShape@12@0AEBVPxTransform@2@111MAEAVPxVec3@2@2MAEAIM@Z 00000001801e98f0 f   GuCCDSweepConvexMesh.obj
 0001:001ea360       ??0?$Array@IV?$InlineAllocator@$0BAA@VNamedAllocator@shdfnd@physx@@@shdfnd@physx@@@shdfnd@physx@@QEAA@AEBV?$InlineAllocator@$0BAA@VNamedAllocator@shdfnd@physx@@@12@@Z 00000001801eb360 f i GuCCDSweepConvexMesh.obj
 0001:001ea3d0       ??0?$Array@IVNamedAllocator@shdfnd@physx@@@shdfnd@physx@@QEAA@IAEBIAEBVNamedAllocator@12@@Z 00000001801eb3d0 f i GuCCDSweepConvexMesh.obj
 0001:001ea450       ??0?$InlineAllocator@$0BAA@VNamedAllocator@shdfnd@physx@@@shdfnd@physx@@QEAA@AEBV012@@Z 00000001801eb450 f i GuCCDSweepConvexMesh.obj
 0001:001ea490       ??0?$InlineAllocator@$0BAA@VNamedAllocator@shdfnd@physx@@@shdfnd@physx@@QEAA@AEBVNamedAllocator@12@@Z 00000001801eb490 f i GuCCDSweepConvexMesh.obj
 0001:001ea4d0       ??0?$InlineArray@I$0EA@VNamedAllocator@shdfnd@physx@@@shdfnd@physx@@QEAA@AEBVNamedAllocator@12@@Z 00000001801eb4d0 f i GuCCDSweepConvexMesh.obj
 0001:001ea760       ??1?$Array@IV?$InlineAllocator@$0BAA@VNamedAllocator@shdfnd@physx@@@shdfnd@physx@@@shdfnd@physx@@QEAA@XZ 00000001801eb760 f i GuCCDSweepConvexMesh.obj
 0001:001ea800       ??1?$Array@IVNamedAllocator@shdfnd@physx@@@shdfnd@physx@@QEAA@XZ 00000001801eb800 f i GuCCDSweepConvexMesh.obj
 0001:001ea890       ??1?$InlineAllocator@$0BAA@VNamedAllocator@shdfnd@physx@@@shdfnd@physx@@QEAA@XZ 00000001801eb890 f i GuCCDSweepConvexMesh.obj
 0001:001ea8b0       ??1?$InlineArray@I$0EA@VNamedAllocator@shdfnd@physx@@@shdfnd@physx@@QEAA@XZ 00000001801eb8b0 f i GuCCDSweepConvexMesh.obj
 0001:001ea940       ??_GAccumCallback@?A0xddad1fe0@Gu@physx@@UEAAPEAXI@Z 00000001801eb940 f i GuCCDSweepConvexMesh.obj
 0001:001ea940       ??_EAccumCallback@?A0xddad1fe0@Gu@physx@@UEAAPEAXI@Z 00000001801eb940 f i GuCCDSweepConvexMesh.obj
 0001:001ea990       ??_GCB@?1??SweepEstimateAnyShapeMesh@Gu@physx@@YAMAEBUCCDShape@23@0AEBVPxTransform@3@111MM@Z@UEAAPEAXI@Z 00000001801eb990 f i GuCCDSweepConvexMesh.obj
 0001:001ea990       ??_ECB@?1??SweepEstimateAnyShapeMesh@Gu@physx@@YAMAEBUCCDShape@23@0AEBVPxTransform@3@111MM@Z@UEAAPEAXI@Z 00000001801eb990 f i GuCCDSweepConvexMesh.obj
 0001:001ea9e0       ??_EEntityReportContainerCallback@?A0xddad1fe0@Gu@physx@@UEAAPEAXI@Z 00000001801eb9e0 f i GuCCDSweepConvexMesh.obj
 0001:001ea9e0       ??_GEntityReportContainerCallback@?A0xddad1fe0@Gu@physx@@UEAAPEAXI@Z 00000001801eb9e0 f i GuCCDSweepConvexMesh.obj
 0001:001eaa30       ?allocate@?$Array@IV?$InlineAllocator@$0BAA@VNamedAllocator@shdfnd@physx@@@shdfnd@physx@@@shdfnd@physx@@IEAAPEAII@Z 00000001801eba30 f i GuCCDSweepConvexMesh.obj
 0001:001eaae0       ?allocate@?$InlineAllocator@$0BAA@VNamedAllocator@shdfnd@physx@@@shdfnd@physx@@QEAAPEAXIPEBDH@Z 00000001801ebae0 f i GuCCDSweepConvexMesh.obj
 0001:001eab60       ?begin@?$Array@IV?$InlineAllocator@$0BAA@VNamedAllocator@shdfnd@physx@@@shdfnd@physx@@@shdfnd@physx@@QEAAPEAIXZ 00000001801ebb60 f i GuCCDSweepConvexMesh.obj
 0001:001eab80       ?begin@?$Array@IVNamedAllocator@shdfnd@physx@@@shdfnd@physx@@QEAAPEAIXZ 00000001801ebb80 f i GuCCDSweepConvexMesh.obj
 0001:001eaba0       ?capacity@?$Array@IV?$InlineAllocator@$0BAA@VNamedAllocator@shdfnd@physx@@@shdfnd@physx@@@shdfnd@physx@@QEBAIXZ 00000001801ebba0 f i GuCCDSweepConvexMesh.obj
 0001:001eabc0       ?capacityIncrement@?$Array@IV?$InlineAllocator@$0BAA@VNamedAllocator@shdfnd@physx@@@shdfnd@physx@@@shdfnd@physx@@IEBAIXZ 00000001801ebbc0 f i GuCCDSweepConvexMesh.obj
 0001:001eac10       ?copy@?$Array@IV?$InlineAllocator@$0BAA@VNamedAllocator@shdfnd@physx@@@shdfnd@physx@@@shdfnd@physx@@KAXPEAI0PEBI@Z 00000001801ebc10 f i GuCCDSweepConvexMesh.obj
 0001:001eacf0       ?create@?$Array@IV?$InlineAllocator@$0BAA@VNamedAllocator@shdfnd@physx@@@shdfnd@physx@@@shdfnd@physx@@KAXPEAI0AEBI@Z 00000001801ebcf0 f i GuCCDSweepConvexMesh.obj
 0001:001eadc0       ?create@?$Array@IVNamedAllocator@shdfnd@physx@@@shdfnd@physx@@KAXPEAI0AEBI@Z 00000001801ebdc0 f i GuCCDSweepConvexMesh.obj
 0001:001eae90       ?deallocate@?$Array@IV?$InlineAllocator@$0BAA@VNamedAllocator@shdfnd@physx@@@shdfnd@physx@@@shdfnd@physx@@IEAAXPEAX@Z 00000001801ebe90 f i GuCCDSweepConvexMesh.obj
 0001:001eaec0       ?deallocate@?$InlineAllocator@$0BAA@VNamedAllocator@shdfnd@physx@@@shdfnd@physx@@QEAAXPEAX@Z 00000001801ebec0 f i GuCCDSweepConvexMesh.obj
 0001:001eaf10       ?destroy@?$Array@IV?$InlineAllocator@$0BAA@VNamedAllocator@shdfnd@physx@@@shdfnd@physx@@@shdfnd@physx@@KAXPEAI0@Z 00000001801ebf10 f i GuCCDSweepConvexMesh.obj
 0001:001eaf60       ?empty@PxBounds3@physx@@SA?AV12@XZ 00000001801ebf60 f i GuCCDSweepConvexMesh.obj
 0001:001eafd0       ?forceSize_Unsafe@?$Array@IV?$InlineAllocator@$0BAA@VNamedAllocator@shdfnd@physx@@@shdfnd@physx@@@shdfnd@physx@@QEAAXI@Z 00000001801ebfd0 f i GuCCDSweepConvexMesh.obj
 0001:001eb090       ?getTriangleVerts@TriangleVertexPointers@Gu@physx@@SAXPEBVTriangleMesh@23@IAEAVPxVec3@3@11@Z 00000001801ec090 f i GuCCDSweepConvexMesh.obj
 0001:001eb2a0       ?grow@?$Array@IV?$InlineAllocator@$0BAA@VNamedAllocator@shdfnd@physx@@@shdfnd@physx@@@shdfnd@physx@@IEAAXI@Z 00000001801ec2a0 f i GuCCDSweepConvexMesh.obj
 0001:001eb340       ?grow@?$Array@IVNamedAllocator@shdfnd@physx@@@shdfnd@physx@@IEAAXI@Z 00000001801ec340 f i GuCCDSweepConvexMesh.obj
 0001:001eb3e0       ?growAndPushBack@?$Array@IV?$InlineAllocator@$0BAA@VNamedAllocator@shdfnd@physx@@@shdfnd@physx@@@shdfnd@physx@@IEAAAEAIAEBI@Z 00000001801ec3e0 f i GuCCDSweepConvexMesh.obj
 0001:001eb600       ?include@PxBounds3@physx@@QEAAXAEBVPxVec3@2@@Z 00000001801ec600 f i GuCCDSweepConvexMesh.obj
 0001:001eb6f0       ?isArrayOfPOD@?$Array@IV?$InlineAllocator@$0BAA@VNamedAllocator@shdfnd@physx@@@shdfnd@physx@@@shdfnd@physx@@SA_NXZ 00000001801ec6f0 f i GuCCDSweepConvexMesh.obj
 0001:001eb700       ?isInUserMemory@?$Array@IV?$InlineAllocator@$0BAA@VNamedAllocator@shdfnd@physx@@@shdfnd@physx@@@shdfnd@physx@@QEBAIXZ 00000001801ec700 f i GuCCDSweepConvexMesh.obj
 0001:001eb720       ?isZeroInit@?$Array@IV?$InlineAllocator@$0BAA@VNamedAllocator@shdfnd@physx@@@shdfnd@physx@@@shdfnd@physx@@KA_NAEBI@Z 00000001801ec720 f i GuCCDSweepConvexMesh.obj
 0001:001eb7a0       ?isZeroInit@?$Array@IVNamedAllocator@shdfnd@physx@@@shdfnd@physx@@KA_NAEBI@Z 00000001801ec7a0 f i GuCCDSweepConvexMesh.obj
 0001:001ebd40       ?pushBack@?$Array@IV?$InlineAllocator@$0BAA@VNamedAllocator@shdfnd@physx@@@shdfnd@physx@@@shdfnd@physx@@QEAAAEAIAEBI@Z 00000001801ecd40 f i GuCCDSweepConvexMesh.obj
 0001:001ebe20       ?recreate@?$Array@IV?$InlineAllocator@$0BAA@VNamedAllocator@shdfnd@physx@@@shdfnd@physx@@@shdfnd@physx@@IEAAXI@Z 00000001801ece20 f i GuCCDSweepConvexMesh.obj
 0001:001ebfa0       ?recreate@?$Array@IVNamedAllocator@shdfnd@physx@@@shdfnd@physx@@IEAAXI@Z 00000001801ecfa0 f i GuCCDSweepConvexMesh.obj
 0001:001ec0f0       ?reserve@?$Array@IV?$InlineAllocator@$0BAA@VNamedAllocator@shdfnd@physx@@@shdfnd@physx@@@shdfnd@physx@@QEAAXI@Z 00000001801ed0f0 f i GuCCDSweepConvexMesh.obj
 0001:001ec130       ?reserve@?$Array@IVNamedAllocator@shdfnd@physx@@@shdfnd@physx@@QEAAXI@Z 00000001801ed130 f i GuCCDSweepConvexMesh.obj
 0001:001ec170       ?resize@?$Array@IV?$InlineAllocator@$0BAA@VNamedAllocator@shdfnd@physx@@@shdfnd@physx@@@shdfnd@physx@@QEAAXIAEBI@Z 00000001801ed170 f i GuCCDSweepConvexMesh.obj
 0001:001ec240       ?resize@?$Array@IVNamedAllocator@shdfnd@physx@@@shdfnd@physx@@QEAAXIAEBI@Z 00000001801ed240 f i GuCCDSweepConvexMesh.obj
 0001:001ec300       ?setEmpty@PxBounds3@physx@@QEAAXXZ 00000001801ed300 f i GuCCDSweepConvexMesh.obj
 0001:001ec370       ?size@?$Array@IV?$InlineAllocator@$0BAA@VNamedAllocator@shdfnd@physx@@@shdfnd@physx@@@shdfnd@physx@@QEBAIXZ 00000001801ed370 f i GuCCDSweepConvexMesh.obj
 0001:001ec390       ?sweepAABBAABB@Gu@physx@@YAMAEBVPxVec3@2@00000@Z 00000001801ed390 f i GuCCDSweepConvexMesh.obj
 0001:001eca30       ?SweepShapeShape@Gu@physx@@YAMAEBUCCDShape@12@0AEBVPxTransform@2@111MAEAVPxVec3@2@2MAEAIM@Z 00000001801eda30 f   GuCCDSweepPrimitives.obj
 0001:001ecb40       ?UnimplementedSweep@Gu@physx@@YAMAEBUCCDShape@12@0AEBVPxTransform@2@111MAEAVPxVec3@2@2MAEAIM@Z 00000001801edb40 f   GuCCDSweepPrimitives.obj
 0001:001ecb70       ?UnimplementedTriangleSweep@Gu@physx@@YAMAEBVGeometryUnion@12@0AEBVPxTransform@2@111MAEAVPxVec3@2@2AEBVFastVertex2ShapeScaling@Cm@2@AEAVTriangleV@12@M@Z 00000001801edb70 f   GuCCDSweepPrimitives.obj
 0001:001ecc20       ?SweepShapeTriangle@Gu@physx@@YAMAEBVGeometryUnion@12@0AEBVPxTransform@2@111MAEAVPxVec3@2@2AEBVFastVertex2ShapeScaling@Cm@2@AEAVTriangleV@12@M@Z 00000001801edc20 f   GuCCDSweepPrimitives.obj
 0001:001f0810       ??$SweepGeomGeom@VCapsuleV@Gu@physx@@V123@@Gu@physx@@YAMAEBUCCDShape@01@0AEBVPxTransform@1@111MAEAVPxVec3@1@2MAEAIM@Z 00000001801f1810 f i GuCCDSweepPrimitives.obj
 0001:001f09d0       ??$SweepGeomGeom@VCapsuleV@Gu@physx@@VBoxV@23@@Gu@physx@@YAMAEBUCCDShape@01@0AEBVPxTransform@1@111MAEAVPxVec3@1@2MAEAIM@Z 00000001801f19d0 f i GuCCDSweepPrimitives.obj
 0001:001f0b90       ??$SweepGeomGeom@VCapsuleV@Gu@physx@@VConvexHullV@23@@Gu@physx@@YAMAEBUCCDShape@01@0AEBVPxTransform@1@111MAEAVPxVec3@1@2MAEAIM@Z 00000001801f1b90 f i GuCCDSweepPrimitives.obj
 0001:001f0d50       ??$SweepGeomGeom@VBoxV@Gu@physx@@V123@@Gu@physx@@YAMAEBUCCDShape@01@0AEBVPxTransform@1@111MAEAVPxVec3@1@2MAEAIM@Z 00000001801f1d50 f i GuCCDSweepPrimitives.obj
 0001:001f0f10       ??$SweepGeomGeom@VBoxV@Gu@physx@@VConvexHullV@23@@Gu@physx@@YAMAEBUCCDShape@01@0AEBVPxTransform@1@111MAEAVPxVec3@1@2MAEAIM@Z 00000001801f1f10 f i GuCCDSweepPrimitives.obj
 0001:001f10d0       ??$SweepGeomGeom@VConvexHullV@Gu@physx@@V123@@Gu@physx@@YAMAEBUCCDShape@01@0AEBVPxTransform@1@111MAEAVPxVec3@1@2MAEAIM@Z 00000001801f20d0 f i GuCCDSweepPrimitives.obj
 0001:001f1290       ??$SweepGeomTriangles@VCapsuleV@Gu@physx@@@Gu@physx@@YAMAEBVGeometryUnion@01@0AEBVPxTransform@1@111MAEAVPxVec3@1@2AEBVFastVertex2ShapeScaling@Cm@1@AEAVTriangleV@01@M@Z 00000001801f2290 f i GuCCDSweepPrimitives.obj
 0001:001f13e0       ??$SweepGeomTriangles@VBoxV@Gu@physx@@@Gu@physx@@YAMAEBVGeometryUnion@01@0AEBVPxTransform@1@111MAEAVPxVec3@1@2AEBVFastVertex2ShapeScaling@Cm@1@AEAVTriangleV@01@M@Z 00000001801f23e0 f i GuCCDSweepPrimitives.obj
 0001:001f1530       ??$SweepGeomTriangles@VConvexHullV@Gu@physx@@@Gu@physx@@YAMAEBVGeometryUnion@01@0AEBVPxTransform@1@111MAEAVPxVec3@1@2AEBVFastVertex2ShapeScaling@Cm@1@AEAVTriangleV@01@M@Z 00000001801f2530 f i GuCCDSweepPrimitives.obj
 0001:001f1680       ??$getRadius@VBoxV@Gu@physx@@@Gu@physx@@YAMAEBVPxGeometry@1@@Z 00000001801f2680 f i GuCCDSweepPrimitives.obj
 0001:001f1690       ??$getRadius@VCapsuleV@Gu@physx@@@Gu@physx@@YAMAEBVPxGeometry@1@@Z 00000001801f2690 f i GuCCDSweepPrimitives.obj
 0001:001f1730       ??$getRadius@VConvexHullV@Gu@physx@@@Gu@physx@@YAMAEBVPxGeometry@1@@Z 00000001801f2730 f i GuCCDSweepPrimitives.obj
 0001:001f1740       ??$gjkPenetration@U?$RelativeConvex@VCapsuleV@Gu@physx@@@Gu@physx@@U?$LocalConvex@VCapsuleV@Gu@physx@@@23@@Gu@physx@@YA?AW4GjkStatus@01@AEBU?$RelativeConvex@VCapsuleV@Gu@physx@@@01@AEBU?$LocalConvex@VCapsuleV@Gu@physx@@@01@AEBT__m128@@2AEAT5@333PEIAE4AEAE_N@Z 00000001801f2740 f i GuCCDSweepPrimitives.obj
 0001:001f35e0       ??$gjkPenetration@U?$RelativeConvex@VCapsuleV@Gu@physx@@@Gu@physx@@U?$LocalConvex@VShrunkBoxV@Gu@physx@@@23@@Gu@physx@@YA?AW4GjkStatus@01@AEBU?$RelativeConvex@VCapsuleV@Gu@physx@@@01@AEBU?$LocalConvex@VShrunkBoxV@Gu@physx@@@01@AEBT__m128@@2AEAT5@333PEIAE4AEAE_N@Z 00000001801f45e0 f i GuCCDSweepPrimitives.obj
 0001:001f5480       ??$gjkPenetration@U?$RelativeConvex@VCapsuleV@Gu@physx@@@Gu@physx@@U?$LocalConvex@VShrunkConvexHullV@Gu@physx@@@23@@Gu@physx@@YA?AW4GjkStatus@01@AEBU?$RelativeConvex@VCapsuleV@Gu@physx@@@01@AEBU?$LocalConvex@VShrunkConvexHullV@Gu@physx@@@01@AEBT__m128@@2AEAT5@333PEIAE4AEAE_N@Z 00000001801f6480 f i GuCCDSweepPrimitives.obj
 0001:001f7320       ??$gjkPenetration@U?$RelativeConvex@VShrunkBoxV@Gu@physx@@@Gu@physx@@U?$LocalConvex@VShrunkBoxV@Gu@physx@@@23@@Gu@physx@@YA?AW4GjkStatus@01@AEBU?$RelativeConvex@VShrunkBoxV@Gu@physx@@@01@AEBU?$LocalConvex@VShrunkBoxV@Gu@physx@@@01@AEBT__m128@@2AEAT5@333PEIAE4AEAE_N@Z 00000001801f8320 f i GuCCDSweepPrimitives.obj
 0001:001f91c0       ??$gjkPenetration@U?$RelativeConvex@VShrunkBoxV@Gu@physx@@@Gu@physx@@U?$LocalConvex@VShrunkConvexHullV@Gu@physx@@@23@@Gu@physx@@YA?AW4GjkStatus@01@AEBU?$RelativeConvex@VShrunkBoxV@Gu@physx@@@01@AEBU?$LocalConvex@VShrunkConvexHullV@Gu@physx@@@01@AEBT__m128@@2AEAT5@333PEIAE4AEAE_N@Z 00000001801fa1c0 f i GuCCDSweepPrimitives.obj
 0001:001fb060       ??$gjkPenetration@U?$RelativeConvex@VTriangleV@Gu@physx@@@Gu@physx@@U?$LocalConvex@VCapsuleV@Gu@physx@@@23@@Gu@physx@@YA?AW4GjkStatus@01@AEBU?$RelativeConvex@VTriangleV@Gu@physx@@@01@AEBU?$LocalConvex@VCapsuleV@Gu@physx@@@01@AEBT__m128@@2AEAT5@333PEIAE4AEAE_N@Z 00000001801fc060 f i GuCCDSweepPrimitives.obj
 0001:001fcf00       ??$gjkPenetration@U?$RelativeConvex@VTriangleV@Gu@physx@@@Gu@physx@@U?$LocalConvex@VShrunkBoxV@Gu@physx@@@23@@Gu@physx@@YA?AW4GjkStatus@01@AEBU?$RelativeConvex@VTriangleV@Gu@physx@@@01@AEBU?$LocalConvex@VShrunkBoxV@Gu@physx@@@01@AEBT__m128@@2AEAT5@333PEIAE4AEAE_N@Z 00000001801fdf00 f i GuCCDSweepPrimitives.obj
 0001:001feda0       ??$gjkPenetration@U?$RelativeConvex@VTriangleV@Gu@physx@@@Gu@physx@@U?$LocalConvex@VShrunkConvexHullV@Gu@physx@@@23@@Gu@physx@@YA?AW4GjkStatus@01@AEBU?$RelativeConvex@VTriangleV@Gu@physx@@@01@AEBU?$LocalConvex@VShrunkConvexHullV@Gu@physx@@@01@AEBT__m128@@2AEAT5@333PEIAE4AEAE_N@Z 00000001801ffda0 f i GuCCDSweepPrimitives.obj
 0001:00200c40       ??$gjkRaycast@U?$RelativeConvex@VCapsuleV@Gu@physx@@@Gu@physx@@U?$LocalConvex@VCapsuleV@Gu@physx@@@23@@Gu@physx@@YA_NAEBU?$RelativeConvex@VCapsuleV@Gu@physx@@@01@AEBU?$LocalConvex@VCapsuleV@Gu@physx@@@01@AEBT__m128@@222AEAT4@33M@Z 0000000180201c40 f i GuCCDSweepPrimitives.obj
 0001:002025f0       ??$gjkRaycast@U?$RelativeConvex@VCapsuleV@Gu@physx@@@Gu@physx@@U?$LocalConvex@VShrunkBoxV@Gu@physx@@@23@@Gu@physx@@YA_NAEBU?$RelativeConvex@VCapsuleV@Gu@physx@@@01@AEBU?$LocalConvex@VShrunkBoxV@Gu@physx@@@01@AEBT__m128@@222AEAT4@33M@Z 00000001802035f0 f i GuCCDSweepPrimitives.obj
 0001:00203fa0       ??$gjkRaycast@U?$RelativeConvex@VCapsuleV@Gu@physx@@@Gu@physx@@U?$LocalConvex@VShrunkConvexHullV@Gu@physx@@@23@@Gu@physx@@YA_NAEBU?$RelativeConvex@VCapsuleV@Gu@physx@@@01@AEBU?$LocalConvex@VShrunkConvexHullV@Gu@physx@@@01@AEBT__m128@@222AEAT4@33M@Z 0000000180204fa0 f i GuCCDSweepPrimitives.obj
 0001:00205950       ??$gjkRaycast@U?$RelativeConvex@VShrunkBoxV@Gu@physx@@@Gu@physx@@U?$LocalConvex@VShrunkBoxV@Gu@physx@@@23@@Gu@physx@@YA_NAEBU?$RelativeConvex@VShrunkBoxV@Gu@physx@@@01@AEBU?$LocalConvex@VShrunkBoxV@Gu@physx@@@01@AEBT__m128@@222AEAT4@33M@Z 0000000180206950 f i GuCCDSweepPrimitives.obj
 0001:00207300       ??$gjkRaycast@U?$RelativeConvex@VShrunkBoxV@Gu@physx@@@Gu@physx@@U?$LocalConvex@VShrunkConvexHullV@Gu@physx@@@23@@Gu@physx@@YA_NAEBU?$RelativeConvex@VShrunkBoxV@Gu@physx@@@01@AEBU?$LocalConvex@VShrunkConvexHullV@Gu@physx@@@01@AEBT__m128@@222AEAT4@33M@Z 0000000180208300 f i GuCCDSweepPrimitives.obj
 0001:00208cb0       ??$gjkRaycast@U?$RelativeConvex@VShrunkConvexHullV@Gu@physx@@@Gu@physx@@U?$LocalConvex@VShrunkConvexHullV@Gu@physx@@@23@@Gu@physx@@YA_NAEBU?$RelativeConvex@VShrunkConvexHullV@Gu@physx@@@01@AEBU?$LocalConvex@VShrunkConvexHullV@Gu@physx@@@01@AEBT__m128@@222AEAT4@33M@Z 0000000180209cb0 f i GuCCDSweepPrimitives.obj
 0001:0020a660       ??$gjkRaycast@U?$RelativeConvex@VTriangleV@Gu@physx@@@Gu@physx@@U?$LocalConvex@VBoxV@Gu@physx@@@23@@Gu@physx@@YA_NAEBU?$RelativeConvex@VTriangleV@Gu@physx@@@01@AEBU?$LocalConvex@VBoxV@Gu@physx@@@01@AEBT__m128@@222AEAT4@33M@Z 000000018020b660 f i GuCCDSweepPrimitives.obj
 0001:0020c010       ??$gjkRaycast@U?$RelativeConvex@VTriangleV@Gu@physx@@@Gu@physx@@U?$LocalConvex@VCapsuleV@Gu@physx@@@23@@Gu@physx@@YA_NAEBU?$RelativeConvex@VTriangleV@Gu@physx@@@01@AEBU?$LocalConvex@VCapsuleV@Gu@physx@@@01@AEBT__m128@@222AEAT4@33M@Z 000000018020d010 f i GuCCDSweepPrimitives.obj
 0001:0020d9c0       ??$gjkRaycast@U?$RelativeConvex@VTriangleV@Gu@physx@@@Gu@physx@@U?$LocalConvex@VConvexHullV@Gu@physx@@@23@@Gu@physx@@YA_NAEBU?$RelativeConvex@VTriangleV@Gu@physx@@@01@AEBU?$LocalConvex@VConvexHullV@Gu@physx@@@01@AEBT__m128@@222AEAT4@33M@Z 000000018020e9c0 f i GuCCDSweepPrimitives.obj
 0001:0020f370       ??$gjkRaycastPenetration@U?$RelativeConvex@VCapsuleV@Gu@physx@@@Gu@physx@@U?$LocalConvex@VCapsuleV@Gu@physx@@@23@@Gu@physx@@YA_NAEBU?$RelativeConvex@VCapsuleV@Gu@physx@@@01@AEBU?$LocalConvex@VCapsuleV@Gu@physx@@@01@AEBT__m128@@222AEAT4@33M_N@Z 0000000180210370 f i GuCCDSweepPrimitives.obj
 0001:0020f870       ??$gjkRaycastPenetration@U?$RelativeConvex@VCapsuleV@Gu@physx@@@Gu@physx@@U?$LocalConvex@VShrunkBoxV@Gu@physx@@@23@@Gu@physx@@YA_NAEBU?$RelativeConvex@VCapsuleV@Gu@physx@@@01@AEBU?$LocalConvex@VShrunkBoxV@Gu@physx@@@01@AEBT__m128@@222AEAT4@33M_N@Z 0000000180210870 f i GuCCDSweepPrimitives.obj
 0001:0020fd70       ??$gjkRaycastPenetration@U?$RelativeConvex@VCapsuleV@Gu@physx@@@Gu@physx@@U?$LocalConvex@VShrunkConvexHullV@Gu@physx@@@23@@Gu@physx@@YA_NAEBU?$RelativeConvex@VCapsuleV@Gu@physx@@@01@AEBU?$LocalConvex@VShrunkConvexHullV@Gu@physx@@@01@AEBT__m128@@222AEAT4@33M_N@Z 0000000180210d70 f i GuCCDSweepPrimitives.obj
 0001:00210270       ??$gjkRaycastPenetration@U?$RelativeConvex@VShrunkBoxV@Gu@physx@@@Gu@physx@@U?$LocalConvex@VShrunkBoxV@Gu@physx@@@23@@Gu@physx@@YA_NAEBU?$RelativeConvex@VShrunkBoxV@Gu@physx@@@01@AEBU?$LocalConvex@VShrunkBoxV@Gu@physx@@@01@AEBT__m128@@222AEAT4@33M_N@Z 0000000180211270 f i GuCCDSweepPrimitives.obj
 0001:00210770       ??$gjkRaycastPenetration@U?$RelativeConvex@VShrunkBoxV@Gu@physx@@@Gu@physx@@U?$LocalConvex@VShrunkConvexHullV@Gu@physx@@@23@@Gu@physx@@YA_NAEBU?$RelativeConvex@VShrunkBoxV@Gu@physx@@@01@AEBU?$LocalConvex@VShrunkConvexHullV@Gu@physx@@@01@AEBT__m128@@222AEAT4@33M_N@Z 0000000180211770 f i GuCCDSweepPrimitives.obj
 0001:00210c70       ??$gjkRaycastPenetration@U?$RelativeConvex@VShrunkConvexHullV@Gu@physx@@@Gu@physx@@U?$LocalConvex@VShrunkConvexHullV@Gu@physx@@@23@@Gu@physx@@YA_NAEBU?$RelativeConvex@VShrunkConvexHullV@Gu@physx@@@01@AEBU?$LocalConvex@VShrunkConvexHullV@Gu@physx@@@01@AEBT__m128@@222AEAT4@33M_N@Z 0000000180211c70 f i GuCCDSweepPrimitives.obj
 0001:00211170       ??$gjkRaycastPenetration@U?$RelativeConvex@VTriangleV@Gu@physx@@@Gu@physx@@U?$LocalConvex@VBoxV@Gu@physx@@@23@@Gu@physx@@YA_NAEBU?$RelativeConvex@VTriangleV@Gu@physx@@@01@AEBU?$LocalConvex@VBoxV@Gu@physx@@@01@AEBT__m128@@222AEAT4@33M_N@Z 0000000180212170 f i GuCCDSweepPrimitives.obj
 0001:00211670       ??$gjkRaycastPenetration@U?$RelativeConvex@VTriangleV@Gu@physx@@@Gu@physx@@U?$LocalConvex@VCapsuleV@Gu@physx@@@23@@Gu@physx@@YA_NAEBU?$RelativeConvex@VTriangleV@Gu@physx@@@01@AEBU?$LocalConvex@VCapsuleV@Gu@physx@@@01@AEBT__m128@@222AEAT4@33M_N@Z 0000000180212670 f i GuCCDSweepPrimitives.obj
 0001:00211b70       ??$gjkRaycastPenetration@U?$RelativeConvex@VTriangleV@Gu@physx@@@Gu@physx@@U?$LocalConvex@VConvexHullV@Gu@physx@@@23@@Gu@physx@@YA_NAEBU?$RelativeConvex@VTriangleV@Gu@physx@@@01@AEBU?$LocalConvex@VConvexHullV@Gu@physx@@@01@AEBT__m128@@222AEAT4@33M_N@Z 0000000180212b70 f i GuCCDSweepPrimitives.obj
 0001:00212070       ??0?$RelativeConvex@VCapsuleV@Gu@physx@@@Gu@physx@@QEAA@AEBVCapsuleV@12@AEBVPsMatTransformV@aos@shdfnd@2@@Z 0000000180213070 f i GuCCDSweepPrimitives.obj
 0001:00212130       ??0?$RelativeConvex@VShrunkBoxV@Gu@physx@@@Gu@physx@@QEAA@AEBVShrunkBoxV@12@AEBVPsMatTransformV@aos@shdfnd@2@@Z 0000000180213130 f i GuCCDSweepPrimitives.obj
 0001:002121f0       ??0BoxV@Gu@physx@@QEAA@AEBVPxGeometry@2@@Z 00000001802131f0 f i GuCCDSweepPrimitives.obj
 0001:00212320       ??0CapsuleV@Gu@physx@@QEAA@AEBVPxGeometry@2@@Z 0000000180213320 f i GuCCDSweepPrimitives.obj
 0001:00212560       ??0ConvexHullV@Gu@physx@@QEAA@AEBVPxGeometry@2@@Z 0000000180213560 f i GuCCDSweepPrimitives.obj
 0001:002127a0       ??0ShrunkBoxV@Gu@physx@@QEAA@AEBVPxGeometry@2@@Z 00000001802137a0 f i GuCCDSweepPrimitives.obj
 0001:00212800       ??0ShrunkConvexHullV@Gu@physx@@QEAA@AEBVPxGeometry@2@@Z 0000000180213800 f i GuCCDSweepPrimitives.obj
 0001:00212830       ??1?$RelativeConvex@VCapsuleV@Gu@physx@@@Gu@physx@@UEAA@XZ 0000000180213830 f i GuCCDSweepPrimitives.obj
 0001:00212850       ??1?$RelativeConvex@VShrunkBoxV@Gu@physx@@@Gu@physx@@UEAA@XZ 0000000180213850 f i GuCCDSweepPrimitives.obj
 0001:00212870       ??1ShrunkBoxV@Gu@physx@@QEAA@XZ 0000000180213870 f i GuCCDSweepPrimitives.obj
 0001:00212890       ??_E?$RelativeConvex@VCapsuleV@Gu@physx@@@Gu@physx@@UEAAPEAXI@Z 0000000180213890 f i GuCCDSweepPrimitives.obj
 0001:00212890       ??_G?$RelativeConvex@VCapsuleV@Gu@physx@@@Gu@physx@@UEAAPEAXI@Z 0000000180213890 f i GuCCDSweepPrimitives.obj
 0001:002128e0       ??_G?$RelativeConvex@VShrunkBoxV@Gu@physx@@@Gu@physx@@UEAAPEAXI@Z 00000001802138e0 f i GuCCDSweepPrimitives.obj
 0001:002128e0       ??_E?$RelativeConvex@VShrunkBoxV@Gu@physx@@@Gu@physx@@UEAAPEAXI@Z 00000001802138e0 f i GuCCDSweepPrimitives.obj
 0001:00212930       ?getCenter@?$RelativeConvex@VCapsuleV@Gu@physx@@@Gu@physx@@UEBA?AT__m128@@XZ 0000000180213930 f i GuCCDSweepPrimitives.obj
 0001:00212990       ?getCenter@?$RelativeConvex@VShrunkBoxV@Gu@physx@@@Gu@physx@@UEBA?AT__m128@@XZ 0000000180213990 f i GuCCDSweepPrimitives.obj
 0001:002129f0       ?getShrunkConvex@?$LocalConvex@VCapsuleV@Gu@physx@@@Gu@physx@@QEBA?AU123@XZ 00000001802139f0 f i GuCCDSweepPrimitives.obj
 0001:00212a30       ?getShrunkConvex@?$LocalConvex@VShrunkBoxV@Gu@physx@@@Gu@physx@@QEBA?AU123@XZ 0000000180213a30 f i GuCCDSweepPrimitives.obj
 0001:00212a70       ?getShrunkConvex@?$LocalConvex@VShrunkConvexHullV@Gu@physx@@@Gu@physx@@QEBA?AU123@XZ 0000000180213a70 f i GuCCDSweepPrimitives.obj
 0001:00212ab0       ?getShrunkConvex@?$RelativeConvex@VCapsuleV@Gu@physx@@@Gu@physx@@QEBA?AU123@XZ 0000000180213ab0 f i GuCCDSweepPrimitives.obj
 0001:00212b00       ?getShrunkConvex@?$RelativeConvex@VShrunkBoxV@Gu@physx@@@Gu@physx@@QEBA?AU123@XZ 0000000180213b00 f i GuCCDSweepPrimitives.obj
 0001:00212b50       ?getShrunkConvex@?$RelativeConvex@VShrunkConvexHullV@Gu@physx@@@Gu@physx@@QEBA?AU123@XZ 0000000180213b50 f i GuCCDSweepPrimitives.obj
 0001:00212ba0       ?getShrunkConvex@?$RelativeConvex@VTriangleV@Gu@physx@@@Gu@physx@@QEBA?AU123@XZ 0000000180213ba0 f i GuCCDSweepPrimitives.obj
 0001:00212bf0       ?getSweepMargin@?$RelativeConvex@VCapsuleV@Gu@physx@@@Gu@physx@@UEBA?AT__m128@@XZ 0000000180213bf0 f i GuCCDSweepPrimitives.obj
 0001:00212c30       ?getSweepMargin@?$RelativeConvex@VShrunkBoxV@Gu@physx@@@Gu@physx@@UEBA?AT__m128@@XZ 0000000180213c30 f i GuCCDSweepPrimitives.obj
 0001:00212c70       ?initialiseMarginDif@ShrunkBoxV@Gu@physx@@AEAAXXZ 0000000180213c70 f i GuCCDSweepPrimitives.obj
 0001:00212d10       ?support@?$RelativeConvex@VCapsuleV@Gu@physx@@@Gu@physx@@UEBA?AT__m128@@AEBT4@@Z 0000000180213d10 f i GuCCDSweepPrimitives.obj
 0001:00212d80       ?support@?$RelativeConvex@VCapsuleV@Gu@physx@@@Gu@physx@@UEBA?AT__m128@@AEBT4@AEAHPEAT4@@Z 0000000180213d80 f i GuCCDSweepPrimitives.obj
 0001:00212e20       ?support@?$RelativeConvex@VShrunkBoxV@Gu@physx@@@Gu@physx@@UEBA?AT__m128@@AEBT4@@Z 0000000180213e20 f i GuCCDSweepPrimitives.obj
 0001:00212e90       ?support@?$RelativeConvex@VShrunkBoxV@Gu@physx@@@Gu@physx@@UEBA?AT__m128@@AEBT4@AEAHPEAT4@@Z 0000000180213e90 f i GuCCDSweepPrimitives.obj
 0001:00212f30       ?supportPoint@?$RelativeConvex@VCapsuleV@Gu@physx@@@Gu@physx@@UEBA?AT__m128@@HPEAT4@@Z 0000000180213f30 f i GuCCDSweepPrimitives.obj
 0001:00212fa0       ?supportPoint@?$RelativeConvex@VShrunkBoxV@Gu@physx@@@Gu@physx@@UEBA?AT__m128@@HPEAT4@@Z 0000000180213fa0 f i GuCCDSweepPrimitives.obj
 0001:00213010       ?supportRelative@CapsuleV@Gu@physx@@QEBA?AT__m128@@AEBT4@AEBVPsMatTransformV@aos@shdfnd@3@1@Z 0000000180214010 f i GuCCDSweepPrimitives.obj
 0001:00213090       ?supportRelative@CapsuleV@Gu@physx@@QEBA?AT__m128@@AEBT4@AEBVPsMatTransformV@aos@shdfnd@3@1AEAHPEAT4@@Z 0000000180214090 f i GuCCDSweepPrimitives.obj
 0001:00213130       ?supportRelative@ShrunkBoxV@Gu@physx@@QEBA?AT__m128@@AEBT4@AEBVPsMatTransformV@aos@shdfnd@3@1@Z 0000000180214130 f i GuCCDSweepPrimitives.obj
 0001:002131b0       ?supportRelative@ShrunkBoxV@Gu@physx@@QEBA?AT__m128@@AEBT4@AEBVPsMatTransformV@aos@shdfnd@3@1AEAHPEAT4@@Z 00000001802141b0 f i GuCCDSweepPrimitives.obj
 0001:00213250       ?computeBounds@Gu@physx@@YAXAEAVPxBounds3@2@AEBVPxGeometry@2@AEBVPxTransform@2@MPEIBVCenterExtentsPadded@12@M_N@Z 0000000180214250 f   GuBounds.obj
 0001:00214400       ?computeBoundsWithCCDThreshold@Gu@physx@@YAMAEAVVec3p@12@0AEBVPxGeometry@2@AEBVPxTransform@2@PEIBVCenterExtentsPadded@12@@Z 0000000180215400 f   GuBounds.obj
 0001:00214c30       ??0ShapeData@Gu@physx@@QEAA@AEBVPxGeometry@2@AEBVPxTransform@2@M@Z 0000000180215c30 f   GuBounds.obj
 0001:00217770       ??0?$PxFlags@W4Enum@PxConvexMeshGeometryFlag@physx@@E@physx@@QEAA@AEBV01@@Z 0000000180218770 f i GuBounds.obj
 0001:002177a0       ??0CenterExtentsPadded@Gu@physx@@QEAA@XZ 00000001802187a0 f i GuBounds.obj
 0001:002177d0       ??0PxPlane@physx@@QEAA@AEBVPxVec3@1@0@Z 00000001802187d0 f i GuBounds.obj
 0001:00217840       ??1CenterExtentsPadded@Gu@physx@@QEAA@XZ 0000000180218840 f i GuBounds.obj
 0001:00217860       ??4CenterExtentsPadded@Gu@physx@@QEAAAEAV012@AEBV012@@Z 0000000180218860 f i GuBounds.obj
 0001:002178b0       ??4PxMat33Padded@Gu@physx@@QEAAXAEBVPxMat33@2@@Z 00000001802188b0 f i GuBounds.obj
 0001:00217920       ??B?$PxFlags@W4Enum@PxConvexMeshGeometryFlag@physx@@E@physx@@QEBA_NXZ 0000000180218920 f i GuBounds.obj
 0001:00217960       ??I?$PxFlags@W4Enum@PxConvexMeshGeometryFlag@physx@@E@physx@@QEBA?AV01@W4Enum@PxConvexMeshGeometryFlag@1@@Z 0000000180218960 f i GuBounds.obj
 0001:002179c0       ?getPaddedBounds@ConvexHullData@Gu@physx@@QEBAAEBVCenterExtentsPadded@23@XZ 00000001802189c0 f i GuBounds.obj
 0001:002179d0       ?getPaddedBounds@TriangleMesh@Gu@physx@@QEBAAEBVCenterExtentsPadded@23@XZ 00000001802189d0 f i GuBounds.obj
 0001:002179f0       ?setMinMax@CenterExtents@Gu@physx@@QEAAXAEBVPxVec3@3@0@Z 00000001802189f0 f i GuBounds.obj
 0001:00217aa0       ?computeOBBPoints@Gu@physx@@YAXPEIAVPxVec3@2@AEBV32@1111@Z 0000000180218aa0 f   GuBox.obj
 0001:00217e00       ?create@Box@Gu@physx@@QEAAXAEBVCapsule@23@@Z 0000000180218e00 f   GuBox.obj
 0001:00217f70       ?getBoxEdges@Gu@physx@@YAPEBEXZ 0000000180218f70 f   GuBox.obj
 0001:002180b0       ?computeBoxAroundCapsule@Gu@physx@@YAXAEBVCapsule@12@AEAVBox@12@@Z 00000001802190b0 f   GuCapsule.obj
 0001:00218300       ?sweepBoxTriangles_Precise@Gu@physx@@YA_NIPEBVPxTriangle@2@_NAEBVPxBoxGeometry@2@AEBVPxTransform@2@AEBVPxVec3@2@MAEAUPxSweepHit@2@PEBIMV?$PxFlags@W4Enum@PxHitFlag@physx@@G@2@@Z 0000000180219300 f   GuCCTSweepTests.obj
 0001:00218400       ?sweepCapsule_BoxGeom_Precise@@YA_NAEBVPxGeometry@physx@@AEBVPxTransform@2@AEBVPxCapsuleGeometry@2@1AEBVCapsule@Gu@2@AEBVPxVec3@2@MAEAUPxSweepHit@2@V?$PxFlags@W4Enum@PxHitFlag@physx@@G@2@M@Z 0000000180219400 f   GuCCTSweepTests.obj
 0001:00218a10       ?sweepBox_SphereGeom_Precise@@YA_NAEBVPxGeometry@physx@@AEBVPxTransform@2@AEBVPxBoxGeometry@2@1AEBVBox@Gu@2@AEBVPxVec3@2@MAEAUPxSweepHit@2@V?$PxFlags@W4Enum@PxHitFlag@physx@@G@2@M@Z 0000000180219a10 f   GuCCTSweepTests.obj
 0001:00218dd0       ?sweepBox_CapsuleGeom_Precise@@YA_NAEBVPxGeometry@physx@@AEBVPxTransform@2@AEBVPxBoxGeometry@2@1AEBVBox@Gu@2@AEBVPxVec3@2@MAEAUPxSweepHit@2@V?$PxFlags@W4Enum@PxHitFlag@physx@@G@2@M@Z 0000000180219dd0 f   GuCCTSweepTests.obj
 0001:00219200       ?sweepBox_BoxGeom_Precise@@YA_NAEBVPxGeometry@physx@@AEBVPxTransform@2@AEBVPxBoxGeometry@2@1AEBVBox@Gu@2@AEBVPxVec3@2@MAEAUPxSweepHit@2@V?$PxFlags@W4Enum@PxHitFlag@physx@@G@2@M@Z 000000018021a200 f   GuCCTSweepTests.obj
 0001:00219e90       ?sweepBox_HeightFieldGeom_Precise@@YA_NAEBVPxGeometry@physx@@AEBVPxTransform@2@AEBVPxBoxGeometry@2@1AEBVBox@Gu@2@AEBVPxVec3@2@MAEAUPxSweepHit@2@V?$PxFlags@W4Enum@PxHitFlag@physx@@G@2@M@Z 000000018021ae90 f   GuCCTSweepTests.obj
 0001:0021a8f0       ??0Capsule@Gu@physx@@QEAA@AEBV012@@Z 000000018021b8f0 f i GuCCTSweepTests.obj
 0001:0021aa00       ??4?$PxFlags@W4Enum@PxHitFlag@physx@@G@physx@@QEAAAEAV01@W4Enum@PxHitFlag@1@@Z 000000018021ba00 f i GuCCTSweepTests.obj
 0001:0021aa30       ??_GLocalReport@?1??sweepBox_HeightFieldGeom_Precise@@YA_NAEBVPxGeometry@physx@@AEBVPxTransform@3@AEBVPxBoxGeometry@3@1AEBVBox@Gu@3@AEBVPxVec3@3@MAEAUPxSweepHit@3@V?$PxFlags@W4Enum@PxHitFlag@physx@@G@3@M@Z@UEAAPEAXI@Z 000000018021ba30 f i GuCCTSweepTests.obj
 0001:0021aa30       ??_ELocalReport@?1??sweepBox_HeightFieldGeom_Precise@@YA_NAEBVPxGeometry@physx@@AEBVPxTransform@3@AEBVPxBoxGeometry@3@1AEBVBox@Gu@3@AEBVPxVec3@3@MAEAUPxSweepHit@3@V?$PxFlags@W4Enum@PxHitFlag@physx@@G@3@M@Z@UEAAPEAXI@Z 000000018021ba30 f i GuCCTSweepTests.obj
 0001:0021aa80       ?distanceSegmentBoxSquared@Gu@physx@@YAMAEBVSegment@12@AEBVBox@12@PEAMPEAVPxVec3@2@@Z 000000018021ba80 f i GuCCTSweepTests.obj
 0001:0021adc0       ?sweep@PxGeometryQuery@physx@@SA_NAEBVPxVec3@2@MAEBVPxGeometry@2@AEBVPxTransform@2@12AEAUPxSweepHit@2@V?$PxFlags@W4Enum@PxHitFlag@physx@@G@2@M@Z 000000018021bdc0 f   GuGeometryQuery.obj
 0001:0021b770       ?overlap@PxGeometryQuery@physx@@SA_NAEBVPxGeometry@2@AEBVPxTransform@2@01@Z 000000018021c770 f   GuGeometryQuery.obj
 0001:0021b7e0       ?raycast@PxGeometryQuery@physx@@SAIAEBVPxVec3@2@0AEBVPxGeometry@2@AEBVPxTransform@2@MV?$PxFlags@W4Enum@PxHitFlag@physx@@G@2@IPEIAUPxRaycastHit@2@@Z 000000018021c7e0 f   GuGeometryQuery.obj
 0001:0021bb70       ?computePenetration@PxGeometryQuery@physx@@SA_NAEAVPxVec3@2@AEAMAEBVPxGeometry@2@AEBVPxTransform@2@23@Z 000000018021cb70 f   GuGeometryQuery.obj
 0001:0021bed0       ?pointDistance@PxGeometryQuery@physx@@SAMAEBVPxVec3@2@AEBVPxGeometry@2@AEBVPxTransform@2@PEAV32@@Z 000000018021ced0 f   GuGeometryQuery.obj
 0001:0021c4c0       ?getWorldBounds@PxGeometryQuery@physx@@SA?AVPxBounds3@2@AEBVPxGeometry@2@AEBVPxTransform@2@M@Z 000000018021d4c0 f   GuGeometryQuery.obj
 0001:0021c630       ?isValid@PxGeometryQuery@physx@@SA_NAEBVPxGeometry@2@@Z 000000018021d630 f   GuGeometryQuery.obj
 0001:0021ce40       ?distancePointBoxSquared@Gu@physx@@YAMAEBVPxVec3@2@AEBVBox@12@PEAV32@@Z 000000018021de40 f i GuGeometryQuery.obj
 0001:0021cea0       ?isValid@PxBoxGeometry@physx@@QEBA_NXZ 000000018021dea0 f i GuGeometryQuery.obj
 0001:0021cf30       ?isValid@PxCapsuleGeometry@physx@@QEBA_NXZ 000000018021df30 f i GuGeometryQuery.obj
 0001:0021cfc0       ?isValid@PxConvexMeshGeometry@physx@@QEBA_NXZ 000000018021dfc0 f i GuGeometryQuery.obj
 0001:0021d060       ?isValid@PxSphereGeometry@physx@@QEBA_NXZ 000000018021e060 f i GuGeometryQuery.obj
 0001:0021d0c0       ?isValidForConvexMesh@PxMeshScale@physx@@QEBA_NXZ 000000018021e0c0 f i GuGeometryQuery.obj
 0001:0021d130       ?maxElement@PxVec3@physx@@QEBAMXZ 000000018021e130 f i GuGeometryQuery.obj
 0001:0021d180       ?minElement@PxVec3@physx@@QEBAMXZ 000000018021e180 f i GuGeometryQuery.obj
 0001:0021d1d0       ?overlap@Gu@physx@@YA_NAEBVPxGeometry@2@AEBVPxTransform@2@01PEIAY06Q6A_N0101PEAUTriggerCache@12@@Z@Z 000000018021e1d0 f i GuGeometryQuery.obj
 0001:0021d500       ?set@GeometryUnion@Gu@physx@@QEAAXAEBVPxGeometry@3@@Z 000000018021e500 f   GuGeometryUnion.obj
 0001:0021d9c0       ??$checkType@UPxConvexMeshGeometryLL@physx@@@physx@@YAXAEBVGeometryUnion@Gu@0@@Z 000000018021e9c0 f i GuGeometryUnion.obj
 0001:0021da50       ??$checkType@UPxHeightFieldGeometryLL@physx@@@physx@@YAXAEBVGeometryUnion@Gu@0@@Z 000000018021ea50 f i GuGeometryUnion.obj
 0001:0021dae0       ??$checkType@UPxTriangleMeshGeometryLL@physx@@@physx@@YAXAEBVGeometryUnion@Gu@0@@Z 000000018021eae0 f i GuGeometryUnion.obj
 0001:0021db70       ??$get@UPxConvexMeshGeometryLL@physx@@@GeometryUnion@Gu@physx@@QEAAAEAUPxConvexMeshGeometryLL@2@XZ 000000018021eb70 f i GuGeometryUnion.obj
 0001:0021dba0       ??$get@UPxHeightFieldGeometryLL@physx@@@GeometryUnion@Gu@physx@@QEAAAEAUPxHeightFieldGeometryLL@2@XZ 000000018021eba0 f i GuGeometryUnion.obj
 0001:0021dbd0       ??$get@UPxTriangleMeshGeometryLL@physx@@@GeometryUnion@Gu@physx@@QEAAAEAUPxTriangleMeshGeometryLL@2@XZ 000000018021ebd0 f i GuGeometryUnion.obj
 0001:0021dc00       ??4?$PxFlags@W4Enum@PxConvexMeshGeometryFlag@physx@@E@physx@@QEAAAEAV01@AEBV01@@Z 000000018021ec00 f i GuGeometryUnion.obj
 0001:0021dc30       ??4?$PxFlags@W4Enum@PxMeshGeometryFlag@physx@@E@physx@@QEAAAEAV01@AEBV01@@Z 000000018021ec30 f i GuGeometryUnion.obj
 0001:0021dc60       ??4PxConvexMeshGeometry@physx@@QEAAAEAV01@AEBV01@@Z 000000018021ec60 f i GuGeometryUnion.obj
 0001:0021dd10       ??4PxHeightFieldGeometry@physx@@QEAAAEAV01@AEBV01@@Z 000000018021ed10 f i GuGeometryUnion.obj
 0001:0021ddf0       ??4PxMeshScale@physx@@QEAAAEAV01@AEBV01@@Z 000000018021edf0 f i GuGeometryUnion.obj
 0001:0021de50       ??4PxTriangleMeshGeometry@physx@@QEAAAEAV01@AEBV01@@Z 000000018021ee50 f i GuGeometryUnion.obj
 0001:0021df80       ?computeBoxPoints@Gu@physx@@YAXAEBVPxBounds3@2@PEIAVPxVec3@2@@Z 000000018021ef80 f   GuInternal.obj
 0001:0021e250       ?computeBoundsAroundVertices@Gu@physx@@YAXAEAVPxBounds3@2@IPEIBVPxVec3@2@@Z 000000018021f250 f   GuInternal.obj
 0001:0021e470       ?getPlane@Gu@physx@@YA?AVPxPlane@2@AEBVPxTransform@2@@Z 000000018021f470 f   GuInternal.obj
 0001:0021e4d0       ?computeSweptBox@Gu@physx@@YAXAEAVBox@12@AEBVPxVec3@2@1AEBVPxMat33@2@1M@Z 000000018021f4d0 f   GuInternal.obj
 0001:0021eba0       ??0GuMeshFactory@physx@@QEAA@XZ 000000018021fba0 f   GuMeshFactory.obj
 0001:0021ec90       ??1GuMeshFactory@physx@@MEAA@XZ 000000018021fc90 f   GuMeshFactory.obj
 0001:0021ed10       ?release@GuMeshFactory@physx@@QEAAXXZ 000000018021fd10 f   GuMeshFactory.obj
 0001:0021efe0       ?addTriangleMesh@GuMeshFactory@physx@@QEAAXPEAVTriangleMesh@Gu@2@_N@Z 000000018021ffe0 f   GuMeshFactory.obj
 0001:0021f040       ?createTriangleMesh@GuMeshFactory@physx@@QEAAPEAVPxTriangleMesh@2@AEAVPxInputStream@2@@Z 0000000180220040 f   GuMeshFactory.obj
 0001:0021f0d0       ?createTriangleMesh@GuMeshFactory@physx@@QEAAPEAVPxTriangleMesh@2@PEAX@Z 00000001802200d0 f   GuMeshFactory.obj
 0001:0021f100       ?removeTriangleMesh@GuMeshFactory@physx@@QEAA_NAEAVPxTriangleMesh@2@@Z 0000000180220100 f   GuMeshFactory.obj
 0001:0021f190       ?getNbTriangleMeshes@GuMeshFactory@physx@@QEBAIXZ 0000000180220190 f   GuMeshFactory.obj
 0001:0021f1e0       ?getTriangleMeshes@GuMeshFactory@physx@@QEBAIPEAPEAVPxTriangleMesh@2@II@Z 00000001802201e0 f   GuMeshFactory.obj
 0001:0021f270       ?addConvexMesh@GuMeshFactory@physx@@QEAAXPEAVConvexMesh@Gu@2@_N@Z 0000000180220270 f   GuMeshFactory.obj
 0001:0021f2d0       ?createConvexMesh@GuMeshFactory@physx@@QEAAPEAVPxConvexMesh@2@AEAVPxInputStream@2@@Z 00000001802202d0 f   GuMeshFactory.obj
 0001:0021f3c0       ?createConvexMesh@GuMeshFactory@physx@@QEAAPEAVPxConvexMesh@2@PEAX@Z 00000001802203c0 f   GuMeshFactory.obj
 0001:0021f3f0       ?removeConvexMesh@GuMeshFactory@physx@@QEAA_NAEAVPxConvexMesh@2@@Z 00000001802203f0 f   GuMeshFactory.obj
 0001:0021f480       ?getNbConvexMeshes@GuMeshFactory@physx@@QEBAIXZ 0000000180220480 f   GuMeshFactory.obj
 0001:0021f4d0       ?getConvexMeshes@GuMeshFactory@physx@@QEBAIPEAPEAVPxConvexMesh@2@II@Z 00000001802204d0 f   GuMeshFactory.obj
 0001:0021f560       ?addHeightField@GuMeshFactory@physx@@QEAAXPEAVHeightField@Gu@2@_N@Z 0000000180220560 f   GuMeshFactory.obj
 0001:0021f5c0       ?createHeightField@GuMeshFactory@physx@@QEAAPEAVPxHeightField@2@PEAX@Z 00000001802205c0 f   GuMeshFactory.obj
 0001:0021f680       ?createHeightField@GuMeshFactory@physx@@QEAAPEAVPxHeightField@2@AEAVPxInputStream@2@@Z 0000000180220680 f   GuMeshFactory.obj
 0001:0021f770       ?removeHeightField@GuMeshFactory@physx@@QEAA_NAEAVPxHeightField@2@@Z 0000000180220770 f   GuMeshFactory.obj
 0001:0021f800       ?getNbHeightFields@GuMeshFactory@physx@@QEBAIXZ 0000000180220800 f   GuMeshFactory.obj
 0001:0021f850       ?getHeightFields@GuMeshFactory@physx@@QEBAIPEAPEAVPxHeightField@2@II@Z 0000000180220850 f   GuMeshFactory.obj
 0001:0021f8f0       ?addFactoryListener@GuMeshFactory@physx@@QEAAXAEAVGuMeshFactoryListener@2@@Z 00000001802208f0 f   GuMeshFactory.obj
 0001:0021f950       ?removeFactoryListener@GuMeshFactory@physx@@QEAAXAEAVGuMeshFactoryListener@2@@Z 0000000180220950 f   GuMeshFactory.obj
 0001:0021fa00       ?notifyFactoryListener@GuMeshFactory@physx@@QEAAXPEBVPxBase@2@G@Z 0000000180220a00 f   GuMeshFactory.obj
 0001:0021fa40       ?createTriangleMesh@GuMeshFactory@physx@@IEAAPEAVPxTriangleMesh@2@AEAVTriangleMeshData@Gu@2@@Z 0000000180220a40 f   GuMeshFactory.obj
 0001:0021fbb0       ?createConvexMesh@GuMeshFactory@physx@@IEAAPEAVPxConvexMesh@2@AEAUConvexHullData@Gu@2@@Z 0000000180220bb0 f   GuMeshFactory.obj
 0001:00221f90       ??$?2V?$ReflectionAllocator@VBV32Tree@Gu@physx@@@shdfnd@physx@@@UserAllocated@shdfnd@physx@@SAPEAX_KV?$ReflectionAllocator@VBV32Tree@Gu@physx@@@12@PEBDH@Z 0000000180222f90 f i GuMeshFactory.obj
 0001:00221fe0       ??$?2V?$ReflectionAllocator@VBV4TriangleData@Gu@physx@@@shdfnd@physx@@@UserAllocated@shdfnd@physx@@SAPEAX_KV?$ReflectionAllocator@VBV4TriangleData@Gu@physx@@@12@PEBDH@Z 0000000180222fe0 f i GuMeshFactory.obj
 0001:00222030       ??$?2V?$ReflectionAllocator@VRTreeTriangleData@Gu@physx@@@shdfnd@physx@@@UserAllocated@shdfnd@physx@@SAPEAX_KV?$ReflectionAllocator@VRTreeTriangleData@Gu@physx@@@12@PEBDH@Z 0000000180223030 f i GuMeshFactory.obj
 0001:00222080       ??$?_UE@@YAPEAX_KV?$ReflectionAllocator@E@shdfnd@physx@@PEBDH@Z 0000000180223080 f i GuMeshFactory.obj
 0001:002220d0       ??$?_UG@@YAPEAX_KV?$ReflectionAllocator@G@shdfnd@physx@@PEBDH@Z 00000001802230d0 f i GuMeshFactory.obj
 0001:00222120       ??$?_UI@@YAPEAX_KV?$ReflectionAllocator@I@shdfnd@physx@@PEBDH@Z 0000000180223120 f i GuMeshFactory.obj
 0001:002222c0       ??$getArrayOfPointers@VPxConvexMesh@physx@@VConvexMesh@Gu@2@@Cm@physx@@YAIPEIAPEAVPxConvexMesh@1@IIPEIBQEAVConvexMesh@Gu@1@I@Z 00000001802232c0 f i GuMeshFactory.obj
 0001:00222380       ??$getArrayOfPointers@VPxHeightField@physx@@VHeightField@Gu@2@@Cm@physx@@YAIPEIAPEAVPxHeightField@1@IIPEIBQEAVHeightField@Gu@1@I@Z 0000000180223380 f i GuMeshFactory.obj
 0001:00222440       ??$getArrayOfPointers@VPxTriangleMesh@physx@@VTriangleMesh@Gu@2@@Cm@physx@@YAIPEIAPEAVPxTriangleMesh@1@IIPEIBQEAVTriangleMesh@Gu@1@I@Z 0000000180223440 f i GuMeshFactory.obj
 0001:002225a0       ??0?$Array@PEAVGuMeshFactoryListener@physx@@VNamedAllocator@shdfnd@2@@shdfnd@physx@@QEAA@AEBVNamedAllocator@12@@Z 00000001802235a0 f i GuMeshFactory.obj
 0001:00222600       ??0?$CoalescedHashSet@PEAVConvexMesh@Gu@physx@@U?$Hash@PEAVConvexMesh@Gu@physx@@@shdfnd@3@VNonTrackingAllocator@53@@shdfnd@physx@@QEAA@AEBVNonTrackingAllocator@12@@Z 0000000180223600 f i GuMeshFactory.obj
 0001:00222650       ??0?$CoalescedHashSet@PEAVHeightField@Gu@physx@@U?$Hash@PEAVHeightField@Gu@physx@@@shdfnd@3@VNonTrackingAllocator@53@@shdfnd@physx@@QEAA@AEBVNonTrackingAllocator@12@@Z 0000000180223650 f i GuMeshFactory.obj
 0001:002226a0       ??0?$CoalescedHashSet@PEAVTriangleMesh@Gu@physx@@U?$Hash@PEAVTriangleMesh@Gu@physx@@@shdfnd@3@VNonTrackingAllocator@53@@shdfnd@physx@@QEAA@AEBVNonTrackingAllocator@12@@Z 00000001802236a0 f i GuMeshFactory.obj
 0001:002226f0       ??0?$HashBase@PEAVConvexMesh@Gu@physx@@PEAV123@U?$Hash@PEAVConvexMesh@Gu@physx@@@shdfnd@3@UGetKey@?$HashSetBase@PEAVConvexMesh@Gu@physx@@U?$Hash@PEAVConvexMesh@Gu@physx@@@shdfnd@3@VNonTrackingAllocator@53@$00@internal@53@VNonTrackingAllocator@53@$00@internal@shdfnd@physx@@QEAA@IMAEBVNonTrackingAllocator@23@@Z 00000001802236f0 f i GuMeshFactory.obj
 0001:00222740       ??0?$HashBase@PEAVHeightField@Gu@physx@@PEAV123@U?$Hash@PEAVHeightField@Gu@physx@@@shdfnd@3@UGetKey@?$HashSetBase@PEAVHeightField@Gu@physx@@U?$Hash@PEAVHeightField@Gu@physx@@@shdfnd@3@VNonTrackingAllocator@53@$00@internal@53@VNonTrackingAllocator@53@$00@internal@shdfnd@physx@@QEAA@IMAEBVNonTrackingAllocator@23@@Z 0000000180223740 f i GuMeshFactory.obj
 0001:00222790       ??0?$HashBase@PEAVTriangleMesh@Gu@physx@@PEAV123@U?$Hash@PEAVTriangleMesh@Gu@physx@@@shdfnd@3@UGetKey@?$HashSetBase@PEAVTriangleMesh@Gu@physx@@U?$Hash@PEAVTriangleMesh@Gu@physx@@@shdfnd@3@VNonTrackingAllocator@53@$00@internal@53@VNonTrackingAllocator@53@$00@internal@shdfnd@physx@@QEAA@IMAEBVNonTrackingAllocator@23@@Z 0000000180223790 f i GuMeshFactory.obj
 0001:002227e0       ??0?$HashSetBase@PEAVConvexMesh@Gu@physx@@U?$Hash@PEAVConvexMesh@Gu@physx@@@shdfnd@3@VNonTrackingAllocator@53@$00@internal@shdfnd@physx@@QEAA@IMAEBVNonTrackingAllocator@23@@Z 00000001802237e0 f i GuMeshFactory.obj
 0001:00222830       ??0?$HashSetBase@PEAVHeightField@Gu@physx@@U?$Hash@PEAVHeightField@Gu@physx@@@shdfnd@3@VNonTrackingAllocator@53@$00@internal@shdfnd@physx@@QEAA@IMAEBVNonTrackingAllocator@23@@Z 0000000180223830 f i GuMeshFactory.obj
 0001:00222880       ??0?$HashSetBase@PEAVTriangleMesh@Gu@physx@@U?$Hash@PEAVTriangleMesh@Gu@physx@@@shdfnd@3@VNonTrackingAllocator@53@$00@internal@shdfnd@physx@@QEAA@IMAEBVNonTrackingAllocator@23@@Z 0000000180223880 f i GuMeshFactory.obj
 0001:002228d0       ??0?$MutexT@V?$ReflectionAllocator@VMutexImpl@shdfnd@physx@@@shdfnd@physx@@@shdfnd@physx@@QEAA@AEBV?$ReflectionAllocator@VMutexImpl@shdfnd@physx@@@12@@Z 00000001802238d0 f i GuMeshFactory.obj
 0001:00222960       ??0?$ReflectionAllocator@E@shdfnd@physx@@QEAA@PEBD@Z 0000000180223960 f i GuMeshFactory.obj
 0001:00222980       ??0?$ReflectionAllocator@G@shdfnd@physx@@QEAA@PEBD@Z 0000000180223980 f i GuMeshFactory.obj
 0001:002229a0       ??0?$ReflectionAllocator@I@shdfnd@physx@@QEAA@PEBD@Z 00000001802239a0 f i GuMeshFactory.obj
 0001:002229c0       ??0?$ReflectionAllocator@VBV32Tree@Gu@physx@@@shdfnd@physx@@QEAA@PEBD@Z 00000001802239c0 f i GuMeshFactory.obj
 0001:002229e0       ??0?$ReflectionAllocator@VBV4TriangleData@Gu@physx@@@shdfnd@physx@@QEAA@PEBD@Z 00000001802239e0 f i GuMeshFactory.obj
 0001:00222a00       ??0?$ReflectionAllocator@VBV4TriangleMesh@Gu@physx@@@shdfnd@physx@@QEAA@PEBD@Z 0000000180223a00 f i GuMeshFactory.obj
 0001:00222a20       ??0?$ReflectionAllocator@VConvexMesh@Gu@physx@@@shdfnd@physx@@QEAA@PEBD@Z 0000000180223a20 f i GuMeshFactory.obj
 0001:00222a40       ??0?$ReflectionAllocator@VHeightField@Gu@physx@@@shdfnd@physx@@QEAA@PEBD@Z 0000000180223a40 f i GuMeshFactory.obj
 0001:00222a60       ??0?$ReflectionAllocator@VMutexImpl@shdfnd@physx@@@shdfnd@physx@@QEAA@AEBV012@@Z 0000000180223a60 f i GuMeshFactory.obj
 0001:00222a80       ??0?$ReflectionAllocator@VMutexImpl@shdfnd@physx@@@shdfnd@physx@@QEAA@PEBD@Z 0000000180223a80 f i GuMeshFactory.obj
 0001:00222aa0       ??0?$ReflectionAllocator@VRTreeTriangleData@Gu@physx@@@shdfnd@physx@@QEAA@PEBD@Z 0000000180223aa0 f i GuMeshFactory.obj
 0001:00222ac0       ??0?$ReflectionAllocator@VRTreeTriangleMesh@Gu@physx@@@shdfnd@physx@@QEAA@PEBD@Z 0000000180223ac0 f i GuMeshFactory.obj
 0001:00222ae0       ??0BV4TriangleData@Gu@physx@@QEAA@XZ 0000000180223ae0 f i GuMeshFactory.obj
 0001:00222b60       ??0RTreeTriangleData@Gu@physx@@QEAA@XZ 0000000180223b60 f i GuMeshFactory.obj
 0001:00222bc0       ??0ScopedLock@?$MutexT@V?$ReflectionAllocator@VMutexImpl@shdfnd@physx@@@shdfnd@physx@@@shdfnd@physx@@QEAA@AEAV123@@Z 0000000180223bc0 f i GuMeshFactory.obj
 0001:00222c00       ??0TriangleMeshData@Gu@physx@@QEAA@XZ 0000000180223c00 f i GuMeshFactory.obj
 0001:00222d70       ??1?$Array@PEAVGuMeshFactoryListener@physx@@VNamedAllocator@shdfnd@2@@shdfnd@physx@@QEAA@XZ 0000000180223d70 f i GuMeshFactory.obj
 0001:00222e00       ??1?$CoalescedHashSet@PEAVConvexMesh@Gu@physx@@U?$Hash@PEAVConvexMesh@Gu@physx@@@shdfnd@3@VNonTrackingAllocator@53@@shdfnd@physx@@QEAA@XZ 0000000180223e00 f i GuMeshFactory.obj
 0001:00222e20       ??1?$CoalescedHashSet@PEAVHeightField@Gu@physx@@U?$Hash@PEAVHeightField@Gu@physx@@@shdfnd@3@VNonTrackingAllocator@53@@shdfnd@physx@@QEAA@XZ 0000000180223e20 f i GuMeshFactory.obj
 0001:00222e40       ??1?$CoalescedHashSet@PEAVTriangleMesh@Gu@physx@@U?$Hash@PEAVTriangleMesh@Gu@physx@@@shdfnd@3@VNonTrackingAllocator@53@@shdfnd@physx@@QEAA@XZ 0000000180223e40 f i GuMeshFactory.obj
 0001:00222e60       ??1?$HashBase@PEAVConvexMesh@Gu@physx@@PEAV123@U?$Hash@PEAVConvexMesh@Gu@physx@@@shdfnd@3@UGetKey@?$HashSetBase@PEAVConvexMesh@Gu@physx@@U?$Hash@PEAVConvexMesh@Gu@physx@@@shdfnd@3@VNonTrackingAllocator@53@$00@internal@53@VNonTrackingAllocator@53@$00@internal@shdfnd@physx@@QEAA@XZ 0000000180223e60 f i GuMeshFactory.obj
 0001:00222eb0       ??1?$HashBase@PEAVHeightField@Gu@physx@@PEAV123@U?$Hash@PEAVHeightField@Gu@physx@@@shdfnd@3@UGetKey@?$HashSetBase@PEAVHeightField@Gu@physx@@U?$Hash@PEAVHeightField@Gu@physx@@@shdfnd@3@VNonTrackingAllocator@53@$00@internal@53@VNonTrackingAllocator@53@$00@internal@shdfnd@physx@@QEAA@XZ 0000000180223eb0 f i GuMeshFactory.obj
 0001:00222f00       ??1?$HashBase@PEAVTriangleMesh@Gu@physx@@PEAV123@U?$Hash@PEAVTriangleMesh@Gu@physx@@@shdfnd@3@UGetKey@?$HashSetBase@PEAVTriangleMesh@Gu@physx@@U?$Hash@PEAVTriangleMesh@Gu@physx@@@shdfnd@3@VNonTrackingAllocator@53@$00@internal@53@VNonTrackingAllocator@53@$00@internal@shdfnd@physx@@QEAA@XZ 0000000180223f00 f i GuMeshFactory.obj
 0001:00222f50       ??1?$HashSetBase@PEAVConvexMesh@Gu@physx@@U?$Hash@PEAVConvexMesh@Gu@physx@@@shdfnd@3@VNonTrackingAllocator@53@$00@internal@shdfnd@physx@@QEAA@XZ 0000000180223f50 f i GuMeshFactory.obj
 0001:00222f80       ??1?$HashSetBase@PEAVHeightField@Gu@physx@@U?$Hash@PEAVHeightField@Gu@physx@@@shdfnd@3@VNonTrackingAllocator@53@$00@internal@shdfnd@physx@@QEAA@XZ 0000000180223f80 f i GuMeshFactory.obj
 0001:00222fb0       ??1?$HashSetBase@PEAVTriangleMesh@Gu@physx@@U?$Hash@PEAVTriangleMesh@Gu@physx@@@shdfnd@3@VNonTrackingAllocator@53@$00@internal@shdfnd@physx@@QEAA@XZ 0000000180223fb0 f i GuMeshFactory.obj
 0001:00222fe0       ??1?$MutexT@V?$ReflectionAllocator@VMutexImpl@shdfnd@physx@@@shdfnd@physx@@@shdfnd@physx@@QEAA@XZ 0000000180223fe0 f i GuMeshFactory.obj
 0001:00223020       ??1BV4TriangleData@Gu@physx@@UEAA@XZ 0000000180224020 f i GuMeshFactory.obj
 0001:00223080       ??1RTreeTriangleData@Gu@physx@@UEAA@XZ 0000000180224080 f i GuMeshFactory.obj
 0001:002230d0       ??1ScopedLock@?$MutexT@V?$ReflectionAllocator@VMutexImpl@shdfnd@physx@@@shdfnd@physx@@@shdfnd@physx@@QEAA@XZ 00000001802240d0 f i GuMeshFactory.obj
 0001:00223100       ??1TriangleMeshData@Gu@physx@@UEAA@XZ 0000000180224100 f i GuMeshFactory.obj
 0001:002234d0       ??A?$Array@PEAVGuMeshFactoryListener@physx@@VNamedAllocator@shdfnd@2@@shdfnd@physx@@QEAAAEAPEAVGuMeshFactoryListener@2@I@Z 00000001802244d0 f i GuMeshFactory.obj
 0001:00223570       ??R?$Hash@PEAVConvexMesh@Gu@physx@@@shdfnd@physx@@QEBAIAEBQEAVConvexMesh@Gu@2@@Z 0000000180224570 f i GuMeshFactory.obj
 0001:002235a0       ??R?$Hash@PEAVHeightField@Gu@physx@@@shdfnd@physx@@QEBAIAEBQEAVHeightField@Gu@2@@Z 00000001802245a0 f i GuMeshFactory.obj
 0001:002235d0       ??R?$Hash@PEAVTriangleMesh@Gu@physx@@@shdfnd@physx@@QEBAIAEBQEAVTriangleMesh@Gu@2@@Z 00000001802245d0 f i GuMeshFactory.obj
 0001:00223600       ??RGetKey@?$HashSetBase@PEAVConvexMesh@Gu@physx@@U?$Hash@PEAVConvexMesh@Gu@physx@@@shdfnd@3@VNonTrackingAllocator@53@$00@internal@shdfnd@physx@@QEAAAEBQEAVConvexMesh@Gu@4@AEBQEAV564@@Z 0000000180224600 f i GuMeshFactory.obj
 0001:00223620       ??RGetKey@?$HashSetBase@PEAVHeightField@Gu@physx@@U?$Hash@PEAVHeightField@Gu@physx@@@shdfnd@3@VNonTrackingAllocator@53@$00@internal@shdfnd@physx@@QEAAAEBQEAVHeightField@Gu@4@AEBQEAV564@@Z 0000000180224620 f i GuMeshFactory.obj
 0001:00223640       ??RGetKey@?$HashSetBase@PEAVTriangleMesh@Gu@physx@@U?$Hash@PEAVTriangleMesh@Gu@physx@@@shdfnd@3@VNonTrackingAllocator@53@$00@internal@shdfnd@physx@@QEAAAEBQEAVTriangleMesh@Gu@4@AEBQEAV564@@Z 0000000180224640 f i GuMeshFactory.obj
 0001:00223660       ??_EGuMeshFactory@physx@@MEAAPEAXI@Z 0000000180224660 f i GuMeshFactory.obj
 0001:00223770       ??_GBV4TriangleData@Gu@physx@@UEAAPEAXI@Z 0000000180224770 f i GuMeshFactory.obj
 0001:00223770       ??_EBV4TriangleData@Gu@physx@@UEAAPEAXI@Z 0000000180224770 f i GuMeshFactory.obj
 0001:002237e0       ??_GGuMeshFactory@physx@@MEAAPEAXI@Z 00000001802247e0 f i GuMeshFactory.obj
 0001:00223850       ??_GMutexImpl@shdfnd@physx@@QEAAPEAXI@Z 0000000180224850 f i GuMeshFactory.obj
 0001:002238a0       ??_GRTreeTriangleData@Gu@physx@@UEAAPEAXI@Z 00000001802248a0 f i GuMeshFactory.obj
 0001:002238a0       ??_ERTreeTriangleData@Gu@physx@@UEAAPEAXI@Z 00000001802248a0 f i GuMeshFactory.obj
 0001:00223910       ??_GTriangleMeshData@Gu@physx@@UEAAPEAXI@Z 0000000180224910 f i GuMeshFactory.obj
 0001:00223910       ??_ETriangleMeshData@Gu@physx@@UEAAPEAXI@Z 0000000180224910 f i GuMeshFactory.obj
 0001:00223980       ?allocate@?$Array@PEAVGuMeshFactoryListener@physx@@VNamedAllocator@shdfnd@2@@shdfnd@physx@@IEAAPEAPEAVGuMeshFactoryListener@3@I@Z 0000000180224980 f i GuMeshFactory.obj
 0001:00223a30       ?allocate@?$ReflectionAllocator@E@shdfnd@physx@@QEAAPEAX_KPEBDH@Z 0000000180224a30 f i GuMeshFactory.obj
 0001:00223ad0       ?allocate@?$ReflectionAllocator@G@shdfnd@physx@@QEAAPEAX_KPEBDH@Z 0000000180224ad0 f i GuMeshFactory.obj
 0001:00223b70       ?allocate@?$ReflectionAllocator@I@shdfnd@physx@@QEAAPEAX_KPEBDH@Z 0000000180224b70 f i GuMeshFactory.obj
 0001:00223c10       ?allocate@?$ReflectionAllocator@VBV32Tree@Gu@physx@@@shdfnd@physx@@QEAAPEAX_KPEBDH@Z 0000000180224c10 f i GuMeshFactory.obj
 0001:00223cb0       ?allocate@?$ReflectionAllocator@VBV4TriangleData@Gu@physx@@@shdfnd@physx@@QEAAPEAX_KPEBDH@Z 0000000180224cb0 f i GuMeshFactory.obj
 0001:00223d50       ?allocate@?$ReflectionAllocator@VBV4TriangleMesh@Gu@physx@@@shdfnd@physx@@QEAAPEAX_KPEBDH@Z 0000000180224d50 f i GuMeshFactory.obj
 0001:00223df0       ?allocate@?$ReflectionAllocator@VConvexMesh@Gu@physx@@@shdfnd@physx@@QEAAPEAX_KPEBDH@Z 0000000180224df0 f i GuMeshFactory.obj
 0001:00223e90       ?allocate@?$ReflectionAllocator@VHeightField@Gu@physx@@@shdfnd@physx@@QEAAPEAX_KPEBDH@Z 0000000180224e90 f i GuMeshFactory.obj
 0001:00223f30       ?allocate@?$ReflectionAllocator@VMutexImpl@shdfnd@physx@@@shdfnd@physx@@QEAAPEAX_KPEBDH@Z 0000000180224f30 f i GuMeshFactory.obj
 0001:00223fd0       ?allocate@?$ReflectionAllocator@VRTreeTriangleData@Gu@physx@@@shdfnd@physx@@QEAAPEAX_KPEBDH@Z 0000000180224fd0 f i GuMeshFactory.obj
 0001:00224070       ?allocate@?$ReflectionAllocator@VRTreeTriangleMesh@Gu@physx@@@shdfnd@physx@@QEAAPEAX_KPEBDH@Z 0000000180225070 f i GuMeshFactory.obj
 0001:00224110       ?allocateAdjacencies@TriangleMeshData@Gu@physx@@QEAAPEAIXZ 0000000180225110 f i GuMeshFactory.obj
 0001:002242a0       ?allocateExtraTrigData@TriangleMeshData@Gu@physx@@QEAAPEAEXZ 00000001802252a0 f i GuMeshFactory.obj
 0001:002243f0       ?allocateFaceRemap@TriangleMeshData@Gu@physx@@QEAAPEAIXZ 00000001802253f0 f i GuMeshFactory.obj
 0001:00224560       ?allocateMaterials@TriangleMeshData@Gu@physx@@QEAAPEAGXZ 0000000180225560 f i GuMeshFactory.obj
 0001:002246d0       ?allocateTriangles@TriangleMeshData@Gu@physx@@QEAAPEAXI_NI@Z 00000001802256d0 f i GuMeshFactory.obj
 0001:002249a0       ?allocateVertices@TriangleMeshData@Gu@physx@@QEAAPEAVPxVec3@3@I@Z 00000001802259a0 f i GuMeshFactory.obj
 0001:00224ab0       ?capacity@?$Array@PEAVGuMeshFactoryListener@physx@@VNamedAllocator@shdfnd@2@@shdfnd@physx@@QEBAIXZ 0000000180225ab0 f i GuMeshFactory.obj
 0001:00224ad0       ?capacityIncrement@?$Array@PEAVGuMeshFactoryListener@physx@@VNamedAllocator@shdfnd@2@@shdfnd@physx@@IEBAIXZ 0000000180225ad0 f i GuMeshFactory.obj
 0001:00224b20       ?copy@?$Array@PEAVGuMeshFactoryListener@physx@@VNamedAllocator@shdfnd@2@@shdfnd@physx@@KAXPEAPEAVGuMeshFactoryListener@3@0PEBQEAV43@@Z 0000000180225b20 f i GuMeshFactory.obj
 0001:00224c00       ?create@?$HashBase@PEAVConvexMesh@Gu@physx@@PEAV123@U?$Hash@PEAVConvexMesh@Gu@physx@@@shdfnd@3@UGetKey@?$HashSetBase@PEAVConvexMesh@Gu@physx@@U?$Hash@PEAVConvexMesh@Gu@physx@@@shdfnd@3@VNonTrackingAllocator@53@$00@internal@53@VNonTrackingAllocator@53@$00@internal@shdfnd@physx@@QEAAPEAPEAVConvexMesh@Gu@4@AEBQEAV564@AEA_N@Z 0000000180225c00 f i GuMeshFactory.obj
 0001:00224e10       ?create@?$HashBase@PEAVHeightField@Gu@physx@@PEAV123@U?$Hash@PEAVHeightField@Gu@physx@@@shdfnd@3@UGetKey@?$HashSetBase@PEAVHeightField@Gu@physx@@U?$Hash@PEAVHeightField@Gu@physx@@@shdfnd@3@VNonTrackingAllocator@53@$00@internal@53@VNonTrackingAllocator@53@$00@internal@shdfnd@physx@@QEAAPEAPEAVHeightField@Gu@4@AEBQEAV564@AEA_N@Z 0000000180225e10 f i GuMeshFactory.obj
 0001:00225020       ?create@?$HashBase@PEAVTriangleMesh@Gu@physx@@PEAV123@U?$Hash@PEAVTriangleMesh@Gu@physx@@@shdfnd@3@UGetKey@?$HashSetBase@PEAVTriangleMesh@Gu@physx@@U?$Hash@PEAVTriangleMesh@Gu@physx@@@shdfnd@3@VNonTrackingAllocator@53@$00@internal@53@VNonTrackingAllocator@53@$00@internal@shdfnd@physx@@QEAAPEAPEAVTriangleMesh@Gu@4@AEBQEAV564@AEA_N@Z 0000000180226020 f i GuMeshFactory.obj
 0001:00225230       ?deallocate@?$Array@PEAVGuMeshFactoryListener@physx@@VNamedAllocator@shdfnd@2@@shdfnd@physx@@IEAAXPEAX@Z 0000000180226230 f i GuMeshFactory.obj
 0001:00225260       ?deallocate@?$ReflectionAllocator@VMutexImpl@shdfnd@physx@@@shdfnd@physx@@QEAAXPEAX@Z 0000000180226260 f i GuMeshFactory.obj
 0001:002252b0       ?destroy@?$Array@PEAVGuMeshFactoryListener@physx@@VNamedAllocator@shdfnd@2@@shdfnd@physx@@KAXPEAPEAVGuMeshFactoryListener@3@0@Z 00000001802262b0 f i GuMeshFactory.obj
 0001:00225300       ?destroy@?$HashBase@PEAVConvexMesh@Gu@physx@@PEAV123@U?$Hash@PEAVConvexMesh@Gu@physx@@@shdfnd@3@UGetKey@?$HashSetBase@PEAVConvexMesh@Gu@physx@@U?$Hash@PEAVConvexMesh@Gu@physx@@@shdfnd@3@VNonTrackingAllocator@53@$00@internal@53@VNonTrackingAllocator@53@$00@internal@shdfnd@physx@@AEAAXXZ 0000000180226300 f i GuMeshFactory.obj
 0001:00225380       ?destroy@?$HashBase@PEAVHeightField@Gu@physx@@PEAV123@U?$Hash@PEAVHeightField@Gu@physx@@@shdfnd@3@UGetKey@?$HashSetBase@PEAVHeightField@Gu@physx@@U?$Hash@PEAVHeightField@Gu@physx@@@shdfnd@3@VNonTrackingAllocator@53@$00@internal@53@VNonTrackingAllocator@53@$00@internal@shdfnd@physx@@AEAAXXZ 0000000180226380 f i GuMeshFactory.obj
 0001:00225400       ?destroy@?$HashBase@PEAVTriangleMesh@Gu@physx@@PEAV123@U?$Hash@PEAVTriangleMesh@Gu@physx@@@shdfnd@3@UGetKey@?$HashSetBase@PEAVTriangleMesh@Gu@physx@@U?$Hash@PEAVTriangleMesh@Gu@physx@@@shdfnd@3@VNonTrackingAllocator@53@$00@internal@53@VNonTrackingAllocator@53@$00@internal@shdfnd@physx@@AEAAXXZ 0000000180226400 f i GuMeshFactory.obj
 0001:00225480       ?equal@?$Hash@PEAVConvexMesh@Gu@physx@@@shdfnd@physx@@QEBA_NAEBQEAVConvexMesh@Gu@3@0@Z 0000000180226480 f i GuMeshFactory.obj
 0001:002254d0       ?equal@?$Hash@PEAVHeightField@Gu@physx@@@shdfnd@physx@@QEBA_NAEBQEAVHeightField@Gu@3@0@Z 00000001802264d0 f i GuMeshFactory.obj
 0001:00225520       ?equal@?$Hash@PEAVTriangleMesh@Gu@physx@@@shdfnd@physx@@QEBA_NAEBQEAVTriangleMesh@Gu@3@0@Z 0000000180226520 f i GuMeshFactory.obj
 0001:00225570       ?erase@?$HashBase@PEAVConvexMesh@Gu@physx@@PEAV123@U?$Hash@PEAVConvexMesh@Gu@physx@@@shdfnd@3@UGetKey@?$HashSetBase@PEAVConvexMesh@Gu@physx@@U?$Hash@PEAVConvexMesh@Gu@physx@@@shdfnd@3@VNonTrackingAllocator@53@$00@internal@53@VNonTrackingAllocator@53@$00@internal@shdfnd@physx@@QEAA_NAEBQEAVConvexMesh@Gu@4@@Z 0000000180226570 f i GuMeshFactory.obj
 0001:00225670       ?erase@?$HashBase@PEAVHeightField@Gu@physx@@PEAV123@U?$Hash@PEAVHeightField@Gu@physx@@@shdfnd@3@UGetKey@?$HashSetBase@PEAVHeightField@Gu@physx@@U?$Hash@PEAVHeightField@Gu@physx@@@shdfnd@3@VNonTrackingAllocator@53@$00@internal@53@VNonTrackingAllocator@53@$00@internal@shdfnd@physx@@QEAA_NAEBQEAVHeightField@Gu@4@@Z 0000000180226670 f i GuMeshFactory.obj
 0001:00225770       ?erase@?$HashBase@PEAVTriangleMesh@Gu@physx@@PEAV123@U?$Hash@PEAVTriangleMesh@Gu@physx@@@shdfnd@3@UGetKey@?$HashSetBase@PEAVTriangleMesh@Gu@physx@@U?$Hash@PEAVTriangleMesh@Gu@physx@@@shdfnd@3@VNonTrackingAllocator@53@$00@internal@53@VNonTrackingAllocator@53@$00@internal@shdfnd@physx@@QEAA_NAEBQEAVTriangleMesh@Gu@4@@Z 0000000180226770 f i GuMeshFactory.obj
 0001:00225870       ?erase@?$HashSetBase@PEAVConvexMesh@Gu@physx@@U?$Hash@PEAVConvexMesh@Gu@physx@@@shdfnd@3@VNonTrackingAllocator@53@$00@internal@shdfnd@physx@@QEAA_NAEBQEAVConvexMesh@Gu@4@@Z 0000000180226870 f i GuMeshFactory.obj
 0001:002258a0       ?erase@?$HashSetBase@PEAVHeightField@Gu@physx@@U?$Hash@PEAVHeightField@Gu@physx@@@shdfnd@3@VNonTrackingAllocator@53@$00@internal@shdfnd@physx@@QEAA_NAEBQEAVHeightField@Gu@4@@Z 00000001802268a0 f i GuMeshFactory.obj
 0001:002258d0       ?erase@?$HashSetBase@PEAVTriangleMesh@Gu@physx@@U?$Hash@PEAVTriangleMesh@Gu@physx@@@shdfnd@3@VNonTrackingAllocator@53@$00@internal@shdfnd@physx@@QEAA_NAEBQEAVTriangleMesh@Gu@4@@Z 00000001802268d0 f i GuMeshFactory.obj
 0001:00225900       ?eraseInternal@?$HashBase@PEAVConvexMesh@Gu@physx@@PEAV123@U?$Hash@PEAVConvexMesh@Gu@physx@@@shdfnd@3@UGetKey@?$HashSetBase@PEAVConvexMesh@Gu@physx@@U?$Hash@PEAVConvexMesh@Gu@physx@@@shdfnd@3@VNonTrackingAllocator@53@$00@internal@53@VNonTrackingAllocator@53@$00@internal@shdfnd@physx@@AEAA_NPEAI@Z 0000000180226900 f i GuMeshFactory.obj
 0001:002259b0       ?eraseInternal@?$HashBase@PEAVHeightField@Gu@physx@@PEAV123@U?$Hash@PEAVHeightField@Gu@physx@@@shdfnd@3@UGetKey@?$HashSetBase@PEAVHeightField@Gu@physx@@U?$Hash@PEAVHeightField@Gu@physx@@@shdfnd@3@VNonTrackingAllocator@53@$00@internal@53@VNonTrackingAllocator@53@$00@internal@shdfnd@physx@@AEAA_NPEAI@Z 00000001802269b0 f i GuMeshFactory.obj
 0001:00225a60       ?eraseInternal@?$HashBase@PEAVTriangleMesh@Gu@physx@@PEAV123@U?$Hash@PEAVTriangleMesh@Gu@physx@@@shdfnd@3@UGetKey@?$HashSetBase@PEAVTriangleMesh@Gu@physx@@U?$Hash@PEAVTriangleMesh@Gu@physx@@@shdfnd@3@VNonTrackingAllocator@53@$00@internal@53@VNonTrackingAllocator@53@$00@internal@shdfnd@physx@@AEAA_NPEAI@Z 0000000180226a60 f i GuMeshFactory.obj
 0001:00225b10       ?flip@physx@@YAXAEAI@Z     0000000180226b10 f i GuMeshFactory.obj
 0001:00225c00       ?freeListAdd@?$HashBase@PEAVConvexMesh@Gu@physx@@PEAV123@U?$Hash@PEAVConvexMesh@Gu@physx@@@shdfnd@3@UGetKey@?$HashSetBase@PEAVConvexMesh@Gu@physx@@U?$Hash@PEAVConvexMesh@Gu@physx@@@shdfnd@3@VNonTrackingAllocator@53@$00@internal@53@VNonTrackingAllocator@53@$00@internal@shdfnd@physx@@AEAAXI@Z 0000000180226c00 f i GuMeshFactory.obj
 0001:00225ce0       ?freeListAdd@?$HashBase@PEAVConvexMesh@Gu@physx@@PEAV123@U?$Hash@PEAVConvexMesh@Gu@physx@@@shdfnd@3@UGetKey@?$HashSetBase@PEAVConvexMesh@Gu@physx@@U?$Hash@PEAVConvexMesh@Gu@physx@@@shdfnd@3@VNonTrackingAllocator@53@$00@internal@53@VNonTrackingAllocator@53@$00@internal@shdfnd@physx@@AEAAXII@Z 0000000180226ce0 f i GuMeshFactory.obj
 0001:00225e10       ?freeListAdd@?$HashBase@PEAVHeightField@Gu@physx@@PEAV123@U?$Hash@PEAVHeightField@Gu@physx@@@shdfnd@3@UGetKey@?$HashSetBase@PEAVHeightField@Gu@physx@@U?$Hash@PEAVHeightField@Gu@physx@@@shdfnd@3@VNonTrackingAllocator@53@$00@internal@53@VNonTrackingAllocator@53@$00@internal@shdfnd@physx@@AEAAXI@Z 0000000180226e10 f i GuMeshFactory.obj
 0001:00225ef0       ?freeListAdd@?$HashBase@PEAVHeightField@Gu@physx@@PEAV123@U?$Hash@PEAVHeightField@Gu@physx@@@shdfnd@3@UGetKey@?$HashSetBase@PEAVHeightField@Gu@physx@@U?$Hash@PEAVHeightField@Gu@physx@@@shdfnd@3@VNonTrackingAllocator@53@$00@internal@53@VNonTrackingAllocator@53@$00@internal@shdfnd@physx@@AEAAXII@Z 0000000180226ef0 f i GuMeshFactory.obj
 0001:00226020       ?freeListAdd@?$HashBase@PEAVTriangleMesh@Gu@physx@@PEAV123@U?$Hash@PEAVTriangleMesh@Gu@physx@@@shdfnd@3@UGetKey@?$HashSetBase@PEAVTriangleMesh@Gu@physx@@U?$Hash@PEAVTriangleMesh@Gu@physx@@@shdfnd@3@VNonTrackingAllocator@53@$00@internal@53@VNonTrackingAllocator@53@$00@internal@shdfnd@physx@@AEAAXI@Z 0000000180227020 f i GuMeshFactory.obj
 0001:00226100       ?freeListAdd@?$HashBase@PEAVTriangleMesh@Gu@physx@@PEAV123@U?$Hash@PEAVTriangleMesh@Gu@physx@@@shdfnd@3@UGetKey@?$HashSetBase@PEAVTriangleMesh@Gu@physx@@U?$Hash@PEAVTriangleMesh@Gu@physx@@@shdfnd@3@VNonTrackingAllocator@53@$00@internal@53@VNonTrackingAllocator@53@$00@internal@shdfnd@physx@@AEAAXII@Z 0000000180227100 f i GuMeshFactory.obj
 0001:00226230       ?freeListEmpty@?$HashBase@PEAVConvexMesh@Gu@physx@@PEAV123@U?$Hash@PEAVConvexMesh@Gu@physx@@@shdfnd@3@UGetKey@?$HashSetBase@PEAVConvexMesh@Gu@physx@@U?$Hash@PEAVConvexMesh@Gu@physx@@@shdfnd@3@VNonTrackingAllocator@53@$00@internal@53@VNonTrackingAllocator@53@$00@internal@shdfnd@physx@@AEBA_NXZ 0000000180227230 f i GuMeshFactory.obj
 0001:002262b0       ?freeListEmpty@?$HashBase@PEAVHeightField@Gu@physx@@PEAV123@U?$Hash@PEAVHeightField@Gu@physx@@@shdfnd@3@UGetKey@?$HashSetBase@PEAVHeightField@Gu@physx@@U?$Hash@PEAVHeightField@Gu@physx@@@shdfnd@3@VNonTrackingAllocator@53@$00@internal@53@VNonTrackingAllocator@53@$00@internal@shdfnd@physx@@AEBA_NXZ 00000001802272b0 f i GuMeshFactory.obj
 0001:00226330       ?freeListEmpty@?$HashBase@PEAVTriangleMesh@Gu@physx@@PEAV123@U?$Hash@PEAVTriangleMesh@Gu@physx@@@shdfnd@3@UGetKey@?$HashSetBase@PEAVTriangleMesh@Gu@physx@@U?$Hash@PEAVTriangleMesh@Gu@physx@@@shdfnd@3@VNonTrackingAllocator@53@$00@internal@53@VNonTrackingAllocator@53@$00@internal@shdfnd@physx@@AEBA_NXZ 0000000180227330 f i GuMeshFactory.obj
 0001:002263b0       ?freeListGetNext@?$HashBase@PEAVConvexMesh@Gu@physx@@PEAV123@U?$Hash@PEAVConvexMesh@Gu@physx@@@shdfnd@3@UGetKey@?$HashSetBase@PEAVConvexMesh@Gu@physx@@U?$Hash@PEAVConvexMesh@Gu@physx@@@shdfnd@3@VNonTrackingAllocator@53@$00@internal@53@VNonTrackingAllocator@53@$00@internal@shdfnd@physx@@AEAAIXZ 00000001802273b0 f i GuMeshFactory.obj
 0001:00226510       ?freeListGetNext@?$HashBase@PEAVHeightField@Gu@physx@@PEAV123@U?$Hash@PEAVHeightField@Gu@physx@@@shdfnd@3@UGetKey@?$HashSetBase@PEAVHeightField@Gu@physx@@U?$Hash@PEAVHeightField@Gu@physx@@@shdfnd@3@VNonTrackingAllocator@53@$00@internal@53@VNonTrackingAllocator@53@$00@internal@shdfnd@physx@@AEAAIXZ 0000000180227510 f i GuMeshFactory.obj
 0001:00226670       ?freeListGetNext@?$HashBase@PEAVTriangleMesh@Gu@physx@@PEAV123@U?$Hash@PEAVTriangleMesh@Gu@physx@@@shdfnd@3@UGetKey@?$HashSetBase@PEAVTriangleMesh@Gu@physx@@U?$Hash@PEAVTriangleMesh@Gu@physx@@@shdfnd@3@VNonTrackingAllocator@53@$00@internal@53@VNonTrackingAllocator@53@$00@internal@shdfnd@physx@@AEAAIXZ 0000000180227670 f i GuMeshFactory.obj
 0001:002267d0       ?getEntries@?$CoalescedHashSet@PEAVConvexMesh@Gu@physx@@U?$Hash@PEAVConvexMesh@Gu@physx@@@shdfnd@3@VNonTrackingAllocator@53@@shdfnd@physx@@QEBAPEBQEAVConvexMesh@Gu@3@XZ 00000001802277d0 f i GuMeshFactory.obj
 0001:002267f0       ?getEntries@?$CoalescedHashSet@PEAVHeightField@Gu@physx@@U?$Hash@PEAVHeightField@Gu@physx@@@shdfnd@3@VNonTrackingAllocator@53@@shdfnd@physx@@QEBAPEBQEAVHeightField@Gu@3@XZ 00000001802277f0 f i GuMeshFactory.obj
 0001:00226810       ?getEntries@?$CoalescedHashSet@PEAVTriangleMesh@Gu@physx@@U?$Hash@PEAVTriangleMesh@Gu@physx@@@shdfnd@3@VNonTrackingAllocator@53@@shdfnd@physx@@QEBAPEBQEAVTriangleMesh@Gu@3@XZ 0000000180227810 f i GuMeshFactory.obj
 0001:00226830       ?getEntries@?$HashBase@PEAVConvexMesh@Gu@physx@@PEAV123@U?$Hash@PEAVConvexMesh@Gu@physx@@@shdfnd@3@UGetKey@?$HashSetBase@PEAVConvexMesh@Gu@physx@@U?$Hash@PEAVConvexMesh@Gu@physx@@@shdfnd@3@VNonTrackingAllocator@53@$00@internal@53@VNonTrackingAllocator@53@$00@internal@shdfnd@physx@@QEBAPEBQEAVConvexMesh@Gu@4@XZ 0000000180227830 f i GuMeshFactory.obj
 0001:00226850       ?getEntries@?$HashBase@PEAVHeightField@Gu@physx@@PEAV123@U?$Hash@PEAVHeightField@Gu@physx@@@shdfnd@3@UGetKey@?$HashSetBase@PEAVHeightField@Gu@physx@@U?$Hash@PEAVHeightField@Gu@physx@@@shdfnd@3@VNonTrackingAllocator@53@$00@internal@53@VNonTrackingAllocator@53@$00@internal@shdfnd@physx@@QEBAPEBQEAVHeightField@Gu@4@XZ 0000000180227850 f i GuMeshFactory.obj
 0001:00226870       ?getEntries@?$HashBase@PEAVTriangleMesh@Gu@physx@@PEAV123@U?$Hash@PEAVTriangleMesh@Gu@physx@@@shdfnd@3@UGetKey@?$HashSetBase@PEAVTriangleMesh@Gu@physx@@U?$Hash@PEAVTriangleMesh@Gu@physx@@@shdfnd@3@VNonTrackingAllocator@53@$00@internal@53@VNonTrackingAllocator@53@$00@internal@shdfnd@physx@@QEBAPEBQEAVTriangleMesh@Gu@4@XZ 0000000180227870 f i GuMeshFactory.obj
 0001:00226890       ?getName@?$ReflectionAllocator@E@shdfnd@physx@@CAPEBDXZ 0000000180227890 f i GuMeshFactory.obj
 0001:002268e0       ?getName@?$ReflectionAllocator@G@shdfnd@physx@@CAPEBDXZ 00000001802278e0 f i GuMeshFactory.obj
 0001:00226930       ?getName@?$ReflectionAllocator@I@shdfnd@physx@@CAPEBDXZ 0000000180227930 f i GuMeshFactory.obj
 0001:00226980       ?getName@?$ReflectionAllocator@VBV32Tree@Gu@physx@@@shdfnd@physx@@CAPEBDXZ 0000000180227980 f i GuMeshFactory.obj
 0001:002269d0       ?getName@?$ReflectionAllocator@VBV4TriangleData@Gu@physx@@@shdfnd@physx@@CAPEBDXZ 00000001802279d0 f i GuMeshFactory.obj
 0001:00226a20       ?getName@?$ReflectionAllocator@VBV4TriangleMesh@Gu@physx@@@shdfnd@physx@@CAPEBDXZ 0000000180227a20 f i GuMeshFactory.obj
 0001:00226a70       ?getName@?$ReflectionAllocator@VConvexMesh@Gu@physx@@@shdfnd@physx@@CAPEBDXZ 0000000180227a70 f i GuMeshFactory.obj
 0001:00226ac0       ?getName@?$ReflectionAllocator@VHeightField@Gu@physx@@@shdfnd@physx@@CAPEBDXZ 0000000180227ac0 f i GuMeshFactory.obj
 0001:00226b10       ?getName@?$ReflectionAllocator@VMutexImpl@shdfnd@physx@@@shdfnd@physx@@CAPEBDXZ 0000000180227b10 f i GuMeshFactory.obj
 0001:00226b60       ?getName@?$ReflectionAllocator@VRTreeTriangleData@Gu@physx@@@shdfnd@physx@@CAPEBDXZ 0000000180227b60 f i GuMeshFactory.obj
 0001:00226bb0       ?getName@?$ReflectionAllocator@VRTreeTriangleMesh@Gu@physx@@@shdfnd@physx@@CAPEBDXZ 0000000180227bb0 f i GuMeshFactory.obj
 0001:00226c00       ?grow@?$HashBase@PEAVConvexMesh@Gu@physx@@PEAV123@U?$Hash@PEAVConvexMesh@Gu@physx@@@shdfnd@3@UGetKey@?$HashSetBase@PEAVConvexMesh@Gu@physx@@U?$Hash@PEAVConvexMesh@Gu@physx@@@shdfnd@3@VNonTrackingAllocator@53@$00@internal@53@VNonTrackingAllocator@53@$00@internal@shdfnd@physx@@AEAAXXZ 0000000180227c00 f i GuMeshFactory.obj
 0001:00226ce0       ?grow@?$HashBase@PEAVHeightField@Gu@physx@@PEAV123@U?$Hash@PEAVHeightField@Gu@physx@@@shdfnd@3@UGetKey@?$HashSetBase@PEAVHeightField@Gu@physx@@U?$Hash@PEAVHeightField@Gu@physx@@@shdfnd@3@VNonTrackingAllocator@53@$00@internal@53@VNonTrackingAllocator@53@$00@internal@shdfnd@physx@@AEAAXXZ 0000000180227ce0 f i GuMeshFactory.obj
 0001:00226dc0       ?grow@?$HashBase@PEAVTriangleMesh@Gu@physx@@PEAV123@U?$Hash@PEAVTriangleMesh@Gu@physx@@@shdfnd@3@UGetKey@?$HashSetBase@PEAVTriangleMesh@Gu@physx@@U?$Hash@PEAVTriangleMesh@Gu@physx@@@shdfnd@3@VNonTrackingAllocator@53@$00@internal@53@VNonTrackingAllocator@53@$00@internal@shdfnd@physx@@AEAAXXZ 0000000180227dc0 f i GuMeshFactory.obj
 0001:00226ea0       ?growAndPushBack@?$Array@PEAVGuMeshFactoryListener@physx@@VNamedAllocator@shdfnd@2@@shdfnd@physx@@IEAAAEAPEAVGuMeshFactoryListener@3@AEBQEAV43@@Z 0000000180227ea0 f i GuMeshFactory.obj
 0001:00227080       ?has16BitIndices@TriangleMeshData@Gu@physx@@QEBA_NXZ 0000000180228080 f i GuMeshFactory.obj
 0001:002270c0       ?hash@?$HashBase@PEAVConvexMesh@Gu@physx@@PEAV123@U?$Hash@PEAVConvexMesh@Gu@physx@@@shdfnd@3@UGetKey@?$HashSetBase@PEAVConvexMesh@Gu@physx@@U?$Hash@PEAVConvexMesh@Gu@physx@@@shdfnd@3@VNonTrackingAllocator@53@$00@internal@53@VNonTrackingAllocator@53@$00@internal@shdfnd@physx@@AEBAIAEBQEAVConvexMesh@Gu@4@@Z 00000001802280c0 f i GuMeshFactory.obj
 0001:00227100       ?hash@?$HashBase@PEAVConvexMesh@Gu@physx@@PEAV123@U?$Hash@PEAVConvexMesh@Gu@physx@@@shdfnd@3@UGetKey@?$HashSetBase@PEAVConvexMesh@Gu@physx@@U?$Hash@PEAVConvexMesh@Gu@physx@@@shdfnd@3@VNonTrackingAllocator@53@$00@internal@53@VNonTrackingAllocator@53@$00@internal@shdfnd@physx@@AEBAIAEBQEAVConvexMesh@Gu@4@I@Z 0000000180228100 f i GuMeshFactory.obj
 0001:00227140       ?hash@?$HashBase@PEAVHeightField@Gu@physx@@PEAV123@U?$Hash@PEAVHeightField@Gu@physx@@@shdfnd@3@UGetKey@?$HashSetBase@PEAVHeightField@Gu@physx@@U?$Hash@PEAVHeightField@Gu@physx@@@shdfnd@3@VNonTrackingAllocator@53@$00@internal@53@VNonTrackingAllocator@53@$00@internal@shdfnd@physx@@AEBAIAEBQEAVHeightField@Gu@4@@Z 0000000180228140 f i GuMeshFactory.obj
 0001:00227180       ?hash@?$HashBase@PEAVHeightField@Gu@physx@@PEAV123@U?$Hash@PEAVHeightField@Gu@physx@@@shdfnd@3@UGetKey@?$HashSetBase@PEAVHeightField@Gu@physx@@U?$Hash@PEAVHeightField@Gu@physx@@@shdfnd@3@VNonTrackingAllocator@53@$00@internal@53@VNonTrackingAllocator@53@$00@internal@shdfnd@physx@@AEBAIAEBQEAVHeightField@Gu@4@I@Z 0000000180228180 f i GuMeshFactory.obj
 0001:002271c0       ?hash@?$HashBase@PEAVTriangleMesh@Gu@physx@@PEAV123@U?$Hash@PEAVTriangleMesh@Gu@physx@@@shdfnd@3@UGetKey@?$HashSetBase@PEAVTriangleMesh@Gu@physx@@U?$Hash@PEAVTriangleMesh@Gu@physx@@@shdfnd@3@VNonTrackingAllocator@53@$00@internal@53@VNonTrackingAllocator@53@$00@internal@shdfnd@physx@@AEBAIAEBQEAVTriangleMesh@Gu@4@@Z 00000001802281c0 f i GuMeshFactory.obj
 0001:00227200       ?hash@?$HashBase@PEAVTriangleMesh@Gu@physx@@PEAV123@U?$Hash@PEAVTriangleMesh@Gu@physx@@@shdfnd@3@UGetKey@?$HashSetBase@PEAVTriangleMesh@Gu@physx@@U?$Hash@PEAVTriangleMesh@Gu@physx@@@shdfnd@3@VNonTrackingAllocator@53@$00@internal@53@VNonTrackingAllocator@53@$00@internal@shdfnd@physx@@AEBAIAEBQEAVTriangleMesh@Gu@4@I@Z 0000000180228200 f i GuMeshFactory.obj
 0001:00227240       ?init@?$HashBase@PEAVConvexMesh@Gu@physx@@PEAV123@U?$Hash@PEAVConvexMesh@Gu@physx@@@shdfnd@3@UGetKey@?$HashSetBase@PEAVConvexMesh@Gu@physx@@U?$Hash@PEAVConvexMesh@Gu@physx@@@shdfnd@3@VNonTrackingAllocator@53@$00@internal@53@VNonTrackingAllocator@53@$00@internal@shdfnd@physx@@AEAAXIM@Z 0000000180228240 f i GuMeshFactory.obj
 0001:00227320       ?init@?$HashBase@PEAVHeightField@Gu@physx@@PEAV123@U?$Hash@PEAVHeightField@Gu@physx@@@shdfnd@3@UGetKey@?$HashSetBase@PEAVHeightField@Gu@physx@@U?$Hash@PEAVHeightField@Gu@physx@@@shdfnd@3@VNonTrackingAllocator@53@$00@internal@53@VNonTrackingAllocator@53@$00@internal@shdfnd@physx@@AEAAXIM@Z 0000000180228320 f i GuMeshFactory.obj
 0001:00227400       ?init@?$HashBase@PEAVTriangleMesh@Gu@physx@@PEAV123@U?$Hash@PEAVTriangleMesh@Gu@physx@@@shdfnd@3@UGetKey@?$HashSetBase@PEAVTriangleMesh@Gu@physx@@U?$Hash@PEAVTriangleMesh@Gu@physx@@@shdfnd@3@VNonTrackingAllocator@53@$00@internal@53@VNonTrackingAllocator@53@$00@internal@shdfnd@physx@@AEAAXIM@Z 0000000180228400 f i GuMeshFactory.obj
 0001:002274e0       ?insert@?$HashSetBase@PEAVConvexMesh@Gu@physx@@U?$Hash@PEAVConvexMesh@Gu@physx@@@shdfnd@3@VNonTrackingAllocator@53@$00@internal@shdfnd@physx@@QEAA_NAEBQEAVConvexMesh@Gu@4@@Z 00000001802284e0 f i GuMeshFactory.obj
 0001:00227580       ?insert@?$HashSetBase@PEAVHeightField@Gu@physx@@U?$Hash@PEAVHeightField@Gu@physx@@@shdfnd@3@VNonTrackingAllocator@53@$00@internal@shdfnd@physx@@QEAA_NAEBQEAVHeightField@Gu@4@@Z 0000000180228580 f i GuMeshFactory.obj
 0001:00227620       ?insert@?$HashSetBase@PEAVTriangleMesh@Gu@physx@@U?$Hash@PEAVTriangleMesh@Gu@physx@@@shdfnd@3@VNonTrackingAllocator@53@$00@internal@shdfnd@physx@@QEAA_NAEBQEAVTriangleMesh@Gu@4@@Z 0000000180228620 f i GuMeshFactory.obj
 0001:002276c0       ?isArrayOfPOD@?$Array@PEAVGuMeshFactoryListener@physx@@VNamedAllocator@shdfnd@2@@shdfnd@physx@@SA_NXZ 00000001802286c0 f i GuMeshFactory.obj
 0001:002276d0       ?isInUserMemory@?$Array@PEAVGuMeshFactoryListener@physx@@VNamedAllocator@shdfnd@2@@shdfnd@physx@@QEBAIXZ 00000001802286d0 f i GuMeshFactory.obj
 0001:002276f0       ?lock@?$MutexT@V?$ReflectionAllocator@VMutexImpl@shdfnd@physx@@@shdfnd@physx@@@shdfnd@physx@@QEBAXXZ 00000001802286f0 f i GuMeshFactory.obj
 0001:00227720       ?pushBack@?$Array@PEAVGuMeshFactoryListener@physx@@VNamedAllocator@shdfnd@2@@shdfnd@physx@@QEAAAEAPEAVGuMeshFactoryListener@3@AEBQEAV43@@Z 0000000180228720 f i GuMeshFactory.obj
 0001:002277f0       ?replaceWithLast@?$Array@PEAVGuMeshFactoryListener@physx@@VNamedAllocator@shdfnd@2@@shdfnd@physx@@QEAAXI@Z 00000001802287f0 f i GuMeshFactory.obj
 0001:002278d0       ?replaceWithLast@?$HashBase@PEAVConvexMesh@Gu@physx@@PEAV123@U?$Hash@PEAVConvexMesh@Gu@physx@@@shdfnd@3@UGetKey@?$HashSetBase@PEAVConvexMesh@Gu@physx@@U?$Hash@PEAVConvexMesh@Gu@physx@@@shdfnd@3@VNonTrackingAllocator@53@$00@internal@53@VNonTrackingAllocator@53@$00@internal@shdfnd@physx@@AEAAXI@Z 00000001802288d0 f i GuMeshFactory.obj
 0001:00227a70       ?replaceWithLast@?$HashBase@PEAVHeightField@Gu@physx@@PEAV123@U?$Hash@PEAVHeightField@Gu@physx@@@shdfnd@3@UGetKey@?$HashSetBase@PEAVHeightField@Gu@physx@@U?$Hash@PEAVHeightField@Gu@physx@@@shdfnd@3@VNonTrackingAllocator@53@$00@internal@53@VNonTrackingAllocator@53@$00@internal@shdfnd@physx@@AEAAXI@Z 0000000180228a70 f i GuMeshFactory.obj
 0001:00227c10       ?replaceWithLast@?$HashBase@PEAVTriangleMesh@Gu@physx@@PEAV123@U?$Hash@PEAVTriangleMesh@Gu@physx@@@shdfnd@3@UGetKey@?$HashSetBase@PEAVTriangleMesh@Gu@physx@@U?$Hash@PEAVTriangleMesh@Gu@physx@@@shdfnd@3@VNonTrackingAllocator@53@$00@internal@53@VNonTrackingAllocator@53@$00@internal@shdfnd@physx@@AEAAXI@Z 0000000180228c10 f i GuMeshFactory.obj
 0001:00227db0       ?reserve@?$HashBase@PEAVConvexMesh@Gu@physx@@PEAV123@U?$Hash@PEAVConvexMesh@Gu@physx@@@shdfnd@3@UGetKey@?$HashSetBase@PEAVConvexMesh@Gu@physx@@U?$Hash@PEAVConvexMesh@Gu@physx@@@shdfnd@3@VNonTrackingAllocator@53@$00@internal@53@VNonTrackingAllocator@53@$00@internal@shdfnd@physx@@QEAAXI@Z 0000000180228db0 f i GuMeshFactory.obj
 0001:00227df0       ?reserve@?$HashBase@PEAVHeightField@Gu@physx@@PEAV123@U?$Hash@PEAVHeightField@Gu@physx@@@shdfnd@3@UGetKey@?$HashSetBase@PEAVHeightField@Gu@physx@@U?$Hash@PEAVHeightField@Gu@physx@@@shdfnd@3@VNonTrackingAllocator@53@$00@internal@53@VNonTrackingAllocator@53@$00@internal@shdfnd@physx@@QEAAXI@Z 0000000180228df0 f i GuMeshFactory.obj
 0001:00227e30       ?reserve@?$HashBase@PEAVTriangleMesh@Gu@physx@@PEAV123@U?$Hash@PEAVTriangleMesh@Gu@physx@@@shdfnd@3@UGetKey@?$HashSetBase@PEAVTriangleMesh@Gu@physx@@U?$Hash@PEAVTriangleMesh@Gu@physx@@@shdfnd@3@VNonTrackingAllocator@53@$00@internal@53@VNonTrackingAllocator@53@$00@internal@shdfnd@physx@@QEAAXI@Z 0000000180228e30 f i GuMeshFactory.obj
 0001:00227e70       ?reserveInternal@?$HashBase@PEAVConvexMesh@Gu@physx@@PEAV123@U?$Hash@PEAVConvexMesh@Gu@physx@@@shdfnd@3@UGetKey@?$HashSetBase@PEAVConvexMesh@Gu@physx@@U?$Hash@PEAVConvexMesh@Gu@physx@@@shdfnd@3@VNonTrackingAllocator@53@$00@internal@53@VNonTrackingAllocator@53@$00@internal@shdfnd@physx@@AEAAXI@Z 0000000180228e70 f i GuMeshFactory.obj
 0001:00228500       ?reserveInternal@?$HashBase@PEAVHeightField@Gu@physx@@PEAV123@U?$Hash@PEAVHeightField@Gu@physx@@@shdfnd@3@UGetKey@?$HashSetBase@PEAVHeightField@Gu@physx@@U?$Hash@PEAVHeightField@Gu@physx@@@shdfnd@3@VNonTrackingAllocator@53@$00@internal@53@VNonTrackingAllocator@53@$00@internal@shdfnd@physx@@AEAAXI@Z 0000000180229500 f i GuMeshFactory.obj
 0001:00228b90       ?reserveInternal@?$HashBase@PEAVTriangleMesh@Gu@physx@@PEAV123@U?$Hash@PEAVTriangleMesh@Gu@physx@@@shdfnd@3@UGetKey@?$HashSetBase@PEAVTriangleMesh@Gu@physx@@U?$Hash@PEAVTriangleMesh@Gu@physx@@@shdfnd@3@VNonTrackingAllocator@53@$00@internal@53@VNonTrackingAllocator@53@$00@internal@shdfnd@physx@@AEAAXI@Z 0000000180229b90 f i GuMeshFactory.obj
 0001:00229220       ?setMeshFactory@ConvexMesh@Gu@physx@@QEAAXPEAVGuMeshFactory@3@@Z 000000018022a220 f i GuMeshFactory.obj
 0001:00229250       ?setNbTriangles@SourceMesh@Gu@physx@@QEAAXI@Z 000000018022a250 f i GuMeshFactory.obj
 0001:00229270       ?setNbVertices@SourceMesh@Gu@physx@@QEAAXI@Z 000000018022a270 f i GuMeshFactory.obj
 0001:00229290       ?size@?$Array@PEAVGuMeshFactoryListener@physx@@VNamedAllocator@shdfnd@2@@shdfnd@physx@@QEBAIXZ 000000018022a290 f i GuMeshFactory.obj
 0001:002292b0       ?size@?$HashBase@PEAVConvexMesh@Gu@physx@@PEAV123@U?$Hash@PEAVConvexMesh@Gu@physx@@@shdfnd@3@UGetKey@?$HashSetBase@PEAVConvexMesh@Gu@physx@@U?$Hash@PEAVConvexMesh@Gu@physx@@@shdfnd@3@VNonTrackingAllocator@53@$00@internal@53@VNonTrackingAllocator@53@$00@internal@shdfnd@physx@@QEBAIXZ 000000018022a2b0 f i GuMeshFactory.obj
 0001:002292d0       ?size@?$HashBase@PEAVHeightField@Gu@physx@@PEAV123@U?$Hash@PEAVHeightField@Gu@physx@@@shdfnd@3@UGetKey@?$HashSetBase@PEAVHeightField@Gu@physx@@U?$Hash@PEAVHeightField@Gu@physx@@@shdfnd@3@VNonTrackingAllocator@53@$00@internal@53@VNonTrackingAllocator@53@$00@internal@shdfnd@physx@@QEBAIXZ 000000018022a2d0 f i GuMeshFactory.obj
 0001:002292f0       ?size@?$HashBase@PEAVTriangleMesh@Gu@physx@@PEAV123@U?$Hash@PEAVTriangleMesh@Gu@physx@@@shdfnd@3@UGetKey@?$HashSetBase@PEAVTriangleMesh@Gu@physx@@U?$Hash@PEAVTriangleMesh@Gu@physx@@@shdfnd@3@VNonTrackingAllocator@53@$00@internal@53@VNonTrackingAllocator@53@$00@internal@shdfnd@physx@@QEBAIXZ 000000018022a2f0 f i GuMeshFactory.obj
 0001:00229310       ?size@?$HashSetBase@PEAVConvexMesh@Gu@physx@@U?$Hash@PEAVConvexMesh@Gu@physx@@@shdfnd@3@VNonTrackingAllocator@53@$00@internal@shdfnd@physx@@QEBAIXZ 000000018022a310 f i GuMeshFactory.obj
 0001:00229340       ?size@?$HashSetBase@PEAVHeightField@Gu@physx@@U?$Hash@PEAVHeightField@Gu@physx@@@shdfnd@3@VNonTrackingAllocator@53@$00@internal@shdfnd@physx@@QEBAIXZ 000000018022a340 f i GuMeshFactory.obj
 0001:00229370       ?size@?$HashSetBase@PEAVTriangleMesh@Gu@physx@@U?$Hash@PEAVTriangleMesh@Gu@physx@@@shdfnd@3@VNonTrackingAllocator@53@$00@internal@shdfnd@physx@@QEBAIXZ 000000018022a370 f i GuMeshFactory.obj
 0001:002293a0       ?unlock@?$MutexT@V?$ReflectionAllocator@VMutexImpl@shdfnd@physx@@@shdfnd@physx@@@shdfnd@physx@@QEBAXXZ 000000018022a3a0 f i GuMeshFactory.obj
 0001:002293d0       ?getBinaryMetaData@HeightField@Gu@physx@@SAXAEAVPxOutputStream@3@@Z 000000018022a3d0 f   GuMetaData.obj
 0001:00229a70       ?getBinaryMetaData@BigConvexData@physx@@SAXAEAVPxOutputStream@2@@Z 000000018022aa70 f   GuMetaData.obj
 0001:00229f20       ?getBinaryMetaData@ConvexMesh@Gu@physx@@SAXAEAVPxOutputStream@3@@Z 000000018022af20 f   GuMetaData.obj
 0001:0022a960       ?getBinaryMetaData@RTree@Gu@physx@@SAXAEAVPxOutputStream@3@@Z 000000018022b960 f   GuMetaData.obj
 0001:0022aff0       ?getBinaryMetaData@SourceMesh@Gu@physx@@SAXAEAVPxOutputStream@3@@Z 000000018022bff0 f   GuMetaData.obj
 0001:0022b360       ?getBinaryMetaData@BV4Tree@Gu@physx@@SAXAEAVPxOutputStream@3@@Z 000000018022c360 f   GuMetaData.obj
 0001:0022ba70       ?getBinaryMetaData@TriangleMesh@Gu@physx@@SAXAEAVPxOutputStream@3@@Z 000000018022ca70 f   GuMetaData.obj
 0001:0022cd20       ?getBinaryMetaData@BV4TriangleMesh@Gu@physx@@SAXAEAVPxOutputStream@3@@Z 000000018022dd20 f   GuMetaData.obj
 0001:0022cf60       ?getBinaryMetaData@RTreeTriangleMesh@Gu@physx@@SAXAEAVPxOutputStream@3@@Z 000000018022df60 f   GuMetaData.obj
 0001:0022d110       ?getBinaryMetaData@MaterialIndicesStruct@physx@@SAXAEAVPxOutputStream@2@@Z 000000018022e110 f   GuMetaData.obj
 0001:0022d400       ?getBinaryMetaData@GeometryUnion@Gu@physx@@SAXAEAVPxOutputStream@3@@Z 000000018022e400 f   GuMetaData.obj
 0001:002349a0       ?pointConvexDistance@@YA_NAEAVPxVec3@physx@@0AEAMAEBV12@PEBVConvexMesh@Gu@2@AEBVPxMeshScale@2@AEBVPxTransform@2@@Z 00000001802359a0 f   GuMTD.obj
 0001:0023ac80       ??$PX_UNUSED@VPxGeometry@physx@@@@YAXAEBVPxGeometry@physx@@@Z 000000018023bc80 f i GuMTD.obj
 0001:0023ac90       ??0Cache@Gu@physx@@QEAA@XZ 000000018023bc90 f i GuMTD.obj
 0001:0023acc0       ??0ContactBuffer@Gu@physx@@QEAA@XZ 000000018023bcc0 f i GuMTD.obj
 0001:0023ad00       ??0ContactPoint@Gu@physx@@QEAA@XZ 000000018023bd00 f i GuMTD.obj
 0001:0023ad60       ??0NarrowPhaseParams@Gu@physx@@QEAA@MMM@Z 000000018023bd60 f i GuMTD.obj
 0001:0023adc0       ??0PxBoxGeometry@physx@@QEAA@VPxVec3@1@@Z 000000018023bdc0 f i GuMTD.obj
 0001:0023ae10       ??0PxCache@physx@@QEAA@XZ  000000018023be10 f i GuMTD.obj
 0001:0023ae60       ?getNbPolygonsFast@ConvexMesh@Gu@physx@@QEBAIXZ 000000018023be60 f i GuMTD.obj
 0001:0023ae80       ?getNbVerts@ConvexMesh@Gu@physx@@QEBAIXZ 000000018023be80 f i GuMTD.obj
 0001:0023aea0       ?getPolygons@ConvexMesh@Gu@physx@@QEBAPEBUHullPolygonData@23@XZ 000000018023bea0 f i GuMTD.obj
 0001:0023aec0       ?getVerts@ConvexMesh@Gu@physx@@QEBAPEBVPxVec3@3@XZ 000000018023bec0 f i GuMTD.obj
 0001:0023aef0       ?length@Segment@Gu@physx@@QEBAMXZ 000000018023bef0 f i GuMTD.obj
 0001:0023afb0       ?getOverlapFuncTable@Gu@physx@@YAPEAY06Q6A_NAEBVPxGeometry@2@AEBVPxTransform@2@01PEAUTriggerCache@12@@ZXZ 000000018023bfb0 f   GuOverlapTests.obj
 0001:0023afc0       ?registerHeightFields@Gu@physx@@YAXXZ 000000018023bfc0 f   GuOverlapTests.obj
 0001:0023e630       ??$gjk@U?$RelativeConvex@VBoxV@Gu@physx@@@Gu@physx@@U?$LocalConvex@VConvexHullV@Gu@physx@@@23@@Gu@physx@@YA?AW4GjkStatus@01@AEBU?$RelativeConvex@VBoxV@Gu@physx@@@01@AEBU?$LocalConvex@VConvexHullV@Gu@physx@@@01@AEBT__m128@@2AEAT5@333@Z 000000018023f630 f i GuOverlapTests.obj
 0001:0023fb60       ??$gjk@U?$RelativeConvex@VConvexHullV@Gu@physx@@@Gu@physx@@U?$LocalConvex@VConvexHullV@Gu@physx@@@23@@Gu@physx@@YA?AW4GjkStatus@01@AEBU?$RelativeConvex@VConvexHullV@Gu@physx@@@01@AEBU?$LocalConvex@VConvexHullV@Gu@physx@@@01@AEBT__m128@@2AEAT5@333@Z 0000000180240b60 f i GuOverlapTests.obj
 0001:00241090       ?isNormalized@PxVec3@physx@@QEBA_NXZ 0000000180242090 f i GuOverlapTests.obj
 0001:00241110       ?transform@PxTransform@physx@@QEBA?AV12@AEBV12@@Z 0000000180242110 f i GuOverlapTests.obj
 0001:00241360       ?getRaycastFuncTable@Gu@physx@@YAAEAY06Q6AIAEBVPxGeometry@2@AEBVPxTransform@2@AEBVPxVec3@2@2MV?$PxFlags@W4Enum@PxHitFlag@physx@@G@2@IPEIAUPxRaycastHit@2@@ZXZ 0000000180242360 f   GuRaycastTests.obj
 0001:00241420       ?raycast_box@@YAIAEBVPxGeometry@physx@@AEBVPxTransform@2@AEBVPxVec3@2@2MV?$PxFlags@W4Enum@PxHitFlag@physx@@G@2@IPEIAUPxRaycastHit@2@@Z 0000000180242420 f   GuRaycastTests.obj
 0001:00241850       ?raycast_sphere@@YAIAEBVPxGeometry@physx@@AEBVPxTransform@2@AEBVPxVec3@2@2MV?$PxFlags@W4Enum@PxHitFlag@physx@@G@2@IPEIAUPxRaycastHit@2@@Z 0000000180242850 f   GuRaycastTests.obj
 0001:00241b00       ?raycast_capsule@@YAIAEBVPxGeometry@physx@@AEBVPxTransform@2@AEBVPxVec3@2@2MV?$PxFlags@W4Enum@PxHitFlag@physx@@G@2@IPEIAUPxRaycastHit@2@@Z 0000000180242b00 f   GuRaycastTests.obj
 0001:00241ea0       ?raycast_plane@@YAIAEBVPxGeometry@physx@@AEBVPxTransform@2@AEBVPxVec3@2@2MV?$PxFlags@W4Enum@PxHitFlag@physx@@G@2@IPEIAUPxRaycastHit@2@@Z 0000000180242ea0 f   GuRaycastTests.obj
 0001:002420e0       ?raycast_convexMesh@@YAIAEBVPxGeometry@physx@@AEBVPxTransform@2@AEBVPxVec3@2@2MV?$PxFlags@W4Enum@PxHitFlag@physx@@G@2@IPEIAUPxRaycastHit@2@@Z 00000001802430e0 f   GuRaycastTests.obj
 0001:00242760       ?raycast_triangleMesh@@YAIAEBVPxGeometry@physx@@AEBVPxTransform@2@AEBVPxVec3@2@2MV?$PxFlags@W4Enum@PxHitFlag@physx@@G@2@IPEIAUPxRaycastHit@2@@Z 0000000180243760 f   GuRaycastTests.obj
 0001:002428e0       ?raycast_heightField@@YAIAEBVPxGeometry@physx@@AEBVPxTransform@2@AEBVPxVec3@2@2MV?$PxFlags@W4Enum@PxHitFlag@physx@@G@2@IPEIAUPxRaycastHit@2@@Z 00000001802438e0 f   GuRaycastTests.obj
 0001:00242e60       ?registerHeightFields_Raycasts@@YAXXZ 0000000180243e60 f   GuRaycastTests.obj
 0001:00243570       ??$PX_UNUSED@PEIAUPxRaycastHit@physx@@@@YAXAEBQEIAUPxRaycastHit@physx@@@Z 0000000180244570 f i GuRaycastTests.obj
 0001:00246890       ?intersectRayPlane@Gu@physx@@YA_NAEBVPxVec3@2@0AEBVPxPlane@2@AEAMPEAV32@@Z 0000000180247890 f i GuRaycastTests.obj
 0001:002469d0       ?isSet@?$PxFlags@W4Enum@PxHitFlag@physx@@G@physx@@QEBA_NW4Enum@PxHitFlag@2@@Z 00000001802479d0 f i GuRaycastTests.obj
 0001:00246d90       ?raycastTriangleMesh@Midphase@Gu@physx@@YAIPEBVTriangleMesh@23@AEBVPxTriangleMeshGeometry@3@AEBVPxTransform@3@AEBVPxVec3@3@3MV?$PxFlags@W4Enum@PxHitFlag@physx@@G@3@IPEIAUPxRaycastHit@3@@Z 0000000180247d90 f i GuRaycastTests.obj
 0001:002475f0       ?readChunk@physx@@YAXAEAC000AEAVPxInputStream@1@@Z 00000001802485f0 f   GuSerialize.obj
 0001:00247680       ?readWord@physx@@YAG_NAEAVPxInputStream@1@@Z 0000000180248680 f   GuSerialize.obj
 0001:002476d0       ?readDword@physx@@YAI_NAEAVPxInputStream@1@@Z 00000001802486d0 f   GuSerialize.obj
 0001:00247720       ?readFloat@physx@@YAM_NAEAVPxInputStream@1@@Z 0000000180248720 f   GuSerialize.obj
 0001:00247770       ?writeWord@physx@@YAXG_NAEAVPxOutputStream@1@@Z 0000000180248770 f   GuSerialize.obj
 0001:002477c0       ?writeDword@physx@@YAXI_NAEAVPxOutputStream@1@@Z 00000001802487c0 f   GuSerialize.obj
 0001:00247810       ?writeFloat@physx@@YAXM_NAEAVPxOutputStream@1@@Z 0000000180248810 f   GuSerialize.obj
 0001:00247860       ?readFloatBuffer@physx@@YA_NPEAMI_NAEAVPxInputStream@1@@Z 0000000180248860 f   GuSerialize.obj
 0001:002478f0       ?writeFloatBuffer@physx@@YAXPEBMI_NAEAVPxOutputStream@1@@Z 00000001802488f0 f   GuSerialize.obj
 0001:00247980       ?writeWordBuffer@physx@@YAXPEBGI_NAEAVPxOutputStream@1@@Z 0000000180248980 f   GuSerialize.obj
 0001:00247a10       ?readWordBuffer@physx@@YAXPEAGI_NAEAVPxInputStream@1@@Z 0000000180248a10 f   GuSerialize.obj
 0001:00247aa0       ?writeHeader@physx@@YA_NCCCCI_NAEAVPxOutputStream@1@@Z 0000000180248aa0 f   GuSerialize.obj
 0001:00247b40       ?readHeader@physx@@YA_NCCCCAEAIAEA_NAEAVPxInputStream@1@@Z 0000000180248b40 f   GuSerialize.obj
 0001:00247c70       ?computeMaxIndex@physx@@YAIPEBII@Z 0000000180248c70 f   GuSerialize.obj
 0001:00247ce0       ?computeMaxIndex@physx@@YAGPEBGI@Z 0000000180248ce0 f   GuSerialize.obj
 0001:00247d50       ?storeIndices@physx@@YAXIIPEBIAEAVPxOutputStream@1@_N@Z 0000000180248d50 f   GuSerialize.obj
 0001:00247e30       ?readIndices@physx@@YAXIIPEAIAEAVPxInputStream@1@_N@Z 0000000180248e30 f   GuSerialize.obj
 0001:00247f10       ?WriteHeader@Gu@physx@@YA_NEEEEI_NAEAVPxOutputStream@2@@Z 0000000180248f10 f   GuSerialize.obj
 0001:00247fb0       ?ReadHeader@Gu@physx@@YA_NEEEEAEAIAEA_NAEAVPxInputStream@2@@Z 0000000180248fb0 f   GuSerialize.obj
 0001:002480e0       ?StoreIndices@Gu@physx@@YAXIIPEBIAEAVPxOutputStream@2@_N@Z 00000001802490e0 f   GuSerialize.obj
 0001:002481f0       ?ReadIndices@Gu@physx@@YAXIIPEAIAEAVPxInputStream@2@_N@Z 00000001802491f0 f   GuSerialize.obj
 0001:00248340       ?StoreIndices@Gu@physx@@YAXGIPEBGAEAVPxOutputStream@2@_N@Z 0000000180249340 f   GuSerialize.obj
 0001:00248400       ?ReadIndices@Gu@physx@@YAXGIPEAGAEAVPxInputStream@2@_N@Z 0000000180249400 f   GuSerialize.obj
 0001:002488f0       ?readIntBuffer@physx@@YA_NPEAII_NAEAVPxInputStream@1@@Z 00000001802498f0 f i GuSerialize.obj
 0001:00248940       ?writeIntBuffer@physx@@YAXPEBII_NAEAVPxOutputStream@1@@Z 0000000180249940 f i GuSerialize.obj
 0001:00248ac0       ?computeCapsule_TriangleMeshMTD@Gu@physx@@YA_NAEBVPxTriangleMeshGeometry@2@AEBVPxTransform@2@AEAVCapsuleV@12@M_NAEAUPxSweepHit@2@@Z 0000000180249ac0 f   GuSweepMTD.obj
 0001:00249560       ?computeCapsule_HeightFieldMTD@Gu@physx@@YA_NAEBVPxHeightFieldGeometry@2@AEBVPxTransform@2@AEAVCapsuleV@12@M_NIAEAUPxSweepHit@2@@Z 000000018024a560 f   GuSweepMTD.obj
 0001:00249fe0       ?computeBox_TriangleMeshMTD@Gu@physx@@YA_NAEBVPxTriangleMeshGeometry@2@AEBVPxTransform@2@AEBVBox@12@1M_NAEAUPxSweepHit@2@@Z 000000018024afe0 f   GuSweepMTD.obj
 0001:0024ad60       ?computeBox_HeightFieldMTD@Gu@physx@@YA_NAEBVPxHeightFieldGeometry@2@AEBVPxTransform@2@AEBVBox@12@1M_NIAEAUPxSweepHit@2@@Z 000000018024bd60 f   GuSweepMTD.obj
 0001:0024baf0       ?computeConvex_TriangleMeshMTD@Gu@physx@@YA_NAEBVPxTriangleMeshGeometry@2@AEBVPxTransform@2@AEBVPxConvexMeshGeometry@2@1M_NAEAUPxSweepHit@2@@Z 000000018024caf0 f   GuSweepMTD.obj
 0001:0024ca30       ?computeConvex_HeightFieldMTD@Gu@physx@@YA_NAEBVPxHeightFieldGeometry@2@AEBVPxTransform@2@AEBVPxConvexMeshGeometry@2@1M_NIAEAUPxSweepHit@2@@Z 000000018024da30 f   GuSweepMTD.obj
 0001:0024d970       ?computeSphere_SphereMTD@Gu@physx@@YA_NAEBVSphere@12@0AEAUPxSweepHit@2@@Z 000000018024e970 f   GuSweepMTD.obj
 0001:0024da80       ?computeSphere_CapsuleMTD@Gu@physx@@YA_NAEBVSphere@12@AEBVCapsule@12@AEAUPxSweepHit@2@@Z 000000018024ea80 f   GuSweepMTD.obj
 0001:0024dbd0       ?computeCapsule_CapsuleMTD@Gu@physx@@YA_NAEBVCapsule@12@0AEAUPxSweepHit@2@@Z 000000018024ebd0 f   GuSweepMTD.obj
 0001:0024dd30       ?computePlane_CapsuleMTD@Gu@physx@@YA_NAEBVPxPlane@2@AEBVCapsule@12@AEAUPxSweepHit@2@@Z 000000018024ed30 f   GuSweepMTD.obj
 0001:0024de60       ?computePlane_BoxMTD@Gu@physx@@YA_NAEBVPxPlane@2@AEBVBox@12@AEAUPxSweepHit@2@@Z 000000018024ee60 f   GuSweepMTD.obj
 0001:0024dfc0       ?computePlane_ConvexMTD@Gu@physx@@YA_NAEBVPxPlane@2@AEBVPxConvexMeshGeometry@2@AEBVPxTransform@2@AEAUPxSweepHit@2@@Z 000000018024efc0 f   GuSweepMTD.obj
 0001:00250340       ??0?$Array@IVNamedAllocator@shdfnd@physx@@@shdfnd@physx@@QEAA@AEBVNamedAllocator@12@@Z 0000000180251340 f i GuSweepMTD.obj
 0001:002503a0       ??0MTDTriangle@@QEAA@XZ    00000001802513a0 f i GuSweepMTD.obj
 0001:002503d0       ??0MeshMTDGenerationCallback@@QEAA@AEAV?$Array@IVNamedAllocator@shdfnd@physx@@@shdfnd@physx@@@Z 00000001802513d0 f i GuSweepMTD.obj
 0001:00250430       ??0MidPhaseQueryLocalReport@@QEAA@AEAV?$Array@IVNamedAllocator@shdfnd@physx@@@shdfnd@physx@@@Z 0000000180251430 f i GuSweepMTD.obj
 0001:00250480       ??0TriangleV@Gu@physx@@QEAA@XZ 0000000180251480 f i GuSweepMTD.obj
 0001:002504f0       ??1MTDTriangle@@QEAA@XZ    00000001802514f0 f i GuSweepMTD.obj
 0001:00250510       ??1MeshMTDGenerationCallback@@UEAA@XZ 0000000180251510 f i GuSweepMTD.obj
 0001:00250530       ??1MidPhaseQueryLocalReport@@UEAA@XZ 0000000180251530 f i GuSweepMTD.obj
 0001:00250550       ??A?$Array@IVNamedAllocator@shdfnd@physx@@@shdfnd@physx@@QEAAAEAII@Z 0000000180251550 f i GuSweepMTD.obj
 0001:002505f0       ??_GMeshMTDGenerationCallback@@UEAAPEAXI@Z 00000001802515f0 f i GuSweepMTD.obj
 0001:002505f0       ??_EMeshMTDGenerationCallback@@UEAAPEAXI@Z 00000001802515f0 f i GuSweepMTD.obj
 0001:00250640       ??_EMidPhaseQueryLocalReport@@UEAAPEAXI@Z 0000000180251640 f i GuSweepMTD.obj
 0001:00250640       ??_GMidPhaseQueryLocalReport@@UEAAPEAXI@Z 0000000180251640 f i GuSweepMTD.obj
 0001:00250690       ?empty@?$Array@IVNamedAllocator@shdfnd@physx@@@shdfnd@physx@@QEBA_NXZ 0000000180251690 f i GuSweepMTD.obj
 0001:002506d0       ?forceSize_Unsafe@?$Array@IVNamedAllocator@shdfnd@physx@@@shdfnd@physx@@QEAAXI@Z 00000001802516d0 f i GuSweepMTD.obj
 0001:00250760       ?getLocalTriangle@TriangleMesh@Gu@physx@@QEBAXAEAVPxTriangle@3@I_N@Z 0000000180251760 f i GuSweepMTD.obj
 0001:00250960       ?onEvent@MidPhaseQueryLocalReport@@UEAA_NIPEAI@Z 0000000180251960 f i GuSweepMTD.obj
 0001:002509d0       ?processHit@MeshMTDGenerationCallback@@UEAA_NAEBUPxRaycastHit@physx@@AEBVPxVec3@3@11AEAMPEBI@Z 00000001802519d0 f i GuSweepMTD.obj
 0001:00250a20       ?setCenter@CapsuleV@Gu@physx@@QEAAXAEBT__m128@@@Z 0000000180251a20 f i GuSweepMTD.obj
 0001:00250b70       ?setShapeSpaceCenterofMass@SupportLocal@Gu@physx@@QEAAXAEBT__m128@@@Z 0000000180251b70 f i GuSweepMTD.obj
 0001:00250ba0       ?size@?$Array@IVNamedAllocator@shdfnd@physx@@@shdfnd@physx@@QEBAIXZ 0000000180251ba0 f i GuSweepMTD.obj
 0001:00250c40       ?sweepCapsuleTriangles@Gu@physx@@YA_NIPEBVPxTriangle@2@_NAEBVPxCapsuleGeometry@2@AEBVPxTransform@2@AEBVPxVec3@2@MAEAUPxSweepHit@2@PEBIMV?$PxFlags@W4Enum@PxHitFlag@physx@@G@2@@Z 0000000180251c40 f   GuSweepSharedTests.obj
 0001:00251470       ?sweepCapsule_SphereGeom@@YA_NAEBVPxGeometry@physx@@AEBVPxTransform@2@AEBVPxCapsuleGeometry@2@1AEBVCapsule@Gu@2@AEBVPxVec3@2@MAEAUPxSweepHit@2@V?$PxFlags@W4Enum@PxHitFlag@physx@@G@2@M@Z 0000000180252470 f   GuSweepSharedTests.obj
 0001:00251800       ?sweepCapsule_PlaneGeom@@YA_NAEBVPxGeometry@physx@@AEBVPxTransform@2@AEBVPxCapsuleGeometry@2@1AEBVCapsule@Gu@2@AEBVPxVec3@2@MAEAUPxSweepHit@2@V?$PxFlags@W4Enum@PxHitFlag@physx@@G@2@M@Z 0000000180252800 f   GuSweepSharedTests.obj
 0001:00251c30       ?sweepCapsule_CapsuleGeom@@YA_NAEBVPxGeometry@physx@@AEBVPxTransform@2@AEBVPxCapsuleGeometry@2@1AEBVCapsule@Gu@2@AEBVPxVec3@2@MAEAUPxSweepHit@2@V?$PxFlags@W4Enum@PxHitFlag@physx@@G@2@M@Z 0000000180252c30 f   GuSweepSharedTests.obj
 0001:00251ec0       ?sweepCapsule_ConvexGeom@@YA_NAEBVPxGeometry@physx@@AEBVPxTransform@2@AEBVPxCapsuleGeometry@2@1AEBVCapsule@Gu@2@AEBVPxVec3@2@MAEAUPxSweepHit@2@V?$PxFlags@W4Enum@PxHitFlag@physx@@G@2@M@Z 0000000180252ec0 f   GuSweepSharedTests.obj
 0001:00252720       ?sweepBox_PlaneGeom@@YA_NAEBVPxGeometry@physx@@AEBVPxTransform@2@AEBVPxBoxGeometry@2@1AEBVBox@Gu@2@AEBVPxVec3@2@MAEAUPxSweepHit@2@V?$PxFlags@W4Enum@PxHitFlag@physx@@G@2@M@Z 0000000180253720 f   GuSweepSharedTests.obj
 0001:00252ae0       ?sweepBox_ConvexGeom@@YA_NAEBVPxGeometry@physx@@AEBVPxTransform@2@AEBVPxBoxGeometry@2@1AEBVBox@Gu@2@AEBVPxVec3@2@MAEAUPxSweepHit@2@V?$PxFlags@W4Enum@PxHitFlag@physx@@G@2@M@Z 0000000180253ae0 f   GuSweepSharedTests.obj
 0001:002531f0       ?sweepConvex_SphereGeom@@YA_NAEBVPxGeometry@physx@@AEBVPxTransform@2@AEBVPxConvexMeshGeometry@2@1AEBVPxVec3@2@MAEAUPxSweepHit@2@V?$PxFlags@W4Enum@PxHitFlag@physx@@G@2@M@Z 00000001802541f0 f   GuSweepSharedTests.obj
 0001:002538c0       ?sweepConvex_PlaneGeom@@YA_NAEBVPxGeometry@physx@@AEBVPxTransform@2@AEBVPxConvexMeshGeometry@2@1AEBVPxVec3@2@MAEAUPxSweepHit@2@V?$PxFlags@W4Enum@PxHitFlag@physx@@G@2@M@Z 00000001802548c0 f   GuSweepSharedTests.obj
 0001:00253ca0       ?sweepConvex_CapsuleGeom@@YA_NAEBVPxGeometry@physx@@AEBVPxTransform@2@AEBVPxConvexMeshGeometry@2@1AEBVPxVec3@2@MAEAUPxSweepHit@2@V?$PxFlags@W4Enum@PxHitFlag@physx@@G@2@M@Z 0000000180254ca0 f   GuSweepSharedTests.obj
 0001:00253f00       ?sweepConvex_BoxGeom@@YA_NAEBVPxGeometry@physx@@AEBVPxTransform@2@AEBVPxConvexMeshGeometry@2@1AEBVPxVec3@2@MAEAUPxSweepHit@2@V?$PxFlags@W4Enum@PxHitFlag@physx@@G@2@M@Z 0000000180254f00 f   GuSweepSharedTests.obj
 0001:00254180       ?sweepConvex_ConvexGeom@@YA_NAEBVPxGeometry@physx@@AEBVPxTransform@2@AEBVPxConvexMeshGeometry@2@1AEBVPxVec3@2@MAEAUPxSweepHit@2@V?$PxFlags@W4Enum@PxHitFlag@physx@@G@2@M@Z 0000000180255180 f   GuSweepSharedTests.obj
 0001:002557e0       ??$gjkPenetration@U?$LocalConvex@VCapsuleV@Gu@physx@@@Gu@physx@@U?$LocalConvex@VShrunkConvexHullV@Gu@physx@@@23@@Gu@physx@@YA?AW4GjkStatus@01@AEBU?$LocalConvex@VCapsuleV@Gu@physx@@@01@AEBU?$LocalConvex@VShrunkConvexHullV@Gu@physx@@@01@AEBT__m128@@2AEAT5@333PEIAE4AEAE_N@Z 00000001802567e0 f i GuSweepSharedTests.obj
 0001:00257680       ??$gjkRaycast@U?$LocalConvex@VCapsuleV@Gu@physx@@@Gu@physx@@U?$LocalConvex@VConvexHullV@Gu@physx@@@23@@Gu@physx@@YA_NAEBU?$LocalConvex@VCapsuleV@Gu@physx@@@01@AEBU?$LocalConvex@VConvexHullV@Gu@physx@@@01@AEBT__m128@@222AEAT4@33M@Z 0000000180258680 f i GuSweepSharedTests.obj
 0001:00259030       ??$gjkRaycast@U?$RelativeConvex@VBoxV@Gu@physx@@@Gu@physx@@U?$LocalConvex@VConvexHullV@Gu@physx@@@23@@Gu@physx@@YA_NAEBU?$RelativeConvex@VBoxV@Gu@physx@@@01@AEBU?$LocalConvex@VConvexHullV@Gu@physx@@@01@AEBT__m128@@222AEAT4@33M@Z 000000018025a030 f i GuSweepSharedTests.obj
 0001:0025a9e0       ??$gjkRaycast@U?$RelativeConvex@VConvexHullV@Gu@physx@@@Gu@physx@@U?$LocalConvex@VConvexHullV@Gu@physx@@@23@@Gu@physx@@YA_NAEBU?$RelativeConvex@VConvexHullV@Gu@physx@@@01@AEBU?$LocalConvex@VConvexHullV@Gu@physx@@@01@AEBT__m128@@222AEAT4@33M@Z 000000018025b9e0 f i GuSweepSharedTests.obj
 0001:0025c390       ??$gjkRaycastPenetration@U?$LocalConvex@VCapsuleV@Gu@physx@@@Gu@physx@@U?$LocalConvex@VConvexHullV@Gu@physx@@@23@@Gu@physx@@YA_NAEBU?$LocalConvex@VCapsuleV@Gu@physx@@@01@AEBU?$LocalConvex@VConvexHullV@Gu@physx@@@01@AEBT__m128@@222AEAT4@33M_N@Z 000000018025d390 f i GuSweepSharedTests.obj
 0001:0025c890       ??$gjkRaycastPenetration@U?$RelativeConvex@VBoxV@Gu@physx@@@Gu@physx@@U?$LocalConvex@VConvexHullV@Gu@physx@@@23@@Gu@physx@@YA_NAEBU?$RelativeConvex@VBoxV@Gu@physx@@@01@AEBU?$LocalConvex@VConvexHullV@Gu@physx@@@01@AEBT__m128@@222AEAT4@33M_N@Z 000000018025d890 f i GuSweepSharedTests.obj
 0001:0025cd90       ??$gjkRaycastPenetration@U?$RelativeConvex@VConvexHullV@Gu@physx@@@Gu@physx@@U?$LocalConvex@VConvexHullV@Gu@physx@@@23@@Gu@physx@@YA_NAEBU?$RelativeConvex@VConvexHullV@Gu@physx@@@01@AEBU?$LocalConvex@VConvexHullV@Gu@physx@@@01@AEBT__m128@@222AEAT4@33M_N@Z 000000018025dd90 f i GuSweepSharedTests.obj
 0001:0025d290       ??0ShrunkBoxV@Gu@physx@@QEAA@AEBT__m128@@0@Z 000000018025e290 f i GuSweepSharedTests.obj
 0001:0025d300       ??S?$PxFlags@W4Enum@PxHitFlag@physx@@G@physx@@QEBA?AV01@XZ 000000018025e300 f i GuSweepSharedTests.obj
 0001:0025d350       ??Sphysx@@YA?AV?$PxFlags@W4Enum@PxHitFlag@physx@@G@0@W4Enum@PxHitFlag@0@@Z 000000018025e350 f i GuSweepSharedTests.obj
 0001:0025d390       ??_4?$PxFlags@W4Enum@PxHitFlag@physx@@G@physx@@QEAAAEAV01@AEBV01@@Z 000000018025e390 f i GuSweepSharedTests.obj
 0001:0025d3d0       ?getShrunkConvex@?$RelativeConvex@VBoxV@Gu@physx@@@Gu@physx@@QEBA?AU?$RelativeConvex@VShrunkBoxV@Gu@physx@@@23@XZ 000000018025e3d0 f i GuSweepSharedTests.obj
 0001:0025d420       ?getShrunkConvex@?$RelativeConvex@VConvexHullV@Gu@physx@@@Gu@physx@@QEBA?AU?$RelativeConvex@VShrunkConvexHullV@Gu@physx@@@23@XZ 000000018025e420 f i GuSweepSharedTests.obj
 0001:0025d470       ?loadTransformU@aos@shdfnd@physx@@YA?AVPsTransformV@123@AEBVPxTransform@3@@Z 000000018025e470 f i GuSweepSharedTests.obj
 0001:0025d500       ?getSweepFuncTable@Gu@physx@@YAAEBUGeomSweepFuncs@12@XZ 000000018025e500 f   GuSweepTests.obj
 0001:0025d510       ?sweepBoxTriangles@Gu@physx@@YA_NIPEBVPxTriangle@2@_NAEBVPxBoxGeometry@2@AEBVPxTransform@2@AEBVPxVec3@2@MAEAUPxSweepHit@2@PEBIMV?$PxFlags@W4Enum@PxHitFlag@physx@@G@2@@Z 000000018025e510 f   GuSweepTests.obj
 0001:0025e510       ?sweepCapsule_BoxGeom@@YA_NAEBVPxGeometry@physx@@AEBVPxTransform@2@AEBVPxCapsuleGeometry@2@1AEBVCapsule@Gu@2@AEBVPxVec3@2@MAEAUPxSweepHit@2@V?$PxFlags@W4Enum@PxHitFlag@physx@@G@2@M@Z 000000018025f510 f   GuSweepTests.obj
 0001:0025eda0       ?sweepBox_SphereGeom@@YA_NAEBVPxGeometry@physx@@AEBVPxTransform@2@AEBVPxBoxGeometry@2@1AEBVBox@Gu@2@AEBVPxVec3@2@MAEAUPxSweepHit@2@V?$PxFlags@W4Enum@PxHitFlag@physx@@G@2@M@Z 000000018025fda0 f   GuSweepTests.obj
 0001:0025f500       ?sweepBox_CapsuleGeom@@YA_NAEBVPxGeometry@physx@@AEBVPxTransform@2@AEBVPxBoxGeometry@2@1AEBVBox@Gu@2@AEBVPxVec3@2@MAEAUPxSweepHit@2@V?$PxFlags@W4Enum@PxHitFlag@physx@@G@2@M@Z 0000000180260500 f   GuSweepTests.obj
 0001:0025fd10       ?sweepBox_BoxGeom@@YA_NAEBVPxGeometry@physx@@AEBVPxTransform@2@AEBVPxBoxGeometry@2@1AEBVBox@Gu@2@AEBVPxVec3@2@MAEAUPxSweepHit@2@V?$PxFlags@W4Enum@PxHitFlag@physx@@G@2@M@Z 0000000180260d10 f   GuSweepTests.obj
 0001:00260670       ?registerHeightFields_Sweeps@@YAXXZ 0000000180261670 f   GuSweepTests.obj
 0001:00261380       ??$PX_UNUSED@UPxSweepHit@physx@@@@YAXAEBUPxSweepHit@physx@@@Z 0000000180262380 f i GuSweepTests.obj
 0001:00261390       ??$PX_UNUSED@VBox@Gu@physx@@@@YAXAEBVBox@Gu@physx@@@Z 0000000180262390 f i GuSweepTests.obj
 0001:002613a0       ??$PX_UNUSED@VCapsule@Gu@physx@@@@YAXAEBVCapsule@Gu@physx@@@Z 00000001802623a0 f i GuSweepTests.obj
 0001:002613b0       ??$PX_UNUSED@VPxConvexMeshGeometry@physx@@@@YAXAEBVPxConvexMeshGeometry@physx@@@Z 00000001802623b0 f i GuSweepTests.obj
 0001:002613c0       ??$gjkPenetration@U?$LocalConvex@VCapsuleV@Gu@physx@@@Gu@physx@@U?$LocalConvex@VShrunkBoxV@Gu@physx@@@23@@Gu@physx@@YA?AW4GjkStatus@01@AEBU?$LocalConvex@VCapsuleV@Gu@physx@@@01@AEBU?$LocalConvex@VShrunkBoxV@Gu@physx@@@01@AEBT__m128@@2AEAT5@333PEIAE4AEAE_N@Z 00000001802623c0 f i GuSweepTests.obj
 0001:00263260       ??$gjkRaycast@U?$LocalConvex@VCapsuleV@Gu@physx@@@Gu@physx@@U?$LocalConvex@VBoxV@Gu@physx@@@23@@Gu@physx@@YA_NAEBU?$LocalConvex@VCapsuleV@Gu@physx@@@01@AEBU?$LocalConvex@VBoxV@Gu@physx@@@01@AEBT__m128@@222AEAT4@33M@Z 0000000180264260 f i GuSweepTests.obj
 0001:00264c10       ??$gjkRaycast@U?$RelativeConvex@VBoxV@Gu@physx@@@Gu@physx@@U?$LocalConvex@VBoxV@Gu@physx@@@23@@Gu@physx@@YA_NAEBU?$RelativeConvex@VBoxV@Gu@physx@@@01@AEBU?$LocalConvex@VBoxV@Gu@physx@@@01@AEBT__m128@@222AEAT4@33M@Z 0000000180265c10 f i GuSweepTests.obj
 0001:002665c0       ??$gjkRaycastPenetration@U?$LocalConvex@VCapsuleV@Gu@physx@@@Gu@physx@@U?$LocalConvex@VBoxV@Gu@physx@@@23@@Gu@physx@@YA_NAEBU?$LocalConvex@VCapsuleV@Gu@physx@@@01@AEBU?$LocalConvex@VBoxV@Gu@physx@@@01@AEBT__m128@@222AEAT4@33M_N@Z 00000001802675c0 f i GuSweepTests.obj
 0001:00266ac0       ??$gjkRaycastPenetration@U?$RelativeConvex@VBoxV@Gu@physx@@@Gu@physx@@U?$LocalConvex@VBoxV@Gu@physx@@@23@@Gu@physx@@YA_NAEBU?$RelativeConvex@VBoxV@Gu@physx@@@01@AEBU?$LocalConvex@VBoxV@Gu@physx@@@01@AEBT__m128@@222AEAT4@33M_N@Z 0000000180267ac0 f i GuSweepTests.obj
 0001:00266fb9       LoadLibraryA               0000000180267fb9 f   kernel32:KERNEL32.dll
 0001:00266fbf       FreeLibrary                0000000180267fbf f   kernel32:KERNEL32.dll
 0001:00266fc5       GetProcAddress             0000000180267fc5 f   kernel32:KERNEL32.dll
 0001:00266fcb       __imp_load_??0NamedAllocator@shdfnd@physx@@QEAA@PEBD@Z 0000000180267fcb f   PxFoundationDEBUG_x64:PxFoundationDEBUG_x64.dll
 0001:00266fd7       ??0NamedAllocator@shdfnd@physx@@QEAA@PEBD@Z 0000000180267fd7 f   PxFoundationDEBUG_x64:PxFoundationDEBUG_x64.dll
 0001:00266fdd       __tailMerge_PxFoundationDEBUG_x64_dll 0000000180267fdd     PxFoundationDEBUG_x64:PxFoundationDEBUG_x64.dll
 0001:00267056       __imp_load_?PxGetAssertHandler@physx@@YAAEAVPxAssertHandler@1@XZ 0000000180268056 f   PxFoundationDEBUG_x64:PxFoundationDEBUG_x64.dll
 0001:00267062       ?PxGetAssertHandler@physx@@YAAEAVPxAssertHandler@1@XZ 0000000180268062 f   PxFoundationDEBUG_x64:PxFoundationDEBUG_x64.dll
 0001:00267068       __imp_load_?getAllocator@shdfnd@physx@@YAAEAVPxAllocatorCallback@2@XZ 0000000180268068 f   PxFoundationDEBUG_x64:PxFoundationDEBUG_x64.dll
 0001:00267074       ?getAllocator@shdfnd@physx@@YAAEAVPxAllocatorCallback@2@XZ 0000000180268074 f   PxFoundationDEBUG_x64:PxFoundationDEBUG_x64.dll
 0001:0026707a       __imp_load_??1NamedAllocator@shdfnd@physx@@QEAA@XZ 000000018026807a f   PxFoundationDEBUG_x64:PxFoundationDEBUG_x64.dll
 0001:00267086       ??1NamedAllocator@shdfnd@physx@@QEAA@XZ 0000000180268086 f   PxFoundationDEBUG_x64:PxFoundationDEBUG_x64.dll
 0001:0026708c       __imp_load_?allocate@NamedAllocator@shdfnd@physx@@QEAAPEAX_KPEBDH@Z 000000018026808c f   PxFoundationDEBUG_x64:PxFoundationDEBUG_x64.dll
 0001:00267098       ?allocate@NamedAllocator@shdfnd@physx@@QEAAPEAX_KPEBDH@Z 0000000180268098 f   PxFoundationDEBUG_x64:PxFoundationDEBUG_x64.dll
 0001:0026709e       __imp_load_?deallocate@NamedAllocator@shdfnd@physx@@QEAAXPEAX@Z 000000018026809e f   PxFoundationDEBUG_x64:PxFoundationDEBUG_x64.dll
 0001:002670aa       ?deallocate@NamedAllocator@shdfnd@physx@@QEAAXPEAX@Z 00000001802680aa f   PxFoundationDEBUG_x64:PxFoundationDEBUG_x64.dll
 0001:002670b0       __imp_load_PxGetFoundation 00000001802680b0 f   PxFoundationDEBUG_x64:PxFoundationDEBUG_x64.dll
 0001:002670bc       PxGetFoundation            00000001802680bc f   PxFoundationDEBUG_x64:PxFoundationDEBUG_x64.dll
 0001:002670c2       __imp_load_?getInstance@Foundation@shdfnd@physx@@SAAEAV123@XZ 00000001802680c2 f   PxFoundationDEBUG_x64:PxFoundationDEBUG_x64.dll
 0001:002670ce       ?getInstance@Foundation@shdfnd@physx@@SAAEAV123@XZ 00000001802680ce f   PxFoundationDEBUG_x64:PxFoundationDEBUG_x64.dll
 0001:002670d4       __imp_load_?error@Foundation@shdfnd@physx@@QEAAXW4Enum@PxErrorCode@3@PEBDH1ZZ 00000001802680d4 f   PxFoundationDEBUG_x64:PxFoundationDEBUG_x64.dll
 0001:002670e0       ?error@Foundation@shdfnd@physx@@QEAAXW4Enum@PxErrorCode@3@PEBDH1ZZ 00000001802680e0 f   PxFoundationDEBUG_x64:PxFoundationDEBUG_x64.dll
 0001:002670e6       __imp_load_?PxShortestRotation@physx@@YA?AVPxQuat@1@AEBVPxVec3@1@0@Z 00000001802680e6 f   PxFoundationDEBUG_x64:PxFoundationDEBUG_x64.dll
 0001:002670f2       ?PxShortestRotation@physx@@YA?AVPxQuat@1@AEBVPxVec3@1@0@Z 00000001802680f2 f   PxFoundationDEBUG_x64:PxFoundationDEBUG_x64.dll
 0001:002670f8       __imp_load_?vsnprintf@shdfnd@physx@@YAHPEAD_KPEBD0@Z 00000001802680f8 f   PxFoundationDEBUG_x64:PxFoundationDEBUG_x64.dll
 0001:00267104       ?vsnprintf@shdfnd@physx@@YAHPEAD_KPEBD0@Z 0000000180268104 f   PxFoundationDEBUG_x64:PxFoundationDEBUG_x64.dll
 0001:0026710a       __imp_load_?optimizeBoundingBox@shdfnd@physx@@YA?AVPxVec3@2@AEAVPxMat33@2@@Z 000000018026810a f   PxFoundationDEBUG_x64:PxFoundationDEBUG_x64.dll
 0001:00267116       ?optimizeBoundingBox@shdfnd@physx@@YA?AVPxVec3@2@AEAVPxMat33@2@@Z 0000000180268116 f   PxFoundationDEBUG_x64:PxFoundationDEBUG_x64.dll
 0001:0026711c       __imp_load_??0NamedAllocator@shdfnd@physx@@QEAA@AEBV012@@Z 000000018026811c f   PxFoundationDEBUG_x64:PxFoundationDEBUG_x64.dll
 0001:00267128       ??0NamedAllocator@shdfnd@physx@@QEAA@AEBV012@@Z 0000000180268128 f   PxFoundationDEBUG_x64:PxFoundationDEBUG_x64.dll
 0001:0026712e       __imp_load_?allocate@TempAllocator@shdfnd@physx@@QEAAPEAX_KPEBDH@Z 000000018026812e f   PxFoundationDEBUG_x64:PxFoundationDEBUG_x64.dll
 0001:0026713a       ?allocate@TempAllocator@shdfnd@physx@@QEAAPEAX_KPEBDH@Z 000000018026813a f   PxFoundationDEBUG_x64:PxFoundationDEBUG_x64.dll
 0001:00267140       __imp_load_?deallocate@TempAllocator@shdfnd@physx@@QEAAXPEAX@Z 0000000180268140 f   PxFoundationDEBUG_x64:PxFoundationDEBUG_x64.dll
 0001:0026714c       ?deallocate@TempAllocator@shdfnd@physx@@QEAAXPEAX@Z 000000018026814c f   PxFoundationDEBUG_x64:PxFoundationDEBUG_x64.dll
 0001:00267152       __imp_load_?atomicIncrement@shdfnd@physx@@YAHPECH@Z 0000000180268152 f   PxFoundationDEBUG_x64:PxFoundationDEBUG_x64.dll
 0001:0026715e       ?atomicIncrement@shdfnd@physx@@YAHPECH@Z 000000018026815e f   PxFoundationDEBUG_x64:PxFoundationDEBUG_x64.dll
 0001:00267164       __imp_load_?atomicDecrement@shdfnd@physx@@YAHPECH@Z 0000000180268164 f   PxFoundationDEBUG_x64:PxFoundationDEBUG_x64.dll
 0001:00267170       ?atomicDecrement@shdfnd@physx@@YAHPECH@Z 0000000180268170 f   PxFoundationDEBUG_x64:PxFoundationDEBUG_x64.dll
 0001:00267176       __imp_load_PxGetProfilerCallback 0000000180268176 f   PxFoundationDEBUG_x64:PxFoundationDEBUG_x64.dll
 0001:00267182       PxGetProfilerCallback      0000000180268182 f   PxFoundationDEBUG_x64:PxFoundationDEBUG_x64.dll
 0001:00267188       __imp_load_??0MutexImpl@shdfnd@physx@@QEAA@XZ 0000000180268188 f   PxFoundationDEBUG_x64:PxFoundationDEBUG_x64.dll
 0001:00267194       ??0MutexImpl@shdfnd@physx@@QEAA@XZ 0000000180268194 f   PxFoundationDEBUG_x64:PxFoundationDEBUG_x64.dll
 0001:0026719a       __imp_load_??1MutexImpl@shdfnd@physx@@QEAA@XZ 000000018026819a f   PxFoundationDEBUG_x64:PxFoundationDEBUG_x64.dll
 0001:002671a6       ??1MutexImpl@shdfnd@physx@@QEAA@XZ 00000001802681a6 f   PxFoundationDEBUG_x64:PxFoundationDEBUG_x64.dll
 0001:002671ac       __imp_load_?lock@MutexImpl@shdfnd@physx@@QEAAXXZ 00000001802681ac f   PxFoundationDEBUG_x64:PxFoundationDEBUG_x64.dll
 0001:002671b8       ?lock@MutexImpl@shdfnd@physx@@QEAAXXZ 00000001802681b8 f   PxFoundationDEBUG_x64:PxFoundationDEBUG_x64.dll
 0001:002671be       __imp_load_?unlock@MutexImpl@shdfnd@physx@@QEAAXXZ 00000001802681be f   PxFoundationDEBUG_x64:PxFoundationDEBUG_x64.dll
 0001:002671ca       ?unlock@MutexImpl@shdfnd@physx@@QEAAXXZ 00000001802681ca f   PxFoundationDEBUG_x64:PxFoundationDEBUG_x64.dll
 0001:002671d0       __imp_load_?getSize@MutexImpl@shdfnd@physx@@SAAEBIXZ 00000001802681d0 f   PxFoundationDEBUG_x64:PxFoundationDEBUG_x64.dll
 0001:002671dc       ?getSize@MutexImpl@shdfnd@physx@@SAAEBIXZ 00000001802681dc f   PxFoundationDEBUG_x64:PxFoundationDEBUG_x64.dll
 0001:002671e4       ??$PFromRva@PEAP6A_JXZ@@YAPEAP6A_JXZK@Z 00000001802681e4 f i delayimp:delayhlp.obj
 0001:002671f4       ??$PFromRva@PEAPEAUHINSTANCE__@@@@YAPEAPEAUHINSTANCE__@@K@Z 00000001802681f4 f i delayimp:delayhlp.obj
 0001:00267204       ??$PFromRva@PEAU_IMAGE_IMPORT_BY_NAME@@@@YAPEAU_IMAGE_IMPORT_BY_NAME@@K@Z 0000000180268204 f i delayimp:delayhlp.obj
 0001:00267214       ??$PFromRva@PEAU_IMAGE_THUNK_DATA64@@@@YAPEAU_IMAGE_THUNK_DATA64@@K@Z 0000000180268214 f i delayimp:delayhlp.obj
 0001:00267224       ??$PFromRva@PEBD@@YAPEBDK@Z 0000000180268224 f i delayimp:delayhlp.obj
 0001:00267234       ??$PFromRva@PEBUImgDelayDescr@@@@YAPEBUImgDelayDescr@@K@Z 0000000180268234 f i delayimp:delayhlp.obj
 0001:00267244       ??$PFromRva@PEBU_IMAGE_THUNK_DATA64@@@@YAPEBU_IMAGE_THUNK_DATA64@@K@Z 0000000180268244 f i delayimp:delayhlp.obj
 0001:00267254       ?CountOfImports@@YAIPEBU_IMAGE_THUNK_DATA64@@@Z 0000000180268254 f i delayimp:delayhlp.obj
 0001:00267270       ?DloadAcquireSectionWriteAccess@@YAXXZ 0000000180268270 f i delayimp:delayhlp.obj
 0001:00267358       ?DloadGetSRWLockFunctionPointers@@YAEXZ 0000000180268358 f i delayimp:delayhlp.obj
 0001:0026741c       ?DloadLock@@YAXXZ          000000018026841c f i delayimp:delayhlp.obj
 0001:00267484       ?DloadMakePermanentImageCommit@@YAXPEAX_K@Z 0000000180268484 f i delayimp:delayhlp.obj
 0001:00267540       ?DloadObtainSection@@YAPEAXPEAK0@Z 0000000180268540 f i delayimp:delayhlp.obj
 0001:002675f8       ?DloadProtectSection@@YAXKPEAK@Z 00000001802685f8 f i delayimp:delayhlp.obj
 0001:002676ac       ?DloadReleaseSectionWriteAccess@@YAXXZ 00000001802686ac f i delayimp:delayhlp.obj
 0001:0026777c       ?DloadUnlock@@YAXXZ        000000018026877c f i delayimp:delayhlp.obj
 0001:002677dc       ?IndexFromPImgThunkData@@YAIPEBU_IMAGE_THUNK_DATA64@@0@Z 00000001802687dc f i delayimp:delayhlp.obj
 0001:00267970       HRESULT_FROM_WIN32         0000000180268970 f i delayimp:delayhlp.obj
 0001:00267984       ReadAcquire64              0000000180268984 f i delayimp:delayhlp.obj
 0001:00267988       ReadPointerAcquire         0000000180268988 f i delayimp:delayhlp.obj
 0001:0026798c       WritePointerRelease        000000018026898c f i delayimp:delayhlp.obj
 0001:00267990       WriteRelease64             0000000180268990 f i delayimp:delayhlp.obj
 0001:00267994       __FUnloadDelayLoadedDLL2   0000000180268994 f   delayimp:delayhlp.obj
 0001:00267a7c       __HrLoadAllImportsForDll   0000000180268a7c f   delayimp:delayhlp.obj
 0001:00267b0c       __delayLoadHelper2         0000000180268b0c f   delayimp:delayhlp.obj
 0001:00267ed0       _CRT_RTC_INIT              0000000180268ed0 f   MSVCRTD:_init_.obj
 0001:00267ee0       _CRT_RTC_INITW             0000000180268ee0 f   MSVCRTD:_init_.obj
 0001:00267ef0       _RTC_InitBase              0000000180268ef0 f   MSVCRTD:_init_.obj
 0001:00267f40       _RTC_Shutdown              0000000180268f40 f   MSVCRTD:_init_.obj
 0001:00267f70       ??3@YAXPEAX_K@Z            0000000180268f70 f   MSVCRTD:delete_scalar_size.obj
 0001:00267fa0       ??_V@YAXPEAX_K@Z           0000000180268fa0 f   MSVCRTD:delete_array_size.obj
 0001:00267fd0       ?__scrt_initialize_type_info@@YAXXZ 0000000180268fd0 f   MSVCRTD:tncleanup.obj
 0001:00267ff0       ?__scrt_uninitialize_type_info@@YAXXZ 0000000180268ff0 f   MSVCRTD:tncleanup.obj
 0001:00268010       ??1type_info@@UEAA@XZ      0000000180269010 f   MSVCRTD:std_type_info_static.obj
 0001:00268030       ??_Gtype_info@@UEAAPEAXI@Z 0000000180269030 f i MSVCRTD:std_type_info_static.obj
 0001:00268030       ??_Etype_info@@UEAAPEAXI@Z 0000000180269030 f i MSVCRTD:std_type_info_static.obj
 0001:00268090       __chkstk                   0000000180269090 f   MSVCRTD:_chkstk_.obj
 0001:00268090       _alloca_probe              0000000180269090 f   MSVCRTD:_chkstk_.obj
 0001:00268100       ??3@YAXPEAX@Z              0000000180269100 f   MSVCRTD:delete_scalar.obj
 0001:00268130       ??_V@YAXPEAX@Z             0000000180269130 f   MSVCRTD:delete_array.obj
 0001:00268630       _CRT_INIT                  0000000180269630 f   MSVCRTD:dll_dllmain.obj
 0001:00268670       _DllMainCRTStartup         0000000180269670 f   MSVCRTD:dll_dllmain.obj
 0001:002686c0       _guard_check_icall_nop     00000001802696c0 f i MSVCRTD:guard_support.obj
 0001:002686d0       ReadNoFence64              00000001802696d0 f i MSVCRTD:guard_support.obj
 0001:00268700       ReadPointerNoFence         0000000180269700 f i MSVCRTD:guard_support.obj
 0001:00268720       __guard_ss_common_verify_stub 0000000180269720 f i MSVCRTD:guard_support.obj
 0001:00268730       _guard_icall_checks_enforced 0000000180269730 f i MSVCRTD:guard_support.obj
 0001:00268780       _guard_rf_checks_enforced  0000000180269780 f i MSVCRTD:guard_support.obj
 0001:002687d0       ?_RTC_GetErrorFunc@@YAP6AHHPEBDH00ZZPEBX@Z 00000001802697d0 f   MSVCRTD:_userapi_.obj
 0001:002687e0       ?_RTC_GetErrorFuncW@@YAP6AHHPEB_WH00ZZPEBX@Z 00000001802697e0 f   MSVCRTD:_userapi_.obj
 0001:002687f0       _RTC_GetErrDesc            00000001802697f0 f   MSVCRTD:_userapi_.obj
 0001:00268810       _RTC_NumErrors             0000000180269810 f   MSVCRTD:_userapi_.obj
 0001:00268820       _RTC_SetErrorFunc          0000000180269820 f   MSVCRTD:_userapi_.obj
 0001:00268840       _RTC_SetErrorFuncW         0000000180269840 f   MSVCRTD:_userapi_.obj
 0001:00268860       _RTC_SetErrorType          0000000180269860 f   MSVCRTD:_userapi_.obj
 0001:00268970       __security_init_cookie     0000000180269970 f   MSVCRTD:gs_support.obj
 0001:00268a10       DllMain                    0000000180269a10 f   MSVCRTD:dll_dllmain_stub.obj
 0001:00268a60       __local_stdio_printf_options 0000000180269a60 f i MSVCRTD:default_local_stdio_options.obj
 0001:00268a70       __local_stdio_scanf_options 0000000180269a70 f i MSVCRTD:default_local_stdio_options.obj
 0001:00268a80       __scrt_initialize_default_local_stdio_options 0000000180269a80 f   MSVCRTD:default_local_stdio_options.obj
 0001:00268ae0       ??$__crt_fast_decode_pointer@PEAP6AXXZ@@YAPEAP6AXXZQEAP6AXXZ@Z 0000000180269ae0 f i MSVCRTD:utility.obj
 0001:00268b30       ??$__crt_fast_encode_pointer@PEAP6AXXZ@@YAPEAP6AXXZQEAP6AXXZ@Z 0000000180269b30 f i MSVCRTD:utility.obj
 0001:00268b80       ?__crt_rotate_pointer_value@@YA_K_KH@Z 0000000180269b80 f i MSVCRTD:utility.obj
 0001:00268ba0       ?configure_argv@__scrt_narrow_argv_policy@@SAHXZ 0000000180269ba0 f i MSVCRTD:utility.obj
 0001:00268cc0       ?initialize_environment@__scrt_narrow_environment_policy@@SAHXZ 0000000180269cc0 f i MSVCRTD:utility.obj
 0001:00268d90       NtCurrentTeb               0000000180269d90 f i MSVCRTD:utility.obj
 0001:00268da0       __scrt_acquire_startup_lock 0000000180269da0 f   MSVCRTD:utility.obj
 0001:00268e20       __scrt_dllmain_after_initialize_c 0000000180269e20 f   MSVCRTD:utility.obj
 0001:00268e60       __scrt_dllmain_before_initialize_c 0000000180269e60 f   MSVCRTD:utility.obj
 0001:00268e90       __scrt_dllmain_crt_thread_attach 0000000180269e90 f   MSVCRTD:utility.obj
 0001:00268ed0       __scrt_dllmain_crt_thread_detach 0000000180269ed0 f   MSVCRTD:utility.obj
 0001:00268ef0       __scrt_dllmain_exception_filter 0000000180269ef0 f   MSVCRTD:utility.obj
 0001:00268f70       __scrt_dllmain_uninitialize_c 0000000180269f70 f   MSVCRTD:utility.obj
 0001:00268fb0       __scrt_dllmain_uninitialize_critical 0000000180269fb0 f   MSVCRTD:utility.obj
 0001:00268fd0       __scrt_initialize_crt      0000000180269fd0 f   MSVCRTD:utility.obj
 0001:00269030       __scrt_initialize_onexit_tables 000000018026a030 f   MSVCRTD:utility.obj
 0001:00269180       __scrt_is_nonwritable_in_current_image 000000018026a180 f   MSVCRTD:utility.obj
 0001:00269230       __scrt_release_startup_lock 000000018026a230 f   MSVCRTD:utility.obj
 0001:00269270       __scrt_uninitialize_crt    000000018026a270 f   MSVCRTD:utility.obj
 0001:002692c0       _onexit                    000000018026a2c0 f   MSVCRTD:utility.obj
 0001:00269370       at_quick_exit              000000018026a370 f   MSVCRTD:utility.obj
 0001:002693e0       atexit                     000000018026a3e0 f   MSVCRTD:utility.obj
 0001:00269420       __scrt_get_dyn_tls_init_callback 000000018026a420 f   MSVCRTD:dyn_tls_init.obj
 0001:00269430       __crt_debugger_hook        000000018026a430 f   MSVCRTD:utility_desktop.obj
 0001:00269450       __scrt_fastfail            000000018026a450 f   MSVCRTD:utility_desktop.obj
 0001:00269650       __scrt_get_show_window_mode 000000018026a650 f   MSVCRTD:utility_desktop.obj
 0001:002696c0       __scrt_initialize_winrt    000000018026a6c0 f   MSVCRTD:utility_desktop.obj
 0001:002696d0       __scrt_is_managed_app      000000018026a6d0 f   MSVCRTD:utility_desktop.obj
 0001:002697a0       __scrt_set_unhandled_exception_filter 000000018026a7a0 f   MSVCRTD:utility_desktop.obj
 0001:002697c0       __scrt_unhandled_exception_filter 000000018026a7c0 f   MSVCRTD:utility_desktop.obj
 0001:00269850       _RTC_Initialize            000000018026a850 f   MSVCRTD:_initsect_.obj
 0001:002698b0       _RTC_Terminate             000000018026a8b0 f   MSVCRTD:_initsect_.obj
 0001:00269910       _guard_check_icall         000000018026a910 f i MSVCRTD:checkcfg.obj
 0001:00269930       ??$__vcrt_va_start_verify_argument_type@QEBD@@YAXXZ 000000018026a930 f i MSVCRTD:_error_.obj
 0001:00269a10       ?_RTC_AllocaFailure@@YAXPEAXPEAU_RTC_ALLOCA_NODE@@H@Z 000000018026aa10 f   MSVCRTD:_error_.obj
 0001:00269bc0       ?_RTC_Failure@@YAXPEAXH@Z  000000018026abc0 f   MSVCRTD:_error_.obj
 0001:00269c30       ?_RTC_StackFailure@@YAXPEAXPEBD@Z 000000018026ac30 f   MSVCRTD:_error_.obj
 0001:0026a150       _RTC_UninitUse             000000018026b150 f   MSVCRTD:_error_.obj
 0001:0026a250       _vsprintf_s_l              000000018026b250 f i MSVCRTD:_error_.obj
 0001:0026a2d0       sprintf_s                  000000018026b2d0 f i MSVCRTD:_error_.obj
 0001:0026a320       __isa_available_init       000000018026b320 f   MSVCRTD:_cpu_disp_.obj
 0001:0026a770       _get_startup_argv_mode     000000018026b770 f   MSVCRTD:argv_mode.obj
 0001:0026a780       __scrt_is_ucrt_dll_in_use  000000018026b780 f   MSVCRTD:ucrt_detection.obj
 0001:0026add0       ?_RTC_GetSrcLine@@YAHPEAEPEA_WKPEAH1K@Z 000000018026bdd0 f   MSVCRTD:_pdblkup_.obj
 0001:0026b360       __GSHandlerCheck           000000018026c360 f   MSVCRTD:_gshandler_.obj
 0001:0026b3b0       __GSHandlerCheckCommon     000000018026c3b0 f   MSVCRTD:_gshandler_.obj
 0001:0026b500       __security_check_cookie    000000018026c500 f   MSVCRTD:_amdsecgs_.obj
 0001:0026b530       __raise_securityfailure    000000018026c530 f   MSVCRTD:gs_report.obj
 0001:0026b580       __report_gsfailure         000000018026c580 f   MSVCRTD:gs_report.obj
 0001:0026b690       __report_rangecheckfailure 000000018026c690 f   MSVCRTD:gs_report.obj
 0001:0026b6b0       __report_securityfailure   000000018026c6b0 f   MSVCRTD:gs_report.obj
 0001:0026b780       __report_securityfailureEx 000000018026c780 f   MSVCRTD:gs_report.obj
 0001:0026ba7e       strstr                     000000018026ca7e f   vcruntimed:VCRUNTIME140D.dll
 0001:0026ba84       _purecall                  000000018026ca84 f   vcruntimed:VCRUNTIME140D.dll
 0001:0026ba8a       memcpy                     000000018026ca8a f   vcruntimed:VCRUNTIME140D.dll
 0001:0026ba90       __std_type_info_name       000000018026ca90 f   vcruntimed:VCRUNTIME140D.dll
 0001:0026ba96       memset                     000000018026ca96 f   vcruntimed:VCRUNTIME140D.dll
 0001:0026ba9c       memcmp                     000000018026ca9c f   vcruntimed:VCRUNTIME140D.dll
 0001:0026baa2       __std_type_info_destroy_list 000000018026caa2 f   vcruntimed:VCRUNTIME140D.dll
 0001:0026baa8       __C_specific_handler       000000018026caa8 f   vcruntimed:VCRUNTIME140D.dll
 0001:0026baae       __vcrt_GetModuleFileNameW  000000018026caae f   vcruntimed:VCRUNTIME140D.dll
 0001:0026bab4       __vcrt_GetModuleHandleW    000000018026cab4 f   vcruntimed:VCRUNTIME140D.dll
 0001:0026baba       __vcrt_LoadLibraryExW      000000018026caba f   vcruntimed:VCRUNTIME140D.dll
 0001:0026bac0       _fpclass                   000000018026cac0 f   ucrtd:ucrtbased.dll
 0001:0026bac6       fabs                       000000018026cac6 f   ucrtd:ucrtbased.dll
 0001:0026bacc       sqrtf                      000000018026cacc f   ucrtd:ucrtbased.dll
 0001:0026bad2       cosf                       000000018026cad2 f   ucrtd:ucrtbased.dll
 0001:0026bad8       sinf                       000000018026cad8 f   ucrtd:ucrtbased.dll
 0001:0026bade       strlen                     000000018026cade f   ucrtd:ucrtbased.dll
 0001:0026bae4       strcmp                     000000018026cae4 f   ucrtd:ucrtbased.dll
 0001:0026baea       ceilf                      000000018026caea f   ucrtd:ucrtbased.dll
 0001:0026baf0       floorf                     000000018026caf0 f   ucrtd:ucrtbased.dll
 0001:0026baf6       _CrtDbgReport              000000018026caf6 f   ucrtd:ucrtbased.dll
 0001:0026bafc       _CrtDbgReportW             000000018026cafc f   ucrtd:ucrtbased.dll
 0001:0026bb02       _free_dbg                  000000018026cb02 f   ucrtd:ucrtbased.dll
 0001:0026bb08       _initterm                  000000018026cb08 f   ucrtd:ucrtbased.dll
 0001:0026bb0e       _initterm_e                000000018026cb0e f   ucrtd:ucrtbased.dll
 0001:0026bb14       _seh_filter_dll            000000018026cb14 f   ucrtd:ucrtbased.dll
 0001:0026bb1a       _configure_narrow_argv     000000018026cb1a f   ucrtd:ucrtbased.dll
 0001:0026bb20       _initialize_narrow_environment 000000018026cb20 f   ucrtd:ucrtbased.dll
 0001:0026bb26       _initialize_onexit_table   000000018026cb26 f   ucrtd:ucrtbased.dll
 0001:0026bb2c       _register_onexit_function  000000018026cb2c f   ucrtd:ucrtbased.dll
 0001:0026bb32       _execute_onexit_table      000000018026cb32 f   ucrtd:ucrtbased.dll
 0001:0026bb38       _crt_atexit                000000018026cb38 f   ucrtd:ucrtbased.dll
 0001:0026bb3e       _crt_at_quick_exit         000000018026cb3e f   ucrtd:ucrtbased.dll
 0001:0026bb44       _cexit                     000000018026cb44 f   ucrtd:ucrtbased.dll
 0001:0026bb4a       terminate                  000000018026cb4a f   ucrtd:ucrtbased.dll
 0001:0026bb50       strcpy_s                   000000018026cb50 f   ucrtd:ucrtbased.dll
 0001:0026bb56       strcat_s                   000000018026cb56 f   ucrtd:ucrtbased.dll
 0001:0026bb5c       __stdio_common_vsprintf_s  000000018026cb5c f   ucrtd:ucrtbased.dll
 0001:0026bb62       _wmakepath_s               000000018026cb62 f   ucrtd:ucrtbased.dll
 0001:0026bb68       _wsplitpath_s              000000018026cb68 f   ucrtd:ucrtbased.dll
 0001:0026bb6e       wcscpy_s                   000000018026cb6e f   ucrtd:ucrtbased.dll
 0001:0026bb74       RaiseException             000000018026cb74 f   kernel32:KERNEL32.dll
 0001:0026bb7a       GetLastError               000000018026cb7a f   kernel32:KERNEL32.dll
 0001:0026bb80       GetSystemInfo              000000018026cb80 f   kernel32:KERNEL32.dll
 0001:0026bb86       VirtualProtect             000000018026cb86 f   kernel32:KERNEL32.dll
 0001:0026bb8c       VirtualQuery               000000018026cb8c f   kernel32:KERNEL32.dll
 0001:0026bb92       GetModuleHandleW           000000018026cb92 f   kernel32:KERNEL32.dll
 0001:0026bb98       LoadLibraryExA             000000018026cb98 f   kernel32:KERNEL32.dll
 0001:0026bb9e       InitializeSListHead        000000018026cb9e f   kernel32:KERNEL32.dll
 0001:0026bba4       QueryPerformanceCounter    000000018026cba4 f   kernel32:KERNEL32.dll
 0001:0026bbaa       GetCurrentProcessId        000000018026cbaa f   kernel32:KERNEL32.dll
 0001:0026bbb0       GetCurrentThreadId         000000018026cbb0 f   kernel32:KERNEL32.dll
 0001:0026bbb6       GetSystemTimeAsFileTime    000000018026cbb6 f   kernel32:KERNEL32.dll
 0001:0026bbbc       DisableThreadLibraryCalls  000000018026cbbc f   kernel32:KERNEL32.dll
 0001:0026bbc2       RtlCaptureContext          000000018026cbc2 f   kernel32:KERNEL32.dll
 0001:0026bbc8       RtlLookupFunctionEntry     000000018026cbc8 f   kernel32:KERNEL32.dll
 0001:0026bbce       RtlVirtualUnwind           000000018026cbce f   kernel32:KERNEL32.dll
 0001:0026bbd4       IsDebuggerPresent          000000018026cbd4 f   kernel32:KERNEL32.dll
 0001:0026bbda       UnhandledExceptionFilter   000000018026cbda f   kernel32:KERNEL32.dll
 0001:0026bbe0       SetUnhandledExceptionFilter 000000018026cbe0 f   kernel32:KERNEL32.dll
 0001:0026bbe6       GetStartupInfoW            000000018026cbe6 f   kernel32:KERNEL32.dll
 0001:0026bbec       IsProcessorFeaturePresent  000000018026cbec f   kernel32:KERNEL32.dll
 0001:0026bbf2       MultiByteToWideChar        000000018026cbf2 f   kernel32:KERNEL32.dll
 0001:0026bbf8       WideCharToMultiByte        000000018026cbf8 f   kernel32:KERNEL32.dll
 0001:0026bbfe       HeapAlloc                  000000018026cbfe f   kernel32:KERNEL32.dll
 0001:0026bc04       HeapFree                   000000018026cc04 f   kernel32:KERNEL32.dll
 0001:0026bc0a       GetProcessHeap             000000018026cc0a f   kernel32:KERNEL32.dll
 0001:0026bc10       GetCurrentProcess          000000018026cc10 f   kernel32:KERNEL32.dll
 0001:0026bc16       TerminateProcess           000000018026cc16 f   kernel32:KERNEL32.dll
 0001:0026bc20       __acrt_initialize          000000018026cc20 f   MSVCRTD:ucrt_stubs.obj
 0001:0026bc20       __scrt_stub_for_acrt_initialize 000000018026cc20 f   MSVCRTD:ucrt_stubs.obj
 0001:0026bc20       __vcrt_initialize          000000018026cc20 f   MSVCRTD:ucrt_stubs.obj
 0001:0026bc30       __acrt_thread_attach       000000018026cc30 f   MSVCRTD:ucrt_stubs.obj
 0001:0026bc30       __scrt_stub_for_acrt_thread_attach 000000018026cc30 f   MSVCRTD:ucrt_stubs.obj
 0001:0026bc30       __vcrt_thread_attach       000000018026cc30 f   MSVCRTD:ucrt_stubs.obj
 0001:0026bc40       __acrt_thread_detach       000000018026cc40 f   MSVCRTD:ucrt_stubs.obj
 0001:0026bc40       __vcrt_thread_detach       000000018026cc40 f   MSVCRTD:ucrt_stubs.obj
 0001:0026bc40       __scrt_stub_for_acrt_thread_detach 000000018026cc40 f   MSVCRTD:ucrt_stubs.obj
 0001:0026bc50       __vcrt_uninitialize        000000018026cc50 f   MSVCRTD:ucrt_stubs.obj
 0001:0026bc50       __scrt_stub_for_acrt_uninitialize 000000018026cc50 f   MSVCRTD:ucrt_stubs.obj
 0001:0026bc50       __acrt_uninitialize        000000018026cc50 f   MSVCRTD:ucrt_stubs.obj
 0001:0026bc60       __scrt_stub_for_acrt_uninitialize_critical 000000018026cc60 f   MSVCRTD:ucrt_stubs.obj
 0001:0026bc60       __vcrt_uninitialize_critical 000000018026cc60 f   MSVCRTD:ucrt_stubs.obj
 0001:0026bc60       __acrt_uninitialize_critical 000000018026cc60 f   MSVCRTD:ucrt_stubs.obj
 0001:0026bc70       __scrt_stub_for_is_c_termination_complete 000000018026cc70 f   MSVCRTD:ucrt_stubs.obj
 0001:0026bc70       _is_c_termination_complete 000000018026cc70 f   MSVCRTD:ucrt_stubs.obj
 0001:0026e9c0       __guard_ss_verify_failure  000000018026f9c0 f   MSVCRTD:_rfgfailure_.obj
 0001:0026e9cb       __guard_ss_verify_failure_rcx 000000018026f9cb     MSVCRTD:_rfgfailure_.obj
 0001:0026e9d1       __guard_ss_verify_failure_rdx 000000018026f9d1     MSVCRTD:_rfgfailure_.obj
 0001:0026e9d7       __guard_ss_verify_failure_r8 000000018026f9d7     MSVCRTD:_rfgfailure_.obj
 0001:0026e9dd       __guard_ss_verify_failure_r9 000000018026f9dd     MSVCRTD:_rfgfailure_.obj
 0001:0026e9e3       __guard_ss_verify_failure_r10 000000018026f9e3     MSVCRTD:_rfgfailure_.obj
 0001:0026e9f0       __guard_ss_verify_failure_default 000000018026f9f0 f   MSVCRTD:_rfgfailure_.obj
 0001:0026ea50       __guard_ss_verify_sp       000000018026fa50 f   MSVCRTD:_rfgfailure_.obj
 0001:0026ea60       __guard_ss_verify_sp_default 000000018026fa60 f   MSVCRTD:_rfgfailure_.obj
 0001:0026eaa0       _guard_dispatch_icall_nop  000000018026faa0 f   MSVCRTD:_guard_dispatch_.obj
 0002:00000000       __xc_a                     0000000180272000     MSVCRTD:initializers.obj
 0002:00001e10       __xc_z                     0000000180273e10     MSVCRTD:initializers.obj
 0002:00001f20       __xi_a                     0000000180273f20     MSVCRTD:initializers.obj
 0002:00002030       __xi_z                     0000000180274030     MSVCRTD:initializers.obj
 0002:00002140       __xp_a                     0000000180274140     MSVCRTD:initializers.obj
 0002:00002250       __xp_z                     0000000180274250     MSVCRTD:initializers.obj
 0002:00002360       __xt_a                     0000000180274360     MSVCRTD:initializers.obj
 0002:00002470       __xt_z                     0000000180274470     MSVCRTD:initializers.obj
 0002:00002580       ??_C@_0N@PENLEBPP@PxFoundation?$AA@ 0000000180274580     CmWindowsDelayLoadHook.obj
 0002:00002590       ??_C@_05KOLFGEDA@DEBUG?$AA@ 0000000180274590     CmWindowsDelayLoadHook.obj
 0002:00002598       ??_C@_07KELMHNNG@CHECKED?$AA@ 0000000180274598     CmWindowsDelayLoadHook.obj
 0002:000025a8       ??_C@_07EAJOOGMN@PROFILE?$AA@ 00000001802745a8     CmWindowsDelayLoadHook.obj
 0002:000025b8       ??_C@_0N@BBNMPFJK@PhysX3Common?$AA@ 00000001802745b8     CmWindowsDelayLoadHook.obj
 0002:000025c8       ??_C@_08DLKLOFHK@PxPvdSDK?$AA@ 00000001802745c8     CmWindowsDelayLoadHook.obj
 0002:000025d8       ??_7PxFoundation@physx@@6B@ 00000001802745d8     CmWindowsModuleUpdateLoader.obj
 0002:00002628       ??_C@_0BB@CPDDPFKD@GetUpdatedModule?$AA@ 0000000180274628     CmWindowsModuleUpdateLoader.obj
 0002:00002640       ??_C@_0DO@GJIKHAAG@D?3?2github?2fork?2PhysX?93?44?2PxShare@ 0000000180274640     CmBoxPruning.obj
 0002:00002690       ??_C@_0L@ICMNFAAK@index?5?$DM?$DN?52?$AA@ 0000000180274690     CmBoxPruning.obj
 0002:000026a0       ??_C@_0EB@KBPICGFH@D?3?2github?2fork?2PhysX?93?44?2PxShare@ 00000001802746a0     CmBoxPruning.obj
 0002:000026f0       ??_C@_0BJ@IPHMGCLA@isValid?$CI?$CJ?5?$CG?$CG?5b?4isValid?$CI?$CJ?$AA@ 00000001802746f0     CmBoxPruning.obj
 0002:00002710       ??_C@_0BI@KOLOPPGM@Gu?3?3BipartiteBoxPruning?$AA@ 0000000180274710     CmBoxPruning.obj
 0002:00002730       ??_C@_0CC@EJLALBDJ@?4?4?2?4?4?2Common?2src?2CmBoxPruning?4cp@ 0000000180274730     CmBoxPruning.obj
 0002:00002758       ??_C@_0BH@OCNEOEOP@Cm?3?3CompleteBoxPruning?$AA@ 0000000180274758     CmBoxPruning.obj
 0002:00002780       ??_C@_0ED@MHLDGOOH@D?3?2github?2fork?2PhysX?93?44?2PxShare@ 0000000180274780     CmBoxPruning.obj
 0002:000027d0       ??_C@_0CP@CPGGIPKL@?$CI?$CBcapacity?$CJ?5?$HM?$HM?5?$CInewData?5?$CG?$CG?5?$CInewD@ 00000001802747d0     CmBoxPruning.obj
 0002:00002808       __real@7e7fffff            0000000180274808     CmBoxPruning.obj
 0002:0000280c       __real@fe7fffff            000000018027480c     CmBoxPruning.obj
 0002:00002810       ??_7PxCollection@physx@@6B@ 0000000180274810     CmCollection.obj
 0002:000028b0       ??_C@_0BA@DLCJDKDM@NonTrackedAlloc?$AA@ 00000001802748b0     CmCollection.obj
 0002:000028c8       ??_7Collection@Cm@physx@@6B@ 00000001802748c8     CmCollection.obj
 0002:00002970       ??_C@_0GE@GBACBMOC@PxCollection?3?3add?5called?5for?5an?5@ 0000000180274970     CmCollection.obj
 0002:000029e8       ??_C@_0CC@IADNGPGM@?4?4?2?4?4?2Common?2src?2CmCollection?4cp@ 00000001802749e8     CmCollection.obj
 0002:00002a10       ??_C@_0EM@OMMGDOMK@PxCollection?3?3add?5called?5with?5an@ 0000000180274a10     CmCollection.obj
 0002:00002a70       ??_C@_0EL@CBFFIHFG@PxCollection?3?3remove?5called?5for?5@ 0000000180274a70     CmCollection.obj
 0002:00002ad0       ??_C@_0EP@DBNENNLL@PxCollection?3?3addId?5called?5for?5o@ 0000000180274ad0     CmCollection.obj
 0002:00002b30       ??_C@_0FL@DACPFKDD@PxCollection?3?3addId?5called?5with?5@ 0000000180274b30     CmCollection.obj
 0002:00002ba0       ??_C@_0EP@GMPAMDKI@PxCollection?3?3addId?5called?5with?5@ 0000000180274ba0     CmCollection.obj
 0002:00002c00       ??_C@_0FO@DIHIGAFD@PxCollection?3?3removeId?5called?5wi@ 0000000180274c00     CmCollection.obj
 0002:00002c70       ??_C@_0FF@MENHIPMD@PxCollection?3?3removeId?5called?5wi@ 0000000180274c70     CmCollection.obj
 0002:00002ce0       ??_C@_0FK@BAFICJEM@PxCollection?3?3find?5called?5with?5P@ 0000000180274ce0     CmCollection.obj
 0002:00002d50       ??_C@_0DF@CLGAFPLL@PxCollection?3?3add?$CIPxCollection?$CG?$CJ@ 0000000180274d50     CmCollection.obj
 0002:00002d90       ??_C@_0DN@DMJACFO@PxCollection?3?3add?$CIPxCollection?$CG?$CJ@ 0000000180274d90     CmCollection.obj
 0002:00002de0       ??_C@_0DI@DICAIAPC@PxCollection?3?3remove?$CIPxCollectio@ 0000000180274de0     CmCollection.obj
 0002:00002e28       ??_C@_0BI@JDDBPHIO@index?5?$DM?5mObjects?4size?$CI?$CJ?$AA@ 0000000180274e28     CmCollection.obj
 0002:00002e48       ??_C@_0DG@LOILDLGN@PxCollection?3?3getObjects?5called?5@ 0000000180274e48     CmCollection.obj
 0002:00002e88       ??_C@_0DD@GMICJLDJ@PxCollection?3?3getObjects?5called?5@ 0000000180274e88     CmCollection.obj
 0002:00002ec8       ??_C@_0DC@GILGGBAI@PxCollection?3?3getIds?5called?5with@ 0000000180274ec8     CmCollection.obj
 0002:00002f08       ??_C@_0CP@LFEKADKN@PxCollection?3?3getIds?5called?5with@ 0000000180274f08     CmCollection.obj
 0002:00002f40       ??_C@_0EL@EGBJBLEI@d?3?2github?2fork?2physx?93?44?2pxshare@ 0000000180274f40     CmCollection.obj
 0002:00002fa0       ??_C@_0BP@BKFDLDDE@mTimestamp?5?$DN?$DN?5mBase?4mTimestamp?$AA@ 0000000180274fa0     CmCollection.obj
 0002:00002fc8       ??_C@_0BM@OIFKLHDN@?$DMallocation?5names?5disabled?$DO?$AA@ 0000000180274fc8     CmCollection.obj
 0002:00002ff0       ??_C@_0EK@CFJIEPPJ@?$CImFreeList?5?$DN?$DN?5EOL?$CJ?5?$HM?$HM?5?$CIcompactin@ 0000000180274ff0     CmCollection.obj
 0002:00003048       ??_C@_0BB@GDPMDOF@?$CBfreeListEmpty?$CI?$CJ?$AA@ 0000000180275048     CmCollection.obj
 0002:00003060       ??_C@_0BL@DHJNKJLG@mFreeList?5?$DN?$DN?5mEntriesCount?$AA@ 0000000180275060     CmCollection.obj
 0002:00003080       ??_C@_0BF@MJIJMGPN@?$CB?$CIsize?5?$CG?5?$CIsize?5?9?51?$CJ?$CJ?$AA@ 0000000180275080     CmCollection.obj
 0002:000030a0       ??_C@_09LAGLDPIH@newBuffer?$AA@ 00000001802750a0     CmCollection.obj
 0002:000030b0       ??_C@_0BE@JIMKLMPE@index?5?$CB?$DN?5newHash?$FLh?$FN?$AA@ 00000001802750b0     CmCollection.obj
 0002:000030c8       ??_C@_0M@MLKAJPLJ@?$CKptr?5?$CB?$DN?5EOL?$AA@ 00000001802750c8     CmCollection.obj
 0002:000030d8       ??_C@_08DELPPNON@hashBase?$AA@ 00000001802750d8     CmCollection.obj
 0002:000030e8       ??_C@_0BF@OADKGOFH@mFreeList?5?$CB?$DN?5end?5?9?51?$AA@ 00000001802750e8     CmCollection.obj
 0002:00003104       __real@3f400000            0000000180275104     CmCollection.obj
 0002:00003110       ??_C@_0ED@OCOLBELO@D?3?2github?2fork?2PhysX?93?44?2PxShare@ 0000000180275110     CmMathUtils.obj
 0002:00003160       ??_C@_0M@BJFDEEID@q0?4isSane?$CI?$CJ?$AA@ 0000000180275160     CmMathUtils.obj
 0002:00003170       __real@00000000            0000000180275170     CmMathUtils.obj
 0002:00003174       __real@358637bd            0000000180275174     CmMathUtils.obj
 0002:00003178       __real@3c23d70a            0000000180275178     CmMathUtils.obj
 0002:0000317c       __real@3f000000            000000018027517c     CmMathUtils.obj
 0002:00003180       __real@3f3504f3            0000000180275180     CmMathUtils.obj
 0002:00003184       __real@3f800000            0000000180275184     CmMathUtils.obj
 0002:00003188       __real@40000000            0000000180275188     CmMathUtils.obj
 0002:00003190       __xmm@80000000800000008000000080000000 0000000180275190     CmMathUtils.obj
 0002:000031a4       ??_C@_01GBGANLPD@0?$AA@    00000001802751a4     CmPtrTable.obj
 0002:000031a8       ??_C@_0CA@OBIMPDNK@?4?4?2?4?4?2Common?2src?2CmPtrTable?4cpp?$AA@ 00000001802751a8     CmPtrTable.obj
 0002:000031d0       ??_C@_0M@DAGELID@mOwnsMemory?$AA@ 00000001802751d0     CmPtrTable.obj
 0002:000031e0       ??_C@_0M@IBLEJNCA@mCount?5?$DN?$DN?50?$AA@ 00000001802751e0     CmPtrTable.obj
 0002:000031f0       ??_C@_0O@HDLAHOCN@mList?5?$DN?$DN?5NULL?$AA@ 00000001802751f0     CmPtrTable.obj
 0002:00003200       ??_C@_0ED@HKENHAKJ@?$CImOwnsMemory?5?$CG?$CG?5oldCapacity?$CJ?5?$HM?$HM?5@ 0000000180275200     CmPtrTable.obj
 0002:00003250       ??_C@_0M@JBHIAGAJ@newCapacity?$AA@ 0000000180275250     CmPtrTable.obj
 0002:00003260       ??_C@_0N@NGLHNOCC@?$CBmBufferUsed?$AA@ 0000000180275260     CmPtrTable.obj
 0002:00003270       ??_C@_0M@MMPOMMLP@mBufferUsed?$AA@ 0000000180275270     CmPtrTable.obj
 0002:00003280       ??_C@_09LNDPMKFO@mCount?$CB?$DN0?$AA@ 0000000180275280     CmPtrTable.obj
 0002:00003290       ??_C@_08MDGMHCHN@PtrTable?$AA@ 0000000180275290     CmPtrTable.obj
 0002:0000329c       ??_C@_04GKJNKENE@void?$AA@ 000000018027529c     CmPtrTable.obj
 0002:000032a8       ??_C@_07DFEBJDHE@mSingle?$AA@ 00000001802752a8     CmPtrTable.obj
 0002:000032b4       ??_C@_05NLHHBMOH@PxU16?$AA@ 00000001802752b4     CmPtrTable.obj
 0002:000032bc       ??_C@_06EPKHJPIM@mCount?$AA@ 00000001802752bc     CmPtrTable.obj
 0002:000032c4       ??_C@_04DDKJGDCM@bool?$AA@ 00000001802752c4     CmPtrTable.obj
 0002:000032d0       ??_7RadixSort@Cm@physx@@6B@ 00000001802752d0     CmRadixSort.obj
 0002:000032e0       ??_C@_0CB@IAJIMFKE@?4?4?2?4?4?2Common?2src?2CmRadixSort?4cpp@ 00000001802752e0     CmRadixSort.obj
 0002:00003308       ??_C@_0P@OPCKFFMF@mHistogram1024?$AA@ 0000000180275308     CmRadixSort.obj
 0002:00003320       ??_C@_09DJDIIHNA@mLinks256?$AA@ 0000000180275320     CmRadixSort.obj
 0002:0000332c       ??_C@_06PGIPHEGB@mRanks?$AA@ 000000018027532c     CmRadixSort.obj
 0002:00003338       ??_C@_07NHDDIKML@mRanks2?$AA@ 0000000180275338     CmRadixSort.obj
 0002:00003348       ??_7RadixSortBuffered@Cm@physx@@6B@ 0000000180275348     CmRadixSortBuffered.obj
 0002:00003358       ??_C@_0BJ@LFNCOACD@RadixSortBuffered?3mRanks?$AA@ 0000000180275358     CmRadixSortBuffered.obj
 0002:00003378       ??_C@_0CJ@HFKIANFO@?4?4?2?4?4?2Common?2src?2CmRadixSortBuff@ 0000000180275378     CmRadixSortBuffered.obj
 0002:000033b0       ??_C@_0BK@EPKCPHOD@RadixSortBuffered?3mRanks2?$AA@ 00000001802753b0     CmRadixSortBuffered.obj
 0002:000033d0       ?sBufferSize@DebugText@Cm@physx@@2HB 00000001802753d0     CmRenderOutput.obj
 0002:000033d8       ??_C@_09GCLCCGEM@i?5?$DM?5mSize?$AA@ 00000001802753d8     CmRenderOutput.obj
 0002:000033e8       ??_C@_0BM@BMFMDKFG@this?9?$DOcapacity?$CI?$CJ?5?$DM?5capacity?$AA@ 00000001802753e8     CmRenderOutput.obj
 0002:00003410       ??_C@_0BC@GKLGGHPD@size?5?$DM?$DN?5mCapacity?$AA@ 0000000180275410     CmRenderOutput.obj
 0002:00003428       __real@3e19999a            0000000180275428     CmRenderOutput.obj
 0002:0000342c       __real@3e800000            000000018027542c     CmRenderOutput.obj
 0002:00003430       __real@40400000            0000000180275430     CmRenderOutput.obj
 0002:00003434       __real@40490fdb            0000000180275434     CmRenderOutput.obj
 0002:00003438       __real@40c90fdb            0000000180275438     CmRenderOutput.obj
 0002:00003440       ??_C@_0DO@NDPIHPPH@D?3?2github?2fork?2PhysX?93?44?2PxShare@ 0000000180275440     CmVisualization.obj
 0002:00003490       ??_C@_0CL@BBNJEEEJ@PxAbs?$CI1?40f?5?9?5unitAxis?4magnitude?$CI@ 0000000180275490     CmVisualization.obj
 0002:000034c4       __real@3a83126f            00000001802754c4     CmVisualization.obj
 0002:000034c8       __real@3e490fdb            00000001802754c8     CmVisualization.obj
 0002:000034cc       __real@3e99999a            00000001802754cc     CmVisualization.obj
 0002:000034d0       __real@3fc00000            00000001802754d0     CmVisualization.obj
 0002:000034d4       __real@3fc90fdb            00000001802754d4     CmVisualization.obj
 0002:000034d8       __real@41a00000            00000001802754d8     CmVisualization.obj
 0002:000034e0       ?g_PXSinCoefficients0@aos@shdfnd@physx@@3UPX_VECTORF32@123@B 00000001802754e0     GuContactBoxBox.obj
 0002:00003500       ?g_PXSinCoefficients1@aos@shdfnd@physx@@3UPX_VECTORF32@123@B 0000000180275500     GuContactBoxBox.obj
 0002:00003520       ?g_PXSinCoefficients2@aos@shdfnd@physx@@3UPX_VECTORF32@123@B 0000000180275520     GuContactBoxBox.obj
 0002:00003540       ?g_PXCosCoefficients0@aos@shdfnd@physx@@3UPX_VECTORF32@123@B 0000000180275540     GuContactBoxBox.obj
 0002:00003560       ?g_PXCosCoefficients1@aos@shdfnd@physx@@3UPX_VECTORF32@123@B 0000000180275560     GuContactBoxBox.obj
 0002:00003580       ?g_PXCosCoefficients2@aos@shdfnd@physx@@3UPX_VECTORF32@123@B 0000000180275580     GuContactBoxBox.obj
 0002:000035a0       ?g_PXTanCoefficients0@aos@shdfnd@physx@@3UPX_VECTORF32@123@B 00000001802755a0     GuContactBoxBox.obj
 0002:000035c0       ?g_PXTanCoefficients1@aos@shdfnd@physx@@3UPX_VECTORF32@123@B 00000001802755c0     GuContactBoxBox.obj
 0002:000035e0       ?g_PXTanCoefficients2@aos@shdfnd@physx@@3UPX_VECTORF32@123@B 00000001802755e0     GuContactBoxBox.obj
 0002:00003600       ?g_PXASinCoefficients0@aos@shdfnd@physx@@3UPX_VECTORF32@123@B 0000000180275600     GuContactBoxBox.obj
 0002:00003620       ?g_PXASinCoefficients1@aos@shdfnd@physx@@3UPX_VECTORF32@123@B 0000000180275620     GuContactBoxBox.obj
 0002:00003640       ?g_PXASinCoefficients2@aos@shdfnd@physx@@3UPX_VECTORF32@123@B 0000000180275640     GuContactBoxBox.obj
 0002:00003660       ?g_PXATanCoefficients0@aos@shdfnd@physx@@3UPX_VECTORF32@123@B 0000000180275660     GuContactBoxBox.obj
 0002:00003680       ?g_PXATanCoefficients1@aos@shdfnd@physx@@3UPX_VECTORF32@123@B 0000000180275680     GuContactBoxBox.obj
 0002:000036a0       ?g_PXATanCoefficients2@aos@shdfnd@physx@@3UPX_VECTORF32@123@B 00000001802756a0     GuContactBoxBox.obj
 0002:000036c0       ?g_PXSinEstCoefficients@aos@shdfnd@physx@@3UPX_VECTORF32@123@B 00000001802756c0     GuContactBoxBox.obj
 0002:000036e0       ?g_PXCosEstCoefficients@aos@shdfnd@physx@@3UPX_VECTORF32@123@B 00000001802756e0     GuContactBoxBox.obj
 0002:00003700       ?g_PXTanEstCoefficients@aos@shdfnd@physx@@3UPX_VECTORF32@123@B 0000000180275700     GuContactBoxBox.obj
 0002:00003720       ?g_PXATanEstCoefficients@aos@shdfnd@physx@@3UPX_VECTORF32@123@B 0000000180275720     GuContactBoxBox.obj
 0002:00003740       ?g_PXASinEstCoefficients@aos@shdfnd@physx@@3UPX_VECTORF32@123@B 0000000180275740     GuContactBoxBox.obj
 0002:00003760       ?g_PXASinEstConstants@aos@shdfnd@physx@@3UPX_VECTORF32@123@B 0000000180275760     GuContactBoxBox.obj
 0002:00003780       ?g_PXPiConstants0@aos@shdfnd@physx@@3UPX_VECTORF32@123@B 0000000180275780     GuContactBoxBox.obj
 0002:000037a0       ?g_PXReciprocalTwoPi@aos@shdfnd@physx@@3UPX_VECTORF32@123@B 00000001802757a0     GuContactBoxBox.obj
 0002:000037c0       ?g_PXTwoPi@aos@shdfnd@physx@@3UPX_VECTORF32@123@B 00000001802757c0     GuContactBoxBox.obj
 0002:00003810       ??_C@_0EH@DKBIJGDP@D?3?2github?2fork?2PhysX?93?44?2PhysX_3@ 0000000180275810     GuContactBoxBox.obj
 0002:00003868       ??_C@_0CJ@ILIBJFPM@PxAbs?$CIworldNormalIn?4magnitude?$CI?$CJ?9@ 0000000180275868     GuContactBoxBox.obj
 0002:0000389c       ??_C@_06EJKDJEDO@PxBase?$AA@ 000000018027589c     GuContactBoxBox.obj
 0002:000038a8       ??_C@_0N@CDGINLLF@PxConvexMesh?$AA@ 00000001802758a8     GuContactBoxBox.obj
 0002:000038b8       ??_7PxBase@physx@@6B@      00000001802758b8     GuContactBoxBox.obj
 0002:000038e8       ??_7PxConvexMesh@physx@@6B@ 00000001802758e8     GuContactBoxBox.obj
 0002:00003978       ??_C@_0CA@KJFNONEO@MaterialIndicesStruct?3?3allocate?$AA@ 0000000180275978     GuContactBoxBox.obj
 0002:000039a0       ??_C@_0EK@JNMOPJCE@D?3?2github?2fork?2PhysX?93?44?2PhysX_3@ 00000001802759a0     GuContactBoxBox.obj
 0002:00003a00       ??_C@_0EH@INEOJNDG@D?3?2github?2fork?2PhysX?93?44?2PxShare@ 0000000180275a00     GuContactBoxBox.obj
 0002:00003a58       ??_C@_0O@JELDCDGP@value?5?$DM?$DN?50xff?$AA@ 0000000180275a58     GuContactBoxBox.obj
 0002:00003b70       ??_C@_0EB@BLMDIKDE@PxU32?$CIgeometry?4getType?$CI?$CJ?$CJ?5?$DN?$DN?5PxU@ 0000000180275b70     GuContactBoxBox.obj
 0002:00003bc0       __real@3f7fbe77            0000000180275bc0     GuContactBoxBox.obj
 0002:00003bc4       __real@7f7fffff            0000000180275bc4     GuContactBoxBox.obj
 0002:00003bc8       __real@ba83126f            0000000180275bc8     GuContactBoxBox.obj
 0002:00003bcc       __real@bf800000            0000000180275bcc     GuContactBoxBox.obj
 0002:00003bd0       __real@ff7fffff            0000000180275bd0     GuContactBoxBox.obj
 0002:00003c10       ??_C@_0FP@DNFFFCHO@geometry?4getType?$CI?$CJ?$DN?$DN?5PxGeometryT@ 0000000180275c10     GuContactCapsuleBox.obj
 0002:00003c88       ??_C@_0DE@EDBMMIFG@?4?4?2?4?4?2GeomUtils?2src?2contact?2GuCo@ 0000000180275c88     GuContactCapsuleBox.obj
 0002:00003cc8       ??_C@_08CLAMOLMC@d0?$DO?$DN0?40f?$AA@ 0000000180275cc8     GuContactCapsuleBox.obj
 0002:00003cd8       ??_C@_08OHKGOLFM@d1?$DO?$DN0?40f?$AA@ 0000000180275cd8     GuContactCapsuleBox.obj
 0002:00003ce8       ??_C@_0BH@OJMCGBAA@contactBuffer?4count?$DN?$DN0?$AA@ 0000000180275ce8     GuContactCapsuleBox.obj
 0002:00003d38       __real@3f7ff2e5            0000000180275d38     GuContactCapsuleCapsule.obj
 0002:00003d68       ??_7RefCountable@Cm@physx@@6B@ 0000000180275d68     GuContactCapsuleConvex.obj
 0002:00003d80       ??_C@_0L@EGHDLJIP@isFinite?$CI?$CJ?$AA@ 0000000180275d80     GuContactCapsuleConvex.obj
 0002:00003d90       ??_C@_0N@PMAOLNPB@src?4isSane?$CI?$CJ?$AA@ 0000000180275d90     GuContactCapsuleConvex.obj
 0002:00003da0       ??_7ConvexMesh@Gu@physx@@6BPxConvexMesh@2@@ 0000000180275da0     GuContactCapsuleConvex.obj
 0002:00003e48       ??_7ConvexMesh@Gu@physx@@6BRefCountable@Cm@2@@ 0000000180275e48     GuContactCapsuleConvex.obj
 0002:00003e60       ??_C@_0EC@OEMDOKOC@D?3?2github?2fork?2PhysX?93?44?2PhysX_3@ 0000000180275e60     GuContactCapsuleConvex.obj
 0002:00003eb0       ??_C@_0L@PAMJDFLA@r?4isUnit?$CI?$CJ?$AA@ 0000000180275eb0     GuContactCapsuleConvex.obj
 0002:00003ec0       ??_C@_0FG@OHKFPHOK@d?3?2github?2fork?2physx?93?44?2pxshare@ 0000000180275ec0     GuContactCapsuleConvex.obj
 0002:00003f28       ??_C@_0BB@OMCPGIOD@isValidFloatV?$CIa?$CJ?$AA@ 0000000180275f28     GuContactCapsuleConvex.obj
 0002:00003f40       ??_C@_0BB@OOGJNGLK@isValidFloatV?$CIb?$CJ?$AA@ 0000000180275f40     GuContactCapsuleConvex.obj
 0002:00003f58       ??_C@_0BG@JKJBBGNK@isAligned16?$CI?$CIvoid?$CK?$CJf?$CJ?$AA@ 0000000180275f58     GuContactCapsuleConvex.obj
 0002:00003f78       ??_C@_0BB@OJGAHOGG@isValidFloatV?$CIf?$CJ?$AA@ 0000000180275f78     GuContactCapsuleConvex.obj
 0002:00003f90       ?absMask@?1??FAbs@aos@shdfnd@physx@@YA?AT__m128@@T5@@Z@4QBIB 0000000180275f90     GuContactCapsuleConvex.obj
 0002:00003fb0       ??_C@_0GF@JAKLMPAH@_VecMathTests?3?3allElementsEqualB@ 0000000180275fb0     GuContactCapsuleConvex.obj
 0002:00004030       ??_C@_0EA@IEMLEPDC@isValidFloatV?$CI_mm_or_ps?$CI_mm_andn@ 0000000180276030     GuContactCapsuleConvex.obj
 0002:00004080       ??_C@_0BE@HFOOGHAI@isValidFloatV?$CIminV?$CJ?$AA@ 0000000180276080     GuContactCapsuleConvex.obj
 0002:00004098       ??_C@_0BE@DAOMCEIK@isValidFloatV?$CImaxV?$CJ?$AA@ 0000000180276098     GuContactCapsuleConvex.obj
 0002:000040b0       ??_C@_0BA@EJAEAJHD@isValidVec3V?$CIf?$CJ?$AA@ 00000001802760b0     GuContactCapsuleConvex.obj
 0002:000040c8       ??_C@_0BA@EMELBPPG@isValidVec3V?$CIa?$CJ?$AA@ 00000001802760c8     GuContactCapsuleConvex.obj
 0002:000040e0       ??_C@_0BA@EOANKBKP@isValidVec3V?$CIb?$CJ?$AA@ 00000001802760e0     GuContactCapsuleConvex.obj
 0002:000040f8       ??_C@_0BA@EPMPMLJI@isValidVec3V?$CIc?$CJ?$AA@ 00000001802760f8     GuContactCapsuleConvex.obj
 0002:00004110       ??_C@_0DP@KKHMGJKM@isValidVec3V?$CI_mm_or_ps?$CI_mm_andno@ 0000000180276110     GuContactCapsuleConvex.obj
 0002:00004160       ??_C@_0BD@BGLLKHIK@isValidVec3V?$CIcol0?$CJ?$AA@ 0000000180276160     GuContactCapsuleConvex.obj
 0002:00004178       ??_C@_0BD@BHHJMNLN@isValidVec3V?$CIcol1?$CJ?$AA@ 0000000180276178     GuContactCapsuleConvex.obj
 0002:00004190       ??_C@_0BD@BFDPHDOE@isValidVec3V?$CIcol2?$CJ?$AA@ 0000000180276190     GuContactCapsuleConvex.obj
 0002:000041b0       ??_C@_0EO@FJINHCEN@D?3?2github?2fork?2PhysX?93?44?2PhysX_3@ 00000001802761b0     GuContactCapsuleConvex.obj
 0002:00004210       ??_C@_0BK@PIEDIJND@?$CBV3AllEq?$CIscale?0?5V3Zero?$CI?$CJ?$CJ?$AA@ 0000000180276210     GuContactCapsuleConvex.obj
 0002:00004230       ??_7GjkConvexBase@Gu@physx@@6B@ 0000000180276230     GuContactCapsuleConvex.obj
 0002:00004270       ??_7GjkConvex@Gu@physx@@6B@ 0000000180276270     GuContactCapsuleConvex.obj
 0002:000042b0       ??_C@_0EL@FKHBADLO@d?3?2github?2fork?2physx?93?44?2physx_3@ 00000001802762b0     GuContactCapsuleConvex.obj
 0002:00004310       ??_C@_0DH@LNHJNALG@?4?4?2?4?4?2GeomUtils?2src?2contact?2GuCo@ 0000000180276310     GuContactCapsuleConvex.obj
 0002:00004358       ??_C@_0CJ@FGHBBMCA@PxAbs?$CInormal?4magnitudeSquared?$CI?$CJ?9@ 0000000180276358     GuContactCapsuleConvex.obj
 0002:00004390       ??_7?$LocalConvex@VCapsuleV@Gu@physx@@@Gu@physx@@6B@ 0000000180276390     GuContactCapsuleConvex.obj
 0002:000043d0       ??_7?$LocalConvex@VConvexHullV@Gu@physx@@@Gu@physx@@6B@ 00000001802763d0     GuContactCapsuleConvex.obj
 0002:00004410       ??_C@_0ED@PFFLFHPD@d?3?2github?2fork?2physx?93?44?2pxshare@ 0000000180276410     GuContactCapsuleConvex.obj
 0002:00004460       ??_C@_0EE@FDMPGJFL@D?3?2github?2fork?2PhysX?93?44?2PhysX_3@ 0000000180276460     GuContactCapsuleConvex.obj
 0002:000044b8       ??_C@_08PHAGGDFH@size?5?$DM?54?$AA@ 00000001802764b8     GuContactCapsuleConvex.obj
 0002:000044c4       __real@33d6bf95            00000001802764c4     GuContactCapsuleConvex.obj
 0002:000044c8       __real@34000000            00000001802764c8     GuContactCapsuleConvex.obj
 0002:000044cc       __real@3727c5ac            00000001802764cc     GuContactCapsuleConvex.obj
 0002:000044d0       __real@38d1b717            00000001802764d0     GuContactCapsuleConvex.obj
 0002:000044d4       __real@396bedfa            00000001802764d4     GuContactCapsuleConvex.obj
 0002:000044d8       __real@3ccccccd            00000001802764d8     GuContactCapsuleConvex.obj
 0002:000044dc       __real@3d4ccccd            00000001802764dc     GuContactCapsuleConvex.obj
 0002:000044e0       __real@3dcccccd            00000001802764e0     GuContactCapsuleConvex.obj
 0002:000044e4       __real@3e4ccccd            00000001802764e4     GuContactCapsuleConvex.obj
 0002:000044e8       __real@b3d6bf95            00000001802764e8     GuContactCapsuleConvex.obj
 0002:000044f0       __xmm@00000000ffffffffffffffffffffffff 00000001802764f0     GuContactCapsuleConvex.obj
 0002:00004510       __xmm@ffffffffffffffffffffffffffffffff 0000000180276510     GuContactCapsuleConvex.obj
 0002:000045f0       ??_C@_0EH@OBIALBKA@D?3?2github?2fork?2PhysX?93?44?2PhysX_3@ 00000001802765f0     GuContactCapsuleMesh.obj
 0002:00004648       ??_C@_09GLGJMIMJ@isValid?$CI?$CJ?$AA@ 0000000180276648     GuContactCapsuleMesh.obj
 0002:00004658       ??_C@_0BB@GKJHIFOF@bounds?4isValid?$CI?$CJ?$AA@ 0000000180276658     GuContactCapsuleMesh.obj
 0002:00004670       ??_C@_0O@PBAKPCEC@PxHeightField?$AA@ 0000000180276670     GuContactCapsuleMesh.obj
 0002:00004680       ??_7PxHeightField@physx@@6B@ 0000000180276680     GuContactCapsuleMesh.obj
 0002:00004740       ??_C@_0EL@EDJLEAPG@d?3?2github?2fork?2physx?93?44?2physx_3@ 0000000180276740     GuContactCapsuleMesh.obj
 0002:000047a0       ??_C@_0BL@KDIAIEJL@isValidVertex?$CIvertexIndex?$CJ?$AA@ 00000001802767a0     GuContactCapsuleMesh.obj
 0002:000047c0       ??_C@_0BG@GBAEBKEF@cell?5?$DN?$DN?5edgeIndex?5?1?53?$AA@ 00000001802767c0     GuContactCapsuleMesh.obj
 0002:000047e0       ??_C@_0EP@NHABGMDA@D?3?2github?2fork?2PhysX?93?44?2PhysX_3@ 00000001802767e0     GuContactCapsuleMesh.obj
 0002:00004840       ??_C@_0DD@LOMMHFKH@mHfGeom?9?$DOheightScale?5?$DO?$DN?5PX_MIN_H@ 0000000180276840     GuContactCapsuleMesh.obj
 0002:00004880       ??_C@_0CL@PIHMIDKP@absRowScale?5?$DO?$DN?5PX_MIN_HEIGHTFIEL@ 0000000180276880     GuContactCapsuleMesh.obj
 0002:000048b8       ??_C@_0CL@OMOEBLIK@absColScale?5?$DO?$DN?5PX_MIN_HEIGHTFIEL@ 00000001802768b8     GuContactCapsuleMesh.obj
 0002:000048f0       ??_C@_0DG@OPFLNCLI@row?5?$DN?$DN?5vertexIndex?5?1?5mHeightFiel@ 00000001802768f0     GuContactCapsuleMesh.obj
 0002:00004930       ??_C@_0DJ@FIPNBJOF@column?5?$DN?$DN?5vertexIndex?5?$CF?5mHeightF@ 0000000180276930     GuContactCapsuleMesh.obj
 0002:00004978       ??_C@_0DF@NKMEJLOE@?4?4?2?4?4?2GeomUtils?2src?2contact?2GuCo@ 0000000180276978     GuContactCapsuleMesh.obj
 0002:000049b8       ??_7?$MeshHitCallback@UPxRaycastHit@physx@@@Gu@physx@@6B@ 00000001802769b8     GuContactCapsuleMesh.obj
 0002:00004a00       ??_7?$EntityReport@I@Gu@physx@@6B@ 0000000180276a00     GuContactCapsuleMesh.obj
 0002:00004a2c       __real@28800000            0000000180276a2c     GuContactCapsuleMesh.obj
 0002:00004a30       __real@30d1b7e9            0000000180276a30     GuContactCapsuleMesh.obj
 0002:00004a34       __real@322bcc77            0000000180276a34     GuContactCapsuleMesh.obj
 0002:00004a38       __real@358637be            0000000180276a38     GuContactCapsuleMesh.obj
 0002:00004a3c       __real@3eaaaaab            0000000180276a3c     GuContactCapsuleMesh.obj
 0002:00004a68       ??_C@_0DG@IIFABMMK@?4?4?2?4?4?2GeomUtils?2src?2contact?2GuCo@ 0000000180276a68     GuContactConvexConvex.obj
 0002:00004aa8       ??_C@_0DH@EIJLNPOD@d?5?$CL?5testInternalObjectsEpsilon?$CKt@ 0000000180276aa8     GuContactConvexConvex.obj
 0002:00004af0       ??_C@_0BD@HLIPFKHK@id?$CB?$DNPX_INVALID_U32?$AA@ 0000000180276af0     GuContactConvexConvex.obj
 0002:00004b08       ??_C@_0BE@NBEHHODA@id0?$CB?$DNPX_INVALID_U32?$AA@ 0000000180276b08     GuContactConvexConvex.obj
 0002:00004b20       ??_C@_0BE@DOBFMINB@id1?$CB?$DNPX_INVALID_U32?$AA@ 0000000180276b20     GuContactConvexConvex.obj
 0002:00004b38       ??_C@_0BD@FINBDCHL@separation?5?$DO?$DN?50?40f?$AA@ 0000000180276b38     GuContactConvexConvex.obj
 0002:00004c10       ??_C@_0DE@LHEEBKCA@?4?4?2?4?4?2GeomUtils?2src?2contact?2GuCo@ 0000000180276c10     GuContactConvexMesh.obj
 0002:00004c50       ??_C@_0DL@GDOIKKKJ@dtest?5?$CL?5testInternalObjectsEpsil@ 0000000180276c50     GuContactConvexMesh.obj
 0002:00004c98       ??_7ConvexMeshContactGenerationCallback@@6B@ 0000000180276c98     GuContactConvexMesh.obj
 0002:00004cb0       ??_C@_0DC@EOIKHBHI@shape1?4getType?$CI?$CJ?5?$DN?$DN?5PxGeometryTy@ 0000000180276cb0     GuContactConvexMesh.obj
 0002:00004d38       ??_C@_0DC@JFDLPFPI@?4?4?2?4?4?2GeomUtils?2src?2contact?2GuCo@ 0000000180276d38     GuContactPlaneBox.obj
 0002:00004dd8       ??_C@_0DI@IAOKNCL@?4?4?2?4?4?2GeomUtils?2src?2contact?2GuCo@ 0000000180276dd8     GuContactPolygonPolygon.obj
 0002:00004e20       ??_C@_0CF@LDBPJJBP@indices0?5?$CB?$DN?5NULL?5?$CG?$CG?5indices1?5?$CB?$DN?5@ 0000000180276e20     GuContactPolygonPolygon.obj
 0002:00004e4c       __real@3c8efa35            0000000180276e4c     GuContactPolygonPolygon.obj
 0002:00004e50       __real@3f7ff972            0000000180276e50     GuContactPolygonPolygon.obj
 0002:00004e54       __real@41000000            0000000180276e54     GuContactPolygonPolygon.obj
 0002:00004e58       __real@43340000            0000000180276e58     GuContactPolygonPolygon.obj
 0002:00004e5c       __real@b58637bd            0000000180276e5c     GuContactPolygonPolygon.obj
 0002:00004f80       ??_C@_0DL@OAFGOMGB@Dropping?5contacts?5in?5sphere?5vs?5m@ 0000000180276f80     GuContactSphereMesh.obj
 0002:00004fc8       ??_C@_0DE@ENPODGDE@?4?4?2?4?4?2GeomUtils?2src?2contact?2GuCo@ 0000000180276fc8     GuContactSphereMesh.obj
 0002:00005050       ??_C@_0EC@MALBFBKI@D?3?2github?2fork?2PhysX?93?44?2PxShare@ 0000000180277050     GuContactSphereMesh.obj
 0002:000050a0       ??_C@_0CE@KHOCKGAK@first?5?$DO?$DN?50?5?$CG?$CG?5last?5?$DM?5int32_t?$CIcou@ 00000001802770a0     GuContactSphereMesh.obj
 0002:000050d0       ??_C@_0CH@IDCBKFGC@?$CBcompare?$CIelements?$FLi?$FN?0?5elements?$FLi@ 00000001802770d0     GuContactSphereMesh.obj
 0002:00005100       ??_C@_0EL@KECEOIEJ@d?3?2github?2fork?2physx?93?44?2pxshare@ 0000000180277100     GuContactSphereMesh.obj
 0002:00005160       ??_C@_08JNEJNCCA@?$CBempty?$CI?$CJ?$AA@ 0000000180277160     GuContactSphereMesh.obj
 0002:00005170       ??_C@_0BI@CKODGONH@i?5?$DM?$DN?5last?5?$CG?$CG?5j?5?$DO?$DN?5first?$AA@ 0000000180277170     GuContactSphereMesh.obj
 0002:00005190       ??_C@_0CB@GKHFJDAL@i?5?$DM?$DN?5last?5?$CG?$CG?5first?5?$DM?$DN?5?$CIlast?5?9?51?$CJ@ 0000000180277190     GuContactSphereMesh.obj
 0002:00005218       __real@bf000000            0000000180277218     GuContactSphereSphere.obj
 0002:000052d8       ??_C@_0DO@FFMIPJHP@?4?4?2?4?4?2GeomUtils?2src?2contact?2GuLe@ 00000001802772d8     GuLegacyContactBoxHeightField.obj
 0002:00005328       ??_C@_0CG@LNPBKPMA@faceNormal?4magnitudeSquared?$CI?$CJ?5?$CB?$DN@ 0000000180277328     GuLegacyContactBoxHeightField.obj
 0002:00005358       ??_C@_0BF@OAOCOJDG@nbVi?5?$DO?50?5?$CG?$CG?5nbUi?5?$DO?50?$AA@ 0000000180277358     GuLegacyContactBoxHeightField.obj
 0002:00005378       ??_C@_0BJ@HMKBPNAD@tu?5?$DO?$DN?50?40f?5?$CG?$CG?5tv?5?$DO?$DN?50?40f?$AA@ 0000000180277378     GuLegacyContactBoxHeightField.obj
 0002:000053a0       ??_C@_0FF@MNCGIKLK@ui?5?$DO?$DN?50?5?9?5expandu?5?$CG?$CG?5ui?5?$DM?5nbUi?5?$CL@ 00000001802773a0     GuLegacyContactBoxHeightField.obj
 0002:00005410       ??_C@_0HF@MDNPPAHK@ui?$CLstep_ui?5?$DO?$DN?50?5?9?5expandu?5?$CG?$CG?5ui?$CL@ 0000000180277410     GuLegacyContactBoxHeightField.obj
 0002:0000549c       __real@1e3ce508            000000018027749c     GuLegacyContactBoxHeightField.obj
 0002:000054a0       __real@2edbe6ff            00000001802774a0     GuLegacyContactBoxHeightField.obj
 0002:000054a4       __real@3f7ffffe            00000001802774a4     GuLegacyContactBoxHeightField.obj
 0002:000054a8       __real@3f800347            00000001802774a8     GuLegacyContactBoxHeightField.obj
 0002:000054d8       ??_C@_0CK@BEALMDOI@row?5?$CK?5getNbColumnsFast?$CI?$CJ?5?$CL?5colum@ 00000001802774d8     GuLegacyContactCapsuleHeightField.obj
 0002:00005510       ??_C@_0EC@CNBPDEGP@?4?4?2?4?4?2GeomUtils?2src?2contact?2GuLe@ 0000000180277510     GuLegacyContactCapsuleHeightField.obj
 0002:00005560       ??_C@_0BN@KOBDPHEK@vertexIndex?5?$DN?$DN?5edgeIndex?5?1?53?$AA@ 0000000180277560     GuLegacyContactCapsuleHeightField.obj
 0002:00005588       ??_C@_0CL@OLNALIMI@row?5?$DN?$DN?5vertexIndex?5?1?5hf?4getNbCol@ 0000000180277588     GuLegacyContactCapsuleHeightField.obj
 0002:000055c0       ??_C@_0CO@PLNODNJB@column?5?$DN?$DN?5vertexIndex?5?$CF?5hf?4getNb@ 00000001802775c0     GuLegacyContactCapsuleHeightField.obj
 0002:00005630       ??_C@_0EN@FLKDHDDM@D?3?2github?2fork?2PhysX?93?44?2PhysX_3@ 0000000180277630     GuLegacyContactConvexHeightField.obj
 0002:00005690       ??_C@_0BD@HOPNPOK@vertex1?5?$DO?$DN?5vertex0?$AA@ 0000000180277690     GuLegacyContactConvexHeightField.obj
 0002:000056b0       ??_C@_0EB@FPNCBNA@?4?4?2?4?4?2GeomUtils?2src?2contact?2GuLe@ 00000001802776b0     GuLegacyContactConvexHeightField.obj
 0002:00005728       ??_C@_0CL@IMLOOPCB@PxAbs?$CIworldNormalIn?4magnitude?$CI?$CJ?5@ 0000000180277728     GuLegacyContactSphereHeightField.obj
 0002:00005760       ??_C@_0EB@FFKOLKDG@?4?4?2?4?4?2GeomUtils?2src?2contact?2GuLe@ 0000000180277760     GuLegacyContactSphereHeightField.obj
 0002:000057b0       ??_C@_0CE@ELLGKPMD@isCapsule?5?$HM?$HM?5contactBuffer?4count@ 00000001802777b0     GuLegacyContactSphereHeightField.obj
 0002:000057e0       ??_C@_0CC@OFKEAJMB@closestFeatures?$FLpi?$FN?5?$CB?$DN?50xfffffff@ 00000001802777e0     GuLegacyContactSphereHeightField.obj
 0002:00005808       ??_C@_0DH@JCEPPAHJ@contactBuffer?4contacts?$FLk?$FN?4forInt@ 0000000180277808     GuLegacyContactSphereHeightField.obj
 0002:00005850       ??_C@_0DJ@OBHEBGEM@contactBuffer?4contacts?$FLk?$FN?4forInt@ 0000000180277850     GuLegacyContactSphereHeightField.obj
 0002:000058c8       ??_C@_0BA@DPPPOJBK@value?5?$DM?$DN?50xffff?$AA@ 00000001802778c8     GuBigConvexData.obj
 0002:000058e0       ??_C@_0BD@PGLLAGCI@BigConvexData?5data?$AA@ 00000001802778e0     GuBigConvexData.obj
 0002:000058f8       ??_C@_0CP@JIINMLKM@?4?4?2?4?4?2GeomUtils?2src?2convex?2GuBig@ 00000001802778f8     GuBigConvexData.obj
 0002:00005930       ??_C@_0CK@PBMKBIBC@0?5?$DN?$DN?5?$CIsize_t?$CImData?4mAdjacentVert@ 0000000180277930     GuBigConvexData.obj
 0002:00005968       ??_C@_0L@MNDLJEDL@Version?$DN?$DN2?$AA@ 0000000180277968     GuBigConvexData.obj
 0002:00005978       ??_C@_0BH@NIMDLCCM@BigConvex?5Samples?5Data?$AA@ 0000000180277978     GuBigConvexData.obj
 0002:000059c8       ??_C@_0DP@HFOKONNJ@D?3?2github?2fork?2PhysX?93?44?2PhysX_3@ 00000001802779c8     GuConvexHelper.obj
 0002:00005a18       ??_C@_0O@PKDMNMFL@isValid?$CIc?0?5e?$CJ?$AA@ 0000000180277a18     GuConvexHelper.obj
 0002:00005a30       ??_C@_0EK@NBOJAPN@D?3?2github?2fork?2PhysX?93?44?2PhysX_3@ 0000000180277a30     GuConvexHelper.obj
 0002:00005a88       ??_C@_0CO@FOLIGLOK@?4?4?2?4?4?2GeomUtils?2src?2convex?2GuCon@ 0000000180277a88     GuConvexHelper.obj
 0002:00005ac0       ??_C@_0CH@GCHNPLOI@?$CBshapeConvex?4hullData?9?$DOmAABB?4isE@ 0000000180277ac0     GuConvexHelper.obj
 0002:00005af0       ??_C@_0EE@HBPDODHM@Internal?5error?3?5max?5nb?5edges?5rea@ 0000000180277af0     GuConvexHelper.obj
 0002:00005b50       ??_C@_0EG@JOEFLBMN@D?3?2github?2fork?2PhysX?93?44?2PhysX_3@ 0000000180277b50     GuConvexMesh.obj
 0002:00005ba8       ??_C@_0N@BBDNFLJE@mRefCount?$CB?$DN0?$AA@ 0000000180277ba8     GuConvexMesh.obj
 0002:00005bb8       ??_C@_0M@KBEGFDDG@mRefCount?$DO1?$AA@ 0000000180277bb8     GuConvexMesh.obj
 0002:00005bc8       ??_C@_0M@LIFNGCHH@mRefCount?$DO0?$AA@ 0000000180277bc8     GuConvexMesh.obj
 0002:00005bd8       ??_C@_0BE@EJGGFHND@ConvexHullData?5data?$AA@ 0000000180277bd8     GuConvexMesh.obj
 0002:00005bf0       ??_C@_0CM@DABFPBIC@?4?4?2?4?4?2GeomUtils?2src?2convex?2GuCon@ 0000000180277bf0     GuConvexMesh.obj
 0002:00005c28       ??_C@_0CO@ECOAJMAD@?$CB?$CIsize_t?$CImDataHullVertices?$CJ?5?$CF?5si@ 0000000180277c28     GuConvexMesh.obj
 0002:00005c60       ??_C@_0CL@HKBLGOPN@?$CB?$CIsize_t?$CIdata?4mPolygons?$CJ?5?$CF?5sizeo@ 0000000180277c60     GuConvexMesh.obj
 0002:00005c98       ??_C@_0DB@PCJABBEE@size_t?$CIaddress?$CJ?$DM?$DNsize_t?$CImDataMem@ 0000000180277c98     GuConvexMesh.obj
 0002:00005cd8       ??_C@_0DM@NEJKOFIP@Loading?5convex?5mesh?5failed?3?5Depr@ 0000000180277cd8     GuConvexMesh.obj
 0002:00005d20       ??_C@_0BF@JBFMCKMN@gaussMapFlag?5?$DN?$DN?51?40f?$AA@ 0000000180277d20     GuConvexMesh.obj
 0002:00005d40       ??_C@_0HF@GOPNJBOH@PxVec3?$CImHullData?4mInternal?4mExte@ 0000000180277d40     GuConvexMesh.obj
 0002:00005dd0       ??_C@_0CI@KCPCKDKC@mHullData?4mInternal?4mExtents?$FL0?$FN?5@ 0000000180277dd0     GuConvexMesh.obj
 0002:00005e00       ??_C@_0CI@GDHMHMGC@mHullData?4mInternal?4mExtents?$FL1?$FN?5@ 0000000180277e00     GuConvexMesh.obj
 0002:00005e30       ??_C@_0CI@PKJOBKGD@mHullData?4mInternal?4mExtents?$FL2?$FN?5@ 0000000180277e30     GuConvexMesh.obj
 0002:00005e60       ??_C@_0DD@GDAMDLJL@Gu?3?3ConvexMesh?3?3release?3?5double?5@ 0000000180277e60     GuConvexMesh.obj
 0002:00005ea0       ??_C@_0BK@JMCAOFLN@mHullData?4mAABB?4isValid?$CI?$CJ?$AA@ 0000000180277ea0     GuConvexMesh.obj
 0002:00005ef0       __xmm@000000000000000000000000ffffffff 0000000180277ef0     GuConvexSupportTable.obj
 0002:00005f10       __xmm@0000000000000000ffffffff00000000 0000000180277f10     GuConvexSupportTable.obj
 0002:00005f30       __xmm@0000000000000000ffffffffffffffff 0000000180277f30     GuConvexSupportTable.obj
 0002:00005f50       __xmm@00000000ffffffff0000000000000000 0000000180277f50     GuConvexSupportTable.obj
 0002:00005f70       __xmm@00000000ffffffff00000000ffffffff 0000000180277f70     GuConvexSupportTable.obj
 0002:00005f90       __xmm@00000000ffffffffffffffff00000000 0000000180277f90     GuConvexSupportTable.obj
 0002:00005fd8       ??_C@_0CO@BGMKCFHK@?4?4?2?4?4?2GeomUtils?2src?2convex?2GuHil@ 0000000180277fd8     GuHillClimbing.obj
 0002:00006010       ??_C@_0N@EBIPONNP@verts?5?$CG?$CG?5val?$AA@ 0000000180278010     GuHillClimbing.obj
 0002:00006020       ??_C@_0BB@ILEENMEP@Valencies?5?$CG?$CG?5Adj?$AA@ 0000000180278020     GuHillClimbing.obj
 0002:00006058       ??_C@_0CN@HEHHLFAL@?4?4?2?4?4?2GeomUtils?2src?2convex?2GuSha@ 0000000180278058     GuShapeConvex.obj
 0002:00006090       ??_C@_08PJAGNENM@maxDp?$DO?$DN0?$AA@ 0000000180278090     GuShapeConvex.obj
 0002:000060a0       ??_C@_0BD@ELJMHHHN@maximum?5?$DO?$DN?5minimum?$AA@ 00000001802780a0     GuShapeConvex.obj
 0002:000060b8       ??_C@_0BJ@LGLNNFAE@ED?$FLclosestEdge?$FN?4Count?$DN?$DN2?$AA@ 00000001802780b8     GuShapeConvex.obj
 0002:000060d8       ??_C@_0CP@KIMKGGGP@mPolygons?$FL1?$FN?4getMin?$CImVertices?$CJ?5?$DN@ 00000001802780d8     GuShapeConvex.obj
 0002:00006110       ??_C@_0CP@HCFLEOBA@mPolygons?$FL3?$FN?4getMin?$CImVertices?$CJ?5?$DN@ 0000000180278110     GuShapeConvex.obj
 0002:00006148       ??_C@_0CP@FPHCBGIO@mPolygons?$FL4?$FN?4getMin?$CImVertices?$CJ?5?$DN@ 0000000180278148     GuShapeConvex.obj
 0002:00006180       ??_C@_0CP@NPICABJB@mPolygons?$FL5?$FN?4getMin?$CImVertices?$CJ?5?$DN@ 0000000180278180     GuShapeConvex.obj
 0002:000061b8       ??_C@_0CP@MAJNDLIN@mPolygons?$FL2?$FN?4getMin?$CImVertices?$CJ?5?$DN@ 00000001802781b8     GuShapeConvex.obj
 0002:000061f0       ??_C@_0CP@BKAMBDPC@mPolygons?$FL0?$FN?4getMin?$CImVertices?$CJ?5?$DN@ 00000001802781f0     GuShapeConvex.obj
 0002:00006228       __real@bf3504f3            0000000180278228     GuShapeConvex.obj
 0002:00006288       ??_C@_0BB@OPKLLMIN@isValidFloatV?$CIc?$CJ?$AA@ 0000000180278288     GuDistanceSegmentSegment.obj
 0002:000062c8       __real@2b8cbccc            00000001802782c8     GuDistanceSegmentTriangle.obj
 0002:000062f8       ??_C@_0CM@ECLAEIKF@?4?4?2?4?4?2GeomUtils?2src?2sweep?2GuSwee@ 00000001802782f8     GuSweepBoxBox.obj
 0002:00006330       ??_C@_0N@KNDEANMD@edgeIndex?$DM12?$AA@ 0000000180278330     GuSweepBoxBox.obj
 0002:00006368       __real@41200000            0000000180278368     GuSweepBoxSphere.obj
 0002:0000636c       __real@b727c5ac            000000018027836c     GuSweepBoxSphere.obj
 0002:00006398       ??_C@_0DO@OPNPODDL@?4?4?2?4?4?2GeomUtils?2src?2sweep?2GuSwee@ 0000000180278398     GuSweepBoxTriangle_FeatureBased.obj
 0002:000063f0       ??_C@_0EK@MFHHLMHC@plane?5?$DN?$DN?5intersectRayAABB?$CIMin?0?5M@ 00000001802783f0     GuSweepBoxTriangle_FeatureBased.obj
 0002:00006448       ??_C@_0BK@NNMDBNO@saved_j?5?$CB?$DN?5PX_INVALID_U32?$AA@ 0000000180278448     GuSweepBoxTriangle_FeatureBased.obj
 0002:00006468       ??_C@_0BK@GILLAKJI@saved_k?5?$CB?$DN?5PX_INVALID_U32?$AA@ 0000000180278468     GuSweepBoxTriangle_FeatureBased.obj
 0002:00006488       __real@3ca3d70a            0000000180278488     GuSweepBoxTriangle_FeatureBased.obj
 0002:000064e8       ??_C@_0DA@IFKKGIIO@?4?4?2?4?4?2GeomUtils?2src?2sweep?2GuSwee@ 00000001802784e8     GuSweepCapsuleBox.obj
 0002:00006528       ??_C@_0N@JMKKNOMA@nbTris?$DM?$DN12?$CK7?$AA@ 0000000180278528     GuSweepCapsuleBox.obj
 0002:00006570       ??_C@_0FF@DLDLOFEK@d?3?2github?2fork?2physx?93?44?2physx_3@ 0000000180278570     GuSweepCapsuleTriangle.obj
 0002:000065d8       ??_C@_0BG@CGMKKMHE@?$CKcachedIndex?5?$DM?5nbTris?$AA@ 00000001802785d8     GuSweepCapsuleTriangle.obj
 0002:000065f8       ??_C@_0BI@NPIPIEPD@normal?4dot?$CIdir?$CJ?5?$DM?$DN?50?40f?$AA@ 00000001802785f8     GuSweepCapsuleTriangle.obj
 0002:00006614       __real@3b03126f            0000000180278614     GuSweepCapsuleTriangle.obj
 0002:00006618       __real@3f7fff58            0000000180278618     GuSweepCapsuleTriangle.obj
 0002:00006620       ??_C@_0DC@OPFNJFGG@?4?4?2?4?4?2GeomUtils?2src?2sweep?2GuSwee@ 0000000180278620     GuSweepSphereSphere.obj
 0002:00006660       ??_C@_07KBLCOPNC@a?$CB?$DN0?40f?$AA@ 0000000180278660     GuSweepSphereSphere.obj
 0002:0000666c       __real@40800000            000000018027866c     GuSweepSphereSphere.obj
 0002:00006698       ??_C@_0DE@FJLCAKOC@?4?4?2?4?4?2GeomUtils?2src?2sweep?2GuSwee@ 0000000180278698     GuSweepSphereTriangle.obj
 0002:000066d8       ??_C@_09ONFGPHMK@u?$CLv?$DO?$DN1?40f?$AA@ 00000001802786d8     GuSweepSphereTriangle.obj
 0002:000066e8       ??_C@_07HLDKBCHH@v?$DO?$DN1?40f?$AA@ 00000001802786e8     GuSweepSphereTriangle.obj
 0002:00006728       ??_7?$LocalConvex@VTriangleV@Gu@physx@@@Gu@physx@@6B@ 0000000180278728     GuSweepTriangleUtils.obj
 0002:00006768       ??_7?$LocalConvex@VBoxV@Gu@physx@@@Gu@physx@@6B@ 0000000180278768     GuSweepTriangleUtils.obj
 0002:000067a8       ??_C@_0DD@MPCABPBN@?4?4?2?4?4?2GeomUtils?2src?2sweep?2GuSwee@ 00000001802787a8     GuSweepTriangleUtils.obj
 0002:000067e8       ??_C@_0M@GMHMIFE@ADotA?$CB?$DN0?40f?$AA@ 00000001802787e8     GuSweepTriangleUtils.obj
 0002:000067f8       ??_C@_0M@PPNGBNEH@BDotB?$CB?$DN0?40f?$AA@ 00000001802787f8     GuSweepTriangleUtils.obj
 0002:00006808       __real@3eaaaa9f            0000000180278808     GuSweepTriangleUtils.obj
 0002:00006850       ??_C@_0O@PJMNGHOI@value?5?$DM?$DN?50x7f?$AA@ 0000000180278850     GuEPA.obj
 0002:00006860       ??_C@_0EJ@HKHBEMPA@d?3?2github?2fork?2physx?93?44?2physx_3@ 0000000180278860     GuEPA.obj
 0002:000068b8       ??_C@_0M@LNIGABHK@m_index?5?$DM?53?$AA@ 00000001802788b8     GuEPA.obj
 0002:000068c8       ??_C@_0BC@LIJHKLAA@m_Size?5?$DM?5MaxEdges?$AA@ 00000001802788c8     GuEPA.obj
 0002:000068e0       ??_C@_0P@HAJKNGOK@index?5?$DM?5m_Size?$AA@ 00000001802788e0     GuEPA.obj
 0002:000068f8       ??_C@_0CC@FCABCMKM@?4?4?2?4?4?2GeomUtils?2src?2gjk?2GuEPA?4cp@ 00000001802788f8     GuEPA.obj
 0002:00006920       ??_C@_0CB@PHNOJDBP@i0?5?$CB?$DN?5i1?5?$CG?$CG?5i0?5?$CB?$DN?5i2?5?$CG?$CG?5i1?5?$CB?$DN?5i2@ 0000000180278920     GuEPA.obj
 0002:00006948       ??_C@_0CI@CAIKJMIF@facetManager?4getNumUsedID?$CI?$CJ?5?$DM?5Ma@ 0000000180278948     GuEPA.obj
 0002:00006978       ??_C@_0L@ODIJAOKC@f?9?$DOValid?$CI?$CJ?$AA@ 0000000180278978     GuEPA.obj
 0002:00006988       ??_C@_0BC@JBJCCDFM@size?5?$DM?$DN?5MaxFacets?$AA@ 0000000180278988     GuEPA.obj
 0002:000069a0       ??_C@_0BH@NAOKBANN@f0?9?$DOm_planeDist?5?$DO?$DN?50?4f?$AA@ 00000001802789a0     GuEPA.obj
 0002:000069c0       ??_C@_0BH@MHMCHEBN@f1?9?$DOm_planeDist?5?$DO?$DN?50?4f?$AA@ 00000001802789c0     GuEPA.obj
 0002:000069e0       ??_C@_0BH@POLKNJFN@f2?9?$DOm_planeDist?5?$DO?$DN?50?4f?$AA@ 00000001802789e0     GuEPA.obj
 0002:00006a00       ??_C@_0BH@OJJCLNJN@f3?9?$DOm_planeDist?5?$DO?$DN?50?4f?$AA@ 0000000180278a00     GuEPA.obj
 0002:00006a20       ??_C@_0L@LEMJOOJC@firstFacet?$AA@ 0000000180278a20     GuEPA.obj
 0002:00006a30       ??_C@_08GNBMKLEF@newFacet?$AA@ 0000000180278a30     GuEPA.obj
 0002:00006a40       ??_C@_0EH@MADNLMIM@D?3?2github?2fork?2PhysX?93?44?2PhysX_3@ 0000000180278a40     GuEPA.obj
 0002:00006a98       ??_C@_0O@IHGLOLNO@mHeapSize?5?$DO?50?$AA@ 0000000180278a98     GuEPA.obj
 0002:00006aa8       ??_C@_07PAGLMNCK@valid?$CI?$CJ?$AA@ 0000000180278aa8     GuEPA.obj
 0002:00006ab8       ??_C@_0BL@OEBLPCIE@this?9?$DOmHeapSize?5?$DM?5Capacity?$AA@ 0000000180278ab8     GuEPA.obj
 0002:00006ae0       ??_C@_0EA@MGBCAKEC@D?3?2github?2fork?2PhysX?93?44?2PhysX_3@ 0000000180278ae0     GuEPA.obj
 0002:00006b30       ??_C@_09OCPDOMNM@index?5?$DM?5N?$AA@ 0000000180278b30     GuEPA.obj
 0002:00006b40       ??_C@_09JKAIBPGD@mSize?5?$DO?50?$AA@ 0000000180278b40     GuEPA.obj
 0002:00006b50       ??_C@_09IBLNIDJA@mSize?5?$DM?5N?$AA@ 0000000180278b50     GuEPA.obj
 0002:00006b88       ??_C@_0BB@PPNIPABM@isValidFloatV?$CIx?$CJ?$AA@ 0000000180278b88     GuGJKSimplex.obj
 0002:00006ba0       ??_C@_0BB@POBKJKCL@isValidFloatV?$CIy?$CJ?$AA@ 0000000180278ba0     GuGJKSimplex.obj
 0002:00006bb8       ??_C@_0BB@PMFMCEHC@isValidFloatV?$CIz?$CJ?$AA@ 0000000180278bb8     GuGJKSimplex.obj
 0002:00006bd0       ??_C@_0BB@PEIELHCB@isValidFloatV?$CIw?$CJ?$AA@ 0000000180278bd0     GuGJKSimplex.obj
 0002:00006c18       ??_C@_0L@MHFEGEFF@value?5?$DO?$DN?50?$AA@ 0000000180278c18     GuGJKTest.obj
 0002:00006c30       ??_C@_0EP@IACMBKOF@d?3?2github?2fork?2physx?93?44?2physx_3@ 0000000180278c30     GuGJKTest.obj
 0002:00006c90       ??_C@_08OCOCIPGO@bIndices?$AA@ 0000000180278c90     GuGJKTest.obj
 0002:00006ca0       ??_C@_0EE@PEAFFIFE@d?3?2github?2fork?2physx?93?44?2physx_3@ 0000000180278ca0     GuGJKTest.obj
 0002:00006d00       ??_C@_0EL@LJEELNFO@d?3?2github?2fork?2physx?93?44?2physx_3@ 0000000180278d00     GuGJKTest.obj
 0002:00006d60       ??_C@_0BH@FPPAOKKA@FAllGrtr?$CIdist?0?5FEps?$CI?$CJ?$CJ?$AA@ 0000000180278d60     GuGJKTest.obj
 0002:00006d80       ??_C@_09PHIOLFCN@size?5?$DM?$DN?54?$AA@ 0000000180278d80     GuGJKTest.obj
 0002:00006d90       ??_C@_0ED@IBPLPIP@?4?4?2?4?4?2GeomUtils?2src?2intersection@ 0000000180278d90     GuIntersectionCapsuleTriangle.obj
 0002:00006de0       ??_C@_0BH@MCDEGLHD@capsule?4p0?$CB?$DNcapsule?4p1?$AA@ 0000000180278de0     GuIntersectionCapsuleTriangle.obj
 0002:00006e00       ??_C@_0DO@FJAODJBF@D?3?2github?2fork?2PhysX?93?44?2PxShare@ 0000000180278e00     GuIntersectionCapsuleTriangle.obj
 0002:00006e50       ??_C@_08BNBHEMMD@lo?5?$DM?$DN?5hi?$AA@ 0000000180278e50     GuIntersectionCapsuleTriangle.obj
 0002:00006e88       ??_C@_0DK@MDNFFPGJ@?4?4?2?4?4?2GeomUtils?2src?2intersection@ 0000000180278e88     GuIntersectionRayBox.obj
 0002:00006ed0       ??_C@_0CP@OHMNLEPM@maximum?4x?9minimum?4x?5?$DO?$DN?5GU_MIN_AA@ 0000000180278ed0     GuIntersectionRayBox.obj
 0002:00006f08       ??_C@_0CP@MKEDGGHB@maximum?4y?9minimum?4y?5?$DO?$DN?5GU_MIN_AA@ 0000000180278f08     GuIntersectionRayBox.obj
 0002:00006f40       ??_C@_0CP@LMNABBOG@maximum?4z?9minimum?4z?5?$DO?$DN?5GU_MIN_AA@ 0000000180278f40     GuIntersectionRayBox.obj
 0002:00006f78       __real@3089705f            0000000180278f78     GuIntersectionRayBox.obj
 0002:00006f7c       __real@3a03126f            0000000180278f7c     GuIntersectionRayBox.obj
 0002:00006f80       __real@b4000000            0000000180278f80     GuIntersectionRayBox.obj
 0002:00006fc0       ??_C@_0EG@OLHGLGHI@d?3?2github?2fork?2physx?93?44?2physx_3@ 0000000180278fc0     GuBV32.obj
 0002:00007018       ??_C@_09HNGAKBJO@?$CBisLeaf?$CI?$CJ?$AA@ 0000000180279018     GuBV32.obj
 0002:00007028       ??_C@_0CE@OMNHMEKG@?4?4?2?4?4?2GeomUtils?2src?2mesh?2GuBV32?4@ 0000000180279028     GuBV32.obj
 0002:00007058       ??_C@_0BA@BGHNAIEF@?$CBmUserAllocated?$AA@ 0000000180279058     GuBV32.obj
 0002:00007070       ??_C@_0P@KDMGEHMF@BV32DataPacked?$AA@ 0000000180279070     GuBV32.obj
 0002:00007088       ??_C@_0BC@OEGIHDDI@node?4mNbNodes?5?$DO?50?$AA@ 0000000180279088     GuBV32.obj
 0002:000070c8       ??_C@_0CJ@BEAHBKOP@?4?4?2?4?4?2GeomUtils?2src?2mesh?2GuBV32B@ 00000001802790c8     GuBV32Build.obj
 0002:00007100       ??_C@_0M@CPAOFHPN@nbPrims?$DM?$DN32?$AA@ 0000000180279100     GuBV32Build.obj
 0002:00007110       ??_C@_0BI@DAEFLABI@?$CBcurrent_node?9?$DOisLeaf?$CI?$CJ?$AA@ 0000000180279110     GuBV32Build.obj
 0002:00007130       ??_C@_0BG@DALGFOLE@box_id?5?$CL?5i?5?$DM?5nb_nodes?$AA@ 0000000180279130     GuBV32Build.obj
 0002:00007150       ??_C@_0CM@HHLNNNPE@current?9?$DOmBVData?$FLi?$FN?4mData?5?$CB?$DN?5PX_@ 0000000180279150     GuBV32Build.obj
 0002:00007188       ??_C@_0BB@EMPDLHCL@CurID?5?$DN?$DN?5nbNodes?$AA@ 0000000180279188     GuBV32Build.obj
 0002:000071a0       ??_C@_0BO@NKAPGNBG@nbPackedNodes?5?$DN?$DN?5currentIndex?$AA@ 00000001802791a0     GuBV32Build.obj
 0002:000071c8       ??_C@_0BC@IODDFBOP@nbPackedNodes?5?$DO?50?$AA@ 00000001802791c8     GuBV32Build.obj
 0002:000071e0       ??_C@_05EKPNOAPD@n?5?$DO?50?$AA@ 00000001802791e0     GuBV32Build.obj
 0002:000071e8       ??_C@_0BK@DFHHCKOL@n?5?$DM?$DN?5Data?9?$DOmNbTrisPerLeaf?$AA@ 00000001802791e8     GuBV32Build.obj
 0002:00007208       ??_C@_0BH@NANHJONK@Prims?$FLi?$FN?$DMData?9?$DOmNbTris?$AA@ 0000000180279208     GuBV32Build.obj
 0002:00007228       ??_C@_0BL@ILHJBHME@Data?9?$DOmIndex?$DMData?9?$DOmNbTris?$AA@ 0000000180279228     GuBV32Build.obj
 0002:00007248       ??_C@_04DONFFMAN@BV32?$AA@ 0000000180279248     GuBV32Build.obj
 0002:00007250       ??_C@_0BE@HKLEBMIG@RD?4mIndex?5?$DN?$DN?5nbTris?$AA@ 0000000180279250     GuBV32Build.obj
 0002:00007268       ??_C@_0CD@CLDICGAP@?4?4?2?4?4?2GeomUtils?2src?2mesh?2GuBV4?4c@ 0000000180279268     GuBV4.obj
 0002:00007298       ??_C@_0N@DGCGNFBP@mTriangles16?$AA@ 0000000180279298     GuBV4.obj
 0002:000072a8       ??_C@_04LHNPKPDA@OPC2?$AA@ 00000001802792a8     GuBV4.obj
 0002:000072b0       ??_C@_09JOJONBOP@BV4?5nodes?$AA@ 00000001802792b0     GuBV4.obj
 0002:000072f0       ??_C@_0EF@BFCBCEIB@d?3?2github?2fork?2physx?93?44?2physx_3@ 00000001802792f0     GuBV4Build.obj
 0002:00007348       ??_C@_08MHFMMBJL@code?$DM256?$AA@ 0000000180279348     GuBV4Build.obj
 0002:00007354       ??_C@_03DMLNBBKA@BV4?$AA@  0000000180279354     GuBV4Build.obj
 0002:00007358       ??_C@_0CI@DDEDLIKP@?4?4?2?4?4?2GeomUtils?2src?2mesh?2GuBV4Bu@ 0000000180279358     GuBV4Build.obj
 0002:00007388       ??_C@_0M@FLGHAIDC@BV4?5indices?$AA@ 0000000180279388     GuBV4Build.obj
 0002:00007398       ??_C@_0L@NNJBCGJN@nbPrims?$DM16?$AA@ 0000000180279398     GuBV4Build.obj
 0002:000073a8       ??_C@_0BF@FJKJOFLF@prims?$FLj?$FN?5?$DN?$DN?5offset?$CLj?$AA@ 00000001802793a8     GuBV4Build.obj
 0002:000073c8       ??_C@_0BI@OIEOAPGI@n?$DM?$DNData?9?$DOmNbTrisPerLeaf?$AA@ 00000001802793c8     GuBV4Build.obj
 0002:000073e8       ??_C@_0BC@EKNMNKDD@RD?4mIndex?$DN?$DNnbTris?$AA@ 00000001802793e8     GuBV4Build.obj
 0002:00007400       __real@46fffe00            0000000180279400     GuBV4Build.obj
 0002:00007440       ??_C@_0FF@GKGAMJMH@D?3?2github?2fork?2PhysX?93?44?2PhysX_3@ 0000000180279440     GuBV4_AABBSweep.obj
 0002:000074b0       ??_C@_0FH@DMAJOCJF@d?3?2github?2fork?2physx?93?44?2physx_3@ 00000001802794b0     GuBV4_AABBSweep.obj
 0002:00007518       ??_C@_01OJONOECF@b?$AA@    0000000180279518     GuBV4_AABBSweep.obj
 0002:00007520       ??_C@_0BD@MOKOOCBI@?$CBParams?4mEarlyExit?$AA@ 0000000180279520     GuBV4_AABBSweep.obj
 0002:00007540       ??_C@_0EM@DILJJMPI@d?3?2github?2fork?2physx?93?44?2physx_3@ 0000000180279540     GuBV4_AABBSweep.obj
 0002:000075a0       ??_C@_09IMJEKLBA@nbTris?$DM16?$AA@ 00000001802795a0     GuBV4_AABBSweep.obj
 0002:000075b0       __xmm@0000ffff0000ffff0000ffff0000ffff 00000001802795b0     GuBV4_AABBSweep.obj
 0002:000075f8       ??_C@_0CO@PKKLLEIO@?4?4?2?4?4?2GeomUtils?2src?2mesh?2GuBV4_B@ 00000001802795f8     GuBV4_BoxOverlap.obj
 0002:00007658       ??_C@_0DA@CIFKIPNA@?4?4?2?4?4?2GeomUtils?2src?2mesh?2GuBV4_C@ 0000000180279658     GuBV4_CapsuleSweep.obj
 0002:00007728       ??_C@_0CL@EIMGCKHP@?4?4?2?4?4?2GeomUtils?2src?2mesh?2GuBV4_R@ 0000000180279728     GuBV4_Raycast.obj
 0002:00007788       ??_C@_0DB@OCPOFKPB@?4?4?2?4?4?2GeomUtils?2src?2mesh?2GuBV4_S@ 0000000180279788     GuBV4_SphereOverlap.obj
 0002:000077f8       ??_C@_0CP@HKBIKBKH@?4?4?2?4?4?2GeomUtils?2src?2mesh?2GuBV4_S@ 00000001802797f8     GuBV4_SphereSweep.obj
 0002:00007908       ??_C@_0DK@FFHPKGEP@PxMeshQuery?3?3getTriangle?3?5triang@ 0000000180279908     GuMeshQuery.obj
 0002:00007950       ??_C@_0CJ@EBMNMENK@?4?4?2?4?4?2GeomUtils?2src?2mesh?2GuMeshQ@ 0000000180279950     GuMeshQuery.obj
 0002:00007990       ??_C@_0FD@EHCCILIF@Adjacency?5information?5not?5create@ 0000000180279990     GuMeshQuery.obj
 0002:00007a00       ??_C@_0FA@MCAAGAGM@findOverlapTriangleMesh?3?5Only?5bo@ 0000000180279a00     GuMeshQuery.obj
 0002:00007a60       ??_C@_0EM@BEFNLPHI@findOverlapHeightField?3?5Only?5box@ 0000000180279a60     GuMeshQuery.obj
 0002:00007ac0       ??_C@_0CJ@NLNHIMDM@PxMeshQuery?3?3sweep?$CI?$CJ?3?5pose?5is?5no@ 0000000180279ac0     GuMeshQuery.obj
 0002:00007af8       ??_C@_0CM@BFKJPOOO@PxMeshQuery?3?3sweep?$CI?$CJ?3?5unitDir?5is@ 0000000180279af8     GuMeshQuery.obj
 0002:00007b30       ??_C@_0CN@JKBDLLPP@PxMeshQuery?3?3sweep?$CI?$CJ?3?5distance?5i@ 0000000180279b30     GuMeshQuery.obj
 0002:00007b68       ??_C@_0DN@DPNNFGGF@PxMeshQuery?3?3sweep?$CI?$CJ?3?5sweep?5dist@ 0000000180279b68     GuMeshQuery.obj
 0002:00007bb8       ??_C@_0BA@MBAFFELP@MeshQuery?4sweep?$AA@ 0000000180279bb8     GuMeshQuery.obj
 0002:00007bd0       ??_C@_0FJ@GNAHJJCM@PxMeshQuery?3?3sweep?$CI?$CJ?3?5geometry?5o@ 0000000180279bd0     GuMeshQuery.obj
 0002:00007c3c       __real@4cbebc20            0000000180279c3c     GuMeshQuery.obj
 0002:00007d00       ??_C@_0DP@KHIPFJHB@d?3?2github?2fork?2physx?93?44?2physx_3@ 0000000180279d00     GuMidphaseBV4.obj
 0002:00007d50       ??_C@_0EO@NDOCFGJD@d?3?2github?2fork?2physx?93?44?2physx_3@ 0000000180279d50     GuMidphaseBV4.obj
 0002:00007db0       ??_C@_0CI@ENBEIEHD@?$CBCm?3?3isEmpty?$CIsweepOrigin?0?5sweepE@ 0000000180279db0     GuMidphaseBV4.obj
 0002:00007de0       ??_C@_0CC@OJHDNIBK@?$CBCm?3?3isEmpty?$CIendPt?0?5sweepExtents@ 0000000180279de0     GuMidphaseBV4.obj
 0002:00007e08       ??_7SweepBoxMeshHitCallback@Gu@physx@@6B@ 0000000180279e08     GuMidphaseBV4.obj
 0002:00007e20       ??_C@_0CL@JCAEDEJA@?4?4?2?4?4?2GeomUtils?2src?2mesh?2GuMidph@ 0000000180279e20     GuMidphaseBV4.obj
 0002:00007e58       ??_C@_0DO@EBPDBHBI@mesh?9?$DOgetConcreteType?$CI?$CJ?$DN?$DNPxConcr@ 0000000180279e58     GuMidphaseBV4.obj
 0002:00007eb0       ??_C@_0EA@JAPAAOOE@triMesh?4getConcreteType?$CI?$CJ?$DN?$DNPxCon@ 0000000180279eb0     GuMidphaseBV4.obj
 0002:00007efc       __real@3f8147ae            0000000180279efc     GuMidphaseBV4.obj
 0002:00007fc0       ??_7Callback@RTree@Gu@physx@@6B@ 0000000180279fc0     GuMidphaseRTree.obj
 0002:00007fe0       ??_7CallbackRaycast@RTree@Gu@physx@@6B@ 0000000180279fe0     GuMidphaseRTree.obj
 0002:00007ff8       ??_7?$RayRTreeCallback@$0A@$0A@@@6BCallbackRaycast@RTree@Gu@physx@@@ 0000000180279ff8     GuMidphaseRTree.obj
 0002:00008010       ??_7?$RayRTreeCallback@$0A@$0A@@@6BCallback@RTree@Gu@physx@@@ 000000018027a010     GuMidphaseRTree.obj
 0002:00008030       ??_7RayMeshColliderCallback@@6B@ 000000018027a030     GuMidphaseRTree.obj
 0002:00008048       ??_C@_0CN@JIELNEEM@?4?4?2?4?4?2GeomUtils?2src?2mesh?2GuMidph@ 000000018027a048     GuMidphaseRTree.obj
 0002:00008080       ??_C@_0DO@OLCIBNP@mesh?9?$DOgetConcreteType?$CI?$CJ?$DN?$DNPxConcr@ 000000018027a080     GuMidphaseRTree.obj
 0002:000080e8       ??_C@_0BO@PKHBOHAH@outerCallback?4inClosestMode?$CI?$CJ?$AA@ 000000018027a0e8     GuMidphaseRTree.obj
 0002:00008110       ??_C@_0P@NOLDENKN@NumTouched?5?$DO?50?$AA@ 000000018027a110     GuMidphaseRTree.obj
 0002:00008128       ??_C@_0CD@DHEFIFOD@closestHit?4distance?5?$DN?$DN?5PX_MAX_RE@ 000000018027a128     GuMidphaseRTree.obj
 0002:00008158       ??_7?$RayRTreeCallback@$00$0A@@@6BCallbackRaycast@RTree@Gu@physx@@@ 000000018027a158     GuMidphaseRTree.obj
 0002:00008170       ??_7?$RayRTreeCallback@$00$0A@@@6BCallback@RTree@Gu@physx@@@ 000000018027a170     GuMidphaseRTree.obj
 0002:00008190       ??_7?$RayRTreeCallback@$0A@$00@@6BCallbackRaycast@RTree@Gu@physx@@@ 000000018027a190     GuMidphaseRTree.obj
 0002:000081a8       ??_7?$RayRTreeCallback@$0A@$00@@6BCallback@RTree@Gu@physx@@@ 000000018027a1a8     GuMidphaseRTree.obj
 0002:000081c8       ??_7?$RayRTreeCallback@$00$00@@6BCallbackRaycast@RTree@Gu@physx@@@ 000000018027a1c8     GuMidphaseRTree.obj
 0002:000081e0       ??_7?$RayRTreeCallback@$00$00@@6BCallback@RTree@Gu@physx@@@ 000000018027a1e0     GuMidphaseRTree.obj
 0002:00008200       ??_C@_0EA@NPLBJICD@triMesh?4getConcreteType?$CI?$CJ?$DN?$DNPxCon@ 000000018027a200     GuMidphaseRTree.obj
 0002:000083a0       ??_C@_0DA@EHIAANNM@?4?4?2?4?4?2GeomUtils?2src?2mesh?2GuOverl@ 000000018027a3a0     GuOverlapTestsMesh.obj
 0002:000083e0       ??_C@_0DA@FHGGPFND@geom?4getType?$CI?$CJ?5?$DN?$DN?5PxGeometryType@ 000000018027a3e0     GuOverlapTestsMesh.obj
 0002:00008420       ??_C@_0CJ@NHIKKCNE@geom0?4getType?$CI?$CJ?$DN?$DNPxGeometryType?3@ 000000018027a420     GuOverlapTestsMesh.obj
 0002:00008458       ??_C@_0CP@BJEIKFHK@geom1?4getType?$CI?$CJ?$DN?$DNPxGeometryType?3@ 000000018027a458     GuOverlapTestsMesh.obj
 0002:00008490       ??_C@_0CK@CDFGGAJM@geom0?4getType?$CI?$CJ?$DN?$DNPxGeometryType?3@ 000000018027a490     GuOverlapTestsMesh.obj
 0002:000084c8       ??_C@_0CG@CNFBAFOD@geom0?4getType?$CI?$CJ?$DN?$DNPxGeometryType?3@ 000000018027a4c8     GuOverlapTestsMesh.obj
 0002:000084f8       ??_7ConvexVsMeshOverlapCallback@@6B@ 000000018027a4f8     GuOverlapTestsMesh.obj
 0002:00008510       ??_7?$RelativeConvex@VTriangleV@Gu@physx@@@Gu@physx@@6B@ 000000018027a510     GuOverlapTestsMesh.obj
 0002:00008550       ??_C@_0CN@BEKOBDIM@geom0?4getType?$CI?$CJ?$DN?$DNPxGeometryType?3@ 000000018027a550     GuOverlapTestsMesh.obj
 0002:00008588       ??_C@_0CE@BJGAPCIE@?$CBcm?9?$DOgetLocalBoundsFast?$CI?$CJ?4isEmpt@ 000000018027a588     GuOverlapTestsMesh.obj
 0002:000085e0       ?MN@RTreePage@Gu@physx@@2MB 000000018027a5e0     GuRTree.obj
 0002:000085e4       ?MX@RTreePage@Gu@physx@@2MB 000000018027a5e4     GuRTree.obj
 0002:000085f0       ??_C@_0CF@JNCLIKON@?4?4?2?4?4?2GeomUtils?2src?2mesh?2GuRTree@ 000000018027a5f0     GuRTree.obj
 0002:00008620       ??_C@_0O@GAOCDILC@rightMostPage?$AA@ 000000018027a620     GuRTree.obj
 0002:00008630       ??_C@_0BI@ECOMNHBO@nc?5?$DO?50?5?$CG?$CG?5nc?5?$DM?$DN?5RTREE_N?$AA@ 000000018027a630     GuRTree.obj
 0002:00008650       ??_C@_0BN@KPHCMAO@ptr?5?$CF?5sizeof?$CIRTreePage?$CJ?5?$DN?$DN?50?$AA@ 000000018027a650     GuRTree.obj
 0002:00008678       ??_C@_0BE@LPPAMHPI@nodeIndex?5?$DM?5RTREE_N?$AA@ 000000018027a678     GuRTree.obj
 0002:00008690       ??_C@_0BM@GKEBDLLI@n?4minx?5?$DO?$DN?5parentBounds?4minx?$AA@ 000000018027a690     GuRTree.obj
 0002:000086b8       ??_C@_0BM@OICJOACN@n?4miny?5?$DO?$DN?5parentBounds?4miny?$AA@ 000000018027a6b8     GuRTree.obj
 0002:000086e0       ??_C@_0BM@LFOBIKND@n?4minz?5?$DO?$DN?5parentBounds?4minz?$AA@ 000000018027a6e0     GuRTree.obj
 0002:00008708       ??_C@_0BM@LAMHHDDC@n?4maxx?5?$DM?$DN?5parentBounds?4maxx?$AA@ 000000018027a708     GuRTree.obj
 0002:00008730       ??_C@_0BM@DCKPKIKH@n?4maxy?5?$DM?$DN?5parentBounds?4maxy?$AA@ 000000018027a730     GuRTree.obj
 0002:00008758       ??_C@_0BM@GPGHMCFJ@n?4maxz?5?$DM?$DN?5parentBounds?4maxz?$AA@ 000000018027a758     GuRTree.obj
 0002:00008780       ??_C@_0P@KAENJLCG@?$CIn?4ptr?$CG1?$CJ?5?$DN?$DN?50?$AA@ 000000018027a780     GuRTree.obj
 0002:00008798       ??_C@_0P@ICGJEMB@mn?4x?5?$DO?$DN?5n?4minx?$AA@ 000000018027a798     GuRTree.obj
 0002:000087b0       ??_C@_0P@IKJIOJOP@mn?4y?5?$DO?$DN?5n?4miny?$AA@ 000000018027a7b0     GuRTree.obj
 0002:000087c8       ??_C@_0P@NGCLGINM@mn?4z?5?$DO?$DN?5n?4minz?$AA@ 000000018027a7c8     GuRTree.obj
 0002:000087e0       ??_C@_0P@EPLMMEAL@mx?4x?5?$DM?$DN?5n?4maxx?$AA@ 000000018027a7e0     GuRTree.obj
 0002:000087f8       ??_C@_0P@MNACLJCF@mx?4y?5?$DM?$DN?5n?4maxy?$AA@ 000000018027a7f8     GuRTree.obj
 0002:00008810       ??_C@_0P@JBLBDIBG@mx?4z?5?$DM?$DN?5n?4maxz?$AA@ 000000018027a810     GuRTree.obj
 0002:00008830       ??_C@_0EF@FFEKEPPO@?$CIrecomputedBounds?4minx?5?9?5parentB@ 000000018027a830     GuRTree.obj
 0002:00008890       ??_C@_0EF@GJEOFODP@?$CIrecomputedBounds?4miny?5?9?5parentB@ 000000018027a890     GuRTree.obj
 0002:000088f0       ??_C@_0EF@CNECGMHM@?$CIrecomputedBounds?4minz?5?9?5parentB@ 000000018027a8f0     GuRTree.obj
 0002:00008950       ??_C@_0EF@INLGOEPI@?$CIrecomputedBounds?4maxx?5?9?5parentB@ 000000018027a950     GuRTree.obj
 0002:000089b0       ??_C@_0EF@LBLCPFDJ@?$CIrecomputedBounds?4maxy?5?9?5parentB@ 000000018027a9b0     GuRTree.obj
 0002:00008a10       ??_C@_0EF@PFLOMHHK@?$CIrecomputedBounds?4maxz?5?9?5parentB@ 000000018027aa10     GuRTree.obj
 0002:00008a98       ??_C@_0BG@IEPBALPD@isAligned16?$CI?$CIvoid?$CK?$CJu?$CJ?$AA@ 000000018027aa98     GuRTreeQueries.obj
 0002:00008ab8       ??_C@_0CM@GMLLNKLB@?4?4?2?4?4?2GeomUtils?2src?2mesh?2GuRTree@ 000000018027aab8     GuRTreeQueries.obj
 0002:00008af0       ??_C@_08PPIJGMPL@callback?$AA@ 000000018027aaf0     GuRTreeQueries.obj
 0002:00008b00       ??_C@_0BI@DLFPNEDE@maxResults?5?$DO?$DN?5mPageSize?$AA@ 000000018027ab00     GuRTreeQueries.obj
 0002:00008b1c       ??_C@_06MMNBLHOK@mPages?$AA@ 000000018027ab1c     GuRTreeQueries.obj
 0002:00008b28       ??_C@_0BP@HNEGPBBN@?$CIuintptr_t?$CImPages?$CJ?5?$CG?5127?$CJ?5?$DN?$DN?50?$AA@ 000000018027ab28     GuRTreeQueries.obj
 0002:00008b50       ??_C@_0BM@JIDHAIBN@?$CIuintptr_t?$CIthis?$CJ?5?$CG?515?$CJ?5?$DN?$DN?50?$AA@ 000000018027ab50     GuRTreeQueries.obj
 0002:00008b78       ??_C@_0BM@PMHHGLDD@Ps?3?3isPowerOfTwo?$CImPageSize?$CJ?$AA@ 000000018027ab78     GuRTreeQueries.obj
 0002:00008ba0       ??_C@_0CK@KICLFBBP@?$CBcacheTopValid?5?$HM?$HM?5stackPtr?$FL0?$FN?5?$DN?$DN@ 000000018027aba0     GuRTreeQueries.obj
 0002:00008bd8       ??_C@_0CB@LIACHGEF@mPageSize?5?$DN?$DN?54?5?$HM?$HM?5mPageSize?5?$DN?$DN?58@ 000000018027abd8     GuRTreeQueries.obj
 0002:00008c00       ??_C@_0BC@DKBGFHHN@mNumRootPages?5?$DO?50?$AA@ 000000018027ac00     GuRTreeQueries.obj
 0002:00008c18       ??_C@_0CC@FCCCLAGC@?$CBcacheTopValid?5?$HM?$HM?5top?5?$DN?$DN?5cacheTo@ 000000018027ac18     GuRTreeQueries.obj
 0002:00008c40       ??_C@_0P@EKDKDKIC@newMaxT?5?$DM?5maxT?$AA@ 000000018027ac40     GuRTreeQueries.obj
 0002:00008d20       ??_C@_0EK@KIDLIMIO@D?3?2github?2fork?2PhysX?93?44?2PxShare@ 000000018027ad20     GuSweepsMesh.obj
 0002:00008d78       ??_C@_0BA@PIPMOCIL@isSaneQuatV?$CIq0?$CJ?$AA@ 000000018027ad78     GuSweepsMesh.obj
 0002:00008d90       ??_7SweepShapeMeshHitCallback@Gu@physx@@6B@ 000000018027ad90     GuSweepsMesh.obj
 0002:00008da8       ??_7SweepCapsuleMeshHitCallback@Gu@physx@@6B@ 000000018027ada8     GuSweepsMesh.obj
 0002:00008dc0       ??_7SweepConvexMeshHitCallback@Gu@physx@@6B@ 000000018027adc0     GuSweepsMesh.obj
 0002:00008dd8       ??_C@_0CK@HHBNGCIF@?4?4?2?4?4?2GeomUtils?2src?2mesh?2GuSweep@ 000000018027add8     GuSweepsMesh.obj
 0002:00008e10       ??_C@_0CM@PBEOCDPN@?$CBconvexMesh?9?$DOgetLocalBoundsFast?$CI@ 000000018027ae10     GuSweepsMesh.obj
 0002:00008e48       ??_7?$LocalConvex@VShrunkConvexHullV@Gu@physx@@@Gu@physx@@6B@ 000000018027ae48     GuSweepsMesh.obj
 0002:00008e88       ??_7?$LocalConvex@VShrunkBoxV@Gu@physx@@@Gu@physx@@6B@ 000000018027ae88     GuSweepsMesh.obj
 0002:00008ed0       ??_C@_0EL@PDDDMIHJ@D?3?2github?2fork?2PhysX?93?44?2PhysX_3@ 000000018027aed0     GuSweepsMesh.obj
 0002:00008f2c       __real@42c80000            000000018027af2c     GuSweepsMesh.obj
 0002:00008ff0       ??_C@_0P@GGNFNHKF@PxTriangleMesh?$AA@ 000000018027aff0     GuTriangleMesh.obj
 0002:00009008       ??_7PxTriangleMesh@physx@@6B@ 000000018027b008     GuTriangleMesh.obj
 0002:000090b0       ??_7TriangleMesh@Gu@physx@@6BPxTriangleMesh@2@@ 000000018027b0b0     GuTriangleMesh.obj
 0002:00009170       ??_7TriangleMesh@Gu@physx@@6BRefCountable@Cm@2@@ 000000018027b170     GuTriangleMesh.obj
 0002:00009188       ??_C@_0BA@COIGDLHI@mAABB?4isValid?$CI?$CJ?$AA@ 000000018027b188     GuTriangleMesh.obj
 0002:000091a0       ??_C@_0DF@DNLKAHAL@Gu?3?3TriangleMesh?3?3release?3?5doubl@ 000000018027b1a0     GuTriangleMesh.obj
 0002:000091e0       ??_C@_0CM@OEFFOGD@?4?4?2?4?4?2GeomUtils?2src?2mesh?2GuTrian@ 000000018027b1e0     GuTriangleMesh.obj
 0002:00009220       ??_C@_0GM@JCNNENJM@PxTriangleMesh?3?3getVerticesForMo@ 000000018027b220     GuTriangleMesh.obj
 0002:000092b0       ??_C@_0FK@NFHEMBEA@PxTriangleMesh?3?3refitBVH?$CI?$CJ?5is?5on@ 000000018027b2b0     GuTriangleMesh.obj
 0002:00009348       ??_C@_0BE@CNJKIINO@PxBVH34TriangleMesh?$AA@ 000000018027b348     GuTriangleMeshBV4.obj
 0002:00009360       ??_7BV4TriangleMesh@Gu@physx@@6BPxTriangleMesh@2@@ 000000018027b360     GuTriangleMeshBV4.obj
 0002:00009420       ??_7BV4TriangleMesh@Gu@physx@@6BRefCountable@Cm@2@@ 000000018027b420     GuTriangleMeshBV4.obj
 0002:00009438       ??_C@_0CP@FELHPPCI@?4?4?2?4?4?2GeomUtils?2src?2mesh?2GuTrian@ 000000018027b438     GuTriangleMeshBV4.obj
 0002:00009470       ??_C@_0CA@BIGBJENC@d?4mType?$DN?$DNPxMeshMidPhase?3?3eBVH34?$AA@ 000000018027b470     GuTriangleMeshBV4.obj
 0002:000094c8       ??_C@_0BE@EIFHCCBO@PxBVH33TriangleMesh?$AA@ 000000018027b4c8     GuTriangleMeshRTree.obj
 0002:000094e0       ??_7CallbackRefit@RTree@Gu@physx@@6B@ 000000018027b4e0     GuTriangleMeshRTree.obj
 0002:000094f8       ??_7RTreeTriangleMesh@Gu@physx@@6BPxTriangleMesh@2@@ 000000018027b4f8     GuTriangleMeshRTree.obj
 0002:000095b8       ??_7RTreeTriangleMesh@Gu@physx@@6BRefCountable@Cm@2@@ 000000018027b5b8     GuTriangleMeshRTree.obj
 0002:000095d0       ??_C@_0DB@LIOBCNHH@?4?4?2?4?4?2GeomUtils?2src?2mesh?2GuTrian@ 000000018027b5d0     GuTriangleMeshRTree.obj
 0002:00009610       ??_C@_0CA@FHCAACBF@d?4mType?$DN?$DNPxMeshMidPhase?3?3eBVH33?$AA@ 000000018027b610     GuTriangleMeshRTree.obj
 0002:00009638       ??_7?$RefitCallback@G@physx@@6B@ 000000018027b638     GuTriangleMeshRTree.obj
 0002:00009650       ??_7?$RefitCallback@I@physx@@6B@ 000000018027b650     GuTriangleMeshRTree.obj
 0002:00009668       ??_C@_0L@CHKFAHCL@nbTris?5?$DO?50?$AA@ 000000018027b668     GuTriangleMeshRTree.obj
 0002:00009678       ??_7HeightField@Gu@physx@@6BPxHeightField@2@@ 000000018027b678     GuHeightField.obj
 0002:00009750       ??_7HeightField@Gu@physx@@6BRefCountable@Cm@2@@ 000000018027b750     GuHeightField.obj
 0002:00009768       ??_C@_0CD@DOHOGNDP@?$CIvertexIndex?5?1?5mData?4columns?$CJ?$DN?$DNr@ 000000018027b768     GuHeightField.obj
 0002:00009798       ??_C@_0CG@MFLNCBLF@?$CIvertexIndex?5?$CF?5mData?4columns?$CJ?$DN?$DNc@ 000000018027b798     GuHeightField.obj
 0002:000097c8       ??_C@_0CJ@ECCFDMLB@?4?4?2?4?4?2GeomUtils?2src?2hf?2GuHeightF@ 000000018027b7c8     GuHeightField.obj
 0002:00009800       ??_C@_0N@EGBCLMAK@mMeshFactory?$AA@ 000000018027b800     GuHeightField.obj
 0002:00009810       ??_C@_0DL@DNGFPCEG@Gu?3?3HeightField?3?3onRefCountZero?3@ 000000018027b810     GuHeightField.obj
 0002:00009858       ??_C@_0DF@LLAFPPKJ@Gu?3?3HeightField?3?3modifySamples?3?5@ 000000018027b858     GuHeightField.obj
 0002:00009898       ??_C@_0BE@CJJAMAMK@PxHeightFieldSample?$AA@ 000000018027b898     GuHeightField.obj
 0002:000098b0       ??_C@_0CI@DMKEKGNK@Gu?3?3HeightField?3?3load?3?5PX_ALLOC?5@ 000000018027b8b0     GuHeightField.obj
 0002:000098e0       ??_C@_0DG@LACOBMDE@Gu?3?3HeightField?3?3loadFromDesc?3?5d@ 000000018027b8e0     GuHeightField.obj
 0002:00009920       ??_C@_0BJ@CAAAMGEC@mMaxHeight?5?$DO?$DN?5mMinHeight?$AA@ 000000018027b920     GuHeightField.obj
 0002:00009940       ??_C@_0BP@PJNEFCEM@?$CIvertexIndex?5?1?5nbColumns?$CJ?$DN?$DNrow?$AA@ 000000018027b940     GuHeightField.obj
 0002:00009968       ??_C@_0CC@IAIMCKFA@?$CIvertexIndex?5?$CF?5nbColumns?$CJ?$DN?$DNcolum@ 000000018027b968     GuHeightField.obj
 0002:00009990       ??_C@_0BE@CCCOPNHP@cell?$DN?$DNedgeIndex?5?1?53?$AA@ 000000018027b990     GuHeightField.obj
 0002:000099a8       ??_C@_0BG@CKDOJJJL@row?$DN?$DNcell?5?1?5nbColumns?$AA@ 000000018027b9a8     GuHeightField.obj
 0002:000099c8       ??_C@_0BJ@BKLDCMBE@column?$DN?$DNcell?5?$CF?5nbColumns?$AA@ 000000018027b9c8     GuHeightField.obj
 0002:000099e8       ??_C@_0CK@COJHBAPC@?$CIvertexIndex?5?1?5getNbColumnsFast?$CI@ 000000018027b9e8     GuHeightField.obj
 0002:00009a20       ??_C@_0CN@HIDBPFHK@?$CIvertexIndex?5?$CF?5getNbColumnsFast?$CI@ 000000018027ba20     GuHeightField.obj
 0002:00009a58       ??_C@_0CD@CCMCAFFB@x?5?$DO?$DN?50?40f?5?$CG?$CG?5x?5?$DM?5PxF32?$CImData?4row@ 000000018027ba58     GuHeightField.obj
 0002:00009a88       ??_C@_0CG@FJCFICOE@z?5?$DO?$DN?50?40f?5?$CG?$CG?5z?5?$DM?5PxF32?$CImData?4col@ 000000018027ba88     GuHeightField.obj
 0002:00009ab8       ??_C@_0CL@EJBCLPDG@vertexIndex?5?$DM?5?$CImData?4rows?$CJ?$CK?$CImDat@ 000000018027bab8     GuHeightField.obj
 0002:00009af0       ??_C@_0EA@PCFNAMOM@D?3?2github?2fork?2PhysX?93?44?2PhysX_3@ 000000018027baf0     GuHeightField.obj
 0002:00009b40       ??_C@_0BI@NFDAPDBF@index?$DMgetWordCount?$CI?$CJ?$CK32?$AA@ 000000018027bb40     GuHeightField.obj
 0002:00009b88       ??_C@_0BM@GOCGMPIP@row?5?$DN?$DN?5cell?5?1?5mData?4columns?$AA@ 000000018027bb88     GuHeightFieldUtil.obj
 0002:00009bb0       ??_C@_0BP@IEIJBKDD@column?5?$DN?$DN?5cell?5?$CF?5mData?4columns?$AA@ 000000018027bbb0     GuHeightFieldUtil.obj
 0002:00009be0       ??_C@_0EP@EOKJBGLD@d?3?2github?2fork?2physx?93?44?2physx_3@ 000000018027bbe0     GuHeightFieldUtil.obj
 0002:00009c40       ??_C@_0CN@FGOIGDLJ@?4?4?2?4?4?2GeomUtils?2src?2hf?2GuHeightF@ 000000018027bc40     GuHeightFieldUtil.obj
 0002:00009c78       ??_C@_0CA@OMEHEIDN@isShapePointOnHeightField?$CIx?0?5z?$CJ?$AA@ 000000018027bc78     GuHeightFieldUtil.obj
 0002:00009ca0       ??_C@_0DF@JGJHCPAO@row?5?$DN?$DN?5vertexIndex?5?1?5mHeightFiel@ 000000018027bca0     GuHeightFieldUtil.obj
 0002:00009ce0       ??_C@_0DI@INAAEJHA@column?5?$DN?$DN?5vertexIndex?5?$CF?5mHeightF@ 000000018027bce0     GuHeightFieldUtil.obj
 0002:00009d28       ??_C@_0CK@CDDKBOCK@row?5?$DM?5?$CImHeightField?9?$DOgetNbRowsFa@ 000000018027bd28     GuHeightFieldUtil.obj
 0002:00009d60       ??_C@_0DA@FBCALLGB@column?5?$DM?5?$CImHeightField?9?$DOgetNbCol@ 000000018027bd60     GuHeightFieldUtil.obj
 0002:00009da0       ??_C@_0CP@FEMCBDAG@row?5?$DN?$DN?5cell?5?1?5mHeightField?9?$DOgetN@ 000000018027bda0     GuHeightFieldUtil.obj
 0002:00009dd8       ??_C@_0DC@GMBCNKJ@column?5?$DN?$DN?5cell?5?$CF?5mHeightField?9?$DOg@ 000000018027bdd8     GuHeightFieldUtil.obj
 0002:00009e18       ??_C@_0CN@EPALKFJF@Invalid?5edge?5index?5in?5findCloses@ 000000018027be18     GuHeightFieldUtil.obj
 0002:00009e50       ??_C@_0BC@NPEPHOJ@?$CBbounds?4isEmpty?$CI?$CJ?$AA@ 000000018027be50     GuHeightFieldUtil.obj
 0002:00009e68       ??_C@_0DH@EJDJIMCB@HeightFieldShape?3?3getTriangle?3?5I@ 000000018027be68     GuHeightFieldUtil.obj
 0002:00009f70       ??_C@_0CM@EAMAEFHL@?4?4?2?4?4?2GeomUtils?2src?2hf?2GuOverlap@ 000000018027bf70     GuOverlapTestsHF.obj
 0002:00009fa8       ??_C@_0CF@DLGDODNO@row_?5?$DN?$DN?5cell?5?1?5hf?4getNbColumnsFa@ 000000018027bfa8     GuOverlapTestsHF.obj
 0002:00009fd8       ??_C@_0CI@GKKJHGBH@column_?5?$DN?$DN?5cell?5?$CF?5hf?4getNbColumn@ 000000018027bfd8     GuOverlapTestsHF.obj
 0002:0000a008       ??_C@_0CP@LAFGOBCM@geom?4getType?$CI?$CJ?5?$DN?$DN?5PxGeometryType@ 000000018027c008     GuOverlapTestsHF.obj
 0002:0000a040       ??_C@_0CO@JKIFBMMO@geom1?4getType?$CI?$CJ?$DN?$DNPxGeometryType?3@ 000000018027c040     GuOverlapTestsHF.obj
 0002:0000a0b0       ??_C@_0EO@PIKGELEO@d?3?2github?2fork?2physx?93?44?2physx_3@ 000000018027c0b0     GuSweepsHF.obj
 0002:0000a110       ??_7HeightFieldTraceSegmentReport@@6B@ 000000018027c110     GuSweepsHF.obj
 0002:0000a128       ??_7CapsuleTraceSegmentReport@@6B@ 000000018027c128     GuSweepsHF.obj
 0002:0000a140       ??_C@_0CG@ECBGNEIE@?4?4?2?4?4?2GeomUtils?2src?2hf?2GuSweepsH@ 000000018027c140     GuSweepsHF.obj
 0002:0000a170       ??_C@_0CC@IKDPBDIH@nb?5?$DM?$DN?5HF_SWEEP_REPORT_BUFFER_SIZ@ 000000018027c170     GuSweepsHF.obj
 0002:0000a198       ??_7ConvexTraceSegmentReport@@6B@ 000000018027c198     GuSweepsHF.obj
 0002:0000a1b0       ??_7BoxTraceSegmentReport@@6B@ 000000018027c1b0     GuSweepsHF.obj
 0002:0000a1f8       ??_C@_0BA@FFCCKKAD@isValidVec3V?$CIv?$CJ?$AA@ 000000018027c1f8     GuPCMContactBoxBox.obj
 0002:0000a210       ??_C@_0EP@BJIEGAGG@D?3?2github?2fork?2PhysX?93?44?2PhysX_3@ 000000018027c210     GuPCMContactBoxBox.obj
 0002:0000a270       ??_C@_0FK@BNMEIPDK@d?3?2github?2fork?2physx?93?44?2physx_3@ 000000018027c270     GuPCMContactBoxBox.obj
 0002:0000a2e0       ??_C@_0CH@MLLAKCLP@mNumContacts?5?$DM?$DN?5GU_MANIFOLD_CACH@ 000000018027c2e0     GuPCMContactBoxBox.obj
 0002:0000a310       ??_C@_0CL@KAPCLJCB@mManifoldIndices?$FLi?$FN?5?$DM?5GU_MAX_MAN@ 000000018027c310     GuPCMContactBoxBox.obj
 0002:0000a348       ??_C@_0BN@IDAFJLAA@index?5?$DM?5GU_MAX_MANIFOLD_SIZE?$AA@ 000000018027c348     GuPCMContactBoxBox.obj
 0002:0000a370       ??_C@_0BP@FLNJDMBM@?$CI?$CIuintptr_t?$CIbuff?$CJ?$CJ?5?$CG?50xF?$CJ?5?$DN?$DN?50?$AA@ 000000018027c370     GuPCMContactBoxBox.obj
 0002:0000a398       ??_C@_0CG@PCNFLMFL@mNumManifolds?5?$DM?$DN?5GU_MAX_MANIFOLD@ 000000018027c398     GuPCMContactBoxBox.obj
 0002:0000a3c8       ??_C@_0BN@MEMANGKF@?$CIuintptr_t?$CIbuff?$CJ?5?$CG?50xf?$CJ?5?$DN?$DN?50?$AA@ 000000018027c3c8     GuPCMContactBoxBox.obj
 0002:0000a3f0       ??_C@_0FG@KLLBMBBK@D?3?2github?2fork?2PhysX?93?44?2PhysX_3@ 000000018027c3f0     GuPCMContactBoxBox.obj
 0002:0000a458       ??_C@_0N@NJJPFGDE@isManifold?$CI?$CJ?$AA@ 000000018027c458     GuPCMContactBoxBox.obj
 0002:0000a468       ??_C@_0BD@HEKAGHGG@?$CBisMultiManifold?$CI?$CJ?$AA@ 000000018027c468     GuPCMContactBoxBox.obj
 0002:0000a480       ??_C@_0CE@NDNLPNDC@?$CIuintptr_t?$CImCachedData?$CJ?5?$CG?50xf?$CJ?5?$DN@ 000000018027c480     GuPCMContactBoxBox.obj
 0002:0000a4b0       ??_7?$RelativeConvex@VBoxV@Gu@physx@@@Gu@physx@@6B@ 000000018027c4b0     GuPCMContactBoxBox.obj
 0002:0000a4f0       ??_C@_0CP@KEPLDBDC@?4?4?2?4?4?2GeomUtils?2src?2pcm?2GuPCMCon@ 000000018027c4f0     GuPCMContactBoxBox.obj
 0002:0000a528       ??_C@_0BG@FCBMIHCG@transform1?4q?4isSane?$CI?$CJ?$AA@ 000000018027c528     GuPCMContactBoxBox.obj
 0002:0000a548       ??_C@_0BG@IPIKFOKD@transform0?4q?4isSane?$CI?$CJ?$AA@ 000000018027c548     GuPCMContactBoxBox.obj
 0002:0000a564       __real@3f4ccccd            000000018027c564     GuPCMContactBoxBox.obj
 0002:0000a570       __xmm@ffffffff00000000ffffffffffffffff 000000018027c570     GuPCMContactBoxBox.obj
 0002:0000a5b8       ??_7SupportLocal@Gu@physx@@6B@ 000000018027c5b8     GuPCMContactBoxConvex.obj
 0002:0000a5e0       ??_7?$SupportLocalImpl@VBoxV@Gu@physx@@@Gu@physx@@6B@ 000000018027c5e0     GuPCMContactBoxConvex.obj
 0002:0000a608       ??_7?$SupportLocalImpl@VConvexHullV@Gu@physx@@@Gu@physx@@6B@ 000000018027c608     GuPCMContactBoxConvex.obj
 0002:0000a630       ??_7?$SupportLocalImpl@VConvexHullNoScaleV@Gu@physx@@@Gu@physx@@6B@ 000000018027c630     GuPCMContactBoxConvex.obj
 0002:0000a658       ??_C@_0DC@JLHJOIC@?4?4?2?4?4?2GeomUtils?2src?2pcm?2GuPCMCon@ 000000018027c658     GuPCMContactBoxConvex.obj
 0002:0000a698       ??_C@_0BG@JINPBPOM@status?5?$DN?$DN?5EPA_CONTACT?$AA@ 000000018027c698     GuPCMContactBoxConvex.obj
 0002:0000a6b8       ??_7?$LocalConvex@VShrunkConvexHullNoScaleV@Gu@physx@@@Gu@physx@@6B@ 000000018027c6b8     GuPCMContactBoxConvex.obj
 0002:0000a728       ??_C@_0BC@KHKFFAC@mNumContacts?5?$DM?$DN?52?$AA@ 000000018027c728     GuPCMContactCapsuleBox.obj
 0002:0000a740       ??_C@_0DD@KEPJDDMP@?4?4?2?4?4?2GeomUtils?2src?2pcm?2GuPCMCon@ 000000018027c740     GuPCMContactCapsuleBox.obj
 0002:0000a7a8       ??_C@_0BH@MCAIKHPH@isAligned16?$CI?$CIvoid?$CK?$CJ?$CGf?$CJ?$AA@ 000000018027c7a8     GuPCMContactCapsuleCapsule.obj
 0002:0000a7c8       ??_C@_0DH@CAMCJMDA@?4?4?2?4?4?2GeomUtils?2src?2pcm?2GuPCMCon@ 000000018027c7c8     GuPCMContactCapsuleCapsule.obj
 0002:0000a810       ??_C@_0BG@MMEEHCGO@isFiniteVec3V?$CInormal?$CJ?$AA@ 000000018027c810     GuPCMContactCapsuleCapsule.obj
 0002:0000a830       __xmm@ffffffffffffffffffffffff00000000 000000018027c830     GuPCMContactCapsuleCapsule.obj
 0002:0000a878       ??_7?$LocalConvex@VConvexHullNoScaleV@Gu@physx@@@Gu@physx@@6B@ 000000018027c878     GuPCMContactCapsuleConvex.obj
 0002:0000a8b8       ??_C@_0DG@GIJDHNKP@?4?4?2?4?4?2GeomUtils?2src?2pcm?2GuPCMCon@ 000000018027c8b8     GuPCMContactCapsuleConvex.obj
 0002:0000a8f8       __real@3fa00000            000000018027c8f8     GuPCMContactCapsuleConvex.obj
 0002:0000a9c0       ??_C@_0BC@DINFJHAI@isMultiManifold?$CI?$CJ?$AA@ 000000018027c9c0     GuPCMContactCapsuleHeightField.obj
 0002:0000a9e0       ??_C@_0EL@JOMDFNB@D?3?2github?2fork?2PhysX?93?44?2PhysX_3@ 000000018027c9e0     GuPCMContactCapsuleHeightField.obj
 0002:0000aa40       ??_7?$PCMHeightfieldContactGenerationCallback@UPCMCapsuleVsHeightfieldContactGenerationCallback@physx@@@Gu@physx@@6B@ 000000018027ca40     GuPCMContactCapsuleHeightField.obj
 0002:0000aa58       ??_7PCMCapsuleVsHeightfieldContactGenerationCallback@physx@@6B@ 000000018027ca58     GuPCMContactCapsuleHeightField.obj
 0002:0000aa70       ??_C@_0FH@JIOBFDND@d?3?2github?2fork?2physx?93?44?2physx_3@ 000000018027ca70     GuPCMContactCapsuleHeightField.obj
 0002:0000aae0       ??_C@_0FE@JPLKBHLF@inds?$FL0?$FN?5?$DN?$DN?5vertIndices?$FLa?$FN?5?$HM?$HM?5ind@ 000000018027cae0     GuPCMContactCapsuleHeightField.obj
 0002:0000ab50       ??_C@_0GG@PNEBHCHD@inds?$FL0?$FN?5?$DN?$DN?5vertIndices?$FL?$CIa?$CL1?$CJ?$CF3?$FN?5@ 000000018027cb50     GuPCMContactCapsuleHeightField.obj
 0002:0000abd0       ??_C@_0BK@GMOEICMC@cache?4mNumTriangles?5?$DM?$DN?516?$AA@ 000000018027cbd0     GuPCMContactCapsuleHeightField.obj
 0002:0000abf0       ??_C@_0EP@IHEIKBHA@D?3?2github?2fork?2PhysX?93?44?2PhysX_3@ 000000018027cbf0     GuPCMContactCapsuleHeightField.obj
 0002:0000ac50       ??_C@_0BN@KJCBHBHI@mNumTriangles?5?$DM?5MaxTriangles?$AA@ 000000018027cc50     GuPCMContactCapsuleHeightField.obj
 0002:0000ac74       __real@3f7ef9db            000000018027cc74     GuPCMContactCapsuleHeightField.obj
 0002:0000ac78       __real@3f7f3b64            000000018027cc78     GuPCMContactCapsuleHeightField.obj
 0002:0000ad40       ??_7?$PCMMeshContactGenerationCallback@UPCMCapsuleVsMeshContactGenerationCallback@physx@@@Gu@physx@@6B@ 000000018027cd40     GuPCMContactCapsuleMesh.obj
 0002:0000ad58       ??_7PCMCapsuleVsMeshContactGenerationCallback@physx@@6B@ 000000018027cd58     GuPCMContactCapsuleMesh.obj
 0002:0000ad98       ??_C@_0DF@GLBPEOJI@?4?4?2?4?4?2GeomUtils?2src?2pcm?2GuPCMCon@ 000000018027cd98     GuPCMContactConvexCommon.obj
 0002:0000add8       ??_C@_0CM@KKEDCHJJ@mNumContactPatch?5?$DMPCM_MAX_CONTAC@ 000000018027cdd8     GuPCMContactConvexCommon.obj
 0002:0000ae10       ??_C@_0CM@POJCKDA@mNumContacts?5?$DM?$DN?5ContactBuffer?3?3M@ 000000018027ce10     GuPCMContactConvexCommon.obj
 0002:0000ae48       ??_7?$SupportLocalImpl@VTriangleV@Gu@physx@@@Gu@physx@@6B@ 000000018027ce48     GuPCMContactConvexCommon.obj
 0002:0000ae70       ??_C@_0CL@JFNFGKOO@?$CIpatch?4mEndIndex?5?9?5patch?4mStartI@ 000000018027ce70     GuPCMContactConvexCommon.obj
 0002:0000aea8       ??_C@_0BD@FCCHEAFC@mNumContacts?5?$DM?$DN?564?$AA@ 000000018027cea8     GuPCMContactConvexCommon.obj
 0002:0000aec0       __real@3f7851ec            000000018027cec0     GuPCMContactConvexCommon.obj
 0002:0000aec4       __real@3f7fffef            000000018027cec4     GuPCMContactConvexCommon.obj
 0002:0000aef8       ??_7?$RelativeConvex@VShrunkConvexHullNoScaleV@Gu@physx@@@Gu@physx@@6B@ 000000018027cef8     GuPCMContactConvexConvex.obj
 0002:0000af38       ??_7?$RelativeConvex@VShrunkConvexHullV@Gu@physx@@@Gu@physx@@6B@ 000000018027cf38     GuPCMContactConvexConvex.obj
 0002:0000af78       ??_7?$RelativeConvex@VConvexHullV@Gu@physx@@@Gu@physx@@6B@ 000000018027cf78     GuPCMContactConvexConvex.obj
 0002:0000afb8       ??_C@_0DF@CLMOBOI@?4?4?2?4?4?2GeomUtils?2src?2pcm?2GuPCMCon@ 000000018027cfb8     GuPCMContactConvexConvex.obj
 0002:0000b0c0       ??_7?$PCMHeightfieldContactGenerationCallback@UPCMConvexVsHeightfieldContactGenerationCallback@physx@@@Gu@physx@@6B@ 000000018027d0c0     GuPCMContactConvexHeightField.obj
 0002:0000b0d8       ??_7PCMConvexVsHeightfieldContactGenerationCallback@physx@@6B@ 000000018027d0d8     GuPCMContactConvexHeightField.obj
 0002:0000b0f0       ??_C@_0DK@FBNKENCF@?4?4?2?4?4?2GeomUtils?2src?2pcm?2GuPCMCon@ 000000018027d0f0     GuPCMContactConvexHeightField.obj
 0002:0000b138       ??_C@_0DE@CLJKHPNA@multiManifold?4mNumManifolds?5?$DM?$DN?5G@ 000000018027d138     GuPCMContactConvexHeightField.obj
 0002:0000b178       __real@3f19999a            000000018027d178     GuPCMContactConvexHeightField.obj
 0002:0000b240       ??_7?$PCMMeshContactGenerationCallback@UPCMConvexVsMeshContactGenerationCallback@physx@@@Gu@physx@@6B@ 000000018027d240     GuPCMContactConvexMesh.obj
 0002:0000b258       ??_7PCMConvexVsMeshContactGenerationCallback@physx@@6B@ 000000018027d258     GuPCMContactConvexMesh.obj
 0002:0000b270       ??_C@_0DD@FAKBOBLJ@?4?4?2?4?4?2GeomUtils?2src?2pcm?2GuPCMCon@ 000000018027d270     GuPCMContactConvexMesh.obj
 0002:0000b2d8       ??_C@_0DF@NCCNBIC@?4?4?2?4?4?2GeomUtils?2src?2pcm?2GuPCMCon@ 000000018027d2d8     GuPCMContactGenBoxConvex.obj
 0002:0000b318       ??_C@_0BL@MHKHKBNG@FAllGrtrOrEq?$CI_max0?0?5_min0?$CJ?$AA@ 000000018027d318     GuPCMContactGenBoxConvex.obj
 0002:0000b338       ??_C@_0BL@CJKHKANP@FAllGrtrOrEq?$CI_max1?0?5_min1?$CJ?$AA@ 000000018027d338     GuPCMContactGenBoxConvex.obj
 0002:0000b358       ??_C@_0CI@CIICEHPC@FAllGrtrOrEq?$CItempOverlap?0?5_tempO@ 000000018027d358     GuPCMContactGenBoxConvex.obj
 0002:0000b388       ??_C@_0BP@EBOGJGAB@incidentPolygon?4mNbVerts?5?$DM?$DN?564?$AA@ 000000018027d388     GuPCMContactGenBoxConvex.obj
 0002:0000b3b0       ??_C@_0BH@EILOELBH@FAllEq?$CIdenom?0?5zero?$CJ?$DN?$DN0?$AA@ 000000018027d3b0     GuPCMContactGenBoxConvex.obj
 0002:0000b3d0       ??_C@_0CG@IJHPPEFE@status?5?$DN?$DN?5POLYDATA0?5?$HM?$HM?5status?5?$DN?$DN@ 000000018027d3d0     GuPCMContactGenBoxConvex.obj
 0002:0000b428       __real@3ba3d70a            000000018027d428     GuPCMContactGenSphereCapsule.obj
 0002:0000b4e8       ??_C@_0BD@EFKCEMED@isValidVec3V?$CIminV?$CJ?$AA@ 000000018027d4e8     GuPCMContactSphereBox.obj
 0002:0000b500       ??_C@_0BD@KAAPMB@isValidVec3V?$CImaxV?$CJ?$AA@ 000000018027d500     GuPCMContactSphereBox.obj
 0002:0000b518       ??_C@_0DC@PGLOAOFD@?4?4?2?4?4?2GeomUtils?2src?2pcm?2GuPCMCon@ 000000018027d518     GuPCMContactSphereBox.obj
 0002:0000b558       ??_C@_0DC@DCCFCPNF@contactBuffer?4count?5?$DM?5ContactBuf@ 000000018027d558     GuPCMContactSphereBox.obj
 0002:0000b5c8       ??_C@_0DG@MBLKFNPF@?4?4?2?4?4?2GeomUtils?2src?2pcm?2GuPCMCon@ 000000018027d5c8     GuPCMContactSphereCapsule.obj
 0002:0000b638       ??_C@_0BP@OAKFIOEG@index?5?$DM?5GU_MANIFOLD_CACHE_SIZE?$AA@ 000000018027d638     GuPCMContactSphereConvex.obj
 0002:0000b660       ??_C@_0DF@BOMKKAOE@?4?4?2?4?4?2GeomUtils?2src?2pcm?2GuPCMCon@ 000000018027d660     GuPCMContactSphereConvex.obj
 0002:0000b6a0       ??_C@_0BJ@BONKMEDP@contact?4point?4isFinite?$CI?$CJ?$AA@ 000000018027d6a0     GuPCMContactSphereConvex.obj
 0002:0000b6c0       ??_C@_0BK@MJNHJLDB@contact?4normal?4isFinite?$CI?$CJ?$AA@ 000000018027d6c0     GuPCMContactSphereConvex.obj
 0002:0000b6e0       ??_C@_0BP@PANHHJJE@PxIsFinite?$CIcontact?4separation?$CJ?$AA@ 000000018027d6e0     GuPCMContactSphereConvex.obj
 0002:0000b7d0       ??_7?$PCMHeightfieldContactGenerationCallback@UPCMSphereVsHeightfieldContactGenerationCallback@physx@@@Gu@physx@@6B@ 000000018027d7d0     GuPCMContactSphereHeightField.obj
 0002:0000b7e8       ??_7PCMSphereVsHeightfieldContactGenerationCallback@physx@@6B@ 000000018027d7e8     GuPCMContactSphereHeightField.obj
 0002:0000b8c0       ??_7?$PCMMeshContactGenerationCallback@UPCMSphereVsMeshContactGenerationCallback@physx@@@Gu@physx@@6B@ 000000018027d8c0     GuPCMContactSphereMesh.obj
 0002:0000b8d8       ??_7PCMSphereVsMeshContactGenerationCallback@physx@@6B@ 000000018027d8d8     GuPCMContactSphereMesh.obj
 0002:0000b948       ??_C@_0DF@PKIGECAN@?4?4?2?4?4?2GeomUtils?2src?2pcm?2GuPCMCon@ 000000018027d948     GuPCMContactSphereSphere.obj
 0002:0000b9a0       ?gPCMBoxPolygonData@Gu@physx@@3QBEB 000000018027d9a0     GuPCMShapeConvex.obj
 0002:0000b9e0       ??_C@_0EK@KFMOPGJJ@d?3?2github?2fork?2physx?93?44?2physx_3@ 000000018027d9e0     GuPCMShapeConvex.obj
 0002:0000ba38       ??_C@_0CN@DKDBMDNJ@?4?4?2?4?4?2GeomUtils?2src?2pcm?2GuPCMSha@ 000000018027da38     GuPCMShapeConvex.obj
 0002:0000ba70       ??_C@_0CG@GNMNMEKH@?$CBconvexHull?4hullData?9?$DOmAABB?4isEm@ 000000018027da70     GuPCMShapeConvex.obj
 0002:0000bac8       __real@3f350481            000000018027dac8     GuPCMTriangleContactGen.obj
 0002:0000baf0       ?invalidateThresholds@Gu@physx@@3QBMB 000000018027daf0     GuPersistentContactManifold.obj
 0002:0000bb08       ?invalidateQuatThresholds@Gu@physx@@3QBMB 000000018027db08     GuPersistentContactManifold.obj
 0002:0000bb20       ?invalidateThresholds2@Gu@physx@@3QBMB 000000018027db20     GuPersistentContactManifold.obj
 0002:0000bb30       ?invalidateQuatThresholds2@Gu@physx@@3QBMB 000000018027db30     GuPersistentContactManifold.obj
 0002:0000bb58       ??_C@_0CG@GJLJABKJ@index?5?$DM?5GU_SINGLE_MANIFOLD_CACHE@ 000000018027db58     GuPersistentContactManifold.obj
 0002:0000bb88       ??_C@_0DI@IFAANLGH@?4?4?2?4?4?2GeomUtils?2src?2pcm?2GuPersis@ 000000018027db88     GuPersistentContactManifold.obj
 0002:0000bbd0       ??_C@_0BM@IAGDLKMG@PxIsFinite?$CIcontact?4point?4x?$CJ?$AA@ 000000018027dbd0     GuPersistentContactManifold.obj
 0002:0000bbf8       ??_C@_0BM@IBKBNAPB@PxIsFinite?$CIcontact?4point?4y?$CJ?$AA@ 000000018027dbf8     GuPersistentContactManifold.obj
 0002:0000bc20       ??_C@_0BM@IDOHGOKI@PxIsFinite?$CIcontact?4point?4z?$CJ?$AA@ 000000018027dc20     GuPersistentContactManifold.obj
 0002:0000bc48       ??_C@_0P@ELGPELHO@numPoints?5?$DM?564?$AA@ 000000018027dc48     GuPersistentContactManifold.obj
 0002:0000bc60       ??_C@_09MHFAFEGD@index?$CB?$DN?91?$AA@ 000000018027dc60     GuPersistentContactManifold.obj
 0002:0000bc70       ??_C@_0CL@FCKFFENJ@mManifoldIndices?$FLj?$FN?5?$DM?5GU_MAX_MAN@ 000000018027dc70     GuPersistentContactManifold.obj
 0002:0000bca8       ??_C@_0L@GOEPKHAM@index?5?$DM?564?$AA@ 000000018027dca8     GuPersistentContactManifold.obj
 0002:0000bcb8       ??_C@_0DC@GIJBDMPN@?$CInumManifoldContacts?$CLmanifold?4mN@ 000000018027dcb8     GuPersistentContactManifold.obj
 0002:0000bcf8       ??_C@_0CI@ONBGGNEB@mNumTotalContacts?5?$CL?5numContacts?5@ 000000018027dcf8     GuPersistentContactManifold.obj
 0002:0000bd28       ??_C@_0BD@ECHLPPDI@contactCount?5?$DM?$DN?564?$AA@ 000000018027dd28     GuPersistentContactManifold.obj
 0002:0000bd40       ??_C@_0CB@LLEIBICI@?$CI?$CIuintptr_t?$CIbuffer?$CJ?$CJ?5?$CG?50xF?$CJ?5?$DN?$DN?50@ 000000018027dd40     GuPersistentContactManifold.obj
 0002:0000bd68       ??_C@_0CF@OAJADMCF@numManifolds?5?$DM?$DN?5GU_MAX_MANIFOLD_@ 000000018027dd68     GuPersistentContactManifold.obj
 0002:0000bd98       ??_C@_0CN@EDHLLNEO@numContacts?5?$DM?$DN?5GU_SINGLE_MANIFOL@ 000000018027dd98     GuPersistentContactManifold.obj
 0002:0000bdd0       __xmm@ffffffffffffffff00000000ffffffff 000000018027ddd0     GuPersistentContactManifold.obj
 0002:0000bee0       ??_C@_0DB@PPCBAECJ@?4?4?2?4?4?2GeomUtils?2src?2ccd?2GuCCDSwe@ 000000018027dee0     GuCCDSweepConvexMesh.obj
 0002:0000bf20       ??_C@_0BB@BBBEMHMI@bounds?4isEmpty?$CI?$CJ?$AA@ 000000018027df20     GuCCDSweepConvexMesh.obj
 0002:0000bf38       ??_C@_0BB@MEKIBJBJ@mCenter?4isZero?$CI?$CJ?$AA@ 000000018027df38     GuCCDSweepConvexMesh.obj
 0002:0000bf50       ??_C@_0BI@FNLNGMHP@index?5?$DM?5numTrigsInGroup?$AA@ 000000018027df50     GuCCDSweepConvexMesh.obj
 0002:0000bf6c       ??_C@_05DNDPCAII@b?5?$DO?50?$AA@ 000000018027df6c     GuCCDSweepConvexMesh.obj
 0002:0000bf78       ??_C@_0N@GKOBIJCL@b?5?$DM?5numTrigs?$AA@ 000000018027df78     GuCCDSweepConvexMesh.obj
 0002:0000bf88       ??_C@_0BB@OJIOJHND@index?5?$DM?5numTrigs?$AA@ 000000018027df88     GuCCDSweepConvexMesh.obj
 0002:0000bfa0       ??_C@_0BA@LGEAENIA@PxIsFinite?$CIres?$CJ?$AA@ 000000018027dfa0     GuCCDSweepConvexMesh.obj
 0002:0000bfd0       ??_C@_0N@GOMEIAFN@trB?4x?5?$DN?$DN?50?4f?$AA@ 000000018027dfd0     GuCCDSweepConvexMesh.obj
 0002:0000bfe0       ??_C@_0N@HJLPJEBO@trB?4y?5?$DN?$DN?50?4f?$AA@ 000000018027dfe0     GuCCDSweepConvexMesh.obj
 0002:0000bff0       ??_C@_0N@EADCKINL@trB?4z?5?$DN?$DN?50?4f?$AA@ 000000018027dff0     GuCCDSweepConvexMesh.obj
 0002:0000c000       __real@3f8ccccd            000000018027e000     GuCCDSweepConvexMesh.obj
 0002:0000c038       ??_C@_0DB@CLJPDOAA@?4?4?2?4?4?2GeomUtils?2src?2ccd?2GuCCDSwe@ 000000018027e038     GuCCDSweepPrimitives.obj
 0002:0000c080       ??_C@_0FC@FDLFFOIO@g?4getType?$CI?$CJ?5?$DN?$DN?5PxGeometryType?3?3e@ 000000018027e080     GuCCDSweepPrimitives.obj
 0002:0000c0e8       ??_7?$RelativeConvex@VCapsuleV@Gu@physx@@@Gu@physx@@6B@ 000000018027e0e8     GuCCDSweepPrimitives.obj
 0002:0000c128       ??_7?$RelativeConvex@VShrunkBoxV@Gu@physx@@@Gu@physx@@6B@ 000000018027e128     GuCCDSweepPrimitives.obj
 0002:0000c164       __real@501502f9            000000018027e164     GuCCDSweepPrimitives.obj
 0002:0000c198       ??_C@_0CB@CPLEKHFC@?4?4?2?4?4?2GeomUtils?2src?2GuBounds?4cpp@ 000000018027e198     GuBounds.obj
 0002:0000c1c0       ??_C@_0CH@JBPLDKIF@contactOffset?$DN?$DN0?40f?5?$HM?$HM?5inflation@ 000000018027e1c0     GuBounds.obj
 0002:0000c1f0       ??_C@_0BC@FAEIBAIH@?$CBlocalSpaceBounds?$AA@ 000000018027e1f0     GuBounds.obj
 0002:0000c208       ??_C@_0DG@DFOCGHP@Gu?3?3GeometryUnion?3?3computeBounds@ 000000018027e208     GuBounds.obj
 0002:0000c248       ??_C@_0DN@DDOOAJAL@PhysX?5internal?5error?3?5Invalid?5sh@ 000000018027e248     GuBounds.obj
 0002:0000c2c8       ??_C@_0BO@CHBLACKA@?4?4?2?4?4?2GeomUtils?2src?2GuBox?4cpp?$AA@ 000000018027e2c8     GuBox.obj
 0002:0000c2ec       ??_C@_03OCGOGKMG@pts?$AA@  000000018027e2ec     GuBox.obj
 0002:0000c318       ??_C@_0CI@DDIFKNBF@?4?4?2?4?4?2GeomUtils?2src?2GuCCTSweepTe@ 000000018027e318     GuCCTSweepTests.obj
 0002:0000c348       ??_C@_0CH@OPHEIGHM@geom?4getType?$CI?$CJ?5?$DN?$DN?5PxGeometryType@ 000000018027e348     GuCCTSweepTests.obj
 0002:0000c378       ??_C@_0CK@HKGPECBE@geom?4getType?$CI?$CJ?5?$DN?$DN?5PxGeometryType@ 000000018027e378     GuCCTSweepTests.obj
 0002:0000c3b0       ??_C@_0CL@LIJPEHMM@geom?4getType?$CI?$CJ?5?$DN?$DN?5PxGeometryType@ 000000018027e3b0     GuCCTSweepTests.obj
 0002:0000c428       ??_C@_0CD@CGJJEFHC@Gu?3?3overlap?$CI?$CJ?3?5pose0?5is?5not?5vali@ 000000018027e428     GuGeometryQuery.obj
 0002:0000c460       ??_C@_0EJ@MMLFNDLB@d?3?2github?2fork?2physx?93?44?2physx_3@ 000000018027e460     GuGeometryQuery.obj
 0002:0000c4b8       ??_C@_0CD@IIPBNEOD@Gu?3?3overlap?$CI?$CJ?3?5pose1?5is?5not?5vali@ 000000018027e4b8     GuGeometryQuery.obj
 0002:0000c4e8       ??_C@_0M@HIMKKFD@overlapFunc?$AA@ 000000018027e4e8     GuGeometryQuery.obj
 0002:0000c4f8       ??_C@_0CO@DGHGHPPJ@PxGeometryQuery?3?3sweep?$CI?$CJ?3?5pose0?5@ 000000018027e4f8     GuGeometryQuery.obj
 0002:0000c530       ??_C@_0CI@OEFLDCLG@?4?4?2?4?4?2GeomUtils?2src?2GuGeometryQu@ 000000018027e530     GuGeometryQuery.obj
 0002:0000c560       ??_C@_0CO@JIBOOOGI@PxGeometryQuery?3?3sweep?$CI?$CJ?3?5pose1?5@ 000000018027e560     GuGeometryQuery.obj
 0002:0000c598       ??_C@_0DA@JEEBDBEM@PxGeometryQuery?3?3sweep?$CI?$CJ?3?5unitDi@ 000000018027e598     GuGeometryQuery.obj
 0002:0000c5d8       ??_C@_0DB@KCEKJBPE@PxGeometryQuery?3?3sweep?$CI?$CJ?3?5distan@ 000000018027e5d8     GuGeometryQuery.obj
 0002:0000c620       ??_C@_0FM@HAJNNJNC@PxGeometryQuery?3?3sweep?$CI?$CJ?3?5sweep?5@ 000000018027e620     GuGeometryQuery.obj
 0002:0000c690       ??_C@_0CB@JDDBKCNL@Provided?5geometry?50?5is?5not?5valid@ 000000018027e690     GuGeometryQuery.obj
 0002:0000c6b8       ??_C@_0CB@CKMKHJDD@Provided?5geometry?51?5is?5not?5valid@ 000000018027e6b8     GuGeometryQuery.obj
 0002:0000c6e0       ??_C@_0GL@GJKJELMB@PxGeometryQuery?3?3sweep?$CI?$CJ?3?5first?5@ 000000018027e6e0     GuGeometryQuery.obj
 0002:0000c760       ??_C@_0DB@OMDGMOND@PxGeometryQuery?3?3raycast?$CI?$CJ?3?5rayD@ 000000018027e760     GuGeometryQuery.obj
 0002:0000c7a0       ??_C@_0DE@MGFNMBNA@PxGeometryQuery?3?3raycast?$CI?$CJ?3?5rayO@ 000000018027e7a0     GuGeometryQuery.obj
 0002:0000c7e0       ??_C@_0CP@NHLDPNEB@PxGeometryQuery?3?3raycast?$CI?$CJ?3?5pose@ 000000018027e7e0     GuGeometryQuery.obj
 0002:0000c818       ??_C@_0DB@HPNPNEMP@PxGeometryQuery?3?3raycast?$CI?$CJ?3?5maxD@ 000000018027e818     GuGeometryQuery.obj
 0002:0000c858       ??_C@_0DC@BLMIOBO@PxGeometryQuery?3?3raycast?$CI?$CJ?3?5maxD@ 000000018027e858     GuGeometryQuery.obj
 0002:0000c898       ??_C@_0DP@IPJGHFJE@PxGeometryQuery?3?3raycast?$CI?$CJ?3?5ray?5@ 000000018027e898     GuGeometryQuery.obj
 0002:0000c8e8       ??_C@_0DF@BMEFDPAL@PxGeometryQuery?3?3pointDistance?$CI?$CJ@ 000000018027e8e8     GuGeometryQuery.obj
 0002:0000c930       ??_C@_0GM@KKKGKIEH@PxGeometryQuery?3?3pointDistance?$CI?$CJ@ 000000018027e930     GuGeometryQuery.obj
 0002:0000c9b8       ??_C@_0DG@IHHENNM@PxGeometryQuery?3?3getWorldBounds?$CI@ 000000018027e9b8     GuGeometryQuery.obj
 0002:0000c9f8       ??_C@_0DL@LECAKFBF@PxGeometryQuery?3?3computePenetrat@ 000000018027e9f8     GuGeometryQuery.obj
 0002:0000ca40       ??_C@_0DL@BKEIDEIE@PxGeometryQuery?3?3computePenetrat@ 000000018027ea40     GuGeometryQuery.obj
 0002:0000ca88       ??_C@_07NNLKAPIB@mtdFunc?$AA@ 000000018027ea88     GuGeometryQuery.obj
 0002:0000ca94       __real@49742400            000000018027ea94     GuGeometryQuery.obj
 0002:0000cad0       ??_C@_0EK@DFBOJPEA@d?3?2github?2fork?2physx?93?44?2physx_3@ 000000018027ead0     GuGeometryUnion.obj
 0002:0000cb28       ??_C@_0CI@IMFAJEAC@?4?4?2?4?4?2GeomUtils?2src?2GuGeometryUn@ 000000018027eb28     GuGeometryUnion.obj
 0002:0000cb58       ??_C@_0BK@GFPIJDFH@geometry?5type?5not?5handled?$AA@ 000000018027eb58     GuGeometryUnion.obj
 0002:0000cba8       ??_C@_0CD@EAANMBOL@?4?4?2?4?4?2GeomUtils?2src?2GuInternal?4c@ 000000018027eba8     GuInternal.obj
 0002:0000cc08       ??_7GuMeshFactory@physx@@6B@ 000000018027ec08     GuMeshFactory.obj
 0002:0000cc30       ??_7TriangleMeshData@Gu@physx@@6B@ 000000018027ec30     GuMeshFactory.obj
 0002:0000cc40       ??_C@_0EK@DDFLNAOK@d?3?2github?2fork?2physx?93?44?2physx_3@ 000000018027ec40     GuMeshFactory.obj
 0002:0000cc98       ??_C@_0L@HCMLOHBN@?$CBmVertices?$AA@ 000000018027ec98     GuMeshFactory.obj
 0002:0000cca8       ??_C@_06KDGGGLIJ@PxVec3?$AA@ 000000018027eca8     GuMeshFactory.obj
 0002:0000ccb0       ??_C@_0M@OGEDMEAL@mNbVertices?$AA@ 000000018027ecb0     GuMeshFactory.obj
 0002:0000ccc0       ??_C@_0M@DCCDOKKK@?$CBmTriangles?$AA@ 000000018027ecc0     GuMeshFactory.obj
 0002:0000ccd0       ??_C@_0L@KBOFAKLO@mTriangles?$AA@ 000000018027ecd0     GuMeshFactory.obj
 0002:0000cce0       ??_C@_0BA@OCOIGPII@mGRB_triIndices?$AA@ 000000018027ece0     GuMeshFactory.obj
 0002:0000ccf8       ??_C@_0N@MGGDNHNI@mNbTriangles?$AA@ 000000018027ecf8     GuMeshFactory.obj
 0002:0000cd08       ??_C@_0BC@JJFONCPB@?$CBmMaterialIndices?$AA@ 000000018027ed08     GuMeshFactory.obj
 0002:0000cd20       ??_C@_0O@JGEAIGBH@?$CBmAdjacencies?$AA@ 000000018027ed20     GuMeshFactory.obj
 0002:0000cd30       ??_C@_0M@HMFKPFNM@?$CBmFaceRemap?$AA@ 000000018027ed30     GuMeshFactory.obj
 0002:0000cd40       ??_C@_0BA@EFAKCFON@?$CBmExtraTrigData?$AA@ 000000018027ed40     GuMeshFactory.obj
 0002:0000cd58       ??_7RTreeTriangleData@Gu@physx@@6B@ 000000018027ed58     GuMeshFactory.obj
 0002:0000cd68       ??_7BV4TriangleData@Gu@physx@@6B@ 000000018027ed68     GuMeshFactory.obj
 0002:0000cd78       ??_C@_0CA@ICLBACAF@mesh?5factory?5triangle?5mesh?5hash?$AA@ 000000018027ed78     GuMeshFactory.obj
 0002:0000cda0       ??_C@_0BO@LLOMMPGF@mesh?5factory?5convex?5mesh?5hash?$AA@ 000000018027eda0     GuMeshFactory.obj
 0002:0000cdc8       ??_C@_0BP@KECNHLKG@mesh?5factory?5height?5field?5hash?$AA@ 000000018027edc8     GuMeshFactory.obj
 0002:0000cdf0       ??_C@_0BB@PAEMNLHP@FactoryListeners?$AA@ 000000018027edf0     GuMeshFactory.obj
 0002:0000ce08       ??_C@_0CG@GABGHALN@?4?4?2?4?4?2GeomUtils?2src?2GuMeshFactor@ 000000018027ee08     GuMeshFactory.obj
 0002:0000ce38       ??_C@_0BH@MLPJFOCA@mesh?9?$DOgetRefCount?$CI?$CJ?$DN?$DN1?$AA@ 000000018027ee38     GuMeshFactory.obj
 0002:0000ce60       ??_C@_0GP@NHELMDAL@Loading?5triangle?5mesh?5failed?3?5De@ 000000018027ee60     GuMeshFactory.obj
 0002:0000cef0       ??_C@_0FG@PKANIOEJ@Obsolete?5cooked?5mesh?5found?4?5Mesh@ 000000018027eef0     GuMeshFactory.obj
 0002:0000cf58       ??_C@_0BP@CDOKDACA@RTree?5binary?5image?5load?5error?4?$AA@ 000000018027ef58     GuMeshFactory.obj
 0002:0000cf80       ??_C@_0BN@MJPNIELF@BV4?5binary?5image?5load?5error?4?$AA@ 000000018027ef80     GuMeshFactory.obj
 0002:0000cfa8       ??_C@_0BH@BLJCOMOJ@nb?$DN?$DNdata?9?$DOmNbTriangles?$AA@ 000000018027efa8     GuMeshFactory.obj
 0002:0000cfc8       ??_C@_0BG@KPIDNCEB@data?9?$DOmGRB_triIndices?$AA@ 000000018027efc8     GuMeshFactory.obj
 0002:0000cfe8       ??_C@_0BO@JDPABAOF@BV32?5binary?5image?5load?5error?4?$AA@ 000000018027efe8     GuMeshFactory.obj
 0002:0000d010       ??_C@_0ED@MONOGHJO@D?3?2github?2fork?2PhysX?93?44?2PxShare@ 000000018027f010     GuMeshFactory.obj
 0002:0000d088       ??_C@_0N@BIOECAPM@mAdjacencies?$AA@ 000000018027f088     GuMetaData.obj
 0002:0000d098       ??_C@_07GFCEJNGM@Valency?$AA@ 000000018027f098     GuMetaData.obj
 0002:0000d0a8       ??_C@_07NHGKEEIN@mOffset?$AA@ 000000018027f0a8     GuMetaData.obj
 0002:0000d0b8       ??_C@_0BB@BAGHBMNJ@BigConvexRawData?$AA@ 000000018027f0b8     GuMetaData.obj
 0002:0000d0d0       ??_C@_07PBDEJAAC@mSubdiv?$AA@ 000000018027f0d0     GuMetaData.obj
 0002:0000d0e0       ??_C@_0L@HNPACPGH@mNbSamples?$AA@ 000000018027f0e0     GuMetaData.obj
 0002:0000d0f0       ??_C@_04NCKNBPPK@PxU8?$AA@ 000000018027f0f0     GuMetaData.obj
 0002:0000d0f8       ??_C@_08DEPEKJNI@mSamples?$AA@ 000000018027f0f8     GuMetaData.obj
 0002:0000d104       ??_C@_05LMJPANIN@PxU32?$AA@ 000000018027f104     GuMetaData.obj
 0002:0000d110       ??_C@_08IJDNJBMI@mNbVerts?$AA@ 000000018027f110     GuMetaData.obj
 0002:0000d120       ??_C@_0M@MMKMIJAF@mNbAdjVerts?$AA@ 000000018027f120     GuMetaData.obj
 0002:0000d130       ??_C@_0L@EOKMNILC@mValencies?$AA@ 000000018027f130     GuMetaData.obj
 0002:0000d140       ??_C@_0P@DLGEAMHJ@mAdjacentVerts?$AA@ 000000018027f140     GuMetaData.obj
 0002:0000d158       ??_C@_0O@PFOPBKAM@BigConvexData?$AA@ 000000018027f158     GuMetaData.obj
 0002:0000d168       ??_C@_05PLKALGFN@mData?$AA@ 000000018027f168     GuMetaData.obj
 0002:0000d170       ??_C@_08PEMCLHEM@mVBuffer?$AA@ 000000018027f170     GuMetaData.obj
 0002:0000d180       ??_C@_09FBMAGD@Alignment?$AA@ 000000018027f180     GuMetaData.obj
 0002:0000d190       ??_C@_0BE@KFHIBEEA@InternalObjectsData?$AA@ 000000018027f190     GuMetaData.obj
 0002:0000d1a8       ??_C@_06GIEBFILM@PxReal?$AA@ 000000018027f1a8     GuMetaData.obj
 0002:0000d1b0       ??_C@_07NKGFFIBH@mRadius?$AA@ 000000018027f1b0     GuMetaData.obj
 0002:0000d1c0       ??_C@_08EHFCACAE@mExtents?$AA@ 000000018027f1c0     GuMetaData.obj
 0002:0000d1d0       ??_C@_0BA@LFMGGCBK@HullPolygonData?$AA@ 000000018027f1d0     GuMetaData.obj
 0002:0000d1e4       ??_C@_06BOHHGLB@mPlane?$AA@ 000000018027f1e4     GuMetaData.obj
 0002:0000d1ec       ??_C@_06EHMLHGLN@mVRef8?$AA@ 000000018027f1ec     GuMetaData.obj
 0002:0000d1f8       ??_C@_09BAHHHINI@mMinIndex?$AA@ 000000018027f1f8     GuMetaData.obj
 0002:0000d208       ??_C@_0P@GBLBPIPB@ConvexHullData?$AA@ 000000018027f208     GuMetaData.obj
 0002:0000d220       ??_C@_09JDCJAPKD@PxBounds3?$AA@ 000000018027f220     GuMetaData.obj
 0002:0000d22c       ??_C@_05NDNHIFA@mAABB?$AA@ 000000018027f22c     GuMetaData.obj
 0002:0000d238       ??_C@_0O@LNOGEMJI@mCenterOfMass?$AA@ 000000018027f238     GuMetaData.obj
 0002:0000d248       ??_C@_09CNMCBBKH@mPolygons?$AA@ 000000018027f248     GuMetaData.obj
 0002:0000d258       ??_C@_0BC@KKPDCFJC@mBigConvexRawData?$AA@ 000000018027f258     GuMetaData.obj
 0002:0000d270       ??_C@_08ELDMKGKH@mNbEdges?$AA@ 000000018027f270     GuMetaData.obj
 0002:0000d280       ??_C@_0BA@CGLOHBAC@mNbHullVertices?$AA@ 000000018027f280     GuMetaData.obj
 0002:0000d298       ??_C@_0M@HGFFLLDM@mNbPolygons?$AA@ 000000018027f298     GuMetaData.obj
 0002:0000d2a8       ??_C@_09BHJEMDGO@mInternal?$AA@ 000000018027f2a8     GuMetaData.obj
 0002:0000d2b8       ??_C@_0L@GMFHOMKA@ConvexMesh?$AA@ 000000018027f2b8     GuMetaData.obj
 0002:0000d2c8       ??_C@_0N@KECKKFLK@RefCountable?$AA@ 000000018027f2c8     GuMetaData.obj
 0002:0000d2d8       ??_C@_09ILEBDLJH@mHullData?$AA@ 000000018027f2d8     GuMetaData.obj
 0002:0000d2e4       ??_C@_03DKDIKGNC@mNb?$AA@  000000018027f2e4     GuMetaData.obj
 0002:0000d2e8       ??_C@_0P@ENLHFHMD@mBigConvexData?$AA@ 000000018027f2e8     GuMetaData.obj
 0002:0000d2fc       ??_C@_05ILALLCHK@mMass?$AA@ 000000018027f2fc     GuMetaData.obj
 0002:0000d308       ??_C@_07DBPDADGB@PxMat33?$AA@ 000000018027f308     GuMetaData.obj
 0002:0000d318       ??_C@_08FNBHNDBI@mInertia?$AA@ 000000018027f318     GuMetaData.obj
 0002:0000d328       ??_C@_0O@FCKNKLMJ@GuMeshFactory?$AA@ 000000018027f328     GuMetaData.obj
 0002:0000d338       ??_C@_05MBLIPEMA@PxI16?$AA@ 000000018027f338     GuMetaData.obj
 0002:0000d340       ??_C@_06LNLHEAAG@height?$AA@ 000000018027f340     GuMetaData.obj
 0002:0000d348       ??_C@_0N@HHDGHJN@PxBitAndByte?$AA@ 000000018027f348     GuMetaData.obj
 0002:0000d358       ??_C@_0P@MBBMLBO@materialIndex0?$AA@ 000000018027f358     GuMetaData.obj
 0002:0000d370       ??_C@_0P@BFAKPKFP@materialIndex1?$AA@ 000000018027f370     GuMetaData.obj
 0002:0000d388       ??_C@_0BD@EBLPJEOE@PxHeightFieldFlags?$AA@ 000000018027f388     GuMetaData.obj
 0002:0000d3a0       ??_C@_0BK@FNNCFFCN@PxHeightFieldFormat?3?3Enum?$AA@ 000000018027f3a0     GuMetaData.obj
 0002:0000d3c0       ??_C@_0BA@CLNFMAAA@HeightFieldData?$AA@ 000000018027f3c0     GuMetaData.obj
 0002:0000d3d4       ??_C@_04IMCGAIPI@rows?$AA@ 000000018027f3d4     GuMetaData.obj
 0002:0000d3e0       ??_C@_07HIFEPIJN@columns?$AA@ 000000018027f3e0     GuMetaData.obj
 0002:0000d3f0       ??_C@_08MOAGOABI@rowLimit?$AA@ 000000018027f3f0     GuMetaData.obj
 0002:0000d400       ??_C@_08BAGEHOBO@colLimit?$AA@ 000000018027f400     GuMetaData.obj
 0002:0000d410       ??_C@_09LKDBLADF@nbColumns?$AA@ 000000018027f410     GuMetaData.obj
 0002:0000d420       ??_C@_07ODIFGGLK@samples?$AA@ 000000018027f420     GuMetaData.obj
 0002:0000d430       ??_C@_09GLPKLBIH@thickness?$AA@ 000000018027f430     GuMetaData.obj
 0002:0000d440       ??_C@_0BE@POHEGOJG@convexEdgeThreshold?$AA@ 000000018027f440     GuMetaData.obj
 0002:0000d458       ??_C@_05GECEPKB@flags?$AA@ 000000018027f458     GuMetaData.obj
 0002:0000d460       ??_C@_06DLEPGFEF@format?$AA@ 000000018027f460     GuMetaData.obj
 0002:0000d468       ??_C@_0BF@MOGDNMPL@PxMaterialTableIndex?$AA@ 000000018027f468     GuMetaData.obj
 0002:0000d488       ??_C@_0M@JMJICJJO@HeightField?$AA@ 000000018027f488     GuMetaData.obj
 0002:0000d498       ??_C@_0O@ENGHMLJP@mSampleStride?$AA@ 000000018027f498     GuMetaData.obj
 0002:0000d4a8       ??_C@_0L@EBEEMFFB@mMinHeight?$AA@ 000000018027f4a8     GuMetaData.obj
 0002:0000d4b8       ??_C@_0L@EAEIFPOF@mMaxHeight?$AA@ 000000018027f4b8     GuMetaData.obj
 0002:0000d4c8       ??_C@_0N@FEFJOKKE@mModifyCount?$AA@ 000000018027f4c8     GuMetaData.obj
 0002:0000d4d8       ??_C@_09PHDKHCK@RTreePage?$AA@ 000000018027f4d8     GuMetaData.obj
 0002:0000d4e4       ??_C@_04LLPOBGED@minx?$AA@ 000000018027f4e4     GuMetaData.obj
 0002:0000d4ec       ??_C@_04KCOFCHAC@miny?$AA@ 000000018027f4ec     GuMetaData.obj
 0002:0000d4f4       ??_C@_04IJMIHEMB@minz?$AA@ 000000018027f4f4     GuMetaData.obj
 0002:0000d4fc       ??_C@_04GGOBOBGO@maxx?$AA@ 000000018027f4fc     GuMetaData.obj
 0002:0000d504       ??_C@_04HPPKNACP@maxy?$AA@ 000000018027f504     GuMetaData.obj
 0002:0000d50c       ??_C@_04FENHIDOM@maxz?$AA@ 000000018027f50c     GuMetaData.obj
 0002:0000d514       ??_C@_04HHDFEJON@ptrs?$AA@ 000000018027f514     GuMetaData.obj
 0002:0000d51c       ??_C@_05FFEIGAJF@RTree?$AA@ 000000018027f51c     GuMetaData.obj
 0002:0000d524       ??_C@_06OMCHPNEO@PxVec4?$AA@ 000000018027f524     GuMetaData.obj
 0002:0000d530       ??_C@_0L@NBIFEFLN@mBoundsMin?$AA@ 000000018027f530     GuMetaData.obj
 0002:0000d540       ??_C@_0L@MDAOKBNC@mBoundsMax?$AA@ 000000018027f540     GuMetaData.obj
 0002:0000d550       ??_C@_0N@NJEHLCOF@mInvDiagonal?$AA@ 000000018027f550     GuMetaData.obj
 0002:0000d560       ??_C@_0BA@BEFIGPFG@mDiagonalScaler?$AA@ 000000018027f560     GuMetaData.obj
 0002:0000d578       ??_C@_09DICGGKGO@mPageSize?$AA@ 000000018027f578     GuMetaData.obj
 0002:0000d588       ??_C@_0O@BOFFCNOL@mNumRootPages?$AA@ 000000018027f588     GuMetaData.obj
 0002:0000d598       ??_C@_0L@JKLGBKAE@mNumLevels?$AA@ 000000018027f598     GuMetaData.obj
 0002:0000d5a8       ??_C@_0M@PHDOHJGK@mTotalNodes?$AA@ 000000018027f5a8     GuMetaData.obj
 0002:0000d5b8       ??_C@_0M@GDGHALAO@mTotalPages?$AA@ 000000018027f5b8     GuMetaData.obj
 0002:0000d5c8       ??_C@_06MHCBBJGP@mFlags?$AA@ 000000018027f5c8     GuMetaData.obj
 0002:0000d5d0       ??_C@_0L@LEOGNOEC@SourceMesh?$AA@ 000000018027f5d0     GuMetaData.obj
 0002:0000d5e0       ??_C@_06JFCLJMNN@mVerts?$AA@ 000000018027f5e0     GuMetaData.obj
 0002:0000d5e8       ??_C@_07MPIKOOAP@mNbTris?$AA@ 000000018027f5e8     GuMetaData.obj
 0002:0000d5f8       ??_C@_0N@FBMOMEHF@mTriangles32?$AA@ 000000018027f5f8     GuMetaData.obj
 0002:0000d608       ??_C@_06DHAAKLFK@mRemap?$AA@ 000000018027f608     GuMetaData.obj
 0002:0000d610       ??_C@_0O@NLNHFNO@QuantizedAABB?$AA@ 000000018027f610     GuMetaData.obj
 0002:0000d620       ??_C@_0BC@OOGBEMHH@mData?$FL0?$FN?4mExtents?$AA@ 000000018027f620     GuMetaData.obj
 0002:0000d638       ??_C@_0BB@OCEDKIEF@mData?$FL0?$FN?4mCenter?$AA@ 000000018027f638     GuMetaData.obj
 0002:0000d650       ??_C@_0BC@HFMEAABI@mData?$FL1?$FN?4mExtents?$AA@ 000000018027f650     GuMetaData.obj
 0002:0000d668       ??_C@_0BB@CDMNHHIF@mData?$FL1?$FN?4mCenter?$AA@ 000000018027f668     GuMetaData.obj
 0002:0000d680       ??_C@_0BC@CFKNCOI@mData?$FL2?$FN?4mExtents?$AA@ 000000018027f680     GuMetaData.obj
 0002:0000d698       ??_C@_0BB@LKCPBBIE@mData?$FL2?$FN?4mCenter?$AA@ 000000018027f698     GuMetaData.obj
 0002:0000d6b0       ??_C@_0N@IKODLKBB@BVDataPacked?$AA@ 000000018027f6b0     GuMetaData.obj
 0002:0000d6c0       ??_C@_0M@PNCEBOG@LocalBounds?$AA@ 000000018027f6c0     GuMetaData.obj
 0002:0000d6d0       ??_C@_07GNKDIIKJ@mCenter?$AA@ 000000018027f6d0     GuMetaData.obj
 0002:0000d6dc       ??_C@_05KNFBNCOH@float?$AA@ 000000018027f6dc     GuMetaData.obj
 0002:0000d6e8       ??_C@_0BC@LADJKHPL@mExtentsMagnitude?$AA@ 000000018027f6e8     GuMetaData.obj
 0002:0000d700       ??_C@_07HELIOLAF@BV4Tree?$AA@ 000000018027f700     GuMetaData.obj
 0002:0000d710       ??_C@_0P@EMMDNPMH@mMeshInterface?$AA@ 000000018027f710     GuMetaData.obj
 0002:0000d728       ??_C@_0N@DCKMHLCL@mLocalBounds?$AA@ 000000018027f728     GuMetaData.obj
 0002:0000d738       ??_C@_08EEJOMIJL@mNbNodes?$AA@ 000000018027f738     GuMetaData.obj
 0002:0000d744       ??_C@_06FIIIMFIO@mNodes?$AA@ 000000018027f744     GuMetaData.obj
 0002:0000d750       ??_C@_09FGKNPI@mInitData?$AA@ 000000018027f750     GuMetaData.obj
 0002:0000d760       ??_C@_0BC@CLDEHKCO@mCenterOrMinCoeff?$AA@ 000000018027f760     GuMetaData.obj
 0002:0000d778       ??_C@_0BD@LAOLBNJ@mExtentsOrMaxCoeff?$AA@ 000000018027f778     GuMetaData.obj
 0002:0000d790       ??_C@_0P@JEECKKBL@mUserAllocated?$AA@ 000000018027f790     GuMetaData.obj
 0002:0000d7a8       ??_C@_08BNDBAGDH@mPadding?$AA@ 000000018027f7a8     GuMetaData.obj
 0002:0000d7b8       ??_C@_0N@OJNNNLIB@TriangleMesh?$AA@ 000000018027f7b8     GuMetaData.obj
 0002:0000d7c8       ??_C@_09LNNEGOJA@mVertices?$AA@ 000000018027f7c8     GuMetaData.obj
 0002:0000d7d8       ??_C@_0P@MHDFIHLD@mExtraTrigData?$AA@ 000000018027f7d8     GuMetaData.obj
 0002:0000d7f0       ??_C@_0N@MGIKKCI@mGeomEpsilon?$AA@ 000000018027f7f0     GuMetaData.obj
 0002:0000d800       ??_C@_0BB@IFLOOCNA@mMaterialIndices?$AA@ 000000018027f800     GuMetaData.obj
 0002:0000d818       ??_C@_0L@OPJMBFMI@mFaceRemap?$AA@ 000000018027f818     GuMetaData.obj
 0002:0000d828       ??_C@_0BE@JPINNDAH@mGRB_triAdjacencies?$AA@ 000000018027f828     GuMetaData.obj
 0002:0000d840       ??_C@_0BB@GGAABEIC@mGRB_vertValency?$AA@ 000000018027f840     GuMetaData.obj
 0002:0000d858       ??_C@_0BC@KKFJBAOL@mGRB_adjVertStart?$AA@ 000000018027f858     GuMetaData.obj
 0002:0000d870       ??_C@_0BB@DMHJFHNH@mGRB_adjVertices?$AA@ 000000018027f870     GuMetaData.obj
 0002:0000d888       ??_C@_0BL@FILGDAG@mGRB_meshAdjVerticiesTotal?$AA@ 000000018027f888     GuMetaData.obj
 0002:0000d8a8       ??_C@_0P@EDFJJHEF@mGRB_faceRemap?$AA@ 000000018027f8a8     GuMetaData.obj
 0002:0000d8c0       ??_C@_0O@CKMBAIFN@mGRB_BV32Tree?$AA@ 000000018027f8c0     GuMetaData.obj
 0002:0000d8d0       ??_C@_0BC@IFGECKF@RTreeTriangleMesh?$AA@ 000000018027f8d0     GuMetaData.obj
 0002:0000d8e8       ??_C@_06JDIHDDGN@mRTree?$AA@ 000000018027f8e8     GuMetaData.obj
 0002:0000d8f0       ??_C@_0BA@LNNFPOKA@BV4TriangleMesh?$AA@ 000000018027f8f0     GuMetaData.obj
 0002:0000d908       ??_C@_08FKLPEGDB@mBV4Tree?$AA@ 000000018027f908     GuMetaData.obj
 0002:0000d918       ??_C@_0BG@EAPGHGEI@MaterialIndicesStruct?$AA@ 000000018027f918     GuMetaData.obj
 0002:0000d938       ??_C@_07OKCKIPNN@indices?$AA@ 000000018027f938     GuMetaData.obj
 0002:0000d948       ??_C@_0L@KCBHBGBP@numIndices?$AA@ 000000018027f948     GuMetaData.obj
 0002:0000d958       ??_C@_03PNAAIPML@pad?$AA@  000000018027f958     GuMetaData.obj
 0002:0000d95c       ??_C@_05MOMFAHOB@pad64?$AA@ 000000018027f95c     GuMetaData.obj
 0002:0000d968       ??_C@_0BK@GNJGHDGO@PxConvexMeshGeometryFlags?$AA@ 000000018027f968     GuMetaData.obj
 0002:0000d988       ??_C@_0BJ@LIOOOKID@ShadowConvexMeshGeometry?$AA@ 000000018027f988     GuMetaData.obj
 0002:0000d9a8       ??_C@_0BF@PJFPGDNP@PxGeometryType?3?3Enum?$AA@ 000000018027f9a8     GuMetaData.obj
 0002:0000d9c4       ??_C@_05GNIIDDHH@mType?$AA@ 000000018027f9c4     GuMetaData.obj
 0002:0000d9d0       ??_C@_0M@JFNDEGCE@PxMeshScale?$AA@ 000000018027f9d0     GuMetaData.obj
 0002:0000d9e0       ??_C@_05MHMEBBGO@scale?$AA@ 000000018027f9e0     GuMetaData.obj
 0002:0000d9e8       ??_C@_0L@OKMLGDHH@convexMesh?$AA@ 000000018027f9e8     GuMetaData.obj
 0002:0000d9f8       ??_C@_09PLMNFMJI@meshFlags?$AA@ 000000018027f9f8     GuMetaData.obj
 0002:0000da08       ??_C@_0BB@EINMAHMD@paddingFromFlags?$AA@ 000000018027fa08     GuMetaData.obj
 0002:0000da20       ??_C@_08CICKEKCM@hullData?$AA@ 000000018027fa20     GuMetaData.obj
 0002:0000da30       ??_C@_0O@EOELHBFF@gpuCompatible?$AA@ 000000018027fa30     GuMetaData.obj
 0002:0000da40       ??_C@_0BE@FFPGAPHN@PxMeshGeometryFlags?$AA@ 000000018027fa40     GuMetaData.obj
 0002:0000da58       ??_C@_0BL@KABFLNEB@ShadowTriangleMeshGeometry?$AA@ 000000018027fa58     GuMetaData.obj
 0002:0000da78       ??_C@_0N@FKKDJAHE@triangleMesh?$AA@ 000000018027fa78     GuMetaData.obj
 0002:0000da88       ??_C@_08BEABJAHJ@meshData?$AA@ 000000018027fa88     GuMetaData.obj
 0002:0000da98       ??_C@_0BA@NGIONHFJ@materialIndices?$AA@ 000000018027fa98     GuMetaData.obj
 0002:0000dab0       ??_C@_09JGGNEAGH@materials?$AA@ 000000018027fab0     GuMetaData.obj
 0002:0000dac0       ??_C@_0BK@OIFEOHNJ@ShadowHeightFieldGeometry?$AA@ 000000018027fac0     GuMetaData.obj
 0002:0000dae0       ??_C@_0M@IEKJPCGG@heightField?$AA@ 000000018027fae0     GuMetaData.obj
 0002:0000daf0       ??_C@_0M@LHLNPPJ@heightScale?$AA@ 000000018027faf0     GuMetaData.obj
 0002:0000db00       ??_C@_08GJPCBGLE@rowScale?$AA@ 000000018027fb00     GuMetaData.obj
 0002:0000db10       ??_C@_0M@HHBHEPCE@columnScale?$AA@ 000000018027fb10     GuMetaData.obj
 0002:0000db20       ??_C@_0BB@PMIIHDKK@heightFieldFlags?$AA@ 000000018027fb20     GuMetaData.obj
 0002:0000db38       ??_C@_0BA@DMOKLLHN@heightFieldData?$AA@ 000000018027fb38     GuMetaData.obj
 0002:0000db50       ??_C@_0BE@IKADPPC@ShadowPlaneGeometry?$AA@ 000000018027fb50     GuMetaData.obj
 0002:0000db68       ??_C@_0BF@PIKLLBGN@ShadowSphereGeometry?$AA@ 000000018027fb68     GuMetaData.obj
 0002:0000db84       ??_C@_06KGHINEPG@radius?$AA@ 000000018027fb84     GuMetaData.obj
 0002:0000db90       ??_C@_0BG@OBHJHKMO@ShadowCapsuleGeometry?$AA@ 000000018027fb90     GuMetaData.obj
 0002:0000dbb0       ??_C@_0L@PMAANELH@halfHeight?$AA@ 000000018027fbb0     GuMetaData.obj
 0002:0000dbc0       ??_C@_0BC@DMJNHLLO@ShadowBoxGeometry?$AA@ 000000018027fbc0     GuMetaData.obj
 0002:0000dbd8       ??_C@_0M@CMAEPJOI@halfExtents?$AA@ 000000018027fbd8     GuMetaData.obj
 0002:0000dbe8       ??_C@_0BH@PKALDLFA@PxConvexMeshGeometryLL?$AA@ 000000018027fbe8     GuMetaData.obj
 0002:0000dc08       ??_C@_0BJ@GAFBNAAE@PxTriangleMeshGeometryLL?$AA@ 000000018027fc08     GuMetaData.obj
 0002:0000dc28       ??_C@_0BI@IIFLCNOC@PxHeightFieldGeometryLL?$AA@ 000000018027fc28     GuMetaData.obj
 0002:0000dc48       ??_C@_0BA@NAHKMBFO@PxPlaneGeometry?$AA@ 000000018027fc48     GuMetaData.obj
 0002:0000dc60       ??_C@_0BB@CHBDIEFA@PxSphereGeometry?$AA@ 000000018027fc60     GuMetaData.obj
 0002:0000dc78       ??_C@_0BC@LJMOIOOK@PxCapsuleGeometry?$AA@ 000000018027fc78     GuMetaData.obj
 0002:0000dc90       ??_C@_0O@OEDJDNFP@PxBoxGeometry?$AA@ 000000018027fc90     GuMetaData.obj
 0002:0000dca0       ??_C@_0BC@ICOOCLFG@Gu?3?3GeometryUnion?$AA@ 000000018027fca0     GuMetaData.obj
 0002:0000dce8       ??_C@_0BO@CHOHCGHC@?4?4?2?4?4?2GeomUtils?2src?2GuMTD?4cpp?$AA@ 000000018027fce8     GuMTD.obj
 0002:0000dd10       ??_C@_0O@IBJJNELN@NOT?5SUPPORTED?$AA@ 000000018027fd10     GuMTD.obj
 0002:0000dd20       ??_C@_0CJ@FHHKLFML@geom1?4getType?$CI?$CJ?$DN?$DNPxGeometryType?3@ 000000018027fd20     GuMTD.obj
 0002:0000dd58       ??_C@_0CI@EDOMHHLL@geom1?4getType?$CI?$CJ?$DN?$DNPxGeometryType?3@ 000000018027fd58     GuMTD.obj
 0002:0000dd88       ??_C@_0CK@KONOJNHO@geom1?4getType?$CI?$CJ?$DN?$DNPxGeometryType?3@ 000000018027fd88     GuMTD.obj
 0002:0000ddc0       ??_C@_0CG@JNDFENF@geom1?4getType?$CI?$CJ?$DN?$DNPxGeometryType?3@ 000000018027fdc0     GuMTD.obj
 0002:0000ddf0       ??_C@_0CN@PMLJIDCN@geom1?4getType?$CI?$CJ?$DN?$DNPxGeometryType?3@ 000000018027fdf0     GuMTD.obj
 0002:0000de28       ??_C@_0CI@NGJMKDCO@geom0?4getType?$CI?$CJ?$DN?$DNPxGeometryType?3@ 000000018027fe28     GuMTD.obj
 0002:0000de88       ??_C@_08ECJOCDKG@isSane?$CI?$CJ?$AA@ 000000018027fe88     GuOverlapTests.obj
 0002:0000de98       ??_C@_0CH@MIKFAPPP@?4?4?2?4?4?2GeomUtils?2src?2GuOverlapTes@ 000000018027fe98     GuOverlapTests.obj
 0002:0000dec8       ??_C@_0BI@NLBIFMBL@localDir?4isNormalized?$CI?$CJ?$AA@ 000000018027fec8     GuOverlapTests.obj
 0002:0000dee8       ??_C@_0BB@DBCIGECP@bestVert?5?$CB?$DN?5NULL?$AA@ 000000018027fee8     GuOverlapTests.obj
 0002:0000df00       ??_C@_0EC@MLIJOGHA@Height?5Field?5Overlap?5test?5called@ 000000018027ff00     GuOverlapTests.obj
 0002:0000e010       ??_C@_0CH@DLGIHIFF@?4?4?2?4?4?2GeomUtils?2src?2GuRaycastTes@ 0000000180280010     GuRaycastTests.obj
 0002:0000e040       ??_C@_0BA@KOODMNOH@maxHits?5?$CG?$CG?5hits?$AA@ 0000000180280040     GuRaycastTests.obj
 0002:0000e058       ??_C@_0CJ@FEPECFEE@geom?4getType?$CI?$CJ?5?$DN?$DN?5PxGeometryType@ 0000000180280058     GuRaycastTests.obj
 0002:0000e090       ??_C@_0CO@EAGPPFNG@geom?4getType?$CI?$CJ?5?$DN?$DN?5PxGeometryType@ 0000000180280090     GuRaycastTests.obj
 0002:0000e0c8       ??_C@_0CJ@NGFDDBNC@PxAbs?$CIrayDir?4magnitudeSquared?$CI?$CJ?9@ 00000001802800c8     GuRaycastTests.obj
 0002:0000e100       ??_C@_0M@EPFCJJLP@maxHits?5?$DO?50?$AA@ 0000000180280100     GuRaycastTests.obj
 0002:0000e110       ??_C@_0EC@GJLDADPE@Height?5Field?5Raycast?5test?5called@ 0000000180280110     GuRaycastTests.obj
 0002:0000e220       ??_7MeshMTDGenerationCallback@@6B@ 0000000180280220     GuSweepMTD.obj
 0002:0000e238       ??_C@_0CD@HIDHINOM@?4?4?2?4?4?2GeomUtils?2src?2GuSweepMTD?4c@ 0000000180280238     GuSweepMTD.obj
 0002:0000e268       ??_C@_0DE@IKPPEJO@triangleIndex?5?$DN?$DN?5manifoldContact@ 0000000180280268     GuSweepMTD.obj
 0002:0000e2a8       ??_7MidPhaseQueryLocalReport@@6B@ 00000001802802a8     GuSweepMTD.obj
 0002:0000e2bc       __real@3f933333            00000001802802bc     GuSweepMTD.obj
 0002:0000e2e8       ??_C@_0CL@ECNBMPNK@?4?4?2?4?4?2GeomUtils?2src?2GuSweepShare@ 00000001802802e8     GuSweepSharedTests.obj
 0002:0000e320       ??_C@_07HKLLBGOJ@nbPolys?$AA@ 0000000180280320     GuSweepSharedTests.obj
 0002:0000e358       ??_C@_0CF@DGAJDDIC@?4?4?2?4?4?2GeomUtils?2src?2GuSweepTests@ 0000000180280358     GuSweepTests.obj
 0002:0000e390       ??_C@_0EA@GNDJNJGB@Height?5Field?5Sweep?5test?5called?5w@ 0000000180280390     GuSweepTests.obj
 0002:0000e3e0       __sz_PxFoundationDEBUG_x64_dll 00000001802803e0     PxFoundationDEBUG_x64:PxFoundationDEBUG_x64.dll
 0002:0000e400       ??_C@_1BK@DBDEIDLH@?$AAK?$AAE?$AAR?$AAN?$AAE?$AAL?$AA3?$AA2?$AA?4?$AAD?$AAL?$AAL?$AA?$AA@ 0000000180280400     delayimp:delayhlp.obj
 0002:0000e420       ??_C@_0BI@OMNLIJDB@AcquireSRWLockExclusive?$AA@ 0000000180280420     delayimp:delayhlp.obj
 0002:0000e440       ??_C@_0BI@HMIEPCNJ@ReleaseSRWLockExclusive?$AA@ 0000000180280440     delayimp:delayhlp.obj
 0002:0000e460       __pfnDliFailureHook2       0000000180280460     delayimp:delayhk1.obj
 0002:0000e478       ??_7type_info@@6B@         0000000180280478     MSVCRTD:std_type_info_static.obj
 0002:0000e488       _pDefaultRawDllMain        0000000180280488     MSVCRTD:dll_dllmain.obj
 0002:0000e488       _pRawDllMain               0000000180280488     MSVCRTD:dll_dllmain.obj
 0002:0000e4a0       _load_config_used          00000001802804a0     MSVCRTD:loadcfg.obj
 0002:0000e600       ??_C@_0BJ@HEGAHDFO@Stack?5pointer?5corruption?$AA@ 0000000180280600     MSVCRTD:_userapi_.obj
 0002:0000e620       ??_C@_0CK@FEGOIOPB@Cast?5to?5smaller?5type?5causing?5los@ 0000000180280620     MSVCRTD:_userapi_.obj
 0002:0000e658       ??_C@_0BI@CIGMDCBH@Stack?5memory?5corruption?$AA@ 0000000180280658     MSVCRTD:_userapi_.obj
 0002:0000e678       ??_C@_0CK@CNLNOEPB@Local?5variable?5used?5before?5initi@ 0000000180280678     MSVCRTD:_userapi_.obj
 0002:0000e6b0       ??_C@_0BP@OGBCLIBO@Stack?5around?5_alloca?5corrupted?$AA@ 00000001802806b0     MSVCRTD:_userapi_.obj
 0002:0000e7c0       ??_C@_0NN@NGPKDKPD@The?5value?5of?5ESP?5was?5not?5properl@ 00000001802807c0     MSVCRTD:_error_.obj
 0002:0000e8d0       ??_C@_0BBN@GPMLNJCF@A?5cast?5to?5a?5smaller?5data?5type?5ha@ 00000001802808d0     MSVCRTD:_error_.obj
 0002:0000ea28       ??_C@_0BN@FFOINMNJ@Stack?5memory?5was?5corrupted?6?$AN?$AA@ 0000000180280a28     MSVCRTD:_error_.obj
 0002:0000ea50       ??_C@_0DG@HKJMLLLP@A?5local?5variable?5was?5used?5before@ 0000000180280a50     MSVCRTD:_error_.obj
 0002:0000ea90       ??_C@_0CM@NGINOKPC@Stack?5memory?5around?5_alloca?5was?5@ 0000000180280a90     MSVCRTD:_error_.obj
 0002:0000eac8       ??_C@_0BO@GNIAFIKK@Unknown?5Runtime?5Check?5Error?6?$AN?$AA@ 0000000180280ac8     MSVCRTD:_error_.obj
 0002:0000eaf0       ??_C@_1GM@OLMCBDMB@?$AAR?$AAu?$AAn?$AAt?$AAi?$AAm?$AAe?$AA?5?$AAC?$AAh?$AAe?$AAc?$AAk?$AA?5?$AAE?$AAr?$AAr?$AAo?$AAr?$AA?4?$AA?6?$AA?$AN?$AA?5?$AAU?$AAn?$AAa?$AAb?$AAl?$AAe?$AA?5?$AAt?$AAo@ 0000000180280af0     MSVCRTD:_error_.obj
 0002:0000eb80       ??_C@_1EA@NFKNIFJP@?$AAR?$AAu?$AAn?$AA?9?$AAT?$AAi?$AAm?$AAe?$AA?5?$AAC?$AAh?$AAe?$AAc?$AAk?$AA?5?$AAF?$AAa?$AAi?$AAl?$AAu?$AAr?$AAe?$AA?5?$AA?$CD?$AA?$CF?$AAd?$AA?5?$AA?9?$AA?5?$AA?$CF?$AAs?$AA?$AA@ 0000000180280b80     MSVCRTD:_error_.obj
 0002:0000ebd0       ??_C@_0BB@PFFGGCJP@Unknown?5Filename?$AA@ 0000000180280bd0     MSVCRTD:_error_.obj
 0002:0000ebe8       ??_C@_0BE@GNBOBNCK@Unknown?5Module?5Name?$AA@ 0000000180280be8     MSVCRTD:_error_.obj
 0002:0000ec00       ??_C@_0CA@IODNCDPG@Run?9Time?5Check?5Failure?5?$CD?$CFd?5?9?5?$CFs?$AA@ 0000000180280c00     MSVCRTD:_error_.obj
 0002:0000ec28       ??_C@_0CG@IAFNJNEE@Stack?5corrupted?5near?5unknown?5var@ 0000000180280c28     MSVCRTD:_error_.obj
 0002:0000ec58       ??_C@_05MKKEDADM@?$CF?42X?5?$AA@ 0000000180280c58     MSVCRTD:_error_.obj
 0002:0000ec60       ??_C@_0EJ@LJKNEOLN@Stack?5area?5around?5_alloca?5memory@ 0000000180280c60     MSVCRTD:_error_.obj
 0002:0000ecb8       ??_C@_01EEMJAFIK@?6?$AA@   0000000180280cb8     MSVCRTD:_error_.obj
 0002:0000ecbc       ??_C@_02LLMPMKNF@?$DO?5?$AA@ 0000000180280cbc     MSVCRTD:_error_.obj
 0002:0000ecc0       ??_C@_08OMAHNMHJ@?6Data?3?5?$DM?$AA@ 0000000180280cc0     MSVCRTD:_error_.obj
 0002:0000ecd0       ??_C@_0CK@DKGBICFE@?6Allocation?5number?5within?5this?5f@ 0000000180280cd0     MSVCRTD:_error_.obj
 0002:0000ed08       ??_C@_07DFDJCKFN@?6Size?3?5?$AA@ 0000000180280d08     MSVCRTD:_error_.obj
 0002:0000ed18       ??_C@_0N@MHFFIMFG@?6Address?3?50x?$AA@ 0000000180280d18     MSVCRTD:_error_.obj
 0002:0000ed30       ??_C@_0EI@CLEPFNGI@Stack?5area?5around?5_alloca?5memory@ 0000000180280d30     MSVCRTD:_error_.obj
 0002:0000ed88       ??_C@_0BK@ODNDAGKB@?$CFs?$CFs?$CFp?$CFs?$CFzd?$CFs?$CFd?$CFs?$CFs?$CFs?$CFs?$CFs?$AA@ 0000000180280d88     MSVCRTD:_error_.obj
 0002:0000eda8       ??_C@_0DE@OHJBPMBP@A?5variable?5is?5being?5used?5without@ 0000000180280da8     MSVCRTD:_error_.obj
 0002:0000ee50       ??_C@_1EI@MLPKHBGE@?$AAa?$AAp?$AAi?$AA?9?$AAm?$AAs?$AA?9?$AAw?$AAi?$AAn?$AA?9?$AAc?$AAo?$AAr?$AAe?$AA?9?$AAr?$AAe?$AAg?$AAi?$AAs?$AAt?$AAr?$AAy?$AA?9?$AAl?$AA1?$AA?9?$AA1?$AA?9?$AA0?$AA?4@ 0000000180280e50     MSVCRTD:_pdblkup_.obj
 0002:0000eea8       ??_C@_1BK@JHLNAEJL@?$AAa?$AAd?$AAv?$AAa?$AAp?$AAi?$AA3?$AA2?$AA?4?$AAd?$AAl?$AAl?$AA?$AA@ 0000000180280ea8     MSVCRTD:_pdblkup_.obj
 0002:0000eec8       ??_C@_0O@COHOBMLB@RegOpenKeyExW?$AA@ 0000000180280ec8     MSVCRTD:_pdblkup_.obj
 0002:0000eed8       ??_C@_0BB@GLNAEDBD@RegQueryValueExW?$AA@ 0000000180280ed8     MSVCRTD:_pdblkup_.obj
 0002:0000eef0       ??_C@_0M@HLOHPNFA@RegCloseKey?$AA@ 0000000180280ef0     MSVCRTD:_pdblkup_.obj
 0002:0000ef00       ??_C@_1HE@EBEAGLFB@?$AAS?$AAO?$AAF?$AAT?$AAW?$AAA?$AAR?$AAE?$AA?2?$AAW?$AAo?$AAw?$AA6?$AA4?$AA3?$AA2?$AAN?$AAo?$AAd?$AAe?$AA?2?$AAM?$AAi?$AAc?$AAr?$AAo?$AAs?$AAo?$AAf?$AAt?$AA?2?$AAV@ 0000000180280f00     MSVCRTD:_pdblkup_.obj
 0002:0000ef90       ??_C@_1BG@EABPBLLF@?$AAP?$AAr?$AAo?$AAd?$AAu?$AAc?$AAt?$AAD?$AAi?$AAr?$AA?$AA@ 0000000180280f90     MSVCRTD:_pdblkup_.obj
 0002:0000efd8       ??_C@_1BC@JINFINNJ@?$AAM?$AAS?$AAP?$AAD?$AAB?$AA1?$AA4?$AA0?$AA?$AA@ 0000000180280fd8     MSVCRTD:_pdblkup_.obj
 0002:0000eff0       ??_C@_0BB@KCIACLNC@PDBOpenValidate5?$AA@ 0000000180280ff0     MSVCRTD:_pdblkup_.obj
 0002:0000f004       ??_C@_01KDCPPGHE@r?$AA@    0000000180281004     MSVCRTD:_pdblkup_.obj
 0002:0000f728       ??_R4type_info@@6B@        0000000180281728     MSVCRTD:std_type_info_static.obj
 0002:0000f758       ??_R3type_info@@8          0000000180281758     MSVCRTD:std_type_info_static.obj
 0002:0000f770       ??_R2type_info@@8          0000000180281770     MSVCRTD:std_type_info_static.obj
 0002:0000f780       ??_R1A@?0A@EA@type_info@@8 0000000180281780     MSVCRTD:std_type_info_static.obj
 0002:0000fa40       __rtc_iaa                  0000000180281a40     MSVCRTD:_initsect_.obj
 0002:000105f0       __rtc_izz                  00000001802825f0     MSVCRTD:_initsect_.obj
 0002:00010700       __rtc_taa                  0000000180282700     MSVCRTD:_initsect_.obj
 0002:000112b0       __rtc_tzz                  00000001802832b0     MSVCRTD:_initsect_.obj
 0003:00000000       __pfnDliNotifyHook2        000000018029a000     CmWindowsDelayLoadHook.obj
 0003:00000144       ?mVersion@RTree@Gu@physx@@2IA 000000018029a144     GuRTree.obj
 0003:00000180       ?g_SweepMethodTable@Gu@physx@@3PAY06P6AMAEBUCCDShape@12@0AEBVPxTransform@2@111MAEAVPxVec3@2@2MAEAIM@ZA 000000018029a180     GuCCDSweepPrimitives.obj
 0003:00000308       ?g_TriangleSweepMethodTable@Gu@physx@@3PAP6AMAEBVGeometryUnion@12@0AEBVPxTransform@2@111MAEAVPxVec3@2@2AEBVFastVertex2ShapeScaling@Cm@2@AEAVTriangleV@12@M@ZA 000000018029a308     GuCCDSweepPrimitives.obj
 0003:000003c0       ?gGeomMTDMethodTable@@3PAY06P6A_NAEAVPxVec3@physx@@AEAMAEBVPxGeometry@2@AEBVPxTransform@2@23@ZA 000000018029a3c0     GuMTD.obj
 0003:000005a0       ?gGeomOverlapMethodTable@@3PAY06P6A_NAEBVPxGeometry@physx@@AEBVPxTransform@2@01PEAUTriggerCache@Gu@2@@ZA 000000018029a5a0     GuOverlapTests.obj
 0003:00000778       ?gRaycastMap@@3PAP6AIAEBVPxGeometry@physx@@AEBVPxTransform@2@AEBVPxVec3@2@2MV?$PxFlags@W4Enum@PxHitFlag@physx@@G@2@IPEIAUPxRaycastHit@2@@ZA 000000018029a778     GuRaycastTests.obj
 0003:000007c0       ?gGeomSweepFuncs@@3UGeomSweepFuncs@Gu@physx@@A 000000018029a7c0     GuSweepTests.obj
 0003:00000910       _fltused                   000000018029a910     MSVCRTD:fltused.obj
 0003:00000920       __scrt_native_dllmain_reason 000000018029a920     MSVCRTD:utility.obj
 0003:00000930       __security_cookie_complement 000000018029a930     MSVCRTD:gs_cookie.obj
 0003:00000938       __security_cookie          000000018029a938     MSVCRTD:gs_cookie.obj
 0003:00000950       ?_RTC_ErrorLevels@@3PAHA   000000018029a950     MSVCRTD:_error_.obj
 0003:00000968       __isa_available            000000018029a968     MSVCRTD:_cpu_disp_.obj
 0003:0000096c       __isa_enabled              000000018029a96c     MSVCRTD:_cpu_disp_.obj
 0003:00000970       __memcpy_nt_iters          000000018029a970     MSVCRTD:_cpu_disp_.obj
 0003:00000980       __scrt_ucrt_dll_is_in_use  000000018029a980     MSVCRTD:ucrt_stubs.obj
 0003:00000aa0       ??_R0?AVCollection@Cm@physx@@@8 000000018029aaa0     CmCollection.obj
 0003:00000ad8       ??_R0?AVBigConvexData@physx@@@8 000000018029aad8     GuConvexMesh.obj
 0003:00000b10       ??_R0?AUBV32Data@Gu@physx@@@8 000000018029ab10     GuBV32Build.obj
 0003:00000b40       ??_R0?AUBV32Node@@@8       000000018029ab40     GuBV32Build.obj
 0003:00000b68       ??_R0?AVIndTri16@Gu@physx@@@8 000000018029ab68     GuBV4.obj
 0003:00000b98       ??_R0?AVIndTri32@Gu@physx@@@8 000000018029ab98     GuBV4.obj
 0003:00000bc8       ??_R0?AUBVDataPacked@Gu@physx@@@8 000000018029abc8     GuBV4Build.obj
 0003:00000c00       ??_R0?AUSlab@BV4BuildParams@@@8 000000018029ac00     GuBV4Build.obj
 0003:00000c38       ??_R0?AVAABBTreeNode@Gu@physx@@@8 000000018029ac38     GuBV4Build.obj
 0003:00000c70       ??_R0?AVHeightField@Gu@physx@@@8 000000018029ac70     GuMeshFactory.obj
 0003:00000ca8       ??_R0?AVConvexMesh@Gu@physx@@@8 000000018029aca8     GuMeshFactory.obj
 0003:00000ce0       ??_R0?AVBV4TriangleMesh@Gu@physx@@@8 000000018029ace0     GuMeshFactory.obj
 0003:00000d18       ??_R0?AVRTreeTriangleMesh@Gu@physx@@@8 000000018029ad18     GuMeshFactory.obj
 0003:00000d58       ??_R0?AVMutexImpl@shdfnd@physx@@@8 000000018029ad58     GuMeshFactory.obj
 0003:00000d90       ??_R0?AVBV32Tree@Gu@physx@@@8 000000018029ad90     GuMeshFactory.obj
 0003:00000dc0       ??_R0?AVBV4TriangleData@Gu@physx@@@8 000000018029adc0     GuMeshFactory.obj
 0003:00000df8       ??_R0?AVRTreeTriangleData@Gu@physx@@@8 000000018029adf8     GuMeshFactory.obj
 0003:00000e38       ??_R0E@8                   000000018029ae38     GuMeshFactory.obj
 0003:00000e50       ??_R0I@8                   000000018029ae50     GuMeshFactory.obj
 0003:00000e68       ??_R0G@8                   000000018029ae68     GuMeshFactory.obj
 0003:00000e80       ??_R0?AVtype_info@@@8      000000018029ae80     MSVCRTD:std_type_info_static.obj
 0003:00000fc9       ?_ignore@?2???APxVec3@physx@@QEBAAEBMI@Z@4_NA 000000018029afc9     CmBoxPruning.obj
 0003:00000fca       ?_ignore@?2??intersects@PxBounds3@physx@@QEBA_NAEBV23@@Z@4_NA 000000018029afca     CmBoxPruning.obj
 0003:00000fcb       ?_ignore@?2??growAndPushBack@?$Array@IVNamedAllocator@shdfnd@physx@@@shdfnd@physx@@IEAAAEAIAEBI@Z@4_NA 000000018029afcb     CmBoxPruning.obj
 0003:00000fcd       ?_ignore@?2??check@Iter@?$HashBase@V?$Pair@$$CB_KPEAVPxBase@physx@@@shdfnd@physx@@_KU?$Hash@_K@23@UGetKey@?$HashMapBase@_KPEAVPxBase@physx@@U?$Hash@_K@shdfnd@2@VNonTrackingAllocator@42@@internal@23@VNonTrackingAllocator@23@$00@internal@shdfnd@physx@@QEBAXXZ@4_NA 000000018029afcd     CmCollection.obj
 0003:00000fce       ?_ignore@?2??grow@?$HashBase@V?$Pair@$$CB_KPEAVPxBase@physx@@@shdfnd@physx@@_KU?$Hash@_K@23@UGetKey@?$HashMapBase@_KPEAVPxBase@physx@@U?$Hash@_K@shdfnd@2@VNonTrackingAllocator@42@@internal@23@VNonTrackingAllocator@23@$00@internal@shdfnd@physx@@AEAAXXZ@4_NA 000000018029afce     CmCollection.obj
 0003:00000fcf       ?_ignore@?2??freeListGetNext@?$HashBase@V?$Pair@$$CB_KPEAVPxBase@physx@@@shdfnd@physx@@_KU?$Hash@_K@23@UGetKey@?$HashMapBase@_KPEAVPxBase@physx@@U?$Hash@_K@shdfnd@2@VNonTrackingAllocator@42@@internal@23@VNonTrackingAllocator@23@$00@internal@shdfnd@physx@@AEAAIXZ@4_NA 000000018029afcf     CmCollection.obj
 0003:00000fd0       ?_ignore@?6??freeListGetNext@?$HashBase@V?$Pair@$$CB_KPEAVPxBase@physx@@@shdfnd@physx@@_KU?$Hash@_K@23@UGetKey@?$HashMapBase@_KPEAVPxBase@physx@@U?$Hash@_K@shdfnd@2@VNonTrackingAllocator@42@@internal@23@VNonTrackingAllocator@23@$00@internal@shdfnd@physx@@AEAAIXZ@4_NA 000000018029afd0     CmCollection.obj
 0003:00000fd1       ?_ignore@?2??grow@?$HashBase@V?$Pair@QEAVPxBase@physx@@_K@shdfnd@physx@@PEAVPxBase@3@U?$Hash@PEAVPxBase@physx@@@23@UGetKey@?$HashMapBase@PEAVPxBase@physx@@_KU?$Hash@PEAVPxBase@physx@@@shdfnd@2@VNonTrackingAllocator@42@@internal@23@VNonTrackingAllocator@23@$00@internal@shdfnd@physx@@AEAAXXZ@4_NA 000000018029afd1     CmCollection.obj
 0003:00000fd2       ?_ignore@?4??reserveInternal@?$HashBase@V?$Pair@QEAVPxBase@physx@@_K@shdfnd@physx@@PEAVPxBase@3@U?$Hash@PEAVPxBase@physx@@@23@UGetKey@?$HashMapBase@PEAVPxBase@physx@@_KU?$Hash@PEAVPxBase@physx@@@shdfnd@2@VNonTrackingAllocator@42@@internal@23@VNonTrackingAllocator@23@$00@internal@shdfnd@physx@@AEAAXI@Z@4_NA 000000018029afd2     CmCollection.obj
 0003:00000fd3       ?_ignore@?6??reserveInternal@?$HashBase@V?$Pair@QEAVPxBase@physx@@_K@shdfnd@physx@@PEAVPxBase@3@U?$Hash@PEAVPxBase@physx@@@23@UGetKey@?$HashMapBase@PEAVPxBase@physx@@_KU?$Hash@PEAVPxBase@physx@@@shdfnd@2@VNonTrackingAllocator@42@@internal@23@VNonTrackingAllocator@23@$00@internal@shdfnd@physx@@AEAAXI@Z@4_NA 000000018029afd3     CmCollection.obj
 0003:00000fd4       ?_ignore@?BE@??reserveInternal@?$HashBase@V?$Pair@QEAVPxBase@physx@@_K@shdfnd@physx@@PEAVPxBase@3@U?$Hash@PEAVPxBase@physx@@@23@UGetKey@?$HashMapBase@PEAVPxBase@physx@@_KU?$Hash@PEAVPxBase@physx@@@shdfnd@2@VNonTrackingAllocator@42@@internal@23@VNonTrackingAllocator@23@$00@internal@shdfnd@physx@@AEAAXI@Z@4_NA 000000018029afd4     CmCollection.obj
 0003:00000fd5       ?_ignore@?2??freeListGetNext@?$HashBase@V?$Pair@QEAVPxBase@physx@@_K@shdfnd@physx@@PEAVPxBase@3@U?$Hash@PEAVPxBase@physx@@@23@UGetKey@?$HashMapBase@PEAVPxBase@physx@@_KU?$Hash@PEAVPxBase@physx@@@shdfnd@2@VNonTrackingAllocator@42@@internal@23@VNonTrackingAllocator@23@$00@internal@shdfnd@physx@@AEAAIXZ@4_NA 000000018029afd5     CmCollection.obj
 0003:00000fd6       ?_ignore@?6??freeListGetNext@?$HashBase@V?$Pair@QEAVPxBase@physx@@_K@shdfnd@physx@@PEAVPxBase@3@U?$Hash@PEAVPxBase@physx@@@23@UGetKey@?$HashMapBase@PEAVPxBase@physx@@_KU?$Hash@PEAVPxBase@physx@@@shdfnd@2@VNonTrackingAllocator@42@@internal@23@VNonTrackingAllocator@23@$00@internal@shdfnd@physx@@AEAAIXZ@4_NA 000000018029afd6     CmCollection.obj
 0003:00000fd7       ?_ignore@?3??replaceWithLast@?$HashBase@V?$Pair@$$CB_KPEAVPxBase@physx@@@shdfnd@physx@@_KU?$Hash@_K@23@UGetKey@?$HashMapBase@_KPEAVPxBase@physx@@U?$Hash@_K@shdfnd@2@VNonTrackingAllocator@42@@internal@23@VNonTrackingAllocator@23@$00@internal@shdfnd@physx@@AEAAXI@Z@4_NA 000000018029afd7     CmCollection.obj
 0003:00000fd8       ?_ignore@?5??freeListAdd@?$HashBase@V?$Pair@$$CB_KPEAVPxBase@physx@@@shdfnd@physx@@_KU?$Hash@_K@23@UGetKey@?$HashMapBase@_KPEAVPxBase@physx@@U?$Hash@_K@shdfnd@2@VNonTrackingAllocator@42@@internal@23@VNonTrackingAllocator@23@$00@internal@shdfnd@physx@@AEAAXI@Z@4_NA 000000018029afd8     CmCollection.obj
 0003:00000fd9       ?_ignore@?3??replaceWithLast@?$HashBase@V?$Pair@QEAVPxBase@physx@@_K@shdfnd@physx@@PEAVPxBase@3@U?$Hash@PEAVPxBase@physx@@@23@UGetKey@?$HashMapBase@PEAVPxBase@physx@@_KU?$Hash@PEAVPxBase@physx@@@shdfnd@2@VNonTrackingAllocator@42@@internal@23@VNonTrackingAllocator@23@$00@internal@shdfnd@physx@@AEAAXI@Z@4_NA 000000018029afd9     CmCollection.obj
 0003:00000fda       ?_ignore@?6??freeListAdd@?$HashBase@V?$Pair@QEAVPxBase@physx@@_K@shdfnd@physx@@PEAVPxBase@3@U?$Hash@PEAVPxBase@physx@@@23@UGetKey@?$HashMapBase@PEAVPxBase@physx@@_KU?$Hash@PEAVPxBase@physx@@@shdfnd@2@VNonTrackingAllocator@42@@internal@23@VNonTrackingAllocator@23@$00@internal@shdfnd@physx@@AEAAXII@Z@4_NA 000000018029afda     CmCollection.obj
 0003:00000fdb       ?_ignore@?5??freeListAdd@?$HashBase@V?$Pair@QEAVPxBase@physx@@_K@shdfnd@physx@@PEAVPxBase@3@U?$Hash@PEAVPxBase@physx@@@23@UGetKey@?$HashMapBase@PEAVPxBase@physx@@_KU?$Hash@PEAVPxBase@physx@@@shdfnd@2@VNonTrackingAllocator@42@@internal@23@VNonTrackingAllocator@23@$00@internal@shdfnd@physx@@AEAAXI@Z@4_NA 000000018029afdb     CmCollection.obj
 0003:00000fdc       ?_ignore@?4??reserveInternal@?$HashBase@V?$Pair@$$CB_KPEAVPxBase@physx@@@shdfnd@physx@@_KU?$Hash@_K@23@UGetKey@?$HashMapBase@_KPEAVPxBase@physx@@U?$Hash@_K@shdfnd@2@VNonTrackingAllocator@42@@internal@23@VNonTrackingAllocator@23@$00@internal@shdfnd@physx@@AEAAXI@Z@4_NA 000000018029afdc     CmCollection.obj
 0003:00000fdd       ?_ignore@?6??reserveInternal@?$HashBase@V?$Pair@$$CB_KPEAVPxBase@physx@@@shdfnd@physx@@_KU?$Hash@_K@23@UGetKey@?$HashMapBase@_KPEAVPxBase@physx@@U?$Hash@_K@shdfnd@2@VNonTrackingAllocator@42@@internal@23@VNonTrackingAllocator@23@$00@internal@shdfnd@physx@@AEAAXI@Z@4_NA 000000018029afdd     CmCollection.obj
 0003:00000fde       ?_ignore@?BE@??reserveInternal@?$HashBase@V?$Pair@$$CB_KPEAVPxBase@physx@@@shdfnd@physx@@_KU?$Hash@_K@23@UGetKey@?$HashMapBase@_KPEAVPxBase@physx@@U?$Hash@_K@shdfnd@2@VNonTrackingAllocator@42@@internal@23@VNonTrackingAllocator@23@$00@internal@shdfnd@physx@@AEAAXI@Z@4_NA 000000018029afde     CmCollection.obj
 0003:00000fdf       ?_ignore@?6??freeListAdd@?$HashBase@V?$Pair@$$CB_KPEAVPxBase@physx@@@shdfnd@physx@@_KU?$Hash@_K@23@UGetKey@?$HashMapBase@_KPEAVPxBase@physx@@U?$Hash@_K@shdfnd@2@VNonTrackingAllocator@42@@internal@23@VNonTrackingAllocator@23@$00@internal@shdfnd@physx@@AEAAXII@Z@4_NA 000000018029afdf     CmCollection.obj
 0003:00000fe0       ?_ignore@?2???0PxTransform@physx@@QEAA@AEBVPxVec3@2@AEBVPxQuat@2@@Z@4_NA 000000018029afe0     CmMathUtils.obj
 0003:00000ffc       ?_ignore@?2???A?$Array@UPxDebugText@physx@@VNamedAllocator@shdfnd@2@@shdfnd@physx@@QEAAAEAUPxDebugText@3@I@Z@4_NA 000000018029affc     CmRenderOutput.obj
 0003:00000ffd       ?_ignore@?2??grow@?$Array@DVNamedAllocator@shdfnd@physx@@@shdfnd@physx@@IEAAXI@Z@4_NA 000000018029affd     CmRenderOutput.obj
 0003:00000ffe       ?_ignore@?2??growAndPushBack@?$Array@UPxDebugPoint@physx@@VNamedAllocator@shdfnd@2@@shdfnd@physx@@IEAAAEAUPxDebugPoint@4@AEBU54@@Z@4_NA 000000018029affe     CmRenderOutput.obj
 0003:00000fff       ?_ignore@?2??growAndPushBack@?$Array@UPxDebugLine@physx@@VNamedAllocator@shdfnd@2@@shdfnd@physx@@IEAAAEAUPxDebugLine@4@AEBU54@@Z@4_NA 000000018029afff     CmRenderOutput.obj
 0003:00001000       ?_ignore@?2??growAndPushBack@?$Array@UPxDebugTriangle@physx@@VNamedAllocator@shdfnd@2@@shdfnd@physx@@IEAAAEAUPxDebugTriangle@4@AEBU54@@Z@4_NA 000000018029b000     CmRenderOutput.obj
 0003:00001001       ?_ignore@?2??growAndPushBack@?$Array@UPxDebugText@physx@@VNamedAllocator@shdfnd@2@@shdfnd@physx@@IEAAAEAUPxDebugText@4@AEBU54@@Z@4_NA 000000018029b001     CmRenderOutput.obj
 0003:00001002       ?_ignore@?2??growAndPushBack@?$Array@DVNamedAllocator@shdfnd@physx@@@shdfnd@physx@@IEAAAEADAEBD@Z@4_NA 000000018029b002     CmRenderOutput.obj
 0003:00001003       ?_ignore@?2??recreate@?$Array@DVNamedAllocator@shdfnd@physx@@@shdfnd@physx@@IEAAXI@Z@4_NA 000000018029b003     CmRenderOutput.obj
 0003:00001004       ?_ignore@?2??forceSize_Unsafe@?$Array@UPxDebugLine@physx@@VNamedAllocator@shdfnd@2@@shdfnd@physx@@QEAAXI@Z@4_NA 000000018029b004     CmRenderOutput.obj
 0003:00001005       ?_ignore@?2??grow@?$Array@UPxDebugLine@physx@@VNamedAllocator@shdfnd@2@@shdfnd@physx@@IEAAXI@Z@4_NA 000000018029b005     CmRenderOutput.obj
 0003:00001006       ?_ignore@?2??recreate@?$Array@UPxDebugLine@physx@@VNamedAllocator@shdfnd@2@@shdfnd@physx@@IEAAXI@Z@4_NA 000000018029b006     CmRenderOutput.obj
 0003:00001007       ?_ignore@?2???0PxQuat@physx@@QEAA@MAEBVPxVec3@2@@Z@4_NA 000000018029b007     CmVisualization.obj
 0003:00001008       ?_ignore@?2??contact@ContactBuffer@Gu@physx@@QEAA_NAEBVPxVec3@4@0MI@Z@4_NA 000000018029b008     GuContactBoxBox.obj
 0003:00001083       ?_ignore@?2??to8@shdfnd@physx@@YAEI@Z@4_NA 000000018029b083     GuContactBoxBox.obj
 0003:00001084       ?_ignore@?2???$checkType@$$CBVPxBoxGeometry@physx@@@physx@@YAXAEBVGeometryUnion@Gu@1@@Z@4_NA 000000018029b084     GuContactBoxBox.obj
 0003:00001085       ?_ignore@?2???APxVec3@physx@@QEAAAEAMI@Z@4_NA 000000018029b085     GuContactCapsuleBox.obj
 0003:00001103       ?_ignore@?2???$checkType@$$CBVPxCapsuleGeometry@physx@@@physx@@YAXAEBVGeometryUnion@Gu@1@@Z@4_NA 000000018029b103     GuContactCapsuleBox.obj
 0003:00001183       ?_ignore@?2??getInverse@PxTransform@physx@@QEBA?AV23@XZ@4_NA 000000018029b183     GuContactCapsuleConvex.obj
 0003:00001184       ?_ignore@?2??transform@PxTransform@physx@@QEBA?AVPxVec3@3@AEBV43@@Z@4_NA 000000018029b184     GuContactCapsuleConvex.obj
 0003:00001185       ?_ignore@?2??rotate@PxTransform@physx@@QEBA?AVPxVec3@3@AEBV43@@Z@4_NA 000000018029b185     GuContactCapsuleConvex.obj
 0003:00001186       ?_ignore@?2??transformInv@PxTransform@physx@@QEBA?AV23@AEBV23@@Z@4_NA 000000018029b186     GuContactCapsuleConvex.obj
 0003:00001187       ?_ignore@?3??transformInv@PxTransform@physx@@QEBA?AV23@AEBV23@@Z@4_NA 000000018029b187     GuContactCapsuleConvex.obj
 0003:00001188       ?_ignore@?2???0PxMeshScale@physx@@QEAA@AEBVPxVec3@2@AEBVPxQuat@2@@Z@4_NA 000000018029b188     GuContactCapsuleConvex.obj
 0003:00001203       ?_ignore@?2??V4StoreA@aos@shdfnd@physx@@YAXT__m128@@PEAM@Z@4_NA 000000018029b203     GuContactCapsuleConvex.obj
 0003:00001204       ?_ignore@?2??FStore@aos@shdfnd@physx@@YAXT__m128@@PEIAM@Z@4_NA 000000018029b204     GuContactCapsuleConvex.obj
 0003:00001205       ?_ignore@?2??FAdd@aos@shdfnd@physx@@YA?AT__m128@@T5@0@Z@4_NA 000000018029b205     GuContactCapsuleConvex.obj
 0003:00001206       ?_ignore@?3??FAdd@aos@shdfnd@physx@@YA?AT__m128@@T5@0@Z@4_NA 000000018029b206     GuContactCapsuleConvex.obj
 0003:00001207       ?_ignore@?2??FSub@aos@shdfnd@physx@@YA?AT__m128@@T5@0@Z@4_NA 000000018029b207     GuContactCapsuleConvex.obj
 0003:00001208       ?_ignore@?3??FSub@aos@shdfnd@physx@@YA?AT__m128@@T5@0@Z@4_NA 000000018029b208     GuContactCapsuleConvex.obj
 0003:00001209       ?_ignore@?2??FMul@aos@shdfnd@physx@@YA?AT__m128@@T5@0@Z@4_NA 000000018029b209     GuContactCapsuleConvex.obj
 0003:0000120a       ?_ignore@?3??FMul@aos@shdfnd@physx@@YA?AT__m128@@T5@0@Z@4_NA 000000018029b20a     GuContactCapsuleConvex.obj
 0003:0000120b       ?_ignore@?2??FDiv@aos@shdfnd@physx@@YA?AT__m128@@T5@0@Z@4_NA 000000018029b20b     GuContactCapsuleConvex.obj
 0003:0000120c       ?_ignore@?3??FDiv@aos@shdfnd@physx@@YA?AT__m128@@T5@0@Z@4_NA 000000018029b20c     GuContactCapsuleConvex.obj
 0003:0000120d       ?_ignore@?2??FRecip@aos@shdfnd@physx@@YA?AT__m128@@T5@@Z@4_NA 000000018029b20d     GuContactCapsuleConvex.obj
 0003:0000120e       ?_ignore@?2??FAbs@aos@shdfnd@physx@@YA?AT__m128@@T5@@Z@4_NA 000000018029b20e     GuContactCapsuleConvex.obj
 0003:0000120f       ?_ignore@?2??FSel@aos@shdfnd@physx@@YA?AT__m128@@T5@00@Z@4_NA 000000018029b20f     GuContactCapsuleConvex.obj
 0003:00001210       ?_ignore@?3??FSel@aos@shdfnd@physx@@YA?AT__m128@@T5@00@Z@4_NA 000000018029b210     GuContactCapsuleConvex.obj
 0003:00001211       ?_ignore@?2??FIsGrtr@aos@shdfnd@physx@@YA?AT__m128@@T5@0@Z@4_NA 000000018029b211     GuContactCapsuleConvex.obj
 0003:00001212       ?_ignore@?3??FIsGrtr@aos@shdfnd@physx@@YA?AT__m128@@T5@0@Z@4_NA 000000018029b212     GuContactCapsuleConvex.obj
 0003:00001213       ?_ignore@?2??FIsGrtrOrEq@aos@shdfnd@physx@@YA?AT__m128@@T5@0@Z@4_NA 000000018029b213     GuContactCapsuleConvex.obj
 0003:00001214       ?_ignore@?3??FIsGrtrOrEq@aos@shdfnd@physx@@YA?AT__m128@@T5@0@Z@4_NA 000000018029b214     GuContactCapsuleConvex.obj
 0003:00001215       ?_ignore@?2??FMax@aos@shdfnd@physx@@YA?AT__m128@@T5@0@Z@4_NA 000000018029b215     GuContactCapsuleConvex.obj
 0003:00001216       ?_ignore@?3??FMax@aos@shdfnd@physx@@YA?AT__m128@@T5@0@Z@4_NA 000000018029b216     GuContactCapsuleConvex.obj
 0003:00001217       ?_ignore@?2??FMin@aos@shdfnd@physx@@YA?AT__m128@@T5@0@Z@4_NA 000000018029b217     GuContactCapsuleConvex.obj
 0003:00001218       ?_ignore@?3??FMin@aos@shdfnd@physx@@YA?AT__m128@@T5@0@Z@4_NA 000000018029b218     GuContactCapsuleConvex.obj
 0003:00001219       ?_ignore@?2??FClamp@aos@shdfnd@physx@@YA?AT__m128@@T5@00@Z@4_NA 000000018029b219     GuContactCapsuleConvex.obj
 0003:0000121a       ?_ignore@?3??FClamp@aos@shdfnd@physx@@YA?AT__m128@@T5@00@Z@4_NA 000000018029b21a     GuContactCapsuleConvex.obj
 0003:0000121b       ?_ignore@?2??FAllGrtr@aos@shdfnd@physx@@YAIT__m128@@0@Z@4_NA 000000018029b21b     GuContactCapsuleConvex.obj
 0003:0000121c       ?_ignore@?3??FAllGrtr@aos@shdfnd@physx@@YAIT__m128@@0@Z@4_NA 000000018029b21c     GuContactCapsuleConvex.obj
 0003:0000121d       ?_ignore@?2??FAllGrtrOrEq@aos@shdfnd@physx@@YAIT__m128@@0@Z@4_NA 000000018029b21d     GuContactCapsuleConvex.obj
 0003:0000121e       ?_ignore@?3??FAllGrtrOrEq@aos@shdfnd@physx@@YAIT__m128@@0@Z@4_NA 000000018029b21e     GuContactCapsuleConvex.obj
 0003:0000121f       ?_ignore@?2??FAllEq@aos@shdfnd@physx@@YAIT__m128@@0@Z@4_NA 000000018029b21f     GuContactCapsuleConvex.obj
 0003:00001220       ?_ignore@?3??FAllEq@aos@shdfnd@physx@@YAIT__m128@@0@Z@4_NA 000000018029b220     GuContactCapsuleConvex.obj
 0003:00001221       ?_ignore@?2??V3Splat@aos@shdfnd@physx@@YA?AT__m128@@T5@@Z@4_NA 000000018029b221     GuContactCapsuleConvex.obj
 0003:00001222       ?_ignore@?2??V3GetX@aos@shdfnd@physx@@YA?AT__m128@@T5@@Z@4_NA 000000018029b222     GuContactCapsuleConvex.obj
 0003:00001223       ?_ignore@?2??V3GetY@aos@shdfnd@physx@@YA?AT__m128@@T5@@Z@4_NA 000000018029b223     GuContactCapsuleConvex.obj
 0003:00001224       ?_ignore@?2??V3GetZ@aos@shdfnd@physx@@YA?AT__m128@@T5@@Z@4_NA 000000018029b224     GuContactCapsuleConvex.obj
 0003:00001225       ?_ignore@?2??V3Neg@aos@shdfnd@physx@@YA?AT__m128@@T5@@Z@4_NA 000000018029b225     GuContactCapsuleConvex.obj
 0003:00001226       ?_ignore@?2??V3Add@aos@shdfnd@physx@@YA?AT__m128@@T5@0@Z@4_NA 000000018029b226     GuContactCapsuleConvex.obj
 0003:00001227       ?_ignore@?3??V3Add@aos@shdfnd@physx@@YA?AT__m128@@T5@0@Z@4_NA 000000018029b227     GuContactCapsuleConvex.obj
 0003:00001228       ?_ignore@?2??V3Sub@aos@shdfnd@physx@@YA?AT__m128@@T5@0@Z@4_NA 000000018029b228     GuContactCapsuleConvex.obj
 0003:00001229       ?_ignore@?3??V3Sub@aos@shdfnd@physx@@YA?AT__m128@@T5@0@Z@4_NA 000000018029b229     GuContactCapsuleConvex.obj
 0003:0000122a       ?_ignore@?2??V3Scale@aos@shdfnd@physx@@YA?AT__m128@@T5@0@Z@4_NA 000000018029b22a     GuContactCapsuleConvex.obj
 0003:0000122b       ?_ignore@?3??V3Scale@aos@shdfnd@physx@@YA?AT__m128@@T5@0@Z@4_NA 000000018029b22b     GuContactCapsuleConvex.obj
 0003:0000122c       ?_ignore@?2??V3Mul@aos@shdfnd@physx@@YA?AT__m128@@T5@0@Z@4_NA 000000018029b22c     GuContactCapsuleConvex.obj
 0003:0000122d       ?_ignore@?3??V3Mul@aos@shdfnd@physx@@YA?AT__m128@@T5@0@Z@4_NA 000000018029b22d     GuContactCapsuleConvex.obj
 0003:0000122e       ?_ignore@?2??V3ScaleInv@aos@shdfnd@physx@@YA?AT__m128@@T5@0@Z@4_NA 000000018029b22e     GuContactCapsuleConvex.obj
 0003:0000122f       ?_ignore@?3??V3ScaleInv@aos@shdfnd@physx@@YA?AT__m128@@T5@0@Z@4_NA 000000018029b22f     GuContactCapsuleConvex.obj
 0003:00001230       ?_ignore@?2??V3Recip@aos@shdfnd@physx@@YA?AT__m128@@T5@@Z@4_NA 000000018029b230     GuContactCapsuleConvex.obj
 0003:00001231       ?_ignore@?2??V3ScaleAdd@aos@shdfnd@physx@@YA?AT__m128@@T5@00@Z@4_NA 000000018029b231     GuContactCapsuleConvex.obj
 0003:00001232       ?_ignore@?3??V3ScaleAdd@aos@shdfnd@physx@@YA?AT__m128@@T5@00@Z@4_NA 000000018029b232     GuContactCapsuleConvex.obj
 0003:00001233       ?_ignore@?4??V3ScaleAdd@aos@shdfnd@physx@@YA?AT__m128@@T5@00@Z@4_NA 000000018029b233     GuContactCapsuleConvex.obj
 0003:00001234       ?_ignore@?2??V3NegScaleSub@aos@shdfnd@physx@@YA?AT__m128@@T5@00@Z@4_NA 000000018029b234     GuContactCapsuleConvex.obj
 0003:00001235       ?_ignore@?3??V3NegScaleSub@aos@shdfnd@physx@@YA?AT__m128@@T5@00@Z@4_NA 000000018029b235     GuContactCapsuleConvex.obj
 0003:00001236       ?_ignore@?4??V3NegScaleSub@aos@shdfnd@physx@@YA?AT__m128@@T5@00@Z@4_NA 000000018029b236     GuContactCapsuleConvex.obj
 0003:00001237       ?_ignore@?2??V3Dot@aos@shdfnd@physx@@YA?AT__m128@@T5@0@Z@4_NA 000000018029b237     GuContactCapsuleConvex.obj
 0003:00001238       ?_ignore@?3??V3Dot@aos@shdfnd@physx@@YA?AT__m128@@T5@0@Z@4_NA 000000018029b238     GuContactCapsuleConvex.obj
 0003:00001239       ?_ignore@?2??V3Cross@aos@shdfnd@physx@@YA?AT__m128@@T5@0@Z@4_NA 000000018029b239     GuContactCapsuleConvex.obj
 0003:0000123a       ?_ignore@?3??V3Cross@aos@shdfnd@physx@@YA?AT__m128@@T5@0@Z@4_NA 000000018029b23a     GuContactCapsuleConvex.obj
 0003:0000123b       ?_ignore@?2??V3PrepareCross@aos@shdfnd@physx@@YA?AUVecCrossV@234@T__m128@@@Z@4_NA 000000018029b23b     GuContactCapsuleConvex.obj
 0003:0000123c       ?_ignore@?2??V3Length@aos@shdfnd@physx@@YA?AT__m128@@T5@@Z@4_NA 000000018029b23c     GuContactCapsuleConvex.obj
 0003:0000123d       ?_ignore@?2??V3Normalize@aos@shdfnd@physx@@YA?AT__m128@@T5@@Z@4_NA 000000018029b23d     GuContactCapsuleConvex.obj
 0003:0000123e       ?_ignore@?2??V3Sel@aos@shdfnd@physx@@YA?AT__m128@@T5@00@Z@4_NA 000000018029b23e     GuContactCapsuleConvex.obj
 0003:0000123f       ?_ignore@?2??V3ExtractMin@aos@shdfnd@physx@@YA?AT__m128@@T5@@Z@4_NA 000000018029b23f     GuContactCapsuleConvex.obj
 0003:00001240       ?_ignore@?2??V3AllEq@aos@shdfnd@physx@@YAIT__m128@@0@Z@4_NA 000000018029b240     GuContactCapsuleConvex.obj
 0003:00001241       ?_ignore@?3??V3AllEq@aos@shdfnd@physx@@YAIT__m128@@0@Z@4_NA 000000018029b241     GuContactCapsuleConvex.obj
 0003:00001242       ?_ignore@?2??V3Transpose@aos@shdfnd@physx@@YAXAEAT__m128@@00@Z@4_NA 000000018029b242     GuContactCapsuleConvex.obj
 0003:00001243       ?_ignore@?3??V3Transpose@aos@shdfnd@physx@@YAXAEAT__m128@@00@Z@4_NA 000000018029b243     GuContactCapsuleConvex.obj
 0003:00001244       ?_ignore@?4??V3Transpose@aos@shdfnd@physx@@YAXAEAT__m128@@00@Z@4_NA 000000018029b244     GuContactCapsuleConvex.obj
 0003:00001245       ?_ignore@?2??ConstructSkewMatrix@Gu@physx@@YAXAEBT__m128@@0AEAUMat33V@aos@shdfnd@3@1AEAT4@_N@Z@4_NA 000000018029b245     GuContactCapsuleConvex.obj
 0003:00001246       ?_ignore@?7??GJKCPairDoSimplex@Gu@physx@@YA?AT__m128@@PEIAT4@00AEBT4@AEAI@Z@4_NA 000000018029b246     GuContactCapsuleConvex.obj
 0003:0000124b       ?_ignore@?L@???$gjk@U?$LocalConvex@VCapsuleV@Gu@physx@@@Gu@physx@@U?$LocalConvex@VConvexHullV@Gu@physx@@@23@@Gu@physx@@YA?AW4GjkStatus@12@AEBU?$LocalConvex@VCapsuleV@Gu@physx@@@12@AEBU?$LocalConvex@VConvexHullV@Gu@physx@@@12@AEBT__m128@@2AEAT6@333@Z@4_NA 000000018029b24b     GuContactCapsuleConvex.obj
 0003:0000124c       ?_ignore@?2???$checkType@$$CBUPxConvexMeshGeometryLL@physx@@@physx@@YAXAEBVGeometryUnion@Gu@1@@Z@4_NA 000000018029b24c     GuContactCapsuleConvex.obj
 0003:0000124d       ?_ignore@?2??rotateInv@PxTransform@physx@@QEBA?AVPxVec3@3@AEBV43@@Z@4_NA 000000018029b24d     GuContactCapsuleMesh.obj
 0003:0000124e       ?_ignore@?2??getCenter@PxBounds3@physx@@QEBA?AVPxVec3@3@XZ@4_NA 000000018029b24e     GuContactCapsuleMesh.obj
 0003:0000124f       ?_ignore@?2??getDimensions@PxBounds3@physx@@QEBA?AVPxVec3@3@XZ@4_NA 000000018029b24f     GuContactCapsuleMesh.obj
 0003:00001250       ?_ignore@?2??getExtents@PxBounds3@physx@@QEBA?AVPxVec3@3@XZ@4_NA 000000018029b250     GuContactCapsuleMesh.obj
 0003:00001251       ?_ignore@?2??transformFast@PxBounds3@physx@@SA?AV23@AEBVPxTransform@3@AEBV23@@Z@4_NA 000000018029b251     GuContactCapsuleMesh.obj
 0003:000012d3       ?_ignore@?2??getSample@HeightField@Gu@physx@@QEBAAEBUPxHeightFieldSample@4@I@Z@4_NA 000000018029b2d3     GuContactCapsuleMesh.obj
 0003:000012d4       ?_ignore@?3??initialize@HeightFieldUtil@Gu@physx@@AEAAXXZ@4_NA 000000018029b2d4     GuContactCapsuleMesh.obj
 0003:000012d5       ?_ignore@?4??initialize@HeightFieldUtil@Gu@physx@@AEAAXXZ@4_NA 000000018029b2d5     GuContactCapsuleMesh.obj
 0003:000012d6       ?_ignore@?5??initialize@HeightFieldUtil@Gu@physx@@AEAAXXZ@4_NA 000000018029b2d6     GuContactCapsuleMesh.obj
 0003:000012d7       ?_ignore@?2??clipShapeNormalToVertexVoronoi@HeightFieldUtil@Gu@physx@@QEBA_NAEAVPxVec3@4@III@Z@4_NA 000000018029b2d7     GuContactCapsuleMesh.obj
 0003:000012d8       ?_ignore@?3??clipShapeNormalToVertexVoronoi@HeightFieldUtil@Gu@physx@@QEBA_NAEAVPxVec3@4@III@Z@4_NA 000000018029b2d8     GuContactCapsuleMesh.obj
 0003:000012d9       ?_ignore@?2??getEdgeDirection@HeightFieldUtil@Gu@physx@@QEBA?AVPxVec3@4@II@Z@4_NA 000000018029b2d9     GuContactCapsuleMesh.obj
 0003:000012dc       ?_ignore@?2???0CapsuleMeshContactGeneration@?A0x9a7f2cd7@@QEAA@AEAVContactBuffer@Gu@physx@@AEBVPxTransform@5@AEBVSegment@45@MMM@Z@4_NA 000000018029b2dc     GuContactCapsuleMesh.obj
 0003:000012dd       ?_ignore@?2???0CapsuleMeshContactGenerationCallback_NoScale@?A0x9a7f2cd7@@QEAA@AEAVContactBuffer@Gu@physx@@AEBVPxTransform@5@AEBVSegment@45@MMMPEBVTriangleMesh@45@@Z@4_NA 000000018029b2dd     GuContactCapsuleMesh.obj
 0003:000012de       ?_ignore@?2???0CapsuleHeightfieldContactGenerationCallback@?A0x9a7f2cd7@@QEAA@AEAVContactBuffer@Gu@physx@@AEBVPxTransform@5@AEAVHeightFieldUtil@45@AEBVSegment@45@MMM@Z@4_NA 000000018029b2de     GuContactCapsuleMesh.obj
 0003:000012df       ?_ignore@?2???$checkType@$$CBUPxTriangleMeshGeometryLL@physx@@@physx@@YAXAEBVGeometryUnion@Gu@1@@Z@4_NA 000000018029b2df     GuContactCapsuleMesh.obj
 0003:000012e0       ?_ignore@?2???$checkType@$$CBUPxHeightFieldGeometryLL@physx@@@physx@@YAXAEBVGeometryUnion@Gu@1@@Z@4_NA 000000018029b2e0     GuContactCapsuleMesh.obj
 0003:000013e5       ?_ignore@?2??forceSize_Unsafe@?$Array@IV?$InlineAllocator@$0BBAA@VNamedAllocator@shdfnd@physx@@@shdfnd@physx@@@shdfnd@physx@@QEAAXI@Z@4_NA 000000018029b3e5     GuContactConvexMesh.obj
 0003:000013e6       ?_ignore@?2??grow@?$Array@IV?$InlineAllocator@$0BBAA@VNamedAllocator@shdfnd@physx@@@shdfnd@physx@@@shdfnd@physx@@IEAAXI@Z@4_NA 000000018029b3e6     GuContactConvexMesh.obj
 0003:000013e7       ?_ignore@?2??recreate@?$Array@IV?$InlineAllocator@$0BBAA@VNamedAllocator@shdfnd@physx@@@shdfnd@physx@@@shdfnd@physx@@IEAAXI@Z@4_NA 000000018029b3e7     GuContactConvexMesh.obj
 0003:000015e3       ?_ignore@?2???$checkType@$$CBVPxSphereGeometry@physx@@@physx@@YAXAEBVGeometryUnion@Gu@1@@Z@4_NA 000000018029b5e3     GuContactSphereBox.obj
 0003:00001663       ?_ignore@?2??transformInv@PxTransform@physx@@QEBA?AVPxVec3@3@AEBV43@@Z@4_NA 000000018029b663     GuContactSphereMesh.obj
 0003:000016e3       ?_ignore@?8??generateLastContacts@SphereMeshContactGeneration@?A0x52c5832b@@QEAAXXZ@4_NA 000000018029b6e3     GuContactSphereMesh.obj
 0003:000016e4       ?_ignore@?O@???$sort@USortKey@@U?$Less@USortKey@@@shdfnd@physx@@VNullAllocator@?A0x52c5832b@@@shdfnd@physx@@YAXPEAUSortKey@@IAEBU?$Less@USortKey@@@12@AEBVNullAllocator@?A0x52c5832b@@I@Z@4_NA 000000018029b6e4     GuContactSphereMesh.obj
 0003:000016e5       ?_ignore@?BM@???$sort@USortKey@@U?$Less@USortKey@@@shdfnd@physx@@VNullAllocator@?A0x52c5832b@@@shdfnd@physx@@YAXPEAUSortKey@@IAEBU?$Less@USortKey@@@12@AEBVNullAllocator@?A0x52c5832b@@I@Z@4_NA 000000018029b6e5     GuContactSphereMesh.obj
 0003:000016e6       ?_ignore@?2??pop@?$Stack@VNullAllocator@?A0x52c5832b@@@internal@shdfnd@physx@@QEAAXAEAH0@Z@4_NA 000000018029b6e6     GuContactSphereMesh.obj
 0003:000016e7       ?_ignore@?8???$partition@USortKey@@$$CBU?$Less@USortKey@@@shdfnd@physx@@@internal@shdfnd@physx@@YAHPEAUSortKey@@HHAEBU?$Less@USortKey@@@23@@Z@4_NA 000000018029b6e7     GuContactSphereMesh.obj
 0003:000016e8       ?_ignore@?9???$partition@USortKey@@$$CBU?$Less@USortKey@@@shdfnd@physx@@@internal@shdfnd@physx@@YAHPEAUSortKey@@HHAEBU?$Less@USortKey@@@23@@Z@4_NA 000000018029b6e8     GuContactSphereMesh.obj
 0003:00001865       ?_ignore@?7???$traceSegment@UGuContactTraceSegmentCallback@Gu@physx@@$00$0A@@HeightFieldUtil@Gu@physx@@QEBAXAEBVPxVec3@3@0MPEAUGuContactTraceSegmentCallback@23@AEBVPxBounds3@3@_NPEBV43@@Z@4_NA 000000018029b865     GuLegacyContactBoxHeightField.obj
 0003:00001866       ?_ignore@?P@???$traceSegment@UGuContactTraceSegmentCallback@Gu@physx@@$00$0A@@HeightFieldUtil@Gu@physx@@QEBAXAEBVPxVec3@3@0MPEAUGuContactTraceSegmentCallback@23@AEBVPxBounds3@3@_NPEBV43@@Z@4_NA 000000018029b866     GuLegacyContactBoxHeightField.obj
 0003:00001867       ?_ignore@?BE@???$traceSegment@UGuContactTraceSegmentCallback@Gu@physx@@$00$0A@@HeightFieldUtil@Gu@physx@@QEBAXAEBVPxVec3@3@0MPEAUGuContactTraceSegmentCallback@23@AEBVPxBounds3@3@_NPEBV43@@Z@4_NA 000000018029b867     GuLegacyContactBoxHeightField.obj
 0003:00001868       ?_ignore@?BF@???$traceSegment@UGuContactTraceSegmentCallback@Gu@physx@@$00$0A@@HeightFieldUtil@Gu@physx@@QEBAXAEBVPxVec3@3@0MPEAUGuContactTraceSegmentCallback@23@AEBVPxBounds3@3@_NPEBV43@@Z@4_NA 000000018029b868     GuLegacyContactBoxHeightField.obj
 0003:000018e3       ?_ignore@?2??getTriangleVertices@HeightField@Gu@physx@@QEBAXIIIAEAVPxVec3@4@00@Z@4_NA 000000018029b8e3     GuLegacyContactCapsuleHeightField.obj
 0003:00001963       ?_ignore@?2??isInCache@EdgeCache@Gu@physx@@QEAA_NEE@Z@4_NA 000000018029b963     GuLegacyContactConvexHeightField.obj
 0003:000019e3       ?_ignore@?2??contact@ContactBuffer@Gu@physx@@QEAA_NAEBVPxVec3@4@0MGI@Z@4_NA 000000018029b9e3     GuLegacyContactSphereHeightField.obj
 0003:00001a63       ?_ignore@?2??FIsEq@aos@shdfnd@physx@@YA?AT__m128@@T5@0@Z@4_NA 000000018029ba63     GuBarycentricCoordinates.obj
 0003:00001a64       ?_ignore@?3??FIsEq@aos@shdfnd@physx@@YA?AT__m128@@T5@0@Z@4_NA 000000018029ba64     GuBarycentricCoordinates.obj
 0003:00001a65       ?_ignore@?2??to16@shdfnd@physx@@YAGI@Z@4_NA 000000018029ba65     GuBigConvexData.obj
 0003:00001a68       ?_ignore@?2??isEmpty@Cm@physx@@YA_NAEBVPxVec3@3@0@Z@4_NA 000000018029ba68     GuConvexHelper.obj
 0003:00001a69       ?_ignore@?2??transformFast@CenterExtents@Gu@physx@@QEBA?AVPxBounds3@4@AEBVPxMat33@4@@Z@4_NA 000000018029ba69     GuConvexHelper.obj
 0003:00001ae5       ?_ignore@?2???0RefCountable@Cm@physx@@QEAA@I@Z@4_NA 000000018029bae5     GuConvexMesh.obj
 0003:00001ae6       ?_ignore@?2??incRefCount@RefCountable@Cm@physx@@QEAAXXZ@4_NA 000000018029bae6     GuConvexMesh.obj
 0003:00001ae7       ?_ignore@?2??decRefCount@RefCountable@Cm@physx@@QEAAXXZ@4_NA 000000018029bae7     GuConvexMesh.obj
 0003:00001b60       ?boxVertexTable@physx@@3QBT__m128@@B 000000018029bb60     GuConvexSupportTable.obj
 0003:00001e43       ?_ignore@?2??FScaleAdd@aos@shdfnd@physx@@YA?AT__m128@@T5@00@Z@4_NA 000000018029be43     GuDistanceSegmentSegment.obj
 0003:00001e44       ?_ignore@?3??FScaleAdd@aos@shdfnd@physx@@YA?AT__m128@@T5@00@Z@4_NA 000000018029be44     GuDistanceSegmentSegment.obj
 0003:00001e45       ?_ignore@?4??FScaleAdd@aos@shdfnd@physx@@YA?AT__m128@@T5@00@Z@4_NA 000000018029be45     GuDistanceSegmentSegment.obj
 0003:00001e46       ?_ignore@?2??V4Splat@aos@shdfnd@physx@@YA?AT__m128@@T5@@Z@4_NA 000000018029be46     GuDistanceSegmentSegment.obj
 0003:00001ec3       ?_ignore@?2??FNeg@aos@shdfnd@physx@@YA?AT__m128@@T5@@Z@4_NA 000000018029bec3     GuDistanceSegmentTriangle.obj
 0003:00002433       ?_ignore@?5??getInitIndex@Gu@physx@@YAIPEIBII@Z@4_NA 000000018029c433     GuSweepCapsuleTriangle.obj
 0003:00002434       ?_ignore@?4??shouldFlipNormal@Gu@physx@@YA_NAEBVPxVec3@3@_N100@Z@4_NA 000000018029c434     GuSweepCapsuleTriangle.obj
 0003:00002533       ?_ignore@?2??V3IsGrtr@aos@shdfnd@physx@@YA?AT__m128@@T5@0@Z@4_NA 000000018029c533     GuSweepTriangleUtils.obj
 0003:00002534       ?_ignore@?3??V3IsGrtr@aos@shdfnd@physx@@YA?AT__m128@@T5@0@Z@4_NA 000000018029c534     GuSweepTriangleUtils.obj
 0003:00002535       ?_ignore@?2??VecI32V_Sel@aos@shdfnd@physx@@YA?AT__m128@@T5@AEBT5@1@Z@4_NA 000000018029c535     GuSweepTriangleUtils.obj
 0003:00002538       ?_ignore@?L@???$gjk@U?$LocalConvex@VTriangleV@Gu@physx@@@Gu@physx@@U?$LocalConvex@VBoxV@Gu@physx@@@23@@Gu@physx@@YA?AW4GjkStatus@12@AEBU?$LocalConvex@VTriangleV@Gu@physx@@@12@AEBU?$LocalConvex@VBoxV@Gu@physx@@@12@AEBT__m128@@2AEAT6@333@Z@4_NA 000000018029c538     GuSweepTriangleUtils.obj
 0003:000025b3       ?_ignore@?2??FRsqrt@aos@shdfnd@physx@@YA?AT__m128@@T5@@Z@4_NA 000000018029c5b3     GuEPA.obj
 0003:000025b4       ?_ignore@?2??FNegScaleSub@aos@shdfnd@physx@@YA?AT__m128@@T5@00@Z@4_NA 000000018029c5b4     GuEPA.obj
 0003:000025b5       ?_ignore@?3??FNegScaleSub@aos@shdfnd@physx@@YA?AT__m128@@T5@00@Z@4_NA 000000018029c5b5     GuEPA.obj
 0003:000025b6       ?_ignore@?4??FNegScaleSub@aos@shdfnd@physx@@YA?AT__m128@@T5@00@Z@4_NA 000000018029c5b6     GuEPA.obj
 0003:000025b7       ?_ignore@?2??V3Abs@aos@shdfnd@physx@@YA?AT__m128@@T5@@Z@4_NA 000000018029c5b7     GuEPA.obj
 0003:000025b8       ?_ignore@?2??V3Max@aos@shdfnd@physx@@YA?AT__m128@@T5@0@Z@4_NA 000000018029c5b8     GuEPA.obj
 0003:000025b9       ?_ignore@?3??V3Max@aos@shdfnd@physx@@YA?AT__m128@@T5@0@Z@4_NA 000000018029c5b9     GuEPA.obj
 0003:000025ba       ?_ignore@?2??toI8@shdfnd@physx@@YACI@Z@4_NA 000000018029c5ba     GuEPA.obj
 0003:000025bb       ?_ignore@?2??getSource@Edge@Gu@physx@@QEBAIXZ@4_NA 000000018029c5bb     GuEPA.obj
 0003:000025bc       ?_ignore@?2??getTarget@Edge@Gu@physx@@QEBAIXZ@4_NA 000000018029c5bc     GuEPA.obj
 0003:000025bd       ?_ignore@?2??Insert@EdgeBuffer@Gu@physx@@QEAAPEAVEdge@34@PEIAVFacet@34@I@Z@4_NA 000000018029c5bd     GuEPA.obj
 0003:000025be       ?_ignore@?2??Get@EdgeBuffer@Gu@physx@@QEAAPEAVEdge@34@I@Z@4_NA 000000018029c5be     GuEPA.obj
 0003:000025c1       ?_ignore@?4??silhouette@Facet@Gu@physx@@QEAAXIAEBT__m128@@PEIBT5@1AEAVEdgeBuffer@34@AEAV?$InlineDeferredIDPool@$0EA@@Cm@4@@Z@4_NA 000000018029c5c1     GuEPA.obj
 0003:000025c2       ?_ignore@?O@??silhouette@Facet@Gu@physx@@QEAAXIAEBT__m128@@PEIBT5@1AEAVEdgeBuffer@34@AEAV?$InlineDeferredIDPool@$0EA@@Cm@4@@Z@4_NA 000000018029c5c2     GuEPA.obj
 0003:000025c9       ?_ignore@?2??pop@?$PriorityQueueBase@PEAVFacet@Gu@physx@@UFacetDistanceComparator@23@@Cm@physx@@QEAAPEAVFacet@Gu@4@XZ@4_NA 000000018029c5c9     GuEPA.obj
 0003:000025ca       ?_ignore@?7??pop@?$PriorityQueueBase@PEAVFacet@Gu@physx@@UFacetDistanceComparator@23@@Cm@physx@@QEAAPEAVFacet@Gu@4@XZ@4_NA 000000018029c5ca     GuEPA.obj
 0003:000025cb       ?_ignore@?2??push@?$InlinePriorityQueue@PEAVFacet@Gu@physx@@$0EA@UFacetDistanceComparator@23@@Cm@physx@@QEAAXAEAPEAVFacet@Gu@4@@Z@4_NA 000000018029c5cb     GuEPA.obj
 0003:000025cc       ?_ignore@?2???A?$InlineFixedArray@I$0EA@@Cm@physx@@QEAAAEAII@Z@4_NA 000000018029c5cc     GuEPA.obj
 0003:000025cd       ?_ignore@?2??popBack@?$InlineFixedArray@I$0EA@@Cm@physx@@QEAAIXZ@4_NA 000000018029c5cd     GuEPA.obj
 0003:000025ce       ?_ignore@?2??pushBack@?$InlineFixedArray@I$0EA@@Cm@physx@@QEAAXAEBI@Z@4_NA 000000018029c5ce     GuEPA.obj
 0003:000025cf       ?_ignore@?4??push@?$PriorityQueueBase@PEAVFacet@Gu@physx@@UFacetDistanceComparator@23@@Cm@physx@@QEAAXAEBQEAVFacet@Gu@4@@Z@4_NA 000000018029c5cf     GuEPA.obj
 0003:00002643       ?_ignore@?2??V4Merge@aos@shdfnd@physx@@YA?AT__m128@@AEBT5@000@Z@4_NA 000000018029c643     GuGJKSimplex.obj
 0003:00002644       ?_ignore@?3??V4Merge@aos@shdfnd@physx@@YA?AT__m128@@AEBT5@000@Z@4_NA 000000018029c644     GuGJKSimplex.obj
 0003:00002645       ?_ignore@?4??V4Merge@aos@shdfnd@physx@@YA?AT__m128@@AEBT5@000@Z@4_NA 000000018029c645     GuGJKSimplex.obj
 0003:00002646       ?_ignore@?5??V4Merge@aos@shdfnd@physx@@YA?AT__m128@@AEBT5@000@Z@4_NA 000000018029c646     GuGJKSimplex.obj
 0003:000026c3       ?_ignore@?2??V3NormalizeSafe@aos@shdfnd@physx@@YA?AT__m128@@T5@0@Z@4_NA 000000018029c6c3     GuGJKTest.obj
 0003:000026c4       ?_ignore@?7??GJKCPairDoSimplex@Gu@physx@@YA?AT__m128@@PEIAT4@00PEIAH1AEBT4@AEAI@Z@4_NA 000000018029c6c4     GuGJKTest.obj
 0003:000026c5       ?_ignore@?2??to8@shdfnd@physx@@YAEH@Z@4_NA 000000018029c6c5     GuGJKTest.obj
 0003:000026c6       ?_ignore@?3??to8@shdfnd@physx@@YAEH@Z@4_NA 000000018029c6c6     GuGJKTest.obj
 0003:000026c7       ?_ignore@?5??assignWarmStartValue@Gu@physx@@YAXPEIAE0AEAEPEIAH2I@Z@4_NA 000000018029c6c7     GuGJKTest.obj
 0003:000026c8       ?_ignore@?L@???$gjk@UGjkConvex@Gu@physx@@U123@@Gu@physx@@YA?AW4GjkStatus@12@AEBUGjkConvex@12@0AEBT__m128@@1AEAT5@222@Z@4_NA 000000018029c6c8     GuGJKTest.obj
 0003:000026c9       ?_ignore@?BD@???$gjkRaycast@UGjkConvex@Gu@physx@@U123@@Gu@physx@@YA_NAEBUGjkConvex@12@0AEBT__m128@@111AEAT4@22M@Z@4_NA 000000018029c6c9     GuGJKTest.obj
 0003:000026ca       ?_ignore@?BC@???$gjkPenetration@UGjkConvex@Gu@physx@@U123@@Gu@physx@@YA?AW4GjkStatus@12@AEBUGjkConvex@12@0AEBT__m128@@1AEAT5@222PEIAE3AEAE_N@Z@4_NA 000000018029c6ca     GuGJKTest.obj
 0003:000026cb       ?_ignore@?BI@???$gjkPenetration@UGjkConvex@Gu@physx@@U123@@Gu@physx@@YA?AW4GjkStatus@12@AEBUGjkConvex@12@0AEBT__m128@@1AEAT5@222PEIAE3AEAE_N@Z@4_NA 000000018029c6cb     GuGJKTest.obj
 0003:000026cc       ?_ignore@?BM@???$gjkPenetration@UGjkConvex@Gu@physx@@U123@@Gu@physx@@YA?AW4GjkStatus@12@AEBUGjkConvex@12@0AEBT__m128@@1AEAT5@222PEIAE3AEAE_N@Z@4_NA 000000018029c6cc     GuGJKTest.obj
 0003:000026ce       ?_ignore@?2???$PxClamp@M@physx@@YAMMMM@Z@4_NA 000000018029c6ce     GuIntersectionCapsuleTriangle.obj
 0003:00002743       ?_ignore@?2??V3IsGrtrOrEq@aos@shdfnd@physx@@YA?AT__m128@@T5@0@Z@4_NA 000000018029c743     GuIntersectionRayBox.obj
 0003:00002744       ?_ignore@?3??V3IsGrtrOrEq@aos@shdfnd@physx@@YA?AT__m128@@T5@0@Z@4_NA 000000018029c744     GuIntersectionRayBox.obj
 0003:00002745       ?_ignore@?2??V3Min@aos@shdfnd@physx@@YA?AT__m128@@T5@0@Z@4_NA 000000018029c745     GuIntersectionRayBox.obj
 0003:00002746       ?_ignore@?3??V3Min@aos@shdfnd@physx@@YA?AT__m128@@T5@0@Z@4_NA 000000018029c746     GuIntersectionRayBox.obj
 0003:00002747       ?_ignore@?2??V3Sign@aos@shdfnd@physx@@YA?AT__m128@@T5@@Z@4_NA 000000018029c747     GuIntersectionRayBox.obj
 0003:000027d6       ?_ignore@?2??getChildOffset@BV32Data@Gu@physx@@QEBAIXZ@4_NA 000000018029c7d6     GuBV32.obj
 0003:000027d7       ?_ignore@?2??getNbChildren@BV32Data@Gu@physx@@QEBAIXZ@4_NA 000000018029c7d7     GuBV32.obj
 0003:00002855       ?_ignore@?6??_Flatten@Local@?8??BuildBV32Internal@@YA_NAEAVBV32Tree@Gu@physx@@AEBVAABBTree@56@PEAVSourceMesh@56@M@Z@SAXQEAUBV32Data@56@IAEAIPEBUBV32Node@@44I@Z@4_NA 000000018029c855     GuBV32Build.obj
 0003:00002856       ?_ignore@?9??_Flatten@Local@?8??BuildBV32Internal@@YA_NAEAVBV32Tree@Gu@physx@@AEBVAABBTree@56@PEAVSourceMesh@56@M@Z@SAXQEAUBV32Data@56@IAEAIPEBUBV32Node@@44I@Z@4_NA 000000018029c856     GuBV32Build.obj
 0003:00002857       ?_ignore@?O@??_Flatten@Local@?8??BuildBV32Internal@@YA_NAEAVBV32Tree@Gu@physx@@AEBVAABBTree@56@PEAVSourceMesh@56@M@Z@SAXQEAUBV32Data@56@IAEAIPEBUBV32Node@@44I@Z@4_NA 000000018029c857     GuBV32Build.obj
 0003:00002862       ?_ignore@?2??getCenter@PxBounds3@physx@@QEBAMI@Z@4_NA 000000018029c862     GuBV4Build.obj
 0003:00002863       ?_ignore@?2??encodePNS@BVDataPacked@Gu@physx@@QEAAXI@Z@4_NA 000000018029c863     GuBV4Build.obj
 0003:000029c3       ?_ignore@?2??V4LoadA@aos@shdfnd@physx@@YA?AT__m128@@QEBM@Z@4_NA 000000018029c9c3     GuBV4_AABBSweep.obj
 0003:000029c4       ?_ignore@?4??shouldFlipNormal@Gu@physx@@YA_NAEBVPxVec3@3@_N1AEBVPxTriangle@3@0PEBVPxTransform@3@@Z@4_NA 000000018029c9c4     GuBV4_AABBSweep.obj
 0003:000029c5       ?_ignore@?7??doLeafTest@LeafFunction_BoxSweepCB@?A0xdcb8a426@@SAHPEIAUBoxSweepParamsCB@3@I@Z@4_NA 000000018029c9c5     GuBV4_AABBSweep.obj
 0003:00002ac3       ?_ignore@?7??doLeafTest@LeafFunction_CapsuleSweepCB@?A0xa193c2f7@@SAHPEIAUCapsuleSweepParamsCB@3@I@Z@4_NA 000000018029cac3     GuBV4_CapsuleSweep.obj
 0003:00002c23       ?_ignore@?7??doLeafTest@LeafFunction_BoxSweepCB@?A0xbbecb495@@SAHPEIAUBoxSweepParamsCB@3@I@Z@4_NA 000000018029cc23     GuBV4_OBBSweep.obj
 0003:00002e63       ?_ignore@?7??doLeafTest@LeafFunction_SphereSweepCB@?A0xadd2e74d@@SAHPEIAUSphereSweepParamsCB@3@I@Z@4_NA 000000018029ce63     GuBV4_SphereSweep.obj
 0003:00002f63       ?_ignore@?2??computeSweepData@physx@@YAMAEBVPxTriangleMeshGeometry@2@AEAVPxVec3@2@11M@Z@4_NA 000000018029cf63     GuMidphaseBV4.obj
 0003:00002f64       ?_ignore@?3??computeSweepData@physx@@YAMAEBVPxTriangleMeshGeometry@2@AEAVPxVec3@2@11M@Z@4_NA 000000018029cf64     GuMidphaseBV4.obj
 0003:00002fe7       ?_ignore@?5???1?$RayRTreeCallback@$0A@$0A@@@UEAA@XZ@4_NA 000000018029cfe7     GuMidphaseRTree.obj
 0003:00002fe8       ?_ignore@?2??processResults@?$RayRTreeCallback@$0A@$0A@@@UEAA_NIPEAIAEAM@Z@4_NA 000000018029cfe8     GuMidphaseRTree.obj
 0003:00002fe9       ?_ignore@?2???0?$RayRTreeCallback@$0A@$0A@@@QEAA@MAEAU?$MeshHitCallback@UPxRaycastHit@physx@@@Gu@physx@@HPEBXPEBVPxVec3@4@AEBV54@3M_N2@Z@4_NA 000000018029cfe9     GuMidphaseRTree.obj
 0003:00002fed       ?_ignore@?5???1?$RayRTreeCallback@$00$00@@UEAA@XZ@4_NA 000000018029cfed     GuMidphaseRTree.obj
 0003:00002fee       ?_ignore@?2??processResults@?$RayRTreeCallback@$00$00@@UEAA_NIPEAIAEAM@Z@4_NA 000000018029cfee     GuMidphaseRTree.obj
 0003:00002fef       ?_ignore@?2???0?$RayRTreeCallback@$00$00@@QEAA@MAEAU?$MeshHitCallback@UPxRaycastHit@physx@@@Gu@physx@@HPEBXPEBVPxVec3@4@AEBV54@3M_N2@Z@4_NA 000000018029cfef     GuMidphaseRTree.obj
 0003:00002ff0       ?_ignore@?5???1?$RayRTreeCallback@$0A@$00@@UEAA@XZ@4_NA 000000018029cff0     GuMidphaseRTree.obj
 0003:00002ff1       ?_ignore@?2??processResults@?$RayRTreeCallback@$0A@$00@@UEAA_NIPEAIAEAM@Z@4_NA 000000018029cff1     GuMidphaseRTree.obj
 0003:00002ff2       ?_ignore@?2???0?$RayRTreeCallback@$0A@$00@@QEAA@MAEAU?$MeshHitCallback@UPxRaycastHit@physx@@@Gu@physx@@HPEBXPEBVPxVec3@4@AEBV54@3M_N2@Z@4_NA 000000018029cff2     GuMidphaseRTree.obj
 0003:00002ff3       ?_ignore@?5???1?$RayRTreeCallback@$00$0A@@@UEAA@XZ@4_NA 000000018029cff3     GuMidphaseRTree.obj
 0003:00002ff4       ?_ignore@?2??processResults@?$RayRTreeCallback@$00$0A@@@UEAA_NIPEAIAEAM@Z@4_NA 000000018029cff4     GuMidphaseRTree.obj
 0003:00002ff5       ?_ignore@?2???0?$RayRTreeCallback@$00$0A@@@QEAA@MAEAU?$MeshHitCallback@UPxRaycastHit@physx@@@Gu@physx@@HPEBXPEBVPxVec3@4@AEBV54@3M_N2@Z@4_NA 000000018029cff5     GuMidphaseRTree.obj
 0003:0000307d       ?_ignore@?L@???$gjk@U?$RelativeConvex@VTriangleV@Gu@physx@@@Gu@physx@@U?$LocalConvex@VConvexHullV@Gu@physx@@@23@@Gu@physx@@YA?AW4GjkStatus@12@AEBU?$RelativeConvex@VTriangleV@Gu@physx@@@12@AEBU?$LocalConvex@VConvexHullV@Gu@physx@@@12@AEBT__m128@@2AEAT6@333@Z@4_NA 000000018029d07d     GuOverlapTestsMesh.obj
 0003:000030f6       ?_ignore@?2??getNode@RTreePage@Gu@physx@@QEBAXIAEAURTreeNodeQ@34@@Z@4_NA 000000018029d0f6     GuRTree.obj
 0003:000031e3       ?_ignore@?2??U4StoreA@aos@shdfnd@physx@@YAXT__m128@@PEAI@Z@4_NA 000000018029d1e3     GuRTreeQueries.obj
 0003:000031f1       ?_ignore@?2???$traverseRay@$0A@@RTree@Gu@physx@@QEBAXAEBVPxVec3@3@0IPEAIPEAUCallbackRaycast@123@PEBV43@M@Z@4_NA 000000018029d1f1     GuRTreeQueries.obj
 0003:000031f2       ?_ignore@?3???$traverseRay@$0A@@RTree@Gu@physx@@QEBAXAEBVPxVec3@3@0IPEAIPEAUCallbackRaycast@123@PEBV43@M@Z@4_NA 000000018029d1f2     GuRTreeQueries.obj
 0003:000031f3       ?_ignore@?4???$traverseRay@$0A@@RTree@Gu@physx@@QEBAXAEBVPxVec3@3@0IPEAIPEAUCallbackRaycast@123@PEBV43@M@Z@4_NA 000000018029d1f3     GuRTreeQueries.obj
 0003:000031f4       ?_ignore@?9???$traverseRay@$0A@@RTree@Gu@physx@@QEBAXAEBVPxVec3@3@0IPEAIPEAUCallbackRaycast@123@PEBV43@M@Z@4_NA 000000018029d1f4     GuRTreeQueries.obj
 0003:000031f5       ?_ignore@?BG@???$traverseRay@$0A@@RTree@Gu@physx@@QEBAXAEBVPxVec3@3@0IPEAIPEAUCallbackRaycast@123@PEBV43@M@Z@4_NA 000000018029d1f5     GuRTreeQueries.obj
 0003:000031f6       ?_ignore@?2???$traverseRay@$00@RTree@Gu@physx@@QEBAXAEBVPxVec3@3@0IPEAIPEAUCallbackRaycast@123@PEBV43@M@Z@4_NA 000000018029d1f6     GuRTreeQueries.obj
 0003:000031f7       ?_ignore@?3???$traverseRay@$00@RTree@Gu@physx@@QEBAXAEBVPxVec3@3@0IPEAIPEAUCallbackRaycast@123@PEBV43@M@Z@4_NA 000000018029d1f7     GuRTreeQueries.obj
 0003:000031f8       ?_ignore@?4???$traverseRay@$00@RTree@Gu@physx@@QEBAXAEBVPxVec3@3@0IPEAIPEAUCallbackRaycast@123@PEBV43@M@Z@4_NA 000000018029d1f8     GuRTreeQueries.obj
 0003:000031f9       ?_ignore@?9???$traverseRay@$00@RTree@Gu@physx@@QEBAXAEBVPxVec3@3@0IPEAIPEAUCallbackRaycast@123@PEBV43@M@Z@4_NA 000000018029d1f9     GuRTreeQueries.obj
 0003:000031fa       ?_ignore@?BG@???$traverseRay@$00@RTree@Gu@physx@@QEBAXAEBVPxVec3@3@0IPEAIPEAUCallbackRaycast@123@PEBV43@M@Z@4_NA 000000018029d1fa     GuRTreeQueries.obj
 0003:00003273       ?_ignore@?2??V4SetW@aos@shdfnd@physx@@YA?AT__m128@@T5@0@Z@4_NA 000000018029d273     GuSweepsMesh.obj
 0003:00003274       ?_ignore@?2??V4ScaleAdd@aos@shdfnd@physx@@YA?AT__m128@@T5@00@Z@4_NA 000000018029d274     GuSweepsMesh.obj
 0003:00003275       ?_ignore@?2???0PsTransformV@aos@shdfnd@physx@@QEAA@AEBT__m128@@0@Z@4_NA 000000018029d275     GuSweepsMesh.obj
 0003:00003276       ?_ignore@?2??transform@PsTransformV@aos@shdfnd@physx@@QEBA?AT__m128@@AEBT6@@Z@4_NA 000000018029d276     GuSweepsMesh.obj
 0003:00003277       ?_ignore@?2??rotate@PsTransformV@aos@shdfnd@physx@@QEBA?AT__m128@@AEBT6@@Z@4_NA 000000018029d277     GuSweepsMesh.obj
 0003:00003278       ?_ignore@?2??rotateInv@PsTransformV@aos@shdfnd@physx@@QEBA?AT__m128@@AEBT6@@Z@4_NA 000000018029d278     GuSweepsMesh.obj
 0003:00003279       ?_ignore@?2??transformInv@PsTransformV@aos@shdfnd@physx@@QEBA?AV2345@AEBV2345@@Z@4_NA 000000018029d279     GuSweepsMesh.obj
 0003:0000327a       ?_ignore@?3??transformInv@PsTransformV@aos@shdfnd@physx@@QEBA?AV2345@AEBV2345@@Z@4_NA 000000018029d27a     GuSweepsMesh.obj
 0003:0000327f       ?_ignore@?BD@???$gjkRaycast@U?$LocalConvex@VTriangleV@Gu@physx@@@Gu@physx@@U?$LocalConvex@VConvexHullV@Gu@physx@@@23@@Gu@physx@@YA_NAEBU?$LocalConvex@VTriangleV@Gu@physx@@@12@AEBU?$LocalConvex@VConvexHullV@Gu@physx@@@12@AEBT__m128@@222AEAT5@33M@Z@4_NA 000000018029d27f     GuSweepsMesh.obj
 0003:00003280       ?_ignore@?BC@???$gjkPenetration@U?$LocalConvex@VTriangleV@Gu@physx@@@Gu@physx@@U?$LocalConvex@VShrunkConvexHullV@Gu@physx@@@23@@Gu@physx@@YA?AW4GjkStatus@12@AEBU?$LocalConvex@VTriangleV@Gu@physx@@@12@AEBU?$LocalConvex@VShrunkConvexHullV@Gu@physx@@@12@AEBT__m128@@2AEAT6@333PEIAE4AEAE_N@Z@4_NA 000000018029d280     GuSweepsMesh.obj
 0003:00003281       ?_ignore@?BI@???$gjkPenetration@U?$LocalConvex@VTriangleV@Gu@physx@@@Gu@physx@@U?$LocalConvex@VShrunkConvexHullV@Gu@physx@@@23@@Gu@physx@@YA?AW4GjkStatus@12@AEBU?$LocalConvex@VTriangleV@Gu@physx@@@12@AEBU?$LocalConvex@VShrunkConvexHullV@Gu@physx@@@12@AEBT__m128@@2AEAT6@333PEIAE4AEAE_N@Z@4_NA 000000018029d281     GuSweepsMesh.obj
 0003:00003282       ?_ignore@?BM@???$gjkPenetration@U?$LocalConvex@VTriangleV@Gu@physx@@@Gu@physx@@U?$LocalConvex@VShrunkConvexHullV@Gu@physx@@@23@@Gu@physx@@YA?AW4GjkStatus@12@AEBU?$LocalConvex@VTriangleV@Gu@physx@@@12@AEBU?$LocalConvex@VShrunkConvexHullV@Gu@physx@@@12@AEBT__m128@@2AEAT6@333PEIAE4AEAE_N@Z@4_NA 000000018029d282     GuSweepsMesh.obj
 0003:00003283       ?_ignore@?BD@???$gjkRaycast@U?$LocalConvex@VTriangleV@Gu@physx@@@Gu@physx@@U?$LocalConvex@VBoxV@Gu@physx@@@23@@Gu@physx@@YA_NAEBU?$LocalConvex@VTriangleV@Gu@physx@@@12@AEBU?$LocalConvex@VBoxV@Gu@physx@@@12@AEBT__m128@@222AEAT5@33M@Z@4_NA 000000018029d283     GuSweepsMesh.obj
 0003:00003284       ?_ignore@?BC@???$gjkPenetration@U?$LocalConvex@VTriangleV@Gu@physx@@@Gu@physx@@U?$LocalConvex@VShrunkBoxV@Gu@physx@@@23@@Gu@physx@@YA?AW4GjkStatus@12@AEBU?$LocalConvex@VTriangleV@Gu@physx@@@12@AEBU?$LocalConvex@VShrunkBoxV@Gu@physx@@@12@AEBT__m128@@2AEAT6@333PEIAE4AEAE_N@Z@4_NA 000000018029d284     GuSweepsMesh.obj
 0003:00003285       ?_ignore@?BI@???$gjkPenetration@U?$LocalConvex@VTriangleV@Gu@physx@@@Gu@physx@@U?$LocalConvex@VShrunkBoxV@Gu@physx@@@23@@Gu@physx@@YA?AW4GjkStatus@12@AEBU?$LocalConvex@VTriangleV@Gu@physx@@@12@AEBU?$LocalConvex@VShrunkBoxV@Gu@physx@@@12@AEBT__m128@@2AEAT6@333PEIAE4AEAE_N@Z@4_NA 000000018029d285     GuSweepsMesh.obj
 0003:00003286       ?_ignore@?BM@???$gjkPenetration@U?$LocalConvex@VTriangleV@Gu@physx@@@Gu@physx@@U?$LocalConvex@VShrunkBoxV@Gu@physx@@@23@@Gu@physx@@YA?AW4GjkStatus@12@AEBU?$LocalConvex@VTriangleV@Gu@physx@@@12@AEBU?$LocalConvex@VShrunkBoxV@Gu@physx@@@12@AEBT__m128@@2AEAT6@333PEIAE4AEAE_N@Z@4_NA 000000018029d286     GuSweepsMesh.obj
 0003:00003303       ?_ignore@?2??getLocalBounds@TriangleMesh@Gu@physx@@UEBA?AVPxBounds3@4@XZ@4_NA 000000018029d303     GuTriangleMesh.obj
 0003:00003404       ?_ignore@?2??recomputeBounds@?$RefitCallback@I@physx@@UEAAXIAEAT__m128@@0@Z@4_NA 000000018029d404     GuTriangleMeshRTree.obj
 0003:00003405       ?_ignore@?2??recomputeBounds@?$RefitCallback@G@physx@@UEAAXIAEAT__m128@@0@Z@4_NA 000000018029d405     GuTriangleMeshRTree.obj
 0003:00003406       ?_ignore@?2??isConvexVertex@HeightField@Gu@physx@@QEBA_NIII@Z@4_NA 000000018029d406     GuHeightField.obj
 0003:00003407       ?_ignore@?3??isConvexVertex@HeightField@Gu@physx@@QEBA_NIII@Z@4_NA 000000018029d407     GuHeightField.obj
 0003:00003414       ?_ignore@?2??test@?$BitMapBase@VNonTrackingAllocator@shdfnd@physx@@@Cm@physx@@QEBAHI@Z@4_NA 000000018029d414     GuHeightField.obj
 0003:00003415       ?_ignore@?2??set@?$BitMapBase@VNonTrackingAllocator@shdfnd@physx@@@Cm@physx@@QEAAXI@Z@4_NA 000000018029d415     GuHeightField.obj
 0003:00003416       ?_ignore@?2??isEmpty@PxBounds3@physx@@QEBA_NXZ@4_NA 000000018029d416     GuHeightFieldUtil.obj
 0003:00003417       ?_ignore@?2??isConvexEdge@HeightField@Gu@physx@@QEBA_NIIII@Z@4_NA 000000018029d417     GuHeightFieldUtil.obj
 0003:00003418       ?_ignore@?3??isConvexEdge@HeightField@Gu@physx@@QEBA_NIIII@Z@4_NA 000000018029d418     GuHeightFieldUtil.obj
 0003:00003419       ?_ignore@?6??isConvexEdge@HeightField@Gu@physx@@QEBA_NIIII@Z@4_NA 000000018029d419     GuHeightFieldUtil.obj
 0003:00003523       ?_ignore@?2??getInverse@PsTransformV@aos@shdfnd@physx@@QEBA?AV2345@XZ@4_NA 000000018029d523     GuOverlapTestsHF.obj
 0003:00003530       ?_ignore@?7???$traceSegment@UTriggerTraceSegmentCallback@Gu@physx@@$0A@$0A@@HeightFieldUtil@Gu@physx@@QEBAXAEBVPxVec3@3@0MPEAUTriggerTraceSegmentCallback@23@AEBVPxBounds3@3@_NPEBV43@@Z@4_NA 000000018029d530     GuOverlapTestsHF.obj
 0003:00003531       ?_ignore@?P@???$traceSegment@UTriggerTraceSegmentCallback@Gu@physx@@$0A@$0A@@HeightFieldUtil@Gu@physx@@QEBAXAEBVPxVec3@3@0MPEAUTriggerTraceSegmentCallback@23@AEBVPxBounds3@3@_NPEBV43@@Z@4_NA 000000018029d531     GuOverlapTestsHF.obj
 0003:00003532       ?_ignore@?BE@???$traceSegment@UTriggerTraceSegmentCallback@Gu@physx@@$0A@$0A@@HeightFieldUtil@Gu@physx@@QEBAXAEBVPxVec3@3@0MPEAUTriggerTraceSegmentCallback@23@AEBVPxBounds3@3@_NPEBV43@@Z@4_NA 000000018029d532     GuOverlapTestsHF.obj
 0003:00003533       ?_ignore@?BF@???$traceSegment@UTriggerTraceSegmentCallback@Gu@physx@@$0A@$0A@@HeightFieldUtil@Gu@physx@@QEBAXAEBVPxVec3@3@0MPEAUTriggerTraceSegmentCallback@23@AEBVPxBounds3@3@_NPEBV43@@Z@4_NA 000000018029d533     GuOverlapTestsHF.obj
 0003:000035b3       ?_ignore@?2??V3LoadA@aos@shdfnd@physx@@YA?AT__m128@@PEBM@Z@4_NA 000000018029d5b3     GuSweepsHF.obj
 0003:000035b4       ?_ignore@?2??onEvent@CapsuleTraceSegmentReport@@UEAA_NIPEAI@Z@4_NA 000000018029d5b4     GuSweepsHF.obj
 0003:000035b9       ?_ignore@?7???$traceSegment@VCapsuleTraceSegmentReport@@$0A@$00@HeightFieldUtil@Gu@physx@@QEBAXAEBVPxVec3@3@0MPEAVCapsuleTraceSegmentReport@@AEBVPxBounds3@3@_NPEBV43@@Z@4_NA 000000018029d5b9     GuSweepsHF.obj
 0003:000035ba       ?_ignore@?P@???$traceSegment@VCapsuleTraceSegmentReport@@$0A@$00@HeightFieldUtil@Gu@physx@@QEBAXAEBVPxVec3@3@0MPEAVCapsuleTraceSegmentReport@@AEBVPxBounds3@3@_NPEBV43@@Z@4_NA 000000018029d5ba     GuSweepsHF.obj
 0003:000035bb       ?_ignore@?BE@???$traceSegment@VCapsuleTraceSegmentReport@@$0A@$00@HeightFieldUtil@Gu@physx@@QEBAXAEBVPxVec3@3@0MPEAVCapsuleTraceSegmentReport@@AEBVPxBounds3@3@_NPEBV43@@Z@4_NA 000000018029d5bb     GuSweepsHF.obj
 0003:000035bc       ?_ignore@?BF@???$traceSegment@VCapsuleTraceSegmentReport@@$0A@$00@HeightFieldUtil@Gu@physx@@QEBAXAEBVPxVec3@3@0MPEAVCapsuleTraceSegmentReport@@AEBVPxBounds3@3@_NPEBV43@@Z@4_NA 000000018029d5bc     GuSweepsHF.obj
 0003:000035bd       ?_ignore@?7???$traceSegment@VConvexTraceSegmentReport@@$0A@$00@HeightFieldUtil@Gu@physx@@QEBAXAEBVPxVec3@3@0MPEAVConvexTraceSegmentReport@@AEBVPxBounds3@3@_NPEBV43@@Z@4_NA 000000018029d5bd     GuSweepsHF.obj
 0003:000035be       ?_ignore@?P@???$traceSegment@VConvexTraceSegmentReport@@$0A@$00@HeightFieldUtil@Gu@physx@@QEBAXAEBVPxVec3@3@0MPEAVConvexTraceSegmentReport@@AEBVPxBounds3@3@_NPEBV43@@Z@4_NA 000000018029d5be     GuSweepsHF.obj
 0003:000035bf       ?_ignore@?BE@???$traceSegment@VConvexTraceSegmentReport@@$0A@$00@HeightFieldUtil@Gu@physx@@QEBAXAEBVPxVec3@3@0MPEAVConvexTraceSegmentReport@@AEBVPxBounds3@3@_NPEBV43@@Z@4_NA 000000018029d5bf     GuSweepsHF.obj
 0003:000035c0       ?_ignore@?BF@???$traceSegment@VConvexTraceSegmentReport@@$0A@$00@HeightFieldUtil@Gu@physx@@QEBAXAEBVPxVec3@3@0MPEAVConvexTraceSegmentReport@@AEBVPxBounds3@3@_NPEBV43@@Z@4_NA 000000018029d5c0     GuSweepsHF.obj
 0003:000035c1       ?_ignore@?7???$traceSegment@VBoxTraceSegmentReport@@$0A@$00@HeightFieldUtil@Gu@physx@@QEBAXAEBVPxVec3@3@0MPEAVBoxTraceSegmentReport@@AEBVPxBounds3@3@_NPEBV43@@Z@4_NA 000000018029d5c1     GuSweepsHF.obj
 0003:000035c2       ?_ignore@?P@???$traceSegment@VBoxTraceSegmentReport@@$0A@$00@HeightFieldUtil@Gu@physx@@QEBAXAEBVPxVec3@3@0MPEAVBoxTraceSegmentReport@@AEBVPxBounds3@3@_NPEBV43@@Z@4_NA 000000018029d5c2     GuSweepsHF.obj
 0003:000035c3       ?_ignore@?BE@???$traceSegment@VBoxTraceSegmentReport@@$0A@$00@HeightFieldUtil@Gu@physx@@QEBAXAEBVPxVec3@3@0MPEAVBoxTraceSegmentReport@@AEBVPxBounds3@3@_NPEBV43@@Z@4_NA 000000018029d5c3     GuSweepsHF.obj
 0003:000035c4       ?_ignore@?BF@???$traceSegment@VBoxTraceSegmentReport@@$0A@$00@HeightFieldUtil@Gu@physx@@QEBAXAEBVPxVec3@3@0MPEAVBoxTraceSegmentReport@@AEBVPxBounds3@3@_NPEBV43@@Z@4_NA 000000018029d5c4     GuSweepsHF.obj
 0003:00003643       ?_ignore@?2??V3Merge@aos@shdfnd@physx@@YA?AT__m128@@AEBT5@00@Z@4_NA 000000018029d643     GuPCMContactBoxBox.obj
 0003:00003644       ?_ignore@?3??V3Merge@aos@shdfnd@physx@@YA?AT__m128@@AEBT5@00@Z@4_NA 000000018029d644     GuPCMContactBoxBox.obj
 0003:00003645       ?_ignore@?4??V3Merge@aos@shdfnd@physx@@YA?AT__m128@@AEBT5@00@Z@4_NA 000000018029d645     GuPCMContactBoxBox.obj
 0003:00003646       ?_ignore@?2??V3SetZ@aos@shdfnd@physx@@YA?AT__m128@@T5@0@Z@4_NA 000000018029d646     GuPCMContactBoxBox.obj
 0003:00003647       ?_ignore@?3??V3SetZ@aos@shdfnd@physx@@YA?AT__m128@@T5@0@Z@4_NA 000000018029d647     GuPCMContactBoxBox.obj
 0003:00003648       ?_ignore@?2??V3RecipFast@aos@shdfnd@physx@@YA?AT__m128@@T5@@Z@4_NA 000000018029d648     GuPCMContactBoxBox.obj
 0003:00003649       ?_ignore@?2??V3ExtractMax@aos@shdfnd@physx@@YA?AT__m128@@T5@@Z@4_NA 000000018029d649     GuPCMContactBoxBox.obj
 0003:0000364a       ?_ignore@?2??invalidate_BoxConvex@PersistentContactManifold@Gu@physx@@QEAAIAEBVPsTransformV@aos@shdfnd@4@AEBT__m128@@@Z@4_NA 000000018029d64a     GuPCMContactBoxBox.obj
 0003:0000364b       ?_ignore@?4??refreshManifold@MultiplePersistentContactManifold@Gu@physx@@QEAAXAEBVPsMatTransformV@aos@shdfnd@4@AEBT__m128@@1@Z@4_NA 000000018029d64b     GuPCMContactBoxBox.obj
 0003:0000364c       ?_ignore@?2??getManifold@MultiplePersistentContactManifold@Gu@physx@@QEAAPEAVSinglePersistentContactManifold@34@I@Z@4_NA 000000018029d64c     GuPCMContactBoxBox.obj
 0003:0000364d       ?_ignore@?2??toBuffer@MultiplePersistentContactManifold@Gu@physx@@QEAAXPEIAE@Z@4_NA 000000018029d64d     GuPCMContactBoxBox.obj
 0003:0000364e       ?_ignore@?3??toBuffer@MultiplePersistentContactManifold@Gu@physx@@QEAAXPEIAE@Z@4_NA 000000018029d64e     GuPCMContactBoxBox.obj
 0003:0000364f       ?_ignore@?6??toBuffer@MultiplePersistentContactManifold@Gu@physx@@QEAAXPEIAE@Z@4_NA 000000018029d64f     GuPCMContactBoxBox.obj
 0003:00003650       ?_ignore@?2??getManifold@Cache@Gu@physx@@QEAAAEAVPersistentContactManifold@34@XZ@4_NA 000000018029d650     GuPCMContactBoxBox.obj
 0003:00003651       ?_ignore@?3??getManifold@Cache@Gu@physx@@QEAAAEAVPersistentContactManifold@34@XZ@4_NA 000000018029d651     GuPCMContactBoxBox.obj
 0003:00003652       ?_ignore@?4??getManifold@Cache@Gu@physx@@QEAAAEAVPersistentContactManifold@34@XZ@4_NA 000000018029d652     GuPCMContactBoxBox.obj
 0003:00003655       ?_ignore@?BC@???$gjkPenetration@U?$RelativeConvex@VBoxV@Gu@physx@@@Gu@physx@@U?$LocalConvex@VBoxV@Gu@physx@@@23@@Gu@physx@@YA?AW4GjkStatus@12@AEBU?$RelativeConvex@VBoxV@Gu@physx@@@12@AEBU?$LocalConvex@VBoxV@Gu@physx@@@12@AEBT__m128@@2AEAT6@333PEIAE4AEAE_N@Z@4_NA 000000018029d655     GuPCMContactBoxBox.obj
 0003:00003656       ?_ignore@?BI@???$gjkPenetration@U?$RelativeConvex@VBoxV@Gu@physx@@@Gu@physx@@U?$LocalConvex@VBoxV@Gu@physx@@@23@@Gu@physx@@YA?AW4GjkStatus@12@AEBU?$RelativeConvex@VBoxV@Gu@physx@@@12@AEBU?$LocalConvex@VBoxV@Gu@physx@@@12@AEBT__m128@@2AEAT6@333PEIAE4AEAE_N@Z@4_NA 000000018029d656     GuPCMContactBoxBox.obj
 0003:00003657       ?_ignore@?BM@???$gjkPenetration@U?$RelativeConvex@VBoxV@Gu@physx@@@Gu@physx@@U?$LocalConvex@VBoxV@Gu@physx@@@23@@Gu@physx@@YA?AW4GjkStatus@12@AEBU?$RelativeConvex@VBoxV@Gu@physx@@@12@AEBU?$LocalConvex@VBoxV@Gu@physx@@@12@AEBT__m128@@2AEAT6@333PEIAE4AEAE_N@Z@4_NA 000000018029d657     GuPCMContactBoxBox.obj
 0003:000036d6       ?_ignore@?BC@???$gjkPenetration@U?$RelativeConvex@VBoxV@Gu@physx@@@Gu@physx@@U?$LocalConvex@VShrunkConvexHullNoScaleV@Gu@physx@@@23@@Gu@physx@@YA?AW4GjkStatus@12@AEBU?$RelativeConvex@VBoxV@Gu@physx@@@12@AEBU?$LocalConvex@VShrunkConvexHullNoScaleV@Gu@physx@@@12@AEBT__m128@@2AEAT6@333PEIAE4AEAE_N@Z@4_NA 000000018029d6d6     GuPCMContactBoxConvex.obj
 0003:000036d7       ?_ignore@?BI@???$gjkPenetration@U?$RelativeConvex@VBoxV@Gu@physx@@@Gu@physx@@U?$LocalConvex@VShrunkConvexHullNoScaleV@Gu@physx@@@23@@Gu@physx@@YA?AW4GjkStatus@12@AEBU?$RelativeConvex@VBoxV@Gu@physx@@@12@AEBU?$LocalConvex@VShrunkConvexHullNoScaleV@Gu@physx@@@12@AEBT__m128@@2AEAT6@333PEIAE4AEAE_N@Z@4_NA 000000018029d6d7     GuPCMContactBoxConvex.obj
 0003:000036d8       ?_ignore@?BM@???$gjkPenetration@U?$RelativeConvex@VBoxV@Gu@physx@@@Gu@physx@@U?$LocalConvex@VShrunkConvexHullNoScaleV@Gu@physx@@@23@@Gu@physx@@YA?AW4GjkStatus@12@AEBU?$RelativeConvex@VBoxV@Gu@physx@@@12@AEBU?$LocalConvex@VShrunkConvexHullNoScaleV@Gu@physx@@@12@AEBT__m128@@2AEAT6@333PEIAE4AEAE_N@Z@4_NA 000000018029d6d8     GuPCMContactBoxConvex.obj
 0003:000036d9       ?_ignore@?BC@???$gjkPenetration@U?$RelativeConvex@VBoxV@Gu@physx@@@Gu@physx@@U?$LocalConvex@VShrunkConvexHullV@Gu@physx@@@23@@Gu@physx@@YA?AW4GjkStatus@12@AEBU?$RelativeConvex@VBoxV@Gu@physx@@@12@AEBU?$LocalConvex@VShrunkConvexHullV@Gu@physx@@@12@AEBT__m128@@2AEAT6@333PEIAE4AEAE_N@Z@4_NA 000000018029d6d9     GuPCMContactBoxConvex.obj
 0003:000036da       ?_ignore@?BI@???$gjkPenetration@U?$RelativeConvex@VBoxV@Gu@physx@@@Gu@physx@@U?$LocalConvex@VShrunkConvexHullV@Gu@physx@@@23@@Gu@physx@@YA?AW4GjkStatus@12@AEBU?$RelativeConvex@VBoxV@Gu@physx@@@12@AEBU?$LocalConvex@VShrunkConvexHullV@Gu@physx@@@12@AEBT__m128@@2AEAT6@333PEIAE4AEAE_N@Z@4_NA 000000018029d6da     GuPCMContactBoxConvex.obj
 0003:000036db       ?_ignore@?BM@???$gjkPenetration@U?$RelativeConvex@VBoxV@Gu@physx@@@Gu@physx@@U?$LocalConvex@VShrunkConvexHullV@Gu@physx@@@23@@Gu@physx@@YA?AW4GjkStatus@12@AEBU?$RelativeConvex@VBoxV@Gu@physx@@@12@AEBU?$LocalConvex@VShrunkConvexHullV@Gu@physx@@@12@AEBT__m128@@2AEAT6@333PEIAE4AEAE_N@Z@4_NA 000000018029d6db     GuPCMContactBoxConvex.obj
 0003:00003753       ?_ignore@?2??transformInv@PsTransformV@aos@shdfnd@physx@@QEBA?AT__m128@@AEBT6@@Z@4_NA 000000018029d753     GuPCMContactCapsuleBox.obj
 0003:00003754       ?_ignore@?2??invalidate_SphereCapsule@PersistentContactManifold@Gu@physx@@QEAAIAEBVPsTransformV@aos@shdfnd@4@AEBT__m128@@@Z@4_NA 000000018029d754     GuPCMContactCapsuleBox.obj
 0003:00003758       ?_ignore@?BC@???$gjkPenetration@U?$LocalConvex@VCapsuleV@Gu@physx@@@Gu@physx@@U?$LocalConvex@VBoxV@Gu@physx@@@23@@Gu@physx@@YA?AW4GjkStatus@12@AEBU?$LocalConvex@VCapsuleV@Gu@physx@@@12@AEBU?$LocalConvex@VBoxV@Gu@physx@@@12@AEBT__m128@@2AEAT6@333PEIAE4AEAE_N@Z@4_NA 000000018029d758     GuPCMContactCapsuleBox.obj
 0003:00003759       ?_ignore@?BI@???$gjkPenetration@U?$LocalConvex@VCapsuleV@Gu@physx@@@Gu@physx@@U?$LocalConvex@VBoxV@Gu@physx@@@23@@Gu@physx@@YA?AW4GjkStatus@12@AEBU?$LocalConvex@VCapsuleV@Gu@physx@@@12@AEBU?$LocalConvex@VBoxV@Gu@physx@@@12@AEBT__m128@@2AEAT6@333PEIAE4AEAE_N@Z@4_NA 000000018029d759     GuPCMContactCapsuleBox.obj
 0003:0000375a       ?_ignore@?BM@???$gjkPenetration@U?$LocalConvex@VCapsuleV@Gu@physx@@@Gu@physx@@U?$LocalConvex@VBoxV@Gu@physx@@@23@@Gu@physx@@YA?AW4GjkStatus@12@AEBU?$LocalConvex@VCapsuleV@Gu@physx@@@12@AEBU?$LocalConvex@VBoxV@Gu@physx@@@12@AEBT__m128@@2AEAT6@333PEIAE4AEAE_N@Z@4_NA 000000018029d75a     GuPCMContactCapsuleBox.obj
 0003:000037d3       ?_ignore@?2??V3StoreA@aos@shdfnd@physx@@YAXT__m128@@AEAVPxVec3@4@@Z@4_NA 000000018029d7d3     GuPCMContactCapsuleCapsule.obj
 0003:000037d4       ?_ignore@?2??FSqrt@aos@shdfnd@physx@@YA?AT__m128@@T5@@Z@4_NA 000000018029d7d4     GuPCMContactCapsuleCapsule.obj
 0003:000037d5       ?_ignore@?2??V3SetX@aos@shdfnd@physx@@YA?AT__m128@@T5@0@Z@4_NA 000000018029d7d5     GuPCMContactCapsuleCapsule.obj
 0003:000037d6       ?_ignore@?3??V3SetX@aos@shdfnd@physx@@YA?AT__m128@@T5@0@Z@4_NA 000000018029d7d6     GuPCMContactCapsuleCapsule.obj
 0003:00003856       ?_ignore@?BC@???$gjkPenetration@U?$LocalConvex@VCapsuleV@Gu@physx@@@Gu@physx@@U?$LocalConvex@VConvexHullNoScaleV@Gu@physx@@@23@@Gu@physx@@YA?AW4GjkStatus@12@AEBU?$LocalConvex@VCapsuleV@Gu@physx@@@12@AEBU?$LocalConvex@VConvexHullNoScaleV@Gu@physx@@@12@AEBT__m128@@2AEAT6@333PEIAE4AEAE_N@Z@4_NA 000000018029d856     GuPCMContactCapsuleConvex.obj
 0003:00003857       ?_ignore@?BI@???$gjkPenetration@U?$LocalConvex@VCapsuleV@Gu@physx@@@Gu@physx@@U?$LocalConvex@VConvexHullNoScaleV@Gu@physx@@@23@@Gu@physx@@YA?AW4GjkStatus@12@AEBU?$LocalConvex@VCapsuleV@Gu@physx@@@12@AEBU?$LocalConvex@VConvexHullNoScaleV@Gu@physx@@@12@AEBT__m128@@2AEAT6@333PEIAE4AEAE_N@Z@4_NA 000000018029d857     GuPCMContactCapsuleConvex.obj
 0003:00003858       ?_ignore@?BM@???$gjkPenetration@U?$LocalConvex@VCapsuleV@Gu@physx@@@Gu@physx@@U?$LocalConvex@VConvexHullNoScaleV@Gu@physx@@@23@@Gu@physx@@YA?AW4GjkStatus@12@AEBU?$LocalConvex@VCapsuleV@Gu@physx@@@12@AEBU?$LocalConvex@VConvexHullNoScaleV@Gu@physx@@@12@AEBT__m128@@2AEAT6@333PEIAE4AEAE_N@Z@4_NA 000000018029d858     GuPCMContactCapsuleConvex.obj
 0003:00003859       ?_ignore@?BC@???$gjkPenetration@U?$LocalConvex@VCapsuleV@Gu@physx@@@Gu@physx@@U?$LocalConvex@VConvexHullV@Gu@physx@@@23@@Gu@physx@@YA?AW4GjkStatus@12@AEBU?$LocalConvex@VCapsuleV@Gu@physx@@@12@AEBU?$LocalConvex@VConvexHullV@Gu@physx@@@12@AEBT__m128@@2AEAT6@333PEIAE4AEAE_N@Z@4_NA 000000018029d859     GuPCMContactCapsuleConvex.obj
 0003:0000385a       ?_ignore@?BI@???$gjkPenetration@U?$LocalConvex@VCapsuleV@Gu@physx@@@Gu@physx@@U?$LocalConvex@VConvexHullV@Gu@physx@@@23@@Gu@physx@@YA?AW4GjkStatus@12@AEBU?$LocalConvex@VCapsuleV@Gu@physx@@@12@AEBU?$LocalConvex@VConvexHullV@Gu@physx@@@12@AEBT__m128@@2AEAT6@333PEIAE4AEAE_N@Z@4_NA 000000018029d85a     GuPCMContactCapsuleConvex.obj
 0003:0000385b       ?_ignore@?BM@???$gjkPenetration@U?$LocalConvex@VCapsuleV@Gu@physx@@@Gu@physx@@U?$LocalConvex@VConvexHullV@Gu@physx@@@23@@Gu@physx@@YA?AW4GjkStatus@12@AEBU?$LocalConvex@VCapsuleV@Gu@physx@@@12@AEBU?$LocalConvex@VConvexHullV@Gu@physx@@@12@AEBT__m128@@2AEAT6@333PEIAE4AEAE_N@Z@4_NA 000000018029d85b     GuPCMContactCapsuleConvex.obj
 0003:000038d3       ?_ignore@?2??getMultipleManifold@Cache@Gu@physx@@QEAAAEAVMultiplePersistentContactManifold@34@XZ@4_NA 000000018029d8d3     GuPCMContactCapsuleHeightField.obj
 0003:000038d4       ?_ignore@?3??getMultipleManifold@Cache@Gu@physx@@QEAAAEAVMultiplePersistentContactManifold@34@XZ@4_NA 000000018029d8d4     GuPCMContactCapsuleHeightField.obj
 0003:000038d5       ?_ignore@?4??getMultipleManifold@Cache@Gu@physx@@QEAAAEAVMultiplePersistentContactManifold@34@XZ@4_NA 000000018029d8d5     GuPCMContactCapsuleHeightField.obj
 0003:000038d6       ?_ignore@?M@??onEvent@?$PCMHeightfieldContactGenerationCallback@UPCMCapsuleVsHeightfieldContactGenerationCallback@physx@@@Gu@physx@@UEAA_NIPEAI@Z@4_NA 000000018029d8d6     GuPCMContactCapsuleHeightField.obj
 0003:000038d7       ?_ignore@?N@??onEvent@?$PCMHeightfieldContactGenerationCallback@UPCMCapsuleVsHeightfieldContactGenerationCallback@physx@@@Gu@physx@@UEAA_NIPEAI@Z@4_NA 000000018029d8d7     GuPCMContactCapsuleHeightField.obj
 0003:000038d8       ?_ignore@?BF@??onEvent@?$PCMHeightfieldContactGenerationCallback@UPCMCapsuleVsHeightfieldContactGenerationCallback@physx@@@Gu@physx@@UEAA_NIPEAI@Z@4_NA 000000018029d8d8     GuPCMContactCapsuleHeightField.obj
 0003:000038d9       ?_ignore@?2??addTriangle@?$TriangleCache@$0BA@@Gu@physx@@QEAAXPEBVPxVec3@4@PEBIIE@Z@4_NA 000000018029d8d9     GuPCMContactCapsuleHeightField.obj
 0003:00003a56       ?_ignore@?BC@???$gjkPenetration@U?$RelativeConvex@VShrunkConvexHullNoScaleV@Gu@physx@@@Gu@physx@@U?$LocalConvex@VShrunkConvexHullNoScaleV@Gu@physx@@@23@@Gu@physx@@YA?AW4GjkStatus@12@AEBU?$RelativeConvex@VShrunkConvexHullNoScaleV@Gu@physx@@@12@AEBU?$LocalConvex@VShrunkConvexHullNoScaleV@Gu@physx@@@12@AEBT__m128@@2AEAT6@333PEIAE4AEAE_N@Z@4_NA 000000018029da56     GuPCMContactConvexConvex.obj
 0003:00003a57       ?_ignore@?BI@???$gjkPenetration@U?$RelativeConvex@VShrunkConvexHullNoScaleV@Gu@physx@@@Gu@physx@@U?$LocalConvex@VShrunkConvexHullNoScaleV@Gu@physx@@@23@@Gu@physx@@YA?AW4GjkStatus@12@AEBU?$RelativeConvex@VShrunkConvexHullNoScaleV@Gu@physx@@@12@AEBU?$LocalConvex@VShrunkConvexHullNoScaleV@Gu@physx@@@12@AEBT__m128@@2AEAT6@333PEIAE4AEAE_N@Z@4_NA 000000018029da57     GuPCMContactConvexConvex.obj
 0003:00003a58       ?_ignore@?BM@???$gjkPenetration@U?$RelativeConvex@VShrunkConvexHullNoScaleV@Gu@physx@@@Gu@physx@@U?$LocalConvex@VShrunkConvexHullNoScaleV@Gu@physx@@@23@@Gu@physx@@YA?AW4GjkStatus@12@AEBU?$RelativeConvex@VShrunkConvexHullNoScaleV@Gu@physx@@@12@AEBU?$LocalConvex@VShrunkConvexHullNoScaleV@Gu@physx@@@12@AEBT__m128@@2AEAT6@333PEIAE4AEAE_N@Z@4_NA 000000018029da58     GuPCMContactConvexConvex.obj
 0003:00003a59       ?_ignore@?BC@???$gjkPenetration@U?$RelativeConvex@VShrunkConvexHullNoScaleV@Gu@physx@@@Gu@physx@@U?$LocalConvex@VShrunkConvexHullV@Gu@physx@@@23@@Gu@physx@@YA?AW4GjkStatus@12@AEBU?$RelativeConvex@VShrunkConvexHullNoScaleV@Gu@physx@@@12@AEBU?$LocalConvex@VShrunkConvexHullV@Gu@physx@@@12@AEBT__m128@@2AEAT6@333PEIAE4AEAE_N@Z@4_NA 000000018029da59     GuPCMContactConvexConvex.obj
 0003:00003a5a       ?_ignore@?BI@???$gjkPenetration@U?$RelativeConvex@VShrunkConvexHullNoScaleV@Gu@physx@@@Gu@physx@@U?$LocalConvex@VShrunkConvexHullV@Gu@physx@@@23@@Gu@physx@@YA?AW4GjkStatus@12@AEBU?$RelativeConvex@VShrunkConvexHullNoScaleV@Gu@physx@@@12@AEBU?$LocalConvex@VShrunkConvexHullV@Gu@physx@@@12@AEBT__m128@@2AEAT6@333PEIAE4AEAE_N@Z@4_NA 000000018029da5a     GuPCMContactConvexConvex.obj
 0003:00003a5b       ?_ignore@?BM@???$gjkPenetration@U?$RelativeConvex@VShrunkConvexHullNoScaleV@Gu@physx@@@Gu@physx@@U?$LocalConvex@VShrunkConvexHullV@Gu@physx@@@23@@Gu@physx@@YA?AW4GjkStatus@12@AEBU?$RelativeConvex@VShrunkConvexHullNoScaleV@Gu@physx@@@12@AEBU?$LocalConvex@VShrunkConvexHullV@Gu@physx@@@12@AEBT__m128@@2AEAT6@333PEIAE4AEAE_N@Z@4_NA 000000018029da5b     GuPCMContactConvexConvex.obj
 0003:00003a5c       ?_ignore@?BC@???$gjkPenetration@U?$RelativeConvex@VShrunkConvexHullV@Gu@physx@@@Gu@physx@@U?$LocalConvex@VShrunkConvexHullNoScaleV@Gu@physx@@@23@@Gu@physx@@YA?AW4GjkStatus@12@AEBU?$RelativeConvex@VShrunkConvexHullV@Gu@physx@@@12@AEBU?$LocalConvex@VShrunkConvexHullNoScaleV@Gu@physx@@@12@AEBT__m128@@2AEAT6@333PEIAE4AEAE_N@Z@4_NA 000000018029da5c     GuPCMContactConvexConvex.obj
 0003:00003a5d       ?_ignore@?BI@???$gjkPenetration@U?$RelativeConvex@VShrunkConvexHullV@Gu@physx@@@Gu@physx@@U?$LocalConvex@VShrunkConvexHullNoScaleV@Gu@physx@@@23@@Gu@physx@@YA?AW4GjkStatus@12@AEBU?$RelativeConvex@VShrunkConvexHullV@Gu@physx@@@12@AEBU?$LocalConvex@VShrunkConvexHullNoScaleV@Gu@physx@@@12@AEBT__m128@@2AEAT6@333PEIAE4AEAE_N@Z@4_NA 000000018029da5d     GuPCMContactConvexConvex.obj
 0003:00003a5e       ?_ignore@?BM@???$gjkPenetration@U?$RelativeConvex@VShrunkConvexHullV@Gu@physx@@@Gu@physx@@U?$LocalConvex@VShrunkConvexHullNoScaleV@Gu@physx@@@23@@Gu@physx@@YA?AW4GjkStatus@12@AEBU?$RelativeConvex@VShrunkConvexHullV@Gu@physx@@@12@AEBU?$LocalConvex@VShrunkConvexHullNoScaleV@Gu@physx@@@12@AEBT__m128@@2AEAT6@333PEIAE4AEAE_N@Z@4_NA 000000018029da5e     GuPCMContactConvexConvex.obj
 0003:00003a5f       ?_ignore@?BC@???$gjkPenetration@U?$RelativeConvex@VShrunkConvexHullV@Gu@physx@@@Gu@physx@@U?$LocalConvex@VShrunkConvexHullV@Gu@physx@@@23@@Gu@physx@@YA?AW4GjkStatus@12@AEBU?$RelativeConvex@VShrunkConvexHullV@Gu@physx@@@12@AEBU?$LocalConvex@VShrunkConvexHullV@Gu@physx@@@12@AEBT__m128@@2AEAT6@333PEIAE4AEAE_N@Z@4_NA 000000018029da5f     GuPCMContactConvexConvex.obj
 0003:00003a60       ?_ignore@?BI@???$gjkPenetration@U?$RelativeConvex@VShrunkConvexHullV@Gu@physx@@@Gu@physx@@U?$LocalConvex@VShrunkConvexHullV@Gu@physx@@@23@@Gu@physx@@YA?AW4GjkStatus@12@AEBU?$RelativeConvex@VShrunkConvexHullV@Gu@physx@@@12@AEBU?$LocalConvex@VShrunkConvexHullV@Gu@physx@@@12@AEBT__m128@@2AEAT6@333PEIAE4AEAE_N@Z@4_NA 000000018029da60     GuPCMContactConvexConvex.obj
 0003:00003a61       ?_ignore@?BM@???$gjkPenetration@U?$RelativeConvex@VShrunkConvexHullV@Gu@physx@@@Gu@physx@@U?$LocalConvex@VShrunkConvexHullV@Gu@physx@@@23@@Gu@physx@@YA?AW4GjkStatus@12@AEBU?$RelativeConvex@VShrunkConvexHullV@Gu@physx@@@12@AEBU?$LocalConvex@VShrunkConvexHullV@Gu@physx@@@12@AEBT__m128@@2AEAT6@333PEIAE4AEAE_N@Z@4_NA 000000018029da61     GuPCMContactConvexConvex.obj
 0003:00003ae4       ?_ignore@?M@??onEvent@?$PCMHeightfieldContactGenerationCallback@UPCMConvexVsHeightfieldContactGenerationCallback@physx@@@Gu@physx@@UEAA_NIPEAI@Z@4_NA 000000018029dae4     GuPCMContactConvexHeightField.obj
 0003:00003ae5       ?_ignore@?N@??onEvent@?$PCMHeightfieldContactGenerationCallback@UPCMConvexVsHeightfieldContactGenerationCallback@physx@@@Gu@physx@@UEAA_NIPEAI@Z@4_NA 000000018029dae5     GuPCMContactConvexHeightField.obj
 0003:00003ae6       ?_ignore@?BF@??onEvent@?$PCMHeightfieldContactGenerationCallback@UPCMConvexVsHeightfieldContactGenerationCallback@physx@@@Gu@physx@@UEAA_NIPEAI@Z@4_NA 000000018029dae6     GuPCMContactConvexHeightField.obj
 0003:00003e63       ?_ignore@?2??V3Clamp@aos@shdfnd@physx@@YA?AT__m128@@T5@00@Z@4_NA 000000018029de63     GuPCMContactSphereBox.obj
 0003:00003e64       ?_ignore@?3??V3Clamp@aos@shdfnd@physx@@YA?AT__m128@@T5@00@Z@4_NA 000000018029de64     GuPCMContactSphereBox.obj
 0003:00003e65       ?_ignore@?4??V3Clamp@aos@shdfnd@physx@@YA?AT__m128@@T5@00@Z@4_NA 000000018029de65     GuPCMContactSphereBox.obj
 0003:00003f63       ?_ignore@?2??getContactPoint@PersistentContactManifold@Gu@physx@@QEAAAEAVPersistentContact@34@I@Z@4_NA 000000018029df63     GuPCMContactSphereConvex.obj
 0003:00003fe3       ?_ignore@?M@??onEvent@?$PCMHeightfieldContactGenerationCallback@UPCMSphereVsHeightfieldContactGenerationCallback@physx@@@Gu@physx@@UEAA_NIPEAI@Z@4_NA 000000018029dfe3     GuPCMContactSphereHeightField.obj
 0003:00003fe4       ?_ignore@?N@??onEvent@?$PCMHeightfieldContactGenerationCallback@UPCMSphereVsHeightfieldContactGenerationCallback@physx@@@Gu@physx@@UEAA_NIPEAI@Z@4_NA 000000018029dfe4     GuPCMContactSphereHeightField.obj
 0003:00003fe5       ?_ignore@?BF@??onEvent@?$PCMHeightfieldContactGenerationCallback@UPCMSphereVsHeightfieldContactGenerationCallback@physx@@@Gu@physx@@UEAA_NIPEAI@Z@4_NA 000000018029dfe5     GuPCMContactSphereHeightField.obj
 0003:00004263       ?_ignore@?2??FRsqrtFast@aos@shdfnd@physx@@YA?AT__m128@@T5@@Z@4_NA 000000018029e263     GuPCMTriangleContactGen.obj
 0003:00004264       ?_ignore@?2??V3LengthSq@aos@shdfnd@physx@@YA?AT__m128@@T5@@Z@4_NA 000000018029e264     GuPCMTriangleContactGen.obj
 0003:00004265       ?_ignore@?2??V3AllGrtr@aos@shdfnd@physx@@YAIT__m128@@0@Z@4_NA 000000018029e265     GuPCMTriangleContactGen.obj
 0003:00004266       ?_ignore@?3??V3AllGrtr@aos@shdfnd@physx@@YAIT__m128@@0@Z@4_NA 000000018029e266     GuPCMTriangleContactGen.obj
 0003:000042e3       ?_ignore@?2??V3SetY@aos@shdfnd@physx@@YA?AT__m128@@T5@0@Z@4_NA 000000018029e2e3     GuPersistentContactManifold.obj
 0003:000042e4       ?_ignore@?3??V3SetY@aos@shdfnd@physx@@YA?AT__m128@@T5@0@Z@4_NA 000000018029e2e4     GuPersistentContactManifold.obj
 0003:000042e5       ?_ignore@?2??getContactPoint@SinglePersistentContactManifold@Gu@physx@@QEAAAEAVMeshPersistentContact@34@I@Z@4_NA 000000018029e2e5     GuPersistentContactManifold.obj
 0003:00004373       ?_ignore@?2??include@PxBounds3@physx@@QEAAXAEBVPxVec3@3@@Z@4_NA 000000018029e373     GuCCDSweepConvexMesh.obj
 0003:0000437e       ?_ignore@?5??processHit@CB@?1??SweepEstimateAnyShapeMesh@Gu@physx@@YAMAEBUCCDShape@45@0AEBVPxTransform@5@111MM@Z@UEAA_NAEBUPxRaycastHit@5@AEBVPxVec3@5@33AEAMPEBI@Z@4_NA 000000018029e37e     GuCCDSweepConvexMesh.obj
 0003:0000437f       ?_ignore@?6??processHit@CB@?1??SweepEstimateAnyShapeMesh@Gu@physx@@YAMAEBUCCDShape@45@0AEBVPxTransform@5@111MM@Z@UEAA_NAEBUPxRaycastHit@5@AEBVPxVec3@5@33AEAMPEBI@Z@4_NA 000000018029e37f     GuCCDSweepConvexMesh.obj
 0003:00004380       ?_ignore@?7??processHit@CB@?1??SweepEstimateAnyShapeMesh@Gu@physx@@YAMAEBUCCDShape@45@0AEBVPxTransform@5@111MM@Z@UEAA_NAEBUPxRaycastHit@5@AEBVPxVec3@5@33AEAMPEBI@Z@4_NA 000000018029e380     GuCCDSweepConvexMesh.obj
 0003:00004381       ?_ignore@?2??forceSize_Unsafe@?$Array@IV?$InlineAllocator@$0BAA@VNamedAllocator@shdfnd@physx@@@shdfnd@physx@@@shdfnd@physx@@QEAAXI@Z@4_NA 000000018029e381     GuCCDSweepConvexMesh.obj
 0003:00004382       ?_ignore@?2??growAndPushBack@?$Array@IV?$InlineAllocator@$0BAA@VNamedAllocator@shdfnd@physx@@@shdfnd@physx@@@shdfnd@physx@@IEAAAEAIAEBI@Z@4_NA 000000018029e382     GuCCDSweepConvexMesh.obj
 0003:00004383       ?_ignore@?2??grow@?$Array@IVNamedAllocator@shdfnd@physx@@@shdfnd@physx@@IEAAXI@Z@4_NA 000000018029e383     GuCCDSweepConvexMesh.obj
 0003:00004384       ?_ignore@?2??grow@?$Array@IV?$InlineAllocator@$0BAA@VNamedAllocator@shdfnd@physx@@@shdfnd@physx@@@shdfnd@physx@@IEAAXI@Z@4_NA 000000018029e384     GuCCDSweepConvexMesh.obj
 0003:00004385       ?_ignore@?2??recreate@?$Array@IV?$InlineAllocator@$0BAA@VNamedAllocator@shdfnd@physx@@@shdfnd@physx@@@shdfnd@physx@@IEAAXI@Z@4_NA 000000018029e385     GuCCDSweepConvexMesh.obj
 0003:00004386       ?_ignore@?2??recreate@?$Array@IVNamedAllocator@shdfnd@physx@@@shdfnd@physx@@IEAAXI@Z@4_NA 000000018029e386     GuCCDSweepConvexMesh.obj
 0003:00004403       ?_ignore@?2???$getRadius@VCapsuleV@Gu@physx@@@Gu@physx@@YAMAEBVPxGeometry@2@@Z@4_NA 000000018029e403     GuCCDSweepPrimitives.obj
 0003:00004404       ?_ignore@?BD@???$gjkRaycast@U?$RelativeConvex@VCapsuleV@Gu@physx@@@Gu@physx@@U?$LocalConvex@VCapsuleV@Gu@physx@@@23@@Gu@physx@@YA_NAEBU?$RelativeConvex@VCapsuleV@Gu@physx@@@12@AEBU?$LocalConvex@VCapsuleV@Gu@physx@@@12@AEBT__m128@@222AEAT5@33M@Z@4_NA 000000018029e404     GuCCDSweepPrimitives.obj
 0003:00004405       ?_ignore@?BC@???$gjkPenetration@U?$RelativeConvex@VCapsuleV@Gu@physx@@@Gu@physx@@U?$LocalConvex@VCapsuleV@Gu@physx@@@23@@Gu@physx@@YA?AW4GjkStatus@12@AEBU?$RelativeConvex@VCapsuleV@Gu@physx@@@12@AEBU?$LocalConvex@VCapsuleV@Gu@physx@@@12@AEBT__m128@@2AEAT6@333PEIAE4AEAE_N@Z@4_NA 000000018029e405     GuCCDSweepPrimitives.obj
 0003:00004406       ?_ignore@?BI@???$gjkPenetration@U?$RelativeConvex@VCapsuleV@Gu@physx@@@Gu@physx@@U?$LocalConvex@VCapsuleV@Gu@physx@@@23@@Gu@physx@@YA?AW4GjkStatus@12@AEBU?$RelativeConvex@VCapsuleV@Gu@physx@@@12@AEBU?$LocalConvex@VCapsuleV@Gu@physx@@@12@AEBT__m128@@2AEAT6@333PEIAE4AEAE_N@Z@4_NA 000000018029e406     GuCCDSweepPrimitives.obj
 0003:00004407       ?_ignore@?BM@???$gjkPenetration@U?$RelativeConvex@VCapsuleV@Gu@physx@@@Gu@physx@@U?$LocalConvex@VCapsuleV@Gu@physx@@@23@@Gu@physx@@YA?AW4GjkStatus@12@AEBU?$RelativeConvex@VCapsuleV@Gu@physx@@@12@AEBU?$LocalConvex@VCapsuleV@Gu@physx@@@12@AEBT__m128@@2AEAT6@333PEIAE4AEAE_N@Z@4_NA 000000018029e407     GuCCDSweepPrimitives.obj
 0003:00004408       ?_ignore@?BD@???$gjkRaycast@U?$RelativeConvex@VCapsuleV@Gu@physx@@@Gu@physx@@U?$LocalConvex@VShrunkBoxV@Gu@physx@@@23@@Gu@physx@@YA_NAEBU?$RelativeConvex@VCapsuleV@Gu@physx@@@12@AEBU?$LocalConvex@VShrunkBoxV@Gu@physx@@@12@AEBT__m128@@222AEAT5@33M@Z@4_NA 000000018029e408     GuCCDSweepPrimitives.obj
 0003:00004409       ?_ignore@?BC@???$gjkPenetration@U?$RelativeConvex@VCapsuleV@Gu@physx@@@Gu@physx@@U?$LocalConvex@VShrunkBoxV@Gu@physx@@@23@@Gu@physx@@YA?AW4GjkStatus@12@AEBU?$RelativeConvex@VCapsuleV@Gu@physx@@@12@AEBU?$LocalConvex@VShrunkBoxV@Gu@physx@@@12@AEBT__m128@@2AEAT6@333PEIAE4AEAE_N@Z@4_NA 000000018029e409     GuCCDSweepPrimitives.obj
 0003:0000440a       ?_ignore@?BI@???$gjkPenetration@U?$RelativeConvex@VCapsuleV@Gu@physx@@@Gu@physx@@U?$LocalConvex@VShrunkBoxV@Gu@physx@@@23@@Gu@physx@@YA?AW4GjkStatus@12@AEBU?$RelativeConvex@VCapsuleV@Gu@physx@@@12@AEBU?$LocalConvex@VShrunkBoxV@Gu@physx@@@12@AEBT__m128@@2AEAT6@333PEIAE4AEAE_N@Z@4_NA 000000018029e40a     GuCCDSweepPrimitives.obj
 0003:0000440b       ?_ignore@?BM@???$gjkPenetration@U?$RelativeConvex@VCapsuleV@Gu@physx@@@Gu@physx@@U?$LocalConvex@VShrunkBoxV@Gu@physx@@@23@@Gu@physx@@YA?AW4GjkStatus@12@AEBU?$RelativeConvex@VCapsuleV@Gu@physx@@@12@AEBU?$LocalConvex@VShrunkBoxV@Gu@physx@@@12@AEBT__m128@@2AEAT6@333PEIAE4AEAE_N@Z@4_NA 000000018029e40b     GuCCDSweepPrimitives.obj
 0003:0000440c       ?_ignore@?BD@???$gjkRaycast@U?$RelativeConvex@VCapsuleV@Gu@physx@@@Gu@physx@@U?$LocalConvex@VShrunkConvexHullV@Gu@physx@@@23@@Gu@physx@@YA_NAEBU?$RelativeConvex@VCapsuleV@Gu@physx@@@12@AEBU?$LocalConvex@VShrunkConvexHullV@Gu@physx@@@12@AEBT__m128@@222AEAT5@33M@Z@4_NA 000000018029e40c     GuCCDSweepPrimitives.obj
 0003:0000440d       ?_ignore@?BC@???$gjkPenetration@U?$RelativeConvex@VCapsuleV@Gu@physx@@@Gu@physx@@U?$LocalConvex@VShrunkConvexHullV@Gu@physx@@@23@@Gu@physx@@YA?AW4GjkStatus@12@AEBU?$RelativeConvex@VCapsuleV@Gu@physx@@@12@AEBU?$LocalConvex@VShrunkConvexHullV@Gu@physx@@@12@AEBT__m128@@2AEAT6@333PEIAE4AEAE_N@Z@4_NA 000000018029e40d     GuCCDSweepPrimitives.obj
 0003:0000440e       ?_ignore@?BI@???$gjkPenetration@U?$RelativeConvex@VCapsuleV@Gu@physx@@@Gu@physx@@U?$LocalConvex@VShrunkConvexHullV@Gu@physx@@@23@@Gu@physx@@YA?AW4GjkStatus@12@AEBU?$RelativeConvex@VCapsuleV@Gu@physx@@@12@AEBU?$LocalConvex@VShrunkConvexHullV@Gu@physx@@@12@AEBT__m128@@2AEAT6@333PEIAE4AEAE_N@Z@4_NA 000000018029e40e     GuCCDSweepPrimitives.obj
 0003:0000440f       ?_ignore@?BM@???$gjkPenetration@U?$RelativeConvex@VCapsuleV@Gu@physx@@@Gu@physx@@U?$LocalConvex@VShrunkConvexHullV@Gu@physx@@@23@@Gu@physx@@YA?AW4GjkStatus@12@AEBU?$RelativeConvex@VCapsuleV@Gu@physx@@@12@AEBU?$LocalConvex@VShrunkConvexHullV@Gu@physx@@@12@AEBT__m128@@2AEAT6@333PEIAE4AEAE_N@Z@4_NA 000000018029e40f     GuCCDSweepPrimitives.obj
 0003:00004410       ?_ignore@?BD@???$gjkRaycast@U?$RelativeConvex@VShrunkBoxV@Gu@physx@@@Gu@physx@@U?$LocalConvex@VShrunkBoxV@Gu@physx@@@23@@Gu@physx@@YA_NAEBU?$RelativeConvex@VShrunkBoxV@Gu@physx@@@12@AEBU?$LocalConvex@VShrunkBoxV@Gu@physx@@@12@AEBT__m128@@222AEAT5@33M@Z@4_NA 000000018029e410     GuCCDSweepPrimitives.obj
 0003:00004411       ?_ignore@?BC@???$gjkPenetration@U?$RelativeConvex@VShrunkBoxV@Gu@physx@@@Gu@physx@@U?$LocalConvex@VShrunkBoxV@Gu@physx@@@23@@Gu@physx@@YA?AW4GjkStatus@12@AEBU?$RelativeConvex@VShrunkBoxV@Gu@physx@@@12@AEBU?$LocalConvex@VShrunkBoxV@Gu@physx@@@12@AEBT__m128@@2AEAT6@333PEIAE4AEAE_N@Z@4_NA 000000018029e411     GuCCDSweepPrimitives.obj
 0003:00004412       ?_ignore@?BI@???$gjkPenetration@U?$RelativeConvex@VShrunkBoxV@Gu@physx@@@Gu@physx@@U?$LocalConvex@VShrunkBoxV@Gu@physx@@@23@@Gu@physx@@YA?AW4GjkStatus@12@AEBU?$RelativeConvex@VShrunkBoxV@Gu@physx@@@12@AEBU?$LocalConvex@VShrunkBoxV@Gu@physx@@@12@AEBT__m128@@2AEAT6@333PEIAE4AEAE_N@Z@4_NA 000000018029e412     GuCCDSweepPrimitives.obj
 0003:00004413       ?_ignore@?BM@???$gjkPenetration@U?$RelativeConvex@VShrunkBoxV@Gu@physx@@@Gu@physx@@U?$LocalConvex@VShrunkBoxV@Gu@physx@@@23@@Gu@physx@@YA?AW4GjkStatus@12@AEBU?$RelativeConvex@VShrunkBoxV@Gu@physx@@@12@AEBU?$LocalConvex@VShrunkBoxV@Gu@physx@@@12@AEBT__m128@@2AEAT6@333PEIAE4AEAE_N@Z@4_NA 000000018029e413     GuCCDSweepPrimitives.obj
 0003:00004414       ?_ignore@?BD@???$gjkRaycast@U?$RelativeConvex@VShrunkBoxV@Gu@physx@@@Gu@physx@@U?$LocalConvex@VShrunkConvexHullV@Gu@physx@@@23@@Gu@physx@@YA_NAEBU?$RelativeConvex@VShrunkBoxV@Gu@physx@@@12@AEBU?$LocalConvex@VShrunkConvexHullV@Gu@physx@@@12@AEBT__m128@@222AEAT5@33M@Z@4_NA 000000018029e414     GuCCDSweepPrimitives.obj
 0003:00004415       ?_ignore@?BC@???$gjkPenetration@U?$RelativeConvex@VShrunkBoxV@Gu@physx@@@Gu@physx@@U?$LocalConvex@VShrunkConvexHullV@Gu@physx@@@23@@Gu@physx@@YA?AW4GjkStatus@12@AEBU?$RelativeConvex@VShrunkBoxV@Gu@physx@@@12@AEBU?$LocalConvex@VShrunkConvexHullV@Gu@physx@@@12@AEBT__m128@@2AEAT6@333PEIAE4AEAE_N@Z@4_NA 000000018029e415     GuCCDSweepPrimitives.obj
 0003:00004416       ?_ignore@?BI@???$gjkPenetration@U?$RelativeConvex@VShrunkBoxV@Gu@physx@@@Gu@physx@@U?$LocalConvex@VShrunkConvexHullV@Gu@physx@@@23@@Gu@physx@@YA?AW4GjkStatus@12@AEBU?$RelativeConvex@VShrunkBoxV@Gu@physx@@@12@AEBU?$LocalConvex@VShrunkConvexHullV@Gu@physx@@@12@AEBT__m128@@2AEAT6@333PEIAE4AEAE_N@Z@4_NA 000000018029e416     GuCCDSweepPrimitives.obj
 0003:00004417       ?_ignore@?BM@???$gjkPenetration@U?$RelativeConvex@VShrunkBoxV@Gu@physx@@@Gu@physx@@U?$LocalConvex@VShrunkConvexHullV@Gu@physx@@@23@@Gu@physx@@YA?AW4GjkStatus@12@AEBU?$RelativeConvex@VShrunkBoxV@Gu@physx@@@12@AEBU?$LocalConvex@VShrunkConvexHullV@Gu@physx@@@12@AEBT__m128@@2AEAT6@333PEIAE4AEAE_N@Z@4_NA 000000018029e417     GuCCDSweepPrimitives.obj
 0003:00004418       ?_ignore@?BD@???$gjkRaycast@U?$RelativeConvex@VShrunkConvexHullV@Gu@physx@@@Gu@physx@@U?$LocalConvex@VShrunkConvexHullV@Gu@physx@@@23@@Gu@physx@@YA_NAEBU?$RelativeConvex@VShrunkConvexHullV@Gu@physx@@@12@AEBU?$LocalConvex@VShrunkConvexHullV@Gu@physx@@@12@AEBT__m128@@222AEAT5@33M@Z@4_NA 000000018029e418     GuCCDSweepPrimitives.obj
 0003:00004419       ?_ignore@?BD@???$gjkRaycast@U?$RelativeConvex@VTriangleV@Gu@physx@@@Gu@physx@@U?$LocalConvex@VCapsuleV@Gu@physx@@@23@@Gu@physx@@YA_NAEBU?$RelativeConvex@VTriangleV@Gu@physx@@@12@AEBU?$LocalConvex@VCapsuleV@Gu@physx@@@12@AEBT__m128@@222AEAT5@33M@Z@4_NA 000000018029e419     GuCCDSweepPrimitives.obj
 0003:0000441a       ?_ignore@?BC@???$gjkPenetration@U?$RelativeConvex@VTriangleV@Gu@physx@@@Gu@physx@@U?$LocalConvex@VCapsuleV@Gu@physx@@@23@@Gu@physx@@YA?AW4GjkStatus@12@AEBU?$RelativeConvex@VTriangleV@Gu@physx@@@12@AEBU?$LocalConvex@VCapsuleV@Gu@physx@@@12@AEBT__m128@@2AEAT6@333PEIAE4AEAE_N@Z@4_NA 000000018029e41a     GuCCDSweepPrimitives.obj
 0003:0000441b       ?_ignore@?BI@???$gjkPenetration@U?$RelativeConvex@VTriangleV@Gu@physx@@@Gu@physx@@U?$LocalConvex@VCapsuleV@Gu@physx@@@23@@Gu@physx@@YA?AW4GjkStatus@12@AEBU?$RelativeConvex@VTriangleV@Gu@physx@@@12@AEBU?$LocalConvex@VCapsuleV@Gu@physx@@@12@AEBT__m128@@2AEAT6@333PEIAE4AEAE_N@Z@4_NA 000000018029e41b     GuCCDSweepPrimitives.obj
 0003:0000441c       ?_ignore@?BM@???$gjkPenetration@U?$RelativeConvex@VTriangleV@Gu@physx@@@Gu@physx@@U?$LocalConvex@VCapsuleV@Gu@physx@@@23@@Gu@physx@@YA?AW4GjkStatus@12@AEBU?$RelativeConvex@VTriangleV@Gu@physx@@@12@AEBU?$LocalConvex@VCapsuleV@Gu@physx@@@12@AEBT__m128@@2AEAT6@333PEIAE4AEAE_N@Z@4_NA 000000018029e41c     GuCCDSweepPrimitives.obj
 0003:0000441d       ?_ignore@?BD@???$gjkRaycast@U?$RelativeConvex@VTriangleV@Gu@physx@@@Gu@physx@@U?$LocalConvex@VBoxV@Gu@physx@@@23@@Gu@physx@@YA_NAEBU?$RelativeConvex@VTriangleV@Gu@physx@@@12@AEBU?$LocalConvex@VBoxV@Gu@physx@@@12@AEBT__m128@@222AEAT5@33M@Z@4_NA 000000018029e41d     GuCCDSweepPrimitives.obj
 0003:0000441e       ?_ignore@?BC@???$gjkPenetration@U?$RelativeConvex@VTriangleV@Gu@physx@@@Gu@physx@@U?$LocalConvex@VShrunkBoxV@Gu@physx@@@23@@Gu@physx@@YA?AW4GjkStatus@12@AEBU?$RelativeConvex@VTriangleV@Gu@physx@@@12@AEBU?$LocalConvex@VShrunkBoxV@Gu@physx@@@12@AEBT__m128@@2AEAT6@333PEIAE4AEAE_N@Z@4_NA 000000018029e41e     GuCCDSweepPrimitives.obj
 0003:0000441f       ?_ignore@?BI@???$gjkPenetration@U?$RelativeConvex@VTriangleV@Gu@physx@@@Gu@physx@@U?$LocalConvex@VShrunkBoxV@Gu@physx@@@23@@Gu@physx@@YA?AW4GjkStatus@12@AEBU?$RelativeConvex@VTriangleV@Gu@physx@@@12@AEBU?$LocalConvex@VShrunkBoxV@Gu@physx@@@12@AEBT__m128@@2AEAT6@333PEIAE4AEAE_N@Z@4_NA 000000018029e41f     GuCCDSweepPrimitives.obj
 0003:00004420       ?_ignore@?BM@???$gjkPenetration@U?$RelativeConvex@VTriangleV@Gu@physx@@@Gu@physx@@U?$LocalConvex@VShrunkBoxV@Gu@physx@@@23@@Gu@physx@@YA?AW4GjkStatus@12@AEBU?$RelativeConvex@VTriangleV@Gu@physx@@@12@AEBU?$LocalConvex@VShrunkBoxV@Gu@physx@@@12@AEBT__m128@@2AEAT6@333PEIAE4AEAE_N@Z@4_NA 000000018029e420     GuCCDSweepPrimitives.obj
 0003:00004421       ?_ignore@?BD@???$gjkRaycast@U?$RelativeConvex@VTriangleV@Gu@physx@@@Gu@physx@@U?$LocalConvex@VConvexHullV@Gu@physx@@@23@@Gu@physx@@YA_NAEBU?$RelativeConvex@VTriangleV@Gu@physx@@@12@AEBU?$LocalConvex@VConvexHullV@Gu@physx@@@12@AEBT__m128@@222AEAT5@33M@Z@4_NA 000000018029e421     GuCCDSweepPrimitives.obj
 0003:00004422       ?_ignore@?BC@???$gjkPenetration@U?$RelativeConvex@VTriangleV@Gu@physx@@@Gu@physx@@U?$LocalConvex@VShrunkConvexHullV@Gu@physx@@@23@@Gu@physx@@YA?AW4GjkStatus@12@AEBU?$RelativeConvex@VTriangleV@Gu@physx@@@12@AEBU?$LocalConvex@VShrunkConvexHullV@Gu@physx@@@12@AEBT__m128@@2AEAT6@333PEIAE4AEAE_N@Z@4_NA 000000018029e422     GuCCDSweepPrimitives.obj
 0003:00004423       ?_ignore@?BI@???$gjkPenetration@U?$RelativeConvex@VTriangleV@Gu@physx@@@Gu@physx@@U?$LocalConvex@VShrunkConvexHullV@Gu@physx@@@23@@Gu@physx@@YA?AW4GjkStatus@12@AEBU?$RelativeConvex@VTriangleV@Gu@physx@@@12@AEBU?$LocalConvex@VShrunkConvexHullV@Gu@physx@@@12@AEBT__m128@@2AEAT6@333PEIAE4AEAE_N@Z@4_NA 000000018029e423     GuCCDSweepPrimitives.obj
 0003:00004424       ?_ignore@?BM@???$gjkPenetration@U?$RelativeConvex@VTriangleV@Gu@physx@@@Gu@physx@@U?$LocalConvex@VShrunkConvexHullV@Gu@physx@@@23@@Gu@physx@@YA?AW4GjkStatus@12@AEBU?$RelativeConvex@VTriangleV@Gu@physx@@@12@AEBU?$LocalConvex@VShrunkConvexHullV@Gu@physx@@@12@AEBT__m128@@2AEAT6@333PEIAE4AEAE_N@Z@4_NA 000000018029e424     GuCCDSweepPrimitives.obj
 0003:000045a8       ?_ignore@?O@??overlap@Gu@physx@@YA_NAEBVPxGeometry@3@AEBVPxTransform@3@01PEIAY06Q6A_N0101PEAUTriggerCache@23@@Z@Z@4_NA 000000018029e5a8     GuGeometryQuery.obj
 0003:000045a9       ?_ignore@?BB@??overlap@Gu@physx@@YA_NAEBVPxGeometry@3@AEBVPxTransform@3@01PEIAY06Q6A_N0101PEAUTriggerCache@23@@Z@Z@4_NA 000000018029e5a9     GuGeometryQuery.obj
 0003:000046a4       ?_ignore@?2???$checkType@UPxConvexMeshGeometryLL@physx@@@physx@@YAXAEBVGeometryUnion@Gu@1@@Z@4_NA 000000018029e6a4     GuGeometryUnion.obj
 0003:000046a5       ?_ignore@?2???$checkType@UPxTriangleMeshGeometryLL@physx@@@physx@@YAXAEBVGeometryUnion@Gu@1@@Z@4_NA 000000018029e6a5     GuGeometryUnion.obj
 0003:000046a6       ?_ignore@?2???$checkType@UPxHeightFieldGeometryLL@physx@@@physx@@YAXAEBVGeometryUnion@Gu@1@@Z@4_NA 000000018029e6a6     GuGeometryUnion.obj
 0003:000047a3       ?_ignore@?2??allocateVertices@TriangleMeshData@Gu@physx@@QEAAPEAVPxVec3@4@I@Z@4_NA 000000018029e7a3     GuMeshFactory.obj
 0003:000047a4       ?_ignore@?2??allocateTriangles@TriangleMeshData@Gu@physx@@QEAAPEAXI_NI@Z@4_NA 000000018029e7a4     GuMeshFactory.obj
 0003:000047a5       ?_ignore@?3??allocateTriangles@TriangleMeshData@Gu@physx@@QEAAPEAXI_NI@Z@4_NA 000000018029e7a5     GuMeshFactory.obj
 0003:000047a6       ?_ignore@?2??allocateMaterials@TriangleMeshData@Gu@physx@@QEAAPEAGXZ@4_NA 000000018029e7a6     GuMeshFactory.obj
 0003:000047a7       ?_ignore@?3??allocateMaterials@TriangleMeshData@Gu@physx@@QEAAPEAGXZ@4_NA 000000018029e7a7     GuMeshFactory.obj
 0003:000047a8       ?_ignore@?2??allocateAdjacencies@TriangleMeshData@Gu@physx@@QEAAPEAIXZ@4_NA 000000018029e7a8     GuMeshFactory.obj
 0003:000047a9       ?_ignore@?3??allocateAdjacencies@TriangleMeshData@Gu@physx@@QEAAPEAIXZ@4_NA 000000018029e7a9     GuMeshFactory.obj
 0003:000047aa       ?_ignore@?2??allocateFaceRemap@TriangleMeshData@Gu@physx@@QEAAPEAIXZ@4_NA 000000018029e7aa     GuMeshFactory.obj
 0003:000047ab       ?_ignore@?3??allocateFaceRemap@TriangleMeshData@Gu@physx@@QEAAPEAIXZ@4_NA 000000018029e7ab     GuMeshFactory.obj
 0003:000047ac       ?_ignore@?2??allocateExtraTrigData@TriangleMeshData@Gu@physx@@QEAAPEAEXZ@4_NA 000000018029e7ac     GuMeshFactory.obj
 0003:000047ad       ?_ignore@?3??allocateExtraTrigData@TriangleMeshData@Gu@physx@@QEAAPEAEXZ@4_NA 000000018029e7ad     GuMeshFactory.obj
 0003:000047b5       ?_ignore@?2??replaceWithLast@?$Array@PEAVGuMeshFactoryListener@physx@@VNamedAllocator@shdfnd@2@@shdfnd@physx@@QEAAXI@Z@4_NA 000000018029e7b5     GuMeshFactory.obj
 0003:000047b6       ?_ignore@?2???A?$Array@PEAVGuMeshFactoryListener@physx@@VNamedAllocator@shdfnd@2@@shdfnd@physx@@QEAAAEAPEAVGuMeshFactoryListener@3@I@Z@4_NA 000000018029e7b6     GuMeshFactory.obj
 0003:000047b7       ?_ignore@?3??replaceWithLast@?$HashBase@PEAVHeightField@Gu@physx@@PEAV123@U?$Hash@PEAVHeightField@Gu@physx@@@shdfnd@3@UGetKey@?$HashSetBase@PEAVHeightField@Gu@physx@@U?$Hash@PEAVHeightField@Gu@physx@@@shdfnd@3@VNonTrackingAllocator@53@$00@internal@53@VNonTrackingAllocator@53@$00@internal@shdfnd@physx@@AEAAXI@Z@4_NA 000000018029e7b7     GuMeshFactory.obj
 0003:000047b8       ?_ignore@?5??freeListAdd@?$HashBase@PEAVHeightField@Gu@physx@@PEAV123@U?$Hash@PEAVHeightField@Gu@physx@@@shdfnd@3@UGetKey@?$HashSetBase@PEAVHeightField@Gu@physx@@U?$Hash@PEAVHeightField@Gu@physx@@@shdfnd@3@VNonTrackingAllocator@53@$00@internal@53@VNonTrackingAllocator@53@$00@internal@shdfnd@physx@@AEAAXI@Z@4_NA 000000018029e7b8     GuMeshFactory.obj
 0003:000047b9       ?_ignore@?3??replaceWithLast@?$HashBase@PEAVConvexMesh@Gu@physx@@PEAV123@U?$Hash@PEAVConvexMesh@Gu@physx@@@shdfnd@3@UGetKey@?$HashSetBase@PEAVConvexMesh@Gu@physx@@U?$Hash@PEAVConvexMesh@Gu@physx@@@shdfnd@3@VNonTrackingAllocator@53@$00@internal@53@VNonTrackingAllocator@53@$00@internal@shdfnd@physx@@AEAAXI@Z@4_NA 000000018029e7b9     GuMeshFactory.obj
 0003:000047ba       ?_ignore@?5??freeListAdd@?$HashBase@PEAVConvexMesh@Gu@physx@@PEAV123@U?$Hash@PEAVConvexMesh@Gu@physx@@@shdfnd@3@UGetKey@?$HashSetBase@PEAVConvexMesh@Gu@physx@@U?$Hash@PEAVConvexMesh@Gu@physx@@@shdfnd@3@VNonTrackingAllocator@53@$00@internal@53@VNonTrackingAllocator@53@$00@internal@shdfnd@physx@@AEAAXI@Z@4_NA 000000018029e7ba     GuMeshFactory.obj
 0003:000047bb       ?_ignore@?3??replaceWithLast@?$HashBase@PEAVTriangleMesh@Gu@physx@@PEAV123@U?$Hash@PEAVTriangleMesh@Gu@physx@@@shdfnd@3@UGetKey@?$HashSetBase@PEAVTriangleMesh@Gu@physx@@U?$Hash@PEAVTriangleMesh@Gu@physx@@@shdfnd@3@VNonTrackingAllocator@53@$00@internal@53@VNonTrackingAllocator@53@$00@internal@shdfnd@physx@@AEAAXI@Z@4_NA 000000018029e7bb     GuMeshFactory.obj
 0003:000047bc       ?_ignore@?5??freeListAdd@?$HashBase@PEAVTriangleMesh@Gu@physx@@PEAV123@U?$Hash@PEAVTriangleMesh@Gu@physx@@@shdfnd@3@UGetKey@?$HashSetBase@PEAVTriangleMesh@Gu@physx@@U?$Hash@PEAVTriangleMesh@Gu@physx@@@shdfnd@3@VNonTrackingAllocator@53@$00@internal@53@VNonTrackingAllocator@53@$00@internal@shdfnd@physx@@AEAAXI@Z@4_NA 000000018029e7bc     GuMeshFactory.obj
 0003:000047bd       ?_ignore@?4??reserveInternal@?$HashBase@PEAVHeightField@Gu@physx@@PEAV123@U?$Hash@PEAVHeightField@Gu@physx@@@shdfnd@3@UGetKey@?$HashSetBase@PEAVHeightField@Gu@physx@@U?$Hash@PEAVHeightField@Gu@physx@@@shdfnd@3@VNonTrackingAllocator@53@$00@internal@53@VNonTrackingAllocator@53@$00@internal@shdfnd@physx@@AEAAXI@Z@4_NA 000000018029e7bd     GuMeshFactory.obj
 0003:000047be       ?_ignore@?6??reserveInternal@?$HashBase@PEAVHeightField@Gu@physx@@PEAV123@U?$Hash@PEAVHeightField@Gu@physx@@@shdfnd@3@UGetKey@?$HashSetBase@PEAVHeightField@Gu@physx@@U?$Hash@PEAVHeightField@Gu@physx@@@shdfnd@3@VNonTrackingAllocator@53@$00@internal@53@VNonTrackingAllocator@53@$00@internal@shdfnd@physx@@AEAAXI@Z@4_NA 000000018029e7be     GuMeshFactory.obj
 0003:000047bf       ?_ignore@?BE@??reserveInternal@?$HashBase@PEAVHeightField@Gu@physx@@PEAV123@U?$Hash@PEAVHeightField@Gu@physx@@@shdfnd@3@UGetKey@?$HashSetBase@PEAVHeightField@Gu@physx@@U?$Hash@PEAVHeightField@Gu@physx@@@shdfnd@3@VNonTrackingAllocator@53@$00@internal@53@VNonTrackingAllocator@53@$00@internal@shdfnd@physx@@AEAAXI@Z@4_NA 000000018029e7bf     GuMeshFactory.obj
 0003:000047c0       ?_ignore@?4??reserveInternal@?$HashBase@PEAVConvexMesh@Gu@physx@@PEAV123@U?$Hash@PEAVConvexMesh@Gu@physx@@@shdfnd@3@UGetKey@?$HashSetBase@PEAVConvexMesh@Gu@physx@@U?$Hash@PEAVConvexMesh@Gu@physx@@@shdfnd@3@VNonTrackingAllocator@53@$00@internal@53@VNonTrackingAllocator@53@$00@internal@shdfnd@physx@@AEAAXI@Z@4_NA 000000018029e7c0     GuMeshFactory.obj
 0003:000047c1       ?_ignore@?6??reserveInternal@?$HashBase@PEAVConvexMesh@Gu@physx@@PEAV123@U?$Hash@PEAVConvexMesh@Gu@physx@@@shdfnd@3@UGetKey@?$HashSetBase@PEAVConvexMesh@Gu@physx@@U?$Hash@PEAVConvexMesh@Gu@physx@@@shdfnd@3@VNonTrackingAllocator@53@$00@internal@53@VNonTrackingAllocator@53@$00@internal@shdfnd@physx@@AEAAXI@Z@4_NA 000000018029e7c1     GuMeshFactory.obj
 0003:000047c2       ?_ignore@?BE@??reserveInternal@?$HashBase@PEAVConvexMesh@Gu@physx@@PEAV123@U?$Hash@PEAVConvexMesh@Gu@physx@@@shdfnd@3@UGetKey@?$HashSetBase@PEAVConvexMesh@Gu@physx@@U?$Hash@PEAVConvexMesh@Gu@physx@@@shdfnd@3@VNonTrackingAllocator@53@$00@internal@53@VNonTrackingAllocator@53@$00@internal@shdfnd@physx@@AEAAXI@Z@4_NA 000000018029e7c2     GuMeshFactory.obj
 0003:000047c3       ?_ignore@?4??reserveInternal@?$HashBase@PEAVTriangleMesh@Gu@physx@@PEAV123@U?$Hash@PEAVTriangleMesh@Gu@physx@@@shdfnd@3@UGetKey@?$HashSetBase@PEAVTriangleMesh@Gu@physx@@U?$Hash@PEAVTriangleMesh@Gu@physx@@@shdfnd@3@VNonTrackingAllocator@53@$00@internal@53@VNonTrackingAllocator@53@$00@internal@shdfnd@physx@@AEAAXI@Z@4_NA 000000018029e7c3     GuMeshFactory.obj
 0003:000047c4       ?_ignore@?6??reserveInternal@?$HashBase@PEAVTriangleMesh@Gu@physx@@PEAV123@U?$Hash@PEAVTriangleMesh@Gu@physx@@@shdfnd@3@UGetKey@?$HashSetBase@PEAVTriangleMesh@Gu@physx@@U?$Hash@PEAVTriangleMesh@Gu@physx@@@shdfnd@3@VNonTrackingAllocator@53@$00@internal@53@VNonTrackingAllocator@53@$00@internal@shdfnd@physx@@AEAAXI@Z@4_NA 000000018029e7c4     GuMeshFactory.obj
 0003:000047c5       ?_ignore@?BE@??reserveInternal@?$HashBase@PEAVTriangleMesh@Gu@physx@@PEAV123@U?$Hash@PEAVTriangleMesh@Gu@physx@@@shdfnd@3@UGetKey@?$HashSetBase@PEAVTriangleMesh@Gu@physx@@U?$Hash@PEAVTriangleMesh@Gu@physx@@@shdfnd@3@VNonTrackingAllocator@53@$00@internal@53@VNonTrackingAllocator@53@$00@internal@shdfnd@physx@@AEAAXI@Z@4_NA 000000018029e7c5     GuMeshFactory.obj
 0003:000047c6       ?_ignore@?6??freeListAdd@?$HashBase@PEAVHeightField@Gu@physx@@PEAV123@U?$Hash@PEAVHeightField@Gu@physx@@@shdfnd@3@UGetKey@?$HashSetBase@PEAVHeightField@Gu@physx@@U?$Hash@PEAVHeightField@Gu@physx@@@shdfnd@3@VNonTrackingAllocator@53@$00@internal@53@VNonTrackingAllocator@53@$00@internal@shdfnd@physx@@AEAAXII@Z@4_NA 000000018029e7c6     GuMeshFactory.obj
 0003:000047c7       ?_ignore@?6??freeListAdd@?$HashBase@PEAVConvexMesh@Gu@physx@@PEAV123@U?$Hash@PEAVConvexMesh@Gu@physx@@@shdfnd@3@UGetKey@?$HashSetBase@PEAVConvexMesh@Gu@physx@@U?$Hash@PEAVConvexMesh@Gu@physx@@@shdfnd@3@VNonTrackingAllocator@53@$00@internal@53@VNonTrackingAllocator@53@$00@internal@shdfnd@physx@@AEAAXII@Z@4_NA 000000018029e7c7     GuMeshFactory.obj
 0003:000047c8       ?_ignore@?6??freeListAdd@?$HashBase@PEAVTriangleMesh@Gu@physx@@PEAV123@U?$Hash@PEAVTriangleMesh@Gu@physx@@@shdfnd@3@UGetKey@?$HashSetBase@PEAVTriangleMesh@Gu@physx@@U?$Hash@PEAVTriangleMesh@Gu@physx@@@shdfnd@3@VNonTrackingAllocator@53@$00@internal@53@VNonTrackingAllocator@53@$00@internal@shdfnd@physx@@AEAAXII@Z@4_NA 000000018029e7c8     GuMeshFactory.obj
 0003:000047c9       ?_ignore@?2??growAndPushBack@?$Array@PEAVGuMeshFactoryListener@physx@@VNamedAllocator@shdfnd@2@@shdfnd@physx@@IEAAAEAPEAVGuMeshFactoryListener@4@AEBQEAV54@@Z@4_NA 000000018029e7c9     GuMeshFactory.obj
 0003:000047ca       ?_ignore@?2??grow@?$HashBase@PEAVHeightField@Gu@physx@@PEAV123@U?$Hash@PEAVHeightField@Gu@physx@@@shdfnd@3@UGetKey@?$HashSetBase@PEAVHeightField@Gu@physx@@U?$Hash@PEAVHeightField@Gu@physx@@@shdfnd@3@VNonTrackingAllocator@53@$00@internal@53@VNonTrackingAllocator@53@$00@internal@shdfnd@physx@@AEAAXXZ@4_NA 000000018029e7ca     GuMeshFactory.obj
 0003:000047cb       ?_ignore@?2??freeListGetNext@?$HashBase@PEAVHeightField@Gu@physx@@PEAV123@U?$Hash@PEAVHeightField@Gu@physx@@@shdfnd@3@UGetKey@?$HashSetBase@PEAVHeightField@Gu@physx@@U?$Hash@PEAVHeightField@Gu@physx@@@shdfnd@3@VNonTrackingAllocator@53@$00@internal@53@VNonTrackingAllocator@53@$00@internal@shdfnd@physx@@AEAAIXZ@4_NA 000000018029e7cb     GuMeshFactory.obj
 0003:000047cc       ?_ignore@?6??freeListGetNext@?$HashBase@PEAVHeightField@Gu@physx@@PEAV123@U?$Hash@PEAVHeightField@Gu@physx@@@shdfnd@3@UGetKey@?$HashSetBase@PEAVHeightField@Gu@physx@@U?$Hash@PEAVHeightField@Gu@physx@@@shdfnd@3@VNonTrackingAllocator@53@$00@internal@53@VNonTrackingAllocator@53@$00@internal@shdfnd@physx@@AEAAIXZ@4_NA 000000018029e7cc     GuMeshFactory.obj
 0003:000047cd       ?_ignore@?2??grow@?$HashBase@PEAVConvexMesh@Gu@physx@@PEAV123@U?$Hash@PEAVConvexMesh@Gu@physx@@@shdfnd@3@UGetKey@?$HashSetBase@PEAVConvexMesh@Gu@physx@@U?$Hash@PEAVConvexMesh@Gu@physx@@@shdfnd@3@VNonTrackingAllocator@53@$00@internal@53@VNonTrackingAllocator@53@$00@internal@shdfnd@physx@@AEAAXXZ@4_NA 000000018029e7cd     GuMeshFactory.obj
 0003:000047ce       ?_ignore@?2??freeListGetNext@?$HashBase@PEAVConvexMesh@Gu@physx@@PEAV123@U?$Hash@PEAVConvexMesh@Gu@physx@@@shdfnd@3@UGetKey@?$HashSetBase@PEAVConvexMesh@Gu@physx@@U?$Hash@PEAVConvexMesh@Gu@physx@@@shdfnd@3@VNonTrackingAllocator@53@$00@internal@53@VNonTrackingAllocator@53@$00@internal@shdfnd@physx@@AEAAIXZ@4_NA 000000018029e7ce     GuMeshFactory.obj
 0003:000047cf       ?_ignore@?6??freeListGetNext@?$HashBase@PEAVConvexMesh@Gu@physx@@PEAV123@U?$Hash@PEAVConvexMesh@Gu@physx@@@shdfnd@3@UGetKey@?$HashSetBase@PEAVConvexMesh@Gu@physx@@U?$Hash@PEAVConvexMesh@Gu@physx@@@shdfnd@3@VNonTrackingAllocator@53@$00@internal@53@VNonTrackingAllocator@53@$00@internal@shdfnd@physx@@AEAAIXZ@4_NA 000000018029e7cf     GuMeshFactory.obj
 0003:000047d0       ?_ignore@?2??grow@?$HashBase@PEAVTriangleMesh@Gu@physx@@PEAV123@U?$Hash@PEAVTriangleMesh@Gu@physx@@@shdfnd@3@UGetKey@?$HashSetBase@PEAVTriangleMesh@Gu@physx@@U?$Hash@PEAVTriangleMesh@Gu@physx@@@shdfnd@3@VNonTrackingAllocator@53@$00@internal@53@VNonTrackingAllocator@53@$00@internal@shdfnd@physx@@AEAAXXZ@4_NA 000000018029e7d0     GuMeshFactory.obj
 0003:000047d1       ?_ignore@?2??freeListGetNext@?$HashBase@PEAVTriangleMesh@Gu@physx@@PEAV123@U?$Hash@PEAVTriangleMesh@Gu@physx@@@shdfnd@3@UGetKey@?$HashSetBase@PEAVTriangleMesh@Gu@physx@@U?$Hash@PEAVTriangleMesh@Gu@physx@@@shdfnd@3@VNonTrackingAllocator@53@$00@internal@53@VNonTrackingAllocator@53@$00@internal@shdfnd@physx@@AEAAIXZ@4_NA 000000018029e7d1     GuMeshFactory.obj
 0003:000047d2       ?_ignore@?6??freeListGetNext@?$HashBase@PEAVTriangleMesh@Gu@physx@@PEAV123@U?$Hash@PEAVTriangleMesh@Gu@physx@@@shdfnd@3@UGetKey@?$HashSetBase@PEAVTriangleMesh@Gu@physx@@U?$Hash@PEAVTriangleMesh@Gu@physx@@@shdfnd@3@VNonTrackingAllocator@53@$00@internal@53@VNonTrackingAllocator@53@$00@internal@shdfnd@physx@@AEAAIXZ@4_NA 000000018029e7d2     GuMeshFactory.obj
 0003:00004904       ?_ignore@?2??transform@PxTransform@physx@@QEBA?AV23@AEBV23@@Z@4_NA 000000018029e904     GuOverlapTests.obj
 0003:00004905       ?_ignore@?3??transform@PxTransform@physx@@QEBA?AV23@AEBV23@@Z@4_NA 000000018029e905     GuOverlapTests.obj
 0003:000049a3       ?_ignore@?L@???$gjk@U?$RelativeConvex@VBoxV@Gu@physx@@@Gu@physx@@U?$LocalConvex@VConvexHullV@Gu@physx@@@23@@Gu@physx@@YA?AW4GjkStatus@12@AEBU?$RelativeConvex@VBoxV@Gu@physx@@@12@AEBU?$LocalConvex@VConvexHullV@Gu@physx@@@12@AEBT__m128@@2AEAT6@333@Z@4_NA 000000018029e9a3     GuOverlapTests.obj
 0003:000049a4       ?_ignore@?L@???$gjk@U?$RelativeConvex@VConvexHullV@Gu@physx@@@Gu@physx@@U?$LocalConvex@VConvexHullV@Gu@physx@@@23@@Gu@physx@@YA?AW4GjkStatus@12@AEBU?$RelativeConvex@VConvexHullV@Gu@physx@@@12@AEBU?$LocalConvex@VConvexHullV@Gu@physx@@@12@AEBT__m128@@2AEAT6@333@Z@4_NA 000000018029e9a4     GuOverlapTests.obj
 0003:00004a30       ?_ignore@?2???0HFTraceSegmentCallback@?A0x8e1418b3@@QEAA@PEAUPxRaycastHit@physx@@IV?$PxFlags@W4Enum@PxHitFlag@physx@@G@4@AEBVHeightFieldUtil@Gu@4@AEBVPxTransform@4@AEBVPxVec3@4@44_N@Z@4_NA 000000018029ea30     GuRaycastTests.obj
 0003:00004a33       ?_ignore@?7???$traceSegment@UHFTraceSegmentCallback@?A0x8e1418b3@@$0A@$0A@@HeightFieldUtil@Gu@physx@@QEBAXAEBVPxVec3@3@0MPEAUHFTraceSegmentCallback@?A0x8e1418b3@@AEBVPxBounds3@3@_NPEBV43@@Z@4_NA 000000018029ea33     GuRaycastTests.obj
 0003:00004a34       ?_ignore@?P@???$traceSegment@UHFTraceSegmentCallback@?A0x8e1418b3@@$0A@$0A@@HeightFieldUtil@Gu@physx@@QEBAXAEBVPxVec3@3@0MPEAUHFTraceSegmentCallback@?A0x8e1418b3@@AEBVPxBounds3@3@_NPEBV43@@Z@4_NA 000000018029ea34     GuRaycastTests.obj
 0003:00004a35       ?_ignore@?BE@???$traceSegment@UHFTraceSegmentCallback@?A0x8e1418b3@@$0A@$0A@@HeightFieldUtil@Gu@physx@@QEBAXAEBVPxVec3@3@0MPEAUHFTraceSegmentCallback@?A0x8e1418b3@@AEBVPxBounds3@3@_NPEBV43@@Z@4_NA 000000018029ea35     GuRaycastTests.obj
 0003:00004a36       ?_ignore@?BF@???$traceSegment@UHFTraceSegmentCallback@?A0x8e1418b3@@$0A@$0A@@HeightFieldUtil@Gu@physx@@QEBAXAEBVPxVec3@3@0MPEAUHFTraceSegmentCallback@?A0x8e1418b3@@AEBVPxBounds3@3@_NPEBV43@@Z@4_NA 000000018029ea36     GuRaycastTests.obj
 0003:00004ab4       ?_ignore@?2??forceSize_Unsafe@?$Array@IVNamedAllocator@shdfnd@physx@@@shdfnd@physx@@QEAAXI@Z@4_NA 000000018029eab4     GuSweepMTD.obj
 0003:00004ab5       ?_ignore@?2???A?$Array@IVNamedAllocator@shdfnd@physx@@@shdfnd@physx@@QEAAAEAII@Z@4_NA 000000018029eab5     GuSweepMTD.obj
 0003:00004b40       ?_ignore@?BD@???$gjkRaycast@U?$LocalConvex@VCapsuleV@Gu@physx@@@Gu@physx@@U?$LocalConvex@VConvexHullV@Gu@physx@@@23@@Gu@physx@@YA_NAEBU?$LocalConvex@VCapsuleV@Gu@physx@@@12@AEBU?$LocalConvex@VConvexHullV@Gu@physx@@@12@AEBT__m128@@222AEAT5@33M@Z@4_NA 000000018029eb40     GuSweepSharedTests.obj
 0003:00004b41       ?_ignore@?BC@???$gjkPenetration@U?$LocalConvex@VCapsuleV@Gu@physx@@@Gu@physx@@U?$LocalConvex@VShrunkConvexHullV@Gu@physx@@@23@@Gu@physx@@YA?AW4GjkStatus@12@AEBU?$LocalConvex@VCapsuleV@Gu@physx@@@12@AEBU?$LocalConvex@VShrunkConvexHullV@Gu@physx@@@12@AEBT__m128@@2AEAT6@333PEIAE4AEAE_N@Z@4_NA 000000018029eb41     GuSweepSharedTests.obj
 0003:00004b42       ?_ignore@?BI@???$gjkPenetration@U?$LocalConvex@VCapsuleV@Gu@physx@@@Gu@physx@@U?$LocalConvex@VShrunkConvexHullV@Gu@physx@@@23@@Gu@physx@@YA?AW4GjkStatus@12@AEBU?$LocalConvex@VCapsuleV@Gu@physx@@@12@AEBU?$LocalConvex@VShrunkConvexHullV@Gu@physx@@@12@AEBT__m128@@2AEAT6@333PEIAE4AEAE_N@Z@4_NA 000000018029eb42     GuSweepSharedTests.obj
 0003:00004b43       ?_ignore@?BM@???$gjkPenetration@U?$LocalConvex@VCapsuleV@Gu@physx@@@Gu@physx@@U?$LocalConvex@VShrunkConvexHullV@Gu@physx@@@23@@Gu@physx@@YA?AW4GjkStatus@12@AEBU?$LocalConvex@VCapsuleV@Gu@physx@@@12@AEBU?$LocalConvex@VShrunkConvexHullV@Gu@physx@@@12@AEBT__m128@@2AEAT6@333PEIAE4AEAE_N@Z@4_NA 000000018029eb43     GuSweepSharedTests.obj
 0003:00004b44       ?_ignore@?BD@???$gjkRaycast@U?$RelativeConvex@VBoxV@Gu@physx@@@Gu@physx@@U?$LocalConvex@VConvexHullV@Gu@physx@@@23@@Gu@physx@@YA_NAEBU?$RelativeConvex@VBoxV@Gu@physx@@@12@AEBU?$LocalConvex@VConvexHullV@Gu@physx@@@12@AEBT__m128@@222AEAT5@33M@Z@4_NA 000000018029eb44     GuSweepSharedTests.obj
 0003:00004b45       ?_ignore@?BD@???$gjkRaycast@U?$RelativeConvex@VConvexHullV@Gu@physx@@@Gu@physx@@U?$LocalConvex@VConvexHullV@Gu@physx@@@23@@Gu@physx@@YA_NAEBU?$RelativeConvex@VConvexHullV@Gu@physx@@@12@AEBU?$LocalConvex@VConvexHullV@Gu@physx@@@12@AEBT__m128@@222AEAT5@33M@Z@4_NA 000000018029eb45     GuSweepSharedTests.obj
 0003:00004bc7       ?_ignore@?BD@???$gjkRaycast@U?$LocalConvex@VCapsuleV@Gu@physx@@@Gu@physx@@U?$LocalConvex@VBoxV@Gu@physx@@@23@@Gu@physx@@YA_NAEBU?$LocalConvex@VCapsuleV@Gu@physx@@@12@AEBU?$LocalConvex@VBoxV@Gu@physx@@@12@AEBT__m128@@222AEAT5@33M@Z@4_NA 000000018029ebc7     GuSweepTests.obj
 0003:00004bc8       ?_ignore@?BC@???$gjkPenetration@U?$LocalConvex@VCapsuleV@Gu@physx@@@Gu@physx@@U?$LocalConvex@VShrunkBoxV@Gu@physx@@@23@@Gu@physx@@YA?AW4GjkStatus@12@AEBU?$LocalConvex@VCapsuleV@Gu@physx@@@12@AEBU?$LocalConvex@VShrunkBoxV@Gu@physx@@@12@AEBT__m128@@2AEAT6@333PEIAE4AEAE_N@Z@4_NA 000000018029ebc8     GuSweepTests.obj
 0003:00004bc9       ?_ignore@?BI@???$gjkPenetration@U?$LocalConvex@VCapsuleV@Gu@physx@@@Gu@physx@@U?$LocalConvex@VShrunkBoxV@Gu@physx@@@23@@Gu@physx@@YA?AW4GjkStatus@12@AEBU?$LocalConvex@VCapsuleV@Gu@physx@@@12@AEBU?$LocalConvex@VShrunkBoxV@Gu@physx@@@12@AEBT__m128@@2AEAT6@333PEIAE4AEAE_N@Z@4_NA 000000018029ebc9     GuSweepTests.obj
 0003:00004bca       ?_ignore@?BM@???$gjkPenetration@U?$LocalConvex@VCapsuleV@Gu@physx@@@Gu@physx@@U?$LocalConvex@VShrunkBoxV@Gu@physx@@@23@@Gu@physx@@YA?AW4GjkStatus@12@AEBU?$LocalConvex@VCapsuleV@Gu@physx@@@12@AEBU?$LocalConvex@VShrunkBoxV@Gu@physx@@@12@AEBT__m128@@2AEAT6@333PEIAE4AEAE_N@Z@4_NA 000000018029ebca     GuSweepTests.obj
 0003:00004bcb       ?_ignore@?BD@???$gjkRaycast@U?$RelativeConvex@VBoxV@Gu@physx@@@Gu@physx@@U?$LocalConvex@VBoxV@Gu@physx@@@23@@Gu@physx@@YA_NAEBU?$RelativeConvex@VBoxV@Gu@physx@@@12@AEBU?$LocalConvex@VBoxV@Gu@physx@@@12@AEBT__m128@@222AEAT5@33M@Z@4_NA 000000018029ebcb     GuSweepTests.obj
 0003:00004bd0       __hmod__PxFoundationDEBUG_x64_dll 000000018029ebd0     PxFoundationDEBUG_x64:PxFoundationDEBUG_x64.dll
 0003:00004bd8       ?DloadKernel32@@3PEAUHINSTANCE__@@EA 000000018029ebd8     delayimp:delayhlp.obj
 0003:00004be0       ?DloadAcquireSRWLockExclusive@@3P6AXPEA_K@ZEA 000000018029ebe0     delayimp:delayhlp.obj
 0003:00004be8       ?DloadReleaseSRWLockExclusive@@3P6AXPEA_K@ZEA 000000018029ebe8     delayimp:delayhlp.obj
 0003:00004bf0       ?DloadSrwLock@@3_KA        000000018029ebf0     delayimp:delayhlp.obj
 0003:00004bf8       ?DloadSectionLockCount@@3KA 000000018029ebf8     delayimp:delayhlp.obj
 0003:00004bfc       ?DloadSectionOldProtection@@3KA 000000018029ebfc     delayimp:delayhlp.obj
 0003:00004c00       ?DloadSectionCommitPermanent@@3KA 000000018029ec00     delayimp:delayhlp.obj
 0003:00004c10       ?__type_info_root_node@@3U__type_info_node@@A 000000018029ec10     MSVCRTD:tncleanup.obj
 0003:00004c40       ?_OptionsStorage@?1??__local_stdio_printf_options@@9@4_KA 000000018029ec40     MSVCRTD:default_local_stdio_options.obj
 0003:00004c50       ?_OptionsStorage@?1??__local_stdio_scanf_options@@9@4_KA 000000018029ec50     MSVCRTD:default_local_stdio_options.obj
 0003:00004c60       __scrt_current_native_startup_state 000000018029ec60     MSVCRTD:utility.obj
 0003:00004c68       __scrt_native_startup_lock 000000018029ec68     MSVCRTD:utility.obj
 0003:00004cb0       __scrt_debugger_hook_flag  000000018029ecb0     MSVCRTD:utility_desktop.obj
 0003:00004cb4       __favor                    000000018029ecb4     MSVCRTD:_cpu_disp_.obj
 0003:00005358       __dyn_tls_init_callback    000000018029f358     <common>
 0005:00000000       __imp_LoadLibraryA         00000001802ae000     kernel32:KERNEL32.dll
 0005:00000008       __imp_FreeLibrary          00000001802ae008     kernel32:KERNEL32.dll
 0005:00000010       __imp_GetProcAddress       00000001802ae010     kernel32:KERNEL32.dll
 0005:00000018       __imp_GetCurrentProcess    00000001802ae018     kernel32:KERNEL32.dll
 0005:00000020       __imp_GetProcessHeap       00000001802ae020     kernel32:KERNEL32.dll
 0005:00000028       __imp_HeapFree             00000001802ae028     kernel32:KERNEL32.dll
 0005:00000030       __imp_HeapAlloc            00000001802ae030     kernel32:KERNEL32.dll
 0005:00000038       __imp_WideCharToMultiByte  00000001802ae038     kernel32:KERNEL32.dll
 0005:00000040       __imp_MultiByteToWideChar  00000001802ae040     kernel32:KERNEL32.dll
 0005:00000048       __imp_IsProcessorFeaturePresent 00000001802ae048     kernel32:KERNEL32.dll
 0005:00000050       __imp_GetStartupInfoW      00000001802ae050     kernel32:KERNEL32.dll
 0005:00000058       __imp_SetUnhandledExceptionFilter 00000001802ae058     kernel32:KERNEL32.dll
 0005:00000060       __imp_UnhandledExceptionFilter 00000001802ae060     kernel32:KERNEL32.dll
 0005:00000068       __imp_IsDebuggerPresent    00000001802ae068     kernel32:KERNEL32.dll
 0005:00000070       __imp_RtlVirtualUnwind     00000001802ae070     kernel32:KERNEL32.dll
 0005:00000078       __imp_RtlLookupFunctionEntry 00000001802ae078     kernel32:KERNEL32.dll
 0005:00000080       __imp_RtlCaptureContext    00000001802ae080     kernel32:KERNEL32.dll
 0005:00000088       __imp_DisableThreadLibraryCalls 00000001802ae088     kernel32:KERNEL32.dll
 0005:00000090       __imp_GetSystemTimeAsFileTime 00000001802ae090     kernel32:KERNEL32.dll
 0005:00000098       __imp_GetCurrentThreadId   00000001802ae098     kernel32:KERNEL32.dll
 0005:000000a0       __imp_GetCurrentProcessId  00000001802ae0a0     kernel32:KERNEL32.dll
 0005:000000a8       __imp_QueryPerformanceCounter 00000001802ae0a8     kernel32:KERNEL32.dll
 0005:000000b0       __imp_InitializeSListHead  00000001802ae0b0     kernel32:KERNEL32.dll
 0005:000000b8       __imp_LoadLibraryExA       00000001802ae0b8     kernel32:KERNEL32.dll
 0005:000000c0       __imp_GetModuleHandleW     00000001802ae0c0     kernel32:KERNEL32.dll
 0005:000000c8       __imp_VirtualQuery         00000001802ae0c8     kernel32:KERNEL32.dll
 0005:000000d0       __imp_VirtualProtect       00000001802ae0d0     kernel32:KERNEL32.dll
 0005:000000d8       __imp_GetSystemInfo        00000001802ae0d8     kernel32:KERNEL32.dll
 0005:000000e0       __imp_GetLastError         00000001802ae0e0     kernel32:KERNEL32.dll
 0005:000000e8       __imp_RaiseException       00000001802ae0e8     kernel32:KERNEL32.dll
 0005:000000f0       __imp_TerminateProcess     00000001802ae0f0     kernel32:KERNEL32.dll
 0005:000000f8       \177KERNEL32_NULL_THUNK_DATA 00000001802ae0f8     kernel32:KERNEL32.dll
 0005:00000180       __imp_memcpy               00000001802ae180     vcruntimed:VCRUNTIME140D.dll
 0005:00000188       __imp___std_type_info_name 00000001802ae188     vcruntimed:VCRUNTIME140D.dll
 0005:00000190       __imp_memset               00000001802ae190     vcruntimed:VCRUNTIME140D.dll
 0005:00000198       __imp_memcmp               00000001802ae198     vcruntimed:VCRUNTIME140D.dll
 0005:000001a0       __imp___std_type_info_destroy_list 00000001802ae1a0     vcruntimed:VCRUNTIME140D.dll
 0005:000001a8       __imp___C_specific_handler 00000001802ae1a8     vcruntimed:VCRUNTIME140D.dll
 0005:000001b0       __imp___vcrt_GetModuleFileNameW 00000001802ae1b0     vcruntimed:VCRUNTIME140D.dll
 0005:000001b8       __imp___vcrt_GetModuleHandleW 00000001802ae1b8     vcruntimed:VCRUNTIME140D.dll
 0005:000001c0       __imp___vcrt_LoadLibraryExW 00000001802ae1c0     vcruntimed:VCRUNTIME140D.dll
 0005:000001c8       __imp__purecall            00000001802ae1c8     vcruntimed:VCRUNTIME140D.dll
 0005:000001d0       __imp_strstr               00000001802ae1d0     vcruntimed:VCRUNTIME140D.dll
 0005:000001d8       \177VCRUNTIME140D_NULL_THUNK_DATA 00000001802ae1d8     vcruntimed:VCRUNTIME140D.dll
 0005:00000240       __imp__wsplitpath_s        00000001802ae240     ucrtd:ucrtbased.dll
 0005:00000248       __imp_wcscpy_s             00000001802ae248     ucrtd:ucrtbased.dll
 0005:00000250       __imp___stdio_common_vsprintf_s 00000001802ae250     ucrtd:ucrtbased.dll
 0005:00000258       __imp__initterm_e          00000001802ae258     ucrtd:ucrtbased.dll
 0005:00000260       __imp__initterm            00000001802ae260     ucrtd:ucrtbased.dll
 0005:00000268       __imp__free_dbg            00000001802ae268     ucrtd:ucrtbased.dll
 0005:00000270       __imp__CrtDbgReportW       00000001802ae270     ucrtd:ucrtbased.dll
 0005:00000278       __imp_strcat_s             00000001802ae278     ucrtd:ucrtbased.dll
 0005:00000280       __imp_floorf               00000001802ae280     ucrtd:ucrtbased.dll
 0005:00000288       __imp_ceilf                00000001802ae288     ucrtd:ucrtbased.dll
 0005:00000290       __imp_strcmp               00000001802ae290     ucrtd:ucrtbased.dll
 0005:00000298       __imp_strlen               00000001802ae298     ucrtd:ucrtbased.dll
 0005:000002a0       __imp_sinf                 00000001802ae2a0     ucrtd:ucrtbased.dll
 0005:000002a8       __imp_cosf                 00000001802ae2a8     ucrtd:ucrtbased.dll
 0005:000002b0       __imp_sqrtf                00000001802ae2b0     ucrtd:ucrtbased.dll
 0005:000002b8       __imp_fabs                 00000001802ae2b8     ucrtd:ucrtbased.dll
 0005:000002c0       __imp__fpclass             00000001802ae2c0     ucrtd:ucrtbased.dll
 0005:000002c8       __imp__wmakepath_s         00000001802ae2c8     ucrtd:ucrtbased.dll
 0005:000002d0       __imp_strcpy_s             00000001802ae2d0     ucrtd:ucrtbased.dll
 0005:000002d8       __imp_terminate            00000001802ae2d8     ucrtd:ucrtbased.dll
 0005:000002e0       __imp__cexit               00000001802ae2e0     ucrtd:ucrtbased.dll
 0005:000002e8       __imp__seh_filter_dll      00000001802ae2e8     ucrtd:ucrtbased.dll
 0005:000002f0       __imp__crt_atexit          00000001802ae2f0     ucrtd:ucrtbased.dll
 0005:000002f8       __imp__execute_onexit_table 00000001802ae2f8     ucrtd:ucrtbased.dll
 0005:00000300       __imp__register_onexit_function 00000001802ae300     ucrtd:ucrtbased.dll
 0005:00000308       __imp__initialize_onexit_table 00000001802ae308     ucrtd:ucrtbased.dll
 0005:00000310       __imp__initialize_narrow_environment 00000001802ae310     ucrtd:ucrtbased.dll
 0005:00000318       __imp__CrtDbgReport        00000001802ae318     ucrtd:ucrtbased.dll
 0005:00000320       __imp__configure_narrow_argv 00000001802ae320     ucrtd:ucrtbased.dll
 0005:00000328       __imp__crt_at_quick_exit   00000001802ae328     ucrtd:ucrtbased.dll
 0005:00000330       \177ucrtbased_NULL_THUNK_DATA 00000001802ae330     ucrtd:ucrtbased.dll
 0005:000003b8       __IMPORT_DESCRIPTOR_KERNEL32 00000001802ae3b8     kernel32:KERNEL32.dll
 0005:000003cc       __IMPORT_DESCRIPTOR_VCRUNTIME140D 00000001802ae3cc     vcruntimed:VCRUNTIME140D.dll
 0005:000003e0       __IMPORT_DESCRIPTOR_ucrtbased 00000001802ae3e0     ucrtd:ucrtbased.dll
 0005:000003f4       __NULL_IMPORT_DESCRIPTOR   00000001802ae3f4     kernel32:KERNEL32.dll
 0006:00000000       __DELAY_IMPORT_DESCRIPTOR_PxFoundationDEBUG_x64_dll 00000001802af000     PxFoundationDEBUG_x64:PxFoundationDEBUG_x64.dll
 0006:00000020       __NULL_DELAY_IMPORT_DESCRIPTOR 00000001802af020     PxFoundationDEBUG_x64:PxFoundationDEBUG_x64.dll
 0006:000000f8       \177PxFoundationDEBUG_x64_NULL_THUNK_DATA_DLN 00000001802af0f8     PxFoundationDEBUG_x64:PxFoundationDEBUG_x64.dll
 0006:00000170       __imp_??0NamedAllocator@shdfnd@physx@@QEAA@PEBD@Z 00000001802af170     PxFoundationDEBUG_x64:PxFoundationDEBUG_x64.dll
 0006:00000178       __imp_?unlock@MutexImpl@shdfnd@physx@@QEAAXXZ 00000001802af178     PxFoundationDEBUG_x64:PxFoundationDEBUG_x64.dll
 0006:00000180       __imp_?PxGetAssertHandler@physx@@YAAEAVPxAssertHandler@1@XZ 00000001802af180     PxFoundationDEBUG_x64:PxFoundationDEBUG_x64.dll
 0006:00000188       __imp_?getAllocator@shdfnd@physx@@YAAEAVPxAllocatorCallback@2@XZ 00000001802af188     PxFoundationDEBUG_x64:PxFoundationDEBUG_x64.dll
 0006:00000190       __imp_??1NamedAllocator@shdfnd@physx@@QEAA@XZ 00000001802af190     PxFoundationDEBUG_x64:PxFoundationDEBUG_x64.dll
 0006:00000198       __imp_?allocate@NamedAllocator@shdfnd@physx@@QEAAPEAX_KPEBDH@Z 00000001802af198     PxFoundationDEBUG_x64:PxFoundationDEBUG_x64.dll
 0006:000001a0       __imp_?deallocate@NamedAllocator@shdfnd@physx@@QEAAXPEAX@Z 00000001802af1a0     PxFoundationDEBUG_x64:PxFoundationDEBUG_x64.dll
 0006:000001a8       __imp_PxGetFoundation      00000001802af1a8     PxFoundationDEBUG_x64:PxFoundationDEBUG_x64.dll
 0006:000001b0       __imp_?getInstance@Foundation@shdfnd@physx@@SAAEAV123@XZ 00000001802af1b0     PxFoundationDEBUG_x64:PxFoundationDEBUG_x64.dll
 0006:000001b8       __imp_?error@Foundation@shdfnd@physx@@QEAAXW4Enum@PxErrorCode@3@PEBDH1ZZ 00000001802af1b8     PxFoundationDEBUG_x64:PxFoundationDEBUG_x64.dll
 0006:000001c0       __imp_?PxShortestRotation@physx@@YA?AVPxQuat@1@AEBVPxVec3@1@0@Z 00000001802af1c0     PxFoundationDEBUG_x64:PxFoundationDEBUG_x64.dll
 0006:000001c8       __imp_?vsnprintf@shdfnd@physx@@YAHPEAD_KPEBD0@Z 00000001802af1c8     PxFoundationDEBUG_x64:PxFoundationDEBUG_x64.dll
 0006:000001d0       __imp_?optimizeBoundingBox@shdfnd@physx@@YA?AVPxVec3@2@AEAVPxMat33@2@@Z 00000001802af1d0     PxFoundationDEBUG_x64:PxFoundationDEBUG_x64.dll
 0006:000001d8       __imp_??0NamedAllocator@shdfnd@physx@@QEAA@AEBV012@@Z 00000001802af1d8     PxFoundationDEBUG_x64:PxFoundationDEBUG_x64.dll
 0006:000001e0       __imp_?allocate@TempAllocator@shdfnd@physx@@QEAAPEAX_KPEBDH@Z 00000001802af1e0     PxFoundationDEBUG_x64:PxFoundationDEBUG_x64.dll
 0006:000001e8       __imp_?deallocate@TempAllocator@shdfnd@physx@@QEAAXPEAX@Z 00000001802af1e8     PxFoundationDEBUG_x64:PxFoundationDEBUG_x64.dll
 0006:000001f0       __imp_?atomicIncrement@shdfnd@physx@@YAHPECH@Z 00000001802af1f0     PxFoundationDEBUG_x64:PxFoundationDEBUG_x64.dll
 0006:000001f8       __imp_?atomicDecrement@shdfnd@physx@@YAHPECH@Z 00000001802af1f8     PxFoundationDEBUG_x64:PxFoundationDEBUG_x64.dll
 0006:00000200       __imp_PxGetProfilerCallback 00000001802af200     PxFoundationDEBUG_x64:PxFoundationDEBUG_x64.dll
 0006:00000208       __imp_??0MutexImpl@shdfnd@physx@@QEAA@XZ 00000001802af208     PxFoundationDEBUG_x64:PxFoundationDEBUG_x64.dll
 0006:00000210       __imp_??1MutexImpl@shdfnd@physx@@QEAA@XZ 00000001802af210     PxFoundationDEBUG_x64:PxFoundationDEBUG_x64.dll
 0006:00000218       __imp_?lock@MutexImpl@shdfnd@physx@@QEAAXXZ 00000001802af218     PxFoundationDEBUG_x64:PxFoundationDEBUG_x64.dll
 0006:00000220       __imp_?getSize@MutexImpl@shdfnd@physx@@SAAEBIXZ 00000001802af220     PxFoundationDEBUG_x64:PxFoundationDEBUG_x64.dll
 0006:00000228       \177PxFoundationDEBUG_x64_NULL_THUNK_DATA_DLA 00000001802af228     PxFoundationDEBUG_x64:PxFoundationDEBUG_x64.dll
 0006:00000870       \177PxFoundationDEBUG_x64_NULL_THUNK_DATA_DLB 00000001802af870     PxFoundationDEBUG_x64:PxFoundationDEBUG_x64.dll
 0007:00000000       __guard_check_icall_fptr   00000001802b0000     MSVCRTD:guard_support.obj
 0007:00000010       __guard_dispatch_icall_fptr 00000001802b0010     MSVCRTD:guard_support.obj
 0007:00000020       __guard_ss_verify_failure_fptr 00000001802b0020     MSVCRTD:guard_support.obj
 0007:00000030       __guard_ss_verify_sp_fptr  00000001802b0030     MSVCRTD:guard_support.obj
